ARM GAS  C:\Users\bogur\AppData\Local\Temp\cc4t6lFa.s 			page 1


   1              		.syntax unified
   2              		.cpu cortex-m4
   3              		.eabi_attribute 27, 1
   4              		.fpu fpv4-sp-d16
   5              		.eabi_attribute 20, 1
   6              		.eabi_attribute 21, 1
   7              		.eabi_attribute 23, 3
   8              		.eabi_attribute 24, 1
   9              		.eabi_attribute 25, 1
  10              		.eabi_attribute 26, 1
  11              		.eabi_attribute 30, 1
  12              		.eabi_attribute 34, 1
  13              		.eabi_attribute 18, 4
  14              		.thumb
  15              		.syntax unified
  16              		.file	"fft.c"
  17              		.text
  18              	.Ltext0:
  19              		.cfi_sections	.debug_frame
  20              		.section	.text.compute_fft_betas,"ax",%progbits
  21              		.align	2
  22              		.thumb
  23              		.thumb_func
  24              		.type	compute_fft_betas, %function
  25              	compute_fft_betas:
  26              	.LFB0:
  27              		.file 1 "..\\fft.c"
   1:..\fft.c      **** #include "fft.h"
   2:..\fft.c      **** #include "gf.h"
   3:..\fft.c      **** #include "parameters.h"
   4:..\fft.c      **** #include <stdint.h>
   5:..\fft.c      **** #include <string.h>
   6:..\fft.c      **** /**
   7:..\fft.c      ****  * @file fft.c
   8:..\fft.c      ****  * @brief Implementation of the additive FFT and its transpose.
   9:..\fft.c      ****  * This implementation is based on the paper from Gao and Mateer: <br>
  10:..\fft.c      ****  * Shuhong Gao and Todd Mateer, Additive Fast Fourier Transforms over Finite Fields,
  11:..\fft.c      ****  * IEEE Transactions on Information Theory 56 (2010), 6265--6272.
  12:..\fft.c      ****  * http://www.math.clemson.edu/~sgao/papers/GM10.pdf <br>
  13:..\fft.c      ****  * and includes improvements proposed by Bernstein, Chou and Schwabe here:
  14:..\fft.c      ****  * https://binary.cr.yp.to/mcbits-20130616.pdf
  15:..\fft.c      ****  */
  16:..\fft.c      **** 
  17:..\fft.c      **** 
  18:..\fft.c      **** static void radix_big(uint16_t *f0, uint16_t *f1, const uint16_t *f, uint32_t m_f);
  19:..\fft.c      **** 
  20:..\fft.c      **** /**
  21:..\fft.c      ****  * @brief Computes the basis of betas (omitting 1) used in the additive FFT and its transpose
  22:..\fft.c      ****  *
  23:..\fft.c      ****  * @param[out] betas Array of size PARAM_M-1
  24:..\fft.c      ****  */
  25:..\fft.c      **** static void compute_fft_betas(uint16_t *betas) {
  28              		.loc 1 25 0
  29              		.cfi_startproc
  30              		@ args = 0, pretend = 0, frame = 0
  31              		@ frame_needed = 0, uses_anonymous_args = 0
  32              		@ link register save eliminated.
ARM GAS  C:\Users\bogur\AppData\Local\Temp\cc4t6lFa.s 			page 2


  33              	.LVL0:
  26:..\fft.c      ****     size_t i;
  27:..\fft.c      ****     for (i = 0; i < PARAM_M - 1; ++i) {
  34              		.loc 1 27 0
  35 0000 0023     		movs	r3, #0
  36 0002 06E0     		b	.L2
  37              	.LVL1:
  38              	.L3:
  28:..\fft.c      ****         betas[i] = 1 << (PARAM_M - 1 - i);
  39              		.loc 1 28 0 discriminator 3
  40 0004 C3F10701 		rsb	r1, r3, #7
  41 0008 0122     		movs	r2, #1
  42 000a 8A40     		lsls	r2, r2, r1
  43 000c 20F81320 		strh	r2, [r0, r3, lsl #1]	@ movhi
  27:..\fft.c      ****         betas[i] = 1 << (PARAM_M - 1 - i);
  44              		.loc 1 27 0 discriminator 3
  45 0010 0133     		adds	r3, r3, #1
  46              	.LVL2:
  47              	.L2:
  27:..\fft.c      ****         betas[i] = 1 << (PARAM_M - 1 - i);
  48              		.loc 1 27 0 is_stmt 0 discriminator 1
  49 0012 062B     		cmp	r3, #6
  50 0014 F6D9     		bls	.L3
  29:..\fft.c      ****     }
  30:..\fft.c      **** }
  51              		.loc 1 30 0 is_stmt 1
  52 0016 7047     		bx	lr
  53              		.cfi_endproc
  54              	.LFE0:
  55              		.size	compute_fft_betas, .-compute_fft_betas
  56              		.section	.text.compute_subset_sums,"ax",%progbits
  57              		.align	2
  58              		.thumb
  59              		.thumb_func
  60              		.type	compute_subset_sums, %function
  61              	compute_subset_sums:
  62              	.LFB1:
  31:..\fft.c      **** 
  32:..\fft.c      **** 
  33:..\fft.c      **** 
  34:..\fft.c      **** /**
  35:..\fft.c      ****  * @brief Computes the subset sums of the given set
  36:..\fft.c      ****  *
  37:..\fft.c      ****  * The array subset_sums is such that its ith element is
  38:..\fft.c      ****  * the subset sum of the set elements given by the binary form of i.
  39:..\fft.c      ****  *
  40:..\fft.c      ****  * @param[out] subset_sums Array of size 2^set_size receiving the subset sums
  41:..\fft.c      ****  * @param[in] set Array of set_size elements
  42:..\fft.c      ****  * @param[in] set_size Size of the array set
  43:..\fft.c      ****  */
  44:..\fft.c      **** static void compute_subset_sums(uint16_t *subset_sums, const uint16_t *set, uint16_t set_size) {
  63              		.loc 1 44 0
  64              		.cfi_startproc
  65              		@ args = 0, pretend = 0, frame = 0
  66              		@ frame_needed = 0, uses_anonymous_args = 0
  67              		@ link register save eliminated.
  68              	.LVL3:
ARM GAS  C:\Users\bogur\AppData\Local\Temp\cc4t6lFa.s 			page 3


  69 0000 F0B4     		push	{r4, r5, r6, r7}
  70              		.cfi_def_cfa_offset 16
  71              		.cfi_offset 4, -16
  72              		.cfi_offset 5, -12
  73              		.cfi_offset 6, -8
  74              		.cfi_offset 7, -4
  45:..\fft.c      ****     uint16_t i, j;
  46:..\fft.c      ****     subset_sums[0] = 0;
  75              		.loc 1 46 0
  76 0002 0026     		movs	r6, #0
  77 0004 0680     		strh	r6, [r0]	@ movhi
  78              	.LVL4:
  47:..\fft.c      **** 
  48:..\fft.c      ****     for (i = 0; i < set_size; ++i) {
  79              		.loc 1 48 0
  80 0006 11E0     		b	.L5
  81              	.LVL5:
  82              	.L6:
  49:..\fft.c      ****         for (j = 0; j < (1 << i); ++j) {
  50:..\fft.c      ****             subset_sums[(1 << i) + j] = set[i] ^ subset_sums[j];
  83              		.loc 1 50 0 discriminator 3
  84 0008 2344     		add	r3, r3, r4
  85 000a 31F81670 		ldrh	r7, [r1, r6, lsl #1]
  86 000e 30F81450 		ldrh	r5, [r0, r4, lsl #1]
  87 0012 7D40     		eors	r5, r5, r7
  88 0014 20F81350 		strh	r5, [r0, r3, lsl #1]	@ movhi
  49:..\fft.c      ****         for (j = 0; j < (1 << i); ++j) {
  89              		.loc 1 49 0 discriminator 3
  90 0018 0134     		adds	r4, r4, #1
  91              	.LVL6:
  92 001a A4B2     		uxth	r4, r4
  93              	.LVL7:
  94 001c 00E0     		b	.L7
  95              	.LVL8:
  96              	.L8:
  97 001e 0024     		movs	r4, #0
  98              	.L7:
  99              	.LVL9:
  49:..\fft.c      ****         for (j = 0; j < (1 << i); ++j) {
 100              		.loc 1 49 0 is_stmt 0 discriminator 1
 101 0020 0123     		movs	r3, #1
 102 0022 B340     		lsls	r3, r3, r6
 103 0024 9C42     		cmp	r4, r3
 104 0026 EFDB     		blt	.L6
  48:..\fft.c      ****         for (j = 0; j < (1 << i); ++j) {
 105              		.loc 1 48 0 is_stmt 1 discriminator 2
 106 0028 0136     		adds	r6, r6, #1
 107              	.LVL10:
 108 002a B6B2     		uxth	r6, r6
 109              	.LVL11:
 110              	.L5:
  48:..\fft.c      ****         for (j = 0; j < (1 << i); ++j) {
 111              		.loc 1 48 0 is_stmt 0 discriminator 1
 112 002c 9642     		cmp	r6, r2
 113 002e F6D3     		bcc	.L8
  51:..\fft.c      ****         }
  52:..\fft.c      ****     }
ARM GAS  C:\Users\bogur\AppData\Local\Temp\cc4t6lFa.s 			page 4


  53:..\fft.c      **** }
 114              		.loc 1 53 0 is_stmt 1
 115 0030 F0BC     		pop	{r4, r5, r6, r7}
 116              		.cfi_restore 7
 117              		.cfi_restore 6
 118              		.cfi_restore 5
 119              		.cfi_restore 4
 120              		.cfi_def_cfa_offset 0
 121              	.LVL12:
 122 0032 7047     		bx	lr
 123              		.cfi_endproc
 124              	.LFE1:
 125              		.size	compute_subset_sums, .-compute_subset_sums
 126              		.section	.text.radix_big,"ax",%progbits
 127              		.align	2
 128              		.thumb
 129              		.thumb_func
 130              		.type	radix_big, %function
 131              	radix_big:
 132              	.LFB3:
  54:..\fft.c      **** 
  55:..\fft.c      **** 
  56:..\fft.c      **** 
  57:..\fft.c      **** /**
  58:..\fft.c      ****  * @brief Computes the radix conversion of a polynomial f in GF(2^m)[x]
  59:..\fft.c      ****  *
  60:..\fft.c      ****  * Computes f0 and f1 such that f(x) = f0(x^2-x) + x.f1(x^2-x)
  61:..\fft.c      ****  * as proposed by Bernstein, Chou and Schwabe:
  62:..\fft.c      ****  * https://binary.cr.yp.to/mcbits-20130616.pdf
  63:..\fft.c      ****  *
  64:..\fft.c      ****  * @param[out] f0 Array half the size of f
  65:..\fft.c      ****  * @param[out] f1 Array half the size of f
  66:..\fft.c      ****  * @param[in] f Array of size a power of 2
  67:..\fft.c      ****  * @param[in] m_f 2^{m_f} is the smallest power of 2 greater or equal to the number of coefficients
  68:..\fft.c      ****  */
  69:..\fft.c      **** static void radix(uint16_t *f0, uint16_t *f1, const uint16_t *f, uint32_t m_f) {
  70:..\fft.c      ****     switch (m_f) {
  71:..\fft.c      ****     case 4:
  72:..\fft.c      ****         f0[4] = f[8] ^ f[12];
  73:..\fft.c      ****         f0[6] = f[12] ^ f[14];
  74:..\fft.c      ****         f0[7] = f[14] ^ f[15];
  75:..\fft.c      ****         f1[5] = f[11] ^ f[13];
  76:..\fft.c      ****         f1[6] = f[13] ^ f[14];
  77:..\fft.c      ****         f1[7] = f[15];
  78:..\fft.c      ****         f0[5] = f[10] ^ f[12] ^ f1[5];
  79:..\fft.c      ****         f1[4] = f[9] ^ f[13] ^ f0[5];
  80:..\fft.c      **** 
  81:..\fft.c      ****         f0[0] = f[0];
  82:..\fft.c      ****         f1[3] = f[7] ^ f[11] ^ f[15];
  83:..\fft.c      ****         f0[3] = f[6] ^ f[10] ^ f[14] ^ f1[3];
  84:..\fft.c      ****         f0[2] = f[4] ^ f0[4] ^ f0[3] ^ f1[3];
  85:..\fft.c      ****         f1[1] = f[3] ^ f[5] ^ f[9] ^ f[13] ^ f1[3];
  86:..\fft.c      ****         f1[2] = f[3] ^ f1[1] ^ f0[3];
  87:..\fft.c      ****         f0[1] = f[2] ^ f0[2] ^ f1[1];
  88:..\fft.c      ****         f1[0] = f[1] ^ f0[1];
  89:..\fft.c      ****         break;
  90:..\fft.c      **** 
ARM GAS  C:\Users\bogur\AppData\Local\Temp\cc4t6lFa.s 			page 5


  91:..\fft.c      ****     case 3:
  92:..\fft.c      ****         f0[0] = f[0];
  93:..\fft.c      ****         f0[2] = f[4] ^ f[6];
  94:..\fft.c      ****         f0[3] = f[6] ^ f[7];
  95:..\fft.c      ****         f1[1] = f[3] ^ f[5] ^ f[7];
  96:..\fft.c      ****         f1[2] = f[5] ^ f[6];
  97:..\fft.c      ****         f1[3] = f[7];
  98:..\fft.c      ****         f0[1] = f[2] ^ f0[2] ^ f1[1];
  99:..\fft.c      ****         f1[0] = f[1] ^ f0[1];
 100:..\fft.c      ****         break;
 101:..\fft.c      **** 
 102:..\fft.c      ****     case 2:
 103:..\fft.c      ****         f0[0] = f[0];
 104:..\fft.c      ****         f0[1] = f[2] ^ f[3];
 105:..\fft.c      ****         f1[0] = f[1] ^ f0[1];
 106:..\fft.c      ****         f1[1] = f[3];
 107:..\fft.c      ****         break;
 108:..\fft.c      **** 
 109:..\fft.c      ****     case 1:
 110:..\fft.c      ****         f0[0] = f[0];
 111:..\fft.c      ****         f1[0] = f[1];
 112:..\fft.c      ****         break;
 113:..\fft.c      **** 
 114:..\fft.c      ****     default:
 115:..\fft.c      ****         radix_big(f0, f1, f, m_f);
 116:..\fft.c      ****         break;
 117:..\fft.c      ****     }
 118:..\fft.c      **** }
 119:..\fft.c      **** 
 120:..\fft.c      **** static void radix_big(uint16_t *f0, uint16_t *f1, const uint16_t *f, uint32_t m_f) {
 133              		.loc 1 120 0
 134              		.cfi_startproc
 135              		@ args = 0, pretend = 0, frame = 144
 136              		@ frame_needed = 0, uses_anonymous_args = 0
 137              	.LVL13:
 138 0000 2DE9F04F 		push	{r4, r5, r6, r7, r8, r9, r10, fp, lr}
 139              		.cfi_def_cfa_offset 36
 140              		.cfi_offset 4, -36
 141              		.cfi_offset 5, -32
 142              		.cfi_offset 6, -28
 143              		.cfi_offset 7, -24
 144              		.cfi_offset 8, -20
 145              		.cfi_offset 9, -16
 146              		.cfi_offset 10, -12
 147              		.cfi_offset 11, -8
 148              		.cfi_offset 14, -4
 149 0004 A5B0     		sub	sp, sp, #148
 150              		.cfi_def_cfa_offset 184
 151 0006 8346     		mov	fp, r0
 152 0008 0191     		str	r1, [sp, #4]
 153 000a 1646     		mov	r6, r2
 154 000c 9946     		mov	r9, r3
 121:..\fft.c      ****     uint16_t Q[2 * (1 << (PARAM_FFT - 2)) + 1] = {0};
 155              		.loc 1 121 0
 156 000e 2224     		movs	r4, #34
 157 0010 2246     		mov	r2, r4
 158              	.LVL14:
ARM GAS  C:\Users\bogur\AppData\Local\Temp\cc4t6lFa.s 			page 6


 159 0012 0021     		movs	r1, #0
 160              	.LVL15:
 161 0014 1BA8     		add	r0, sp, #108
 162              	.LVL16:
 163 0016 FFF7FEFF 		bl	memset
 164              	.LVL17:
 122:..\fft.c      ****     uint16_t R[2 * (1 << (PARAM_FFT - 2)) + 1] = {0};
 165              		.loc 1 122 0
 166 001a 2246     		mov	r2, r4
 167 001c 0021     		movs	r1, #0
 168 001e 12A8     		add	r0, sp, #72
 169 0020 FFF7FEFF 		bl	memset
 170              	.LVL18:
 123:..\fft.c      **** 
 124:..\fft.c      ****     uint16_t Q0[1 << (PARAM_FFT - 2)] = {0};
 171              		.loc 1 124 0
 172 0024 0024     		movs	r4, #0
 173 0026 0E94     		str	r4, [sp, #56]
 174 0028 0F94     		str	r4, [sp, #60]
 175 002a 1094     		str	r4, [sp, #64]
 176 002c 1194     		str	r4, [sp, #68]
 125:..\fft.c      ****     uint16_t Q1[1 << (PARAM_FFT - 2)] = {0};
 177              		.loc 1 125 0
 178 002e 0A94     		str	r4, [sp, #40]
 179 0030 0B94     		str	r4, [sp, #44]
 180 0032 0C94     		str	r4, [sp, #48]
 181 0034 0D94     		str	r4, [sp, #52]
 126:..\fft.c      ****     uint16_t R0[1 << (PARAM_FFT - 2)] = {0};
 182              		.loc 1 126 0
 183 0036 0694     		str	r4, [sp, #24]
 184 0038 0794     		str	r4, [sp, #28]
 185 003a 0894     		str	r4, [sp, #32]
 186 003c 0994     		str	r4, [sp, #36]
 127:..\fft.c      ****     uint16_t R1[1 << (PARAM_FFT - 2)] = {0};
 187              		.loc 1 127 0
 188 003e 0294     		str	r4, [sp, #8]
 189 0040 0394     		str	r4, [sp, #12]
 190 0042 0494     		str	r4, [sp, #16]
 191 0044 0594     		str	r4, [sp, #20]
 192              	.LVL19:
 128:..\fft.c      **** 
 129:..\fft.c      ****     size_t i, n;
 130:..\fft.c      **** 
 131:..\fft.c      ****     n = 1;
 132:..\fft.c      ****     n <<= (m_f - 2);
 193              		.loc 1 132 0
 194 0046 A9F10203 		sub	r3, r9, #2
 195 004a 0125     		movs	r5, #1
 196 004c 9D40     		lsls	r5, r5, r3
 197              	.LVL20:
 133:..\fft.c      ****     memcpy(Q, f + 3 * n, 2 * n);
 198              		.loc 1 133 0
 199 004e 4FEA4508 		lsl	r8, r5, #1
 200 0052 08EB0503 		add	r3, r8, r5
 201 0056 4FEA430A 		lsl	r10, r3, #1
 202 005a B244     		add	r10, r10, r6
 203 005c 4746     		mov	r7, r8
ARM GAS  C:\Users\bogur\AppData\Local\Temp\cc4t6lFa.s 			page 7


 204 005e 4246     		mov	r2, r8
 205 0060 5146     		mov	r1, r10
 206 0062 1BA8     		add	r0, sp, #108
 207 0064 FFF7FEFF 		bl	memcpy
 208              	.LVL21:
 134:..\fft.c      ****     memcpy(Q + n, f + 3 * n, 2 * n);
 209              		.loc 1 134 0
 210 0068 4246     		mov	r2, r8
 211 006a 5146     		mov	r1, r10
 212 006c 1BAB     		add	r3, sp, #108
 213 006e 03EB0800 		add	r0, r3, r8
 214 0072 FFF7FEFF 		bl	memcpy
 215              	.LVL22:
 135:..\fft.c      ****     memcpy(R, f, 4 * n);
 216              		.loc 1 135 0
 217 0076 AA00     		lsls	r2, r5, #2
 218 0078 3146     		mov	r1, r6
 219 007a 12A8     		add	r0, sp, #72
 220 007c FFF7FEFF 		bl	memcpy
 221              	.LVL23:
 136:..\fft.c      **** 
 137:..\fft.c      ****     for (i = 0; i < n; ++i) {
 222              		.loc 1 137 0
 223 0080 15E0     		b	.L11
 224              	.LVL24:
 225              	.L12:
 138:..\fft.c      ****         Q[i] ^= f[2 * n + i];
 226              		.loc 1 138 0 discriminator 3
 227 0082 E319     		adds	r3, r4, r7
 228 0084 36F81310 		ldrh	r1, [r6, r3, lsl #1]
 229 0088 24AB     		add	r3, sp, #144
 230 008a 03EB4402 		add	r2, r3, r4, lsl #1
 231 008e 32F8243C 		ldrh	r3, [r2, #-36]
 232 0092 4B40     		eors	r3, r3, r1
 233 0094 9BB2     		uxth	r3, r3
 234 0096 22F8243C 		strh	r3, [r2, #-36]	@ movhi
 139:..\fft.c      ****         R[n + i] ^= Q[i];
 235              		.loc 1 139 0 discriminator 3
 236 009a 6219     		adds	r2, r4, r5
 237 009c 24A9     		add	r1, sp, #144
 238 009e 01EB4202 		add	r2, r1, r2, lsl #1
 239 00a2 32F8481C 		ldrh	r1, [r2, #-72]
 240 00a6 4B40     		eors	r3, r3, r1
 241 00a8 22F8483C 		strh	r3, [r2, #-72]	@ movhi
 137:..\fft.c      ****         Q[i] ^= f[2 * n + i];
 242              		.loc 1 137 0 discriminator 3
 243 00ac 0134     		adds	r4, r4, #1
 244              	.LVL25:
 245              	.L11:
 137:..\fft.c      ****         Q[i] ^= f[2 * n + i];
 246              		.loc 1 137 0 is_stmt 0 discriminator 1
 247 00ae AC42     		cmp	r4, r5
 248 00b0 E7D3     		bcc	.L12
 140:..\fft.c      ****     }
 141:..\fft.c      **** 
 142:..\fft.c      ****     radix(Q0, Q1, Q, m_f - 1);
 249              		.loc 1 142 0 is_stmt 1
ARM GAS  C:\Users\bogur\AppData\Local\Temp\cc4t6lFa.s 			page 8


 250 00b2 09F1FF39 		add	r9, r9, #-1
 251              	.LVL26:
 252 00b6 4B46     		mov	r3, r9
 253 00b8 1BAA     		add	r2, sp, #108
 254 00ba 0AA9     		add	r1, sp, #40
 255 00bc 0EA8     		add	r0, sp, #56
 256 00be FFF7FEFF 		bl	radix
 257              	.LVL27:
 143:..\fft.c      ****     radix(R0, R1, R, m_f - 1);
 258              		.loc 1 143 0
 259 00c2 4B46     		mov	r3, r9
 260 00c4 12AA     		add	r2, sp, #72
 261 00c6 02A9     		add	r1, sp, #8
 262 00c8 06A8     		add	r0, sp, #24
 263 00ca FFF7FEFF 		bl	radix
 264              	.LVL28:
 144:..\fft.c      **** 
 145:..\fft.c      ****     memcpy(f0, R0, 2 * n);
 265              		.loc 1 145 0
 266 00ce 4246     		mov	r2, r8
 267 00d0 06A9     		add	r1, sp, #24
 268 00d2 5846     		mov	r0, fp
 269 00d4 FFF7FEFF 		bl	memcpy
 270              	.LVL29:
 146:..\fft.c      ****     memcpy(f0 + n, Q0, 2 * n);
 271              		.loc 1 146 0
 272 00d8 4246     		mov	r2, r8
 273 00da 0EA9     		add	r1, sp, #56
 274 00dc 0BEB0800 		add	r0, fp, r8
 275 00e0 FFF7FEFF 		bl	memcpy
 276              	.LVL30:
 147:..\fft.c      ****     memcpy(f1, R1, 2 * n);
 277              		.loc 1 147 0
 278 00e4 4246     		mov	r2, r8
 279 00e6 02A9     		add	r1, sp, #8
 280 00e8 019C     		ldr	r4, [sp, #4]
 281              	.LVL31:
 282 00ea 2046     		mov	r0, r4
 283 00ec FFF7FEFF 		bl	memcpy
 284              	.LVL32:
 148:..\fft.c      ****     memcpy(f1 + n, Q1, 2 * n);
 285              		.loc 1 148 0
 286 00f0 4246     		mov	r2, r8
 287 00f2 0AA9     		add	r1, sp, #40
 288 00f4 2346     		mov	r3, r4
 289 00f6 4344     		add	r3, r3, r8
 290 00f8 1846     		mov	r0, r3
 291 00fa FFF7FEFF 		bl	memcpy
 292              	.LVL33:
 149:..\fft.c      **** }
 293              		.loc 1 149 0
 294 00fe 25B0     		add	sp, sp, #148
 295              		.cfi_def_cfa_offset 36
 296              		@ sp needed
 297 0100 BDE8F08F 		pop	{r4, r5, r6, r7, r8, r9, r10, fp, pc}
 298              		.cfi_endproc
 299              	.LFE3:
ARM GAS  C:\Users\bogur\AppData\Local\Temp\cc4t6lFa.s 			page 9


 300              		.size	radix_big, .-radix_big
 301              		.section	.text.radix,"ax",%progbits
 302              		.align	2
 303              		.thumb
 304              		.thumb_func
 305              		.type	radix, %function
 306              	radix:
 307              	.LFB2:
  69:..\fft.c      ****     switch (m_f) {
 308              		.loc 1 69 0
 309              		.cfi_startproc
 310              		@ args = 0, pretend = 0, frame = 0
 311              		@ frame_needed = 0, uses_anonymous_args = 0
 312              	.LVL34:
 313 0000 F8B5     		push	{r3, r4, r5, r6, r7, lr}
 314              		.cfi_def_cfa_offset 24
 315              		.cfi_offset 3, -24
 316              		.cfi_offset 4, -20
 317              		.cfi_offset 5, -16
 318              		.cfi_offset 6, -12
 319              		.cfi_offset 7, -8
 320              		.cfi_offset 14, -4
  70:..\fft.c      ****     case 4:
 321              		.loc 1 70 0
 322 0002 5C1E     		subs	r4, r3, #1
 323 0004 032C     		cmp	r4, #3
 324 0006 00F28580 		bhi	.L15
 325 000a DFE804F0 		tbb	[pc, r4]
 326              	.L17:
 327 000e 7E       		.byte	(.L16-.L17)/2
 328 000f 72       		.byte	(.L18-.L17)/2
 329 0010 52       		.byte	(.L19-.L17)/2
 330 0011 02       		.byte	(.L20-.L17)/2
 331              		.p2align 1
 332              	.L20:
  72:..\fft.c      ****         f0[6] = f[12] ^ f[14];
 333              		.loc 1 72 0
 334 0012 148A     		ldrh	r4, [r2, #16]
 335 0014 138B     		ldrh	r3, [r2, #24]
 336              	.LVL35:
 337 0016 6340     		eors	r3, r3, r4
 338 0018 0381     		strh	r3, [r0, #8]	@ movhi
  73:..\fft.c      ****         f0[7] = f[14] ^ f[15];
 339              		.loc 1 73 0
 340 001a 148B     		ldrh	r4, [r2, #24]
 341 001c 938B     		ldrh	r3, [r2, #28]
 342 001e 6340     		eors	r3, r3, r4
 343 0020 8381     		strh	r3, [r0, #12]	@ movhi
  74:..\fft.c      ****         f1[5] = f[11] ^ f[13];
 344              		.loc 1 74 0
 345 0022 948B     		ldrh	r4, [r2, #28]
 346 0024 D38B     		ldrh	r3, [r2, #30]
 347 0026 6340     		eors	r3, r3, r4
 348 0028 C381     		strh	r3, [r0, #14]	@ movhi
  75:..\fft.c      ****         f1[6] = f[13] ^ f[14];
 349              		.loc 1 75 0
 350 002a D58A     		ldrh	r5, [r2, #22]
ARM GAS  C:\Users\bogur\AppData\Local\Temp\cc4t6lFa.s 			page 10


 351 002c 538B     		ldrh	r3, [r2, #26]
 352 002e 5D40     		eors	r5, r5, r3
 353 0030 4D81     		strh	r5, [r1, #10]	@ movhi
  76:..\fft.c      ****         f1[7] = f[15];
 354              		.loc 1 76 0
 355 0032 548B     		ldrh	r4, [r2, #26]
 356 0034 938B     		ldrh	r3, [r2, #28]
 357 0036 6340     		eors	r3, r3, r4
 358 0038 8B81     		strh	r3, [r1, #12]	@ movhi
  77:..\fft.c      ****         f0[5] = f[10] ^ f[12] ^ f1[5];
 359              		.loc 1 77 0
 360 003a D38B     		ldrh	r3, [r2, #30]
 361 003c CB81     		strh	r3, [r1, #14]	@ movhi
  78:..\fft.c      ****         f1[4] = f[9] ^ f[13] ^ f0[5];
 362              		.loc 1 78 0
 363 003e 938A     		ldrh	r3, [r2, #20]
 364 0040 148B     		ldrh	r4, [r2, #24]
 365 0042 6340     		eors	r3, r3, r4
 366 0044 6B40     		eors	r3, r3, r5
 367 0046 4381     		strh	r3, [r0, #10]	@ movhi
  79:..\fft.c      **** 
 368              		.loc 1 79 0
 369 0048 558A     		ldrh	r5, [r2, #18]
 370 004a 548B     		ldrh	r4, [r2, #26]
 371 004c 6C40     		eors	r4, r4, r5
 372 004e 6340     		eors	r3, r3, r4
 373 0050 0B81     		strh	r3, [r1, #8]	@ movhi
  81:..\fft.c      ****         f1[3] = f[7] ^ f[11] ^ f[15];
 374              		.loc 1 81 0
 375 0052 1388     		ldrh	r3, [r2]
 376 0054 0380     		strh	r3, [r0]	@ movhi
  82:..\fft.c      ****         f0[3] = f[6] ^ f[10] ^ f[14] ^ f1[3];
 377              		.loc 1 82 0
 378 0056 D389     		ldrh	r3, [r2, #14]
 379 0058 D48A     		ldrh	r4, [r2, #22]
 380 005a D68B     		ldrh	r6, [r2, #30]
 381 005c 6340     		eors	r3, r3, r4
 382 005e 86EA0305 		eor	r5, r6, r3
 383 0062 CD80     		strh	r5, [r1, #6]	@ movhi
  83:..\fft.c      ****         f0[2] = f[4] ^ f0[4] ^ f0[3] ^ f1[3];
 384              		.loc 1 83 0
 385 0064 9689     		ldrh	r6, [r2, #12]
 386 0066 948A     		ldrh	r4, [r2, #20]
 387 0068 938B     		ldrh	r3, [r2, #28]
 388 006a 7440     		eors	r4, r4, r6
 389 006c 6340     		eors	r3, r3, r4
 390 006e 6B40     		eors	r3, r3, r5
 391 0070 C380     		strh	r3, [r0, #6]	@ movhi
  84:..\fft.c      ****         f1[1] = f[3] ^ f[5] ^ f[9] ^ f[13] ^ f1[3];
 392              		.loc 1 84 0
 393 0072 1689     		ldrh	r6, [r2, #8]
 394 0074 0489     		ldrh	r4, [r0, #8]
 395 0076 CD88     		ldrh	r5, [r1, #6]
 396 0078 7440     		eors	r4, r4, r6
 397 007a 6340     		eors	r3, r3, r4
 398 007c 6B40     		eors	r3, r3, r5
 399 007e 8380     		strh	r3, [r0, #4]	@ movhi
ARM GAS  C:\Users\bogur\AppData\Local\Temp\cc4t6lFa.s 			page 11


  85:..\fft.c      ****         f1[2] = f[3] ^ f1[1] ^ f0[3];
 400              		.loc 1 85 0
 401 0080 D488     		ldrh	r4, [r2, #6]
 402 0082 5589     		ldrh	r5, [r2, #10]
 403 0084 538A     		ldrh	r3, [r2, #18]
 404 0086 578B     		ldrh	r7, [r2, #26]
 405 0088 CE88     		ldrh	r6, [r1, #6]
 406 008a 6C40     		eors	r4, r4, r5
 407 008c 5C40     		eors	r4, r4, r3
 408 008e 87EA0403 		eor	r3, r7, r4
 409 0092 7340     		eors	r3, r3, r6
 410 0094 4B80     		strh	r3, [r1, #2]	@ movhi
  86:..\fft.c      ****         f0[1] = f[2] ^ f0[2] ^ f1[1];
 411              		.loc 1 86 0
 412 0096 D488     		ldrh	r4, [r2, #6]
 413 0098 C588     		ldrh	r5, [r0, #6]
 414 009a 5C40     		eors	r4, r4, r3
 415 009c 6C40     		eors	r4, r4, r5
 416 009e 8C80     		strh	r4, [r1, #4]	@ movhi
  87:..\fft.c      ****         f1[0] = f[1] ^ f0[1];
 417              		.loc 1 87 0
 418 00a0 9588     		ldrh	r5, [r2, #4]
 419 00a2 8488     		ldrh	r4, [r0, #4]
 420 00a4 6C40     		eors	r4, r4, r5
 421 00a6 6340     		eors	r3, r3, r4
 422 00a8 4380     		strh	r3, [r0, #2]	@ movhi
  88:..\fft.c      ****         break;
 423              		.loc 1 88 0
 424 00aa 5288     		ldrh	r2, [r2, #2]
 425              	.LVL36:
 426 00ac 5340     		eors	r3, r3, r2
 427 00ae 0B80     		strh	r3, [r1]	@ movhi
  89:..\fft.c      **** 
 428              		.loc 1 89 0
 429 00b0 F8BD     		pop	{r3, r4, r5, r6, r7, pc}
 430              	.LVL37:
 431              	.L19:
  92:..\fft.c      ****         f0[2] = f[4] ^ f[6];
 432              		.loc 1 92 0
 433 00b2 1388     		ldrh	r3, [r2]
 434              	.LVL38:
 435 00b4 0380     		strh	r3, [r0]	@ movhi
  93:..\fft.c      ****         f0[3] = f[6] ^ f[7];
 436              		.loc 1 93 0
 437 00b6 1489     		ldrh	r4, [r2, #8]
 438              	.LVL39:
 439 00b8 9389     		ldrh	r3, [r2, #12]
 440 00ba 6340     		eors	r3, r3, r4
 441 00bc 8380     		strh	r3, [r0, #4]	@ movhi
  94:..\fft.c      ****         f1[1] = f[3] ^ f[5] ^ f[7];
 442              		.loc 1 94 0
 443 00be 9489     		ldrh	r4, [r2, #12]
 444 00c0 D389     		ldrh	r3, [r2, #14]
 445 00c2 6340     		eors	r3, r3, r4
 446 00c4 C380     		strh	r3, [r0, #6]	@ movhi
  95:..\fft.c      ****         f1[2] = f[5] ^ f[6];
 447              		.loc 1 95 0
ARM GAS  C:\Users\bogur\AppData\Local\Temp\cc4t6lFa.s 			page 12


 448 00c6 D388     		ldrh	r3, [r2, #6]
 449 00c8 5489     		ldrh	r4, [r2, #10]
 450 00ca D689     		ldrh	r6, [r2, #14]
 451 00cc 6340     		eors	r3, r3, r4
 452 00ce 86EA0305 		eor	r5, r6, r3
 453 00d2 4D80     		strh	r5, [r1, #2]	@ movhi
  96:..\fft.c      ****         f1[3] = f[7];
 454              		.loc 1 96 0
 455 00d4 5489     		ldrh	r4, [r2, #10]
 456 00d6 9389     		ldrh	r3, [r2, #12]
 457 00d8 6340     		eors	r3, r3, r4
 458 00da 8B80     		strh	r3, [r1, #4]	@ movhi
  97:..\fft.c      ****         f0[1] = f[2] ^ f0[2] ^ f1[1];
 459              		.loc 1 97 0
 460 00dc D389     		ldrh	r3, [r2, #14]
 461 00de CB80     		strh	r3, [r1, #6]	@ movhi
  98:..\fft.c      ****         f1[0] = f[1] ^ f0[1];
 462              		.loc 1 98 0
 463 00e0 9388     		ldrh	r3, [r2, #4]
 464 00e2 8488     		ldrh	r4, [r0, #4]
 465 00e4 6340     		eors	r3, r3, r4
 466 00e6 6B40     		eors	r3, r3, r5
 467 00e8 4380     		strh	r3, [r0, #2]	@ movhi
  99:..\fft.c      ****         break;
 468              		.loc 1 99 0
 469 00ea 5288     		ldrh	r2, [r2, #2]
 470              	.LVL40:
 471 00ec 5340     		eors	r3, r3, r2
 472 00ee 0B80     		strh	r3, [r1]	@ movhi
 100:..\fft.c      **** 
 473              		.loc 1 100 0
 474 00f0 F8BD     		pop	{r3, r4, r5, r6, r7, pc}
 475              	.LVL41:
 476              	.L18:
 103:..\fft.c      ****         f0[1] = f[2] ^ f[3];
 477              		.loc 1 103 0
 478 00f2 1388     		ldrh	r3, [r2]
 479              	.LVL42:
 480 00f4 0380     		strh	r3, [r0]	@ movhi
 104:..\fft.c      ****         f1[0] = f[1] ^ f0[1];
 481              		.loc 1 104 0
 482 00f6 9488     		ldrh	r4, [r2, #4]
 483              	.LVL43:
 484 00f8 D388     		ldrh	r3, [r2, #6]
 485 00fa 6340     		eors	r3, r3, r4
 486 00fc 4380     		strh	r3, [r0, #2]	@ movhi
 105:..\fft.c      ****         f1[1] = f[3];
 487              		.loc 1 105 0
 488 00fe 5088     		ldrh	r0, [r2, #2]
 489              	.LVL44:
 490 0100 4340     		eors	r3, r3, r0
 491 0102 0B80     		strh	r3, [r1]	@ movhi
 106:..\fft.c      ****         break;
 492              		.loc 1 106 0
 493 0104 D388     		ldrh	r3, [r2, #6]
 494 0106 4B80     		strh	r3, [r1, #2]	@ movhi
 107:..\fft.c      **** 
ARM GAS  C:\Users\bogur\AppData\Local\Temp\cc4t6lFa.s 			page 13


 495              		.loc 1 107 0
 496 0108 F8BD     		pop	{r3, r4, r5, r6, r7, pc}
 497              	.LVL45:
 498              	.L16:
 110:..\fft.c      ****         f1[0] = f[1];
 499              		.loc 1 110 0
 500 010a 1388     		ldrh	r3, [r2]
 501              	.LVL46:
 502 010c 0380     		strh	r3, [r0]	@ movhi
 111:..\fft.c      ****         break;
 503              		.loc 1 111 0
 504 010e 5388     		ldrh	r3, [r2, #2]
 505 0110 0B80     		strh	r3, [r1]	@ movhi
 112:..\fft.c      **** 
 506              		.loc 1 112 0
 507 0112 F8BD     		pop	{r3, r4, r5, r6, r7, pc}
 508              	.LVL47:
 509              	.L15:
 115:..\fft.c      ****         break;
 510              		.loc 1 115 0
 511 0114 FFF7FEFF 		bl	radix_big
 512              	.LVL48:
 513 0118 F8BD     		pop	{r3, r4, r5, r6, r7, pc}
 514              		.cfi_endproc
 515              	.LFE2:
 516              		.size	radix, .-radix
 517 011a 00BF     		.section	.text.fft_rec,"ax",%progbits
 518              		.align	2
 519              		.thumb
 520              		.thumb_func
 521              		.type	fft_rec, %function
 522              	fft_rec:
 523              	.LFB4:
 150:..\fft.c      **** 
 151:..\fft.c      **** 
 152:..\fft.c      **** 
 153:..\fft.c      **** /**
 154:..\fft.c      ****  * @brief Evaluates f at all subset sums of a given set
 155:..\fft.c      ****  *
 156:..\fft.c      ****  * This function is a subroutine of the function PQCLEAN_HQC256_CLEAN_fft.
 157:..\fft.c      ****  *
 158:..\fft.c      ****  * @param[out] w Array
 159:..\fft.c      ****  * @param[in] f Array
 160:..\fft.c      ****  * @param[in] f_coeffs Number of coefficients of f
 161:..\fft.c      ****  * @param[in] m Number of betas
 162:..\fft.c      ****  * @param[in] m_f Number of coefficients of f (one more than its degree)
 163:..\fft.c      ****  * @param[in] betas FFT constants
 164:..\fft.c      ****  */
 165:..\fft.c      **** static void fft_rec(uint16_t *w, uint16_t *f, size_t f_coeffs, uint8_t m, uint32_t m_f, const uint1
 524              		.loc 1 165 0
 525              		.cfi_startproc
 526              		@ args = 8, pretend = 0, frame = 456
 527              		@ frame_needed = 0, uses_anonymous_args = 0
 528              	.LVL49:
 529 0000 2DE9F04F 		push	{r4, r5, r6, r7, r8, r9, r10, fp, lr}
 530              		.cfi_def_cfa_offset 36
 531              		.cfi_offset 4, -36
ARM GAS  C:\Users\bogur\AppData\Local\Temp\cc4t6lFa.s 			page 14


 532              		.cfi_offset 5, -32
 533              		.cfi_offset 6, -28
 534              		.cfi_offset 7, -24
 535              		.cfi_offset 8, -20
 536              		.cfi_offset 9, -16
 537              		.cfi_offset 10, -12
 538              		.cfi_offset 11, -8
 539              		.cfi_offset 14, -4
 540 0004 F5B0     		sub	sp, sp, #468
 541              		.cfi_def_cfa_offset 504
 542 0006 0446     		mov	r4, r0
 543 0008 0E46     		mov	r6, r1
 544 000a 0392     		str	r2, [sp, #12]
 545 000c 9846     		mov	r8, r3
 546 000e DDF8FC91 		ldr	r9, [sp, #508]
 166:..\fft.c      ****     uint16_t f0[1 << (PARAM_FFT - 2)] = {0};
 547              		.loc 1 166 0
 548 0012 0025     		movs	r5, #0
 549 0014 7095     		str	r5, [sp, #448]
 550 0016 7195     		str	r5, [sp, #452]
 551 0018 7295     		str	r5, [sp, #456]
 552 001a 7395     		str	r5, [sp, #460]
 167:..\fft.c      ****     uint16_t f1[1 << (PARAM_FFT - 2)] = {0};
 553              		.loc 1 167 0
 554 001c 6C95     		str	r5, [sp, #432]
 555 001e 6D95     		str	r5, [sp, #436]
 556 0020 6E95     		str	r5, [sp, #440]
 557 0022 6F95     		str	r5, [sp, #444]
 168:..\fft.c      ****     uint16_t gammas[PARAM_M - 2] = {0};
 558              		.loc 1 168 0
 559 0024 6995     		str	r5, [sp, #420]
 560 0026 6A95     		str	r5, [sp, #424]
 561 0028 6B95     		str	r5, [sp, #428]
 169:..\fft.c      ****     uint16_t deltas[PARAM_M - 2] = {0};
 562              		.loc 1 169 0
 563 002a 6695     		str	r5, [sp, #408]
 564 002c 6795     		str	r5, [sp, #412]
 565 002e 6895     		str	r5, [sp, #416]
 170:..\fft.c      ****     uint16_t gammas_sums[1 << (PARAM_M - 2)] = {0};
 566              		.loc 1 170 0
 567 0030 8027     		movs	r7, #128
 568 0032 3A46     		mov	r2, r7
 569              	.LVL50:
 570 0034 2946     		mov	r1, r5
 571              	.LVL51:
 572 0036 46A8     		add	r0, sp, #280
 573              	.LVL52:
 574 0038 FFF7FEFF 		bl	memset
 575              	.LVL53:
 171:..\fft.c      ****     uint16_t u[1 << (PARAM_M - 2)] = {0};
 576              		.loc 1 171 0
 577 003c 3A46     		mov	r2, r7
 578 003e 2946     		mov	r1, r5
 579 0040 26A8     		add	r0, sp, #152
 580 0042 FFF7FEFF 		bl	memset
 581              	.LVL54:
 172:..\fft.c      ****     uint16_t v[1 << (PARAM_M - 2)] = {0};
ARM GAS  C:\Users\bogur\AppData\Local\Temp\cc4t6lFa.s 			page 15


 582              		.loc 1 172 0
 583 0046 3A46     		mov	r2, r7
 584 0048 2946     		mov	r1, r5
 585 004a 06A8     		add	r0, sp, #24
 586 004c FFF7FEFF 		bl	memset
 587              	.LVL55:
 173:..\fft.c      ****     uint16_t tmp[PARAM_M - (PARAM_FFT - 1)] = {0};
 588              		.loc 1 173 0
 589 0050 0495     		str	r5, [sp, #16]
 590 0052 0595     		str	r5, [sp, #20]
 174:..\fft.c      **** 
 175:..\fft.c      ****     uint16_t beta_m_pow;
 176:..\fft.c      ****     size_t i, j, k;
 177:..\fft.c      ****     size_t x;
 178:..\fft.c      **** 
 179:..\fft.c      ****     // Step 1
 180:..\fft.c      ****     if (m_f == 1) {
 591              		.loc 1 180 0
 592 0054 7E9B     		ldr	r3, [sp, #504]
 593 0056 012B     		cmp	r3, #1
 594 0058 26D1     		bne	.L45
 595 005a 09E0     		b	.L43
 596              	.LVL56:
 597              	.L26:
 181:..\fft.c      ****         for (i = 0; i < m; ++i) {
 182:..\fft.c      ****             tmp[i] = PQCLEAN_HQC256_CLEAN_gf_mul(betas[i], f[1]);
 598              		.loc 1 182 0 discriminator 3
 599 005c 7188     		ldrh	r1, [r6, #2]
 600 005e 39F81500 		ldrh	r0, [r9, r5, lsl #1]
 601 0062 FFF7FEFF 		bl	PQCLEAN_HQC256_CLEAN_gf_mul
 602              	.LVL57:
 603 0066 04AB     		add	r3, sp, #16
 604 0068 23F81500 		strh	r0, [r3, r5, lsl #1]	@ movhi
 181:..\fft.c      ****         for (i = 0; i < m; ++i) {
 605              		.loc 1 181 0 discriminator 3
 606 006c 0135     		adds	r5, r5, #1
 607              	.LVL58:
 608 006e 00E0     		b	.L24
 609              	.LVL59:
 610              	.L43:
 611 0070 0025     		movs	r5, #0
 612              	.L24:
 613              	.LVL60:
 181:..\fft.c      ****         for (i = 0; i < m; ++i) {
 614              		.loc 1 181 0 is_stmt 0 discriminator 1
 615 0072 4746     		mov	r7, r8
 616 0074 4545     		cmp	r5, r8
 617 0076 F1D3     		bcc	.L26
 183:..\fft.c      ****         }
 184:..\fft.c      **** 
 185:..\fft.c      ****         w[0] = f[0];
 618              		.loc 1 185 0 is_stmt 1
 619 0078 3388     		ldrh	r3, [r6]
 620 007a 2380     		strh	r3, [r4]	@ movhi
 621              	.LVL61:
 186:..\fft.c      ****         x = 1;
 622              		.loc 1 186 0
ARM GAS  C:\Users\bogur\AppData\Local\Temp\cc4t6lFa.s 			page 16


 623 007c 0120     		movs	r0, #1
 187:..\fft.c      ****         for (j = 0; j < m; ++j) {
 624              		.loc 1 187 0
 625 007e 0026     		movs	r6, #0
 626              	.LVL62:
 627 0080 0FE0     		b	.L27
 628              	.LVL63:
 629              	.L28:
 188:..\fft.c      ****             for (k = 0; k < x; ++k) {
 189:..\fft.c      ****                 w[x + k] = w[k] ^ tmp[j];
 630              		.loc 1 189 0 discriminator 3
 631 0082 1918     		adds	r1, r3, r0
 632 0084 34F81350 		ldrh	r5, [r4, r3, lsl #1]
 633 0088 04AA     		add	r2, sp, #16
 634 008a 32F81620 		ldrh	r2, [r2, r6, lsl #1]
 635 008e 6A40     		eors	r2, r2, r5
 636 0090 24F81120 		strh	r2, [r4, r1, lsl #1]	@ movhi
 188:..\fft.c      ****             for (k = 0; k < x; ++k) {
 637              		.loc 1 188 0 discriminator 3
 638 0094 0133     		adds	r3, r3, #1
 639              	.LVL64:
 640 0096 00E0     		b	.L29
 641              	.LVL65:
 642              	.L44:
 643 0098 0023     		movs	r3, #0
 644              	.L29:
 645              	.LVL66:
 188:..\fft.c      ****             for (k = 0; k < x; ++k) {
 646              		.loc 1 188 0 is_stmt 0 discriminator 1
 647 009a 8342     		cmp	r3, r0
 648 009c F1D3     		bcc	.L28
 190:..\fft.c      ****             }
 191:..\fft.c      ****             x <<= 1;
 649              		.loc 1 191 0 is_stmt 1 discriminator 2
 650 009e 4000     		lsls	r0, r0, #1
 651              	.LVL67:
 187:..\fft.c      ****             for (k = 0; k < x; ++k) {
 652              		.loc 1 187 0 discriminator 2
 653 00a0 0136     		adds	r6, r6, #1
 654              	.LVL68:
 655              	.L27:
 187:..\fft.c      ****             for (k = 0; k < x; ++k) {
 656              		.loc 1 187 0 is_stmt 0 discriminator 1
 657 00a2 BE42     		cmp	r6, r7
 658 00a4 F8D3     		bcc	.L44
 659 00a6 B7E0     		b	.L23
 660              	.LVL69:
 661              	.L45:
 192:..\fft.c      ****         }
 193:..\fft.c      **** 
 194:..\fft.c      ****         return;
 195:..\fft.c      ****     }
 196:..\fft.c      **** 
 197:..\fft.c      ****     // Step 2: compute g
 198:..\fft.c      ****     if (betas[m - 1] != 1) {
 662              		.loc 1 198 0 is_stmt 1
 663 00a8 C246     		mov	r10, r8
ARM GAS  C:\Users\bogur\AppData\Local\Temp\cc4t6lFa.s 			page 17


 664 00aa 08F10043 		add	r3, r8, #-2147483648
 665 00ae 013B     		subs	r3, r3, #1
 666 00b0 09EB4307 		add	r7, r9, r3, lsl #1
 667 00b4 39F81330 		ldrh	r3, [r9, r3, lsl #1]
 668 00b8 012B     		cmp	r3, #1
 669 00ba 14D0     		beq	.L31
 670              	.LVL70:
 199:..\fft.c      ****         beta_m_pow = 1;
 200:..\fft.c      ****         x = 1;
 201:..\fft.c      ****         x <<= m_f;
 671              		.loc 1 201 0
 672 00bc 0123     		movs	r3, #1
 673 00be 7E9A     		ldr	r2, [sp, #504]
 674 00c0 03FA02FB 		lsl	fp, r3, r2
 675              	.LVL71:
 202:..\fft.c      ****         for (i = 1; i < x; ++i) {
 676              		.loc 1 202 0
 677 00c4 1D46     		mov	r5, r3
 199:..\fft.c      ****         beta_m_pow = 1;
 678              		.loc 1 199 0
 679 00c6 0293     		str	r3, [sp, #8]
 680              		.loc 1 202 0
 681 00c8 0BE0     		b	.L32
 682              	.LVL72:
 683              	.L33:
 203:..\fft.c      ****             beta_m_pow = PQCLEAN_HQC256_CLEAN_gf_mul(beta_m_pow, betas[m - 1]);
 684              		.loc 1 203 0 discriminator 3
 685 00ca 3988     		ldrh	r1, [r7]
 686 00cc 0298     		ldr	r0, [sp, #8]
 687 00ce FFF7FEFF 		bl	PQCLEAN_HQC256_CLEAN_gf_mul
 688              	.LVL73:
 689 00d2 0290     		str	r0, [sp, #8]
 690              	.LVL74:
 204:..\fft.c      ****             f[i] = PQCLEAN_HQC256_CLEAN_gf_mul(beta_m_pow, f[i]);
 691              		.loc 1 204 0 discriminator 3
 692 00d4 36F81510 		ldrh	r1, [r6, r5, lsl #1]
 693 00d8 FFF7FEFF 		bl	PQCLEAN_HQC256_CLEAN_gf_mul
 694              	.LVL75:
 695 00dc 26F81500 		strh	r0, [r6, r5, lsl #1]	@ movhi
 202:..\fft.c      ****         for (i = 1; i < x; ++i) {
 696              		.loc 1 202 0 discriminator 3
 697 00e0 0135     		adds	r5, r5, #1
 698              	.LVL76:
 699              	.L32:
 202:..\fft.c      ****         for (i = 1; i < x; ++i) {
 700              		.loc 1 202 0 is_stmt 0 discriminator 1
 701 00e2 5D45     		cmp	r5, fp
 702 00e4 F1D3     		bcc	.L33
 703              	.LVL77:
 704              	.L31:
 205:..\fft.c      ****         }
 206:..\fft.c      ****     }
 207:..\fft.c      **** 
 208:..\fft.c      ****     // Step 3
 209:..\fft.c      ****     radix(f0, f1, f, m_f);
 705              		.loc 1 209 0 is_stmt 1
 706 00e6 7E9B     		ldr	r3, [sp, #504]
ARM GAS  C:\Users\bogur\AppData\Local\Temp\cc4t6lFa.s 			page 18


 707 00e8 3246     		mov	r2, r6
 708 00ea 6CA9     		add	r1, sp, #432
 709 00ec 70A8     		add	r0, sp, #448
 710 00ee FFF7FEFF 		bl	radix
 711              	.LVL78:
 210:..\fft.c      **** 
 211:..\fft.c      ****     // Step 4: compute gammas and deltas
 212:..\fft.c      ****     for (i = 0; i + 1 < m; ++i) {
 712              		.loc 1 212 0
 713 00f2 0023     		movs	r3, #0
 714 00f4 15E0     		b	.L34
 715              	.LVL79:
 716              	.L35:
 213:..\fft.c      ****         gammas[i] = PQCLEAN_HQC256_CLEAN_gf_mul(betas[i], PQCLEAN_HQC256_CLEAN_gf_inverse(betas[m -
 717              		.loc 1 213 0 discriminator 3
 718 00f6 5D00     		lsls	r5, r3, #1
 719 00f8 39F813B0 		ldrh	fp, [r9, r3, lsl #1]
 720 00fc 3888     		ldrh	r0, [r7]
 721 00fe FFF7FEFF 		bl	PQCLEAN_HQC256_CLEAN_gf_inverse
 722              	.LVL80:
 723 0102 0146     		mov	r1, r0
 724 0104 5846     		mov	r0, fp
 725 0106 FFF7FEFF 		bl	PQCLEAN_HQC256_CLEAN_gf_mul
 726              	.LVL81:
 727 010a 74AB     		add	r3, sp, #464
 728 010c 1D44     		add	r5, r5, r3
 729 010e 25F82C0C 		strh	r0, [r5, #-44]	@ movhi
 214:..\fft.c      ****         deltas[i] = PQCLEAN_HQC256_CLEAN_gf_square(gammas[i]) ^ gammas[i];
 730              		.loc 1 214 0 discriminator 3
 731 0112 FFF7FEFF 		bl	PQCLEAN_HQC256_CLEAN_gf_square
 732              	.LVL82:
 733 0116 35F82C3C 		ldrh	r3, [r5, #-44]
 734 011a 5840     		eors	r0, r0, r3
 735 011c 25F8380C 		strh	r0, [r5, #-56]	@ movhi
 736              	.LVL83:
 212:..\fft.c      ****         gammas[i] = PQCLEAN_HQC256_CLEAN_gf_mul(betas[i], PQCLEAN_HQC256_CLEAN_gf_inverse(betas[m -
 737              		.loc 1 212 0 discriminator 3
 738 0120 3346     		mov	r3, r6
 739              	.LVL84:
 740              	.L34:
 212:..\fft.c      ****         gammas[i] = PQCLEAN_HQC256_CLEAN_gf_mul(betas[i], PQCLEAN_HQC256_CLEAN_gf_inverse(betas[m -
 741              		.loc 1 212 0 is_stmt 0 discriminator 1
 742 0122 5E1C     		adds	r6, r3, #1
 743 0124 B245     		cmp	r10, r6
 744 0126 E6D8     		bhi	.L35
 215:..\fft.c      ****     }
 216:..\fft.c      **** 
 217:..\fft.c      ****     // Compute gammas sums
 218:..\fft.c      ****     compute_subset_sums(gammas_sums, gammas, m - 1);
 745              		.loc 1 218 0 is_stmt 1
 746 0128 08F1FF32 		add	r2, r8, #-1
 747 012c 92B2     		uxth	r2, r2
 748 012e 69A9     		add	r1, sp, #420
 749 0130 46A8     		add	r0, sp, #280
 750 0132 FFF7FEFF 		bl	compute_subset_sums
 751              	.LVL85:
 219:..\fft.c      **** 
ARM GAS  C:\Users\bogur\AppData\Local\Temp\cc4t6lFa.s 			page 19


 220:..\fft.c      ****     // Step 5
 221:..\fft.c      ****     fft_rec(u, f0, (f_coeffs + 1) / 2, m - 1, m_f - 1, deltas);
 752              		.loc 1 221 0
 753 0136 039B     		ldr	r3, [sp, #12]
 754 0138 5A1C     		adds	r2, r3, #1
 755 013a 08F1FF38 		add	r8, r8, #-1
 756 013e 5FFA88F5 		uxtb	r5, r8
 757 0142 7E99     		ldr	r1, [sp, #504]
 758 0144 4F1E     		subs	r7, r1, #1
 759 0146 66AB     		add	r3, sp, #408
 760 0148 0193     		str	r3, [sp, #4]
 761 014a 0097     		str	r7, [sp]
 762 014c 2B46     		mov	r3, r5
 763 014e 5208     		lsrs	r2, r2, #1
 764 0150 70A9     		add	r1, sp, #448
 765 0152 26A8     		add	r0, sp, #152
 766 0154 FFF754FF 		bl	fft_rec
 767              	.LVL86:
 222:..\fft.c      **** 
 223:..\fft.c      ****     k = 1;
 224:..\fft.c      ****     k <<= ((m - 1) & 0xf); // &0xf is to let the compiler know that m-1 is small.
 768              		.loc 1 224 0
 769 0158 08F00F08 		and	r8, r8, #15
 770 015c 0126     		movs	r6, #1
 771              	.LVL87:
 772 015e 06FA08F6 		lsl	r6, r6, r8
 773              	.LVL88:
 225:..\fft.c      ****     if (f_coeffs <= 3) { // 3-coefficient polynomial f case: f1 is constant
 774              		.loc 1 225 0
 775 0162 039B     		ldr	r3, [sp, #12]
 776 0164 032B     		cmp	r3, #3
 777 0166 23D8     		bhi	.L36
 226:..\fft.c      ****         w[0] = u[0];
 778              		.loc 1 226 0
 779 0168 BDF89820 		ldrh	r2, [sp, #152]
 780 016c 2280     		strh	r2, [r4]	@ movhi
 227:..\fft.c      ****         w[k] = u[0] ^ f1[0];
 781              		.loc 1 227 0
 782 016e BDF8B031 		ldrh	r3, [sp, #432]
 783 0172 5340     		eors	r3, r3, r2
 784 0174 24F81630 		strh	r3, [r4, r6, lsl #1]	@ movhi
 785              	.LVL89:
 228:..\fft.c      ****         for (i = 1; i < k; ++i) {
 786              		.loc 1 228 0
 787 0178 0127     		movs	r7, #1
 788 017a 16E0     		b	.L37
 789              	.LVL90:
 790              	.L38:
 229:..\fft.c      ****             w[i] = u[i] ^ PQCLEAN_HQC256_CLEAN_gf_mul(gammas_sums[i], f1[0]);
 791              		.loc 1 229 0 discriminator 3
 792 017c 26AB     		add	r3, sp, #152
 793 017e 33F81750 		ldrh	r5, [r3, r7, lsl #1]
 794 0182 74AB     		add	r3, sp, #464
 795 0184 03EB4703 		add	r3, r3, r7, lsl #1
 796 0188 BDF8B011 		ldrh	r1, [sp, #432]
 797 018c 33F8B80C 		ldrh	r0, [r3, #-184]
 798 0190 FFF7FEFF 		bl	PQCLEAN_HQC256_CLEAN_gf_mul
ARM GAS  C:\Users\bogur\AppData\Local\Temp\cc4t6lFa.s 			page 20


 799              	.LVL91:
 800 0194 6840     		eors	r0, r0, r5
 801 0196 80B2     		uxth	r0, r0
 802 0198 24F81700 		strh	r0, [r4, r7, lsl #1]	@ movhi
 230:..\fft.c      ****             w[k + i] = w[i] ^ f1[0];
 803              		.loc 1 230 0 discriminator 3
 804 019c BA19     		adds	r2, r7, r6
 805 019e BDF8B031 		ldrh	r3, [sp, #432]
 806 01a2 5840     		eors	r0, r0, r3
 807 01a4 24F81200 		strh	r0, [r4, r2, lsl #1]	@ movhi
 228:..\fft.c      ****         for (i = 1; i < k; ++i) {
 808              		.loc 1 228 0 discriminator 3
 809 01a8 0137     		adds	r7, r7, #1
 810              	.LVL92:
 811              	.L37:
 228:..\fft.c      ****         for (i = 1; i < k; ++i) {
 812              		.loc 1 228 0 is_stmt 0 discriminator 1
 813 01aa B742     		cmp	r7, r6
 814 01ac E6D3     		bcc	.L38
 815 01ae 33E0     		b	.L23
 816              	.LVL93:
 817              	.L36:
 231:..\fft.c      ****         }
 232:..\fft.c      ****     } else {
 233:..\fft.c      ****         fft_rec(v, f1, f_coeffs / 2, m - 1, m_f - 1, deltas);
 818              		.loc 1 233 0 is_stmt 1
 819 01b0 66AB     		add	r3, sp, #408
 820 01b2 0193     		str	r3, [sp, #4]
 821 01b4 0097     		str	r7, [sp]
 822 01b6 2B46     		mov	r3, r5
 823 01b8 039A     		ldr	r2, [sp, #12]
 824 01ba 5208     		lsrs	r2, r2, #1
 825 01bc 6CA9     		add	r1, sp, #432
 826 01be 06A8     		add	r0, sp, #24
 827 01c0 FFF71EFF 		bl	fft_rec
 828              	.LVL94:
 234:..\fft.c      **** 
 235:..\fft.c      ****         // Step 6
 236:..\fft.c      ****         memcpy(w + k, v, 2 * k);
 829              		.loc 1 236 0
 830 01c4 7000     		lsls	r0, r6, #1
 831 01c6 0246     		mov	r2, r0
 832 01c8 06A9     		add	r1, sp, #24
 833 01ca 2044     		add	r0, r0, r4
 834 01cc FFF7FEFF 		bl	memcpy
 835              	.LVL95:
 237:..\fft.c      ****         w[0] = u[0];
 836              		.loc 1 237 0
 837 01d0 BDF89820 		ldrh	r2, [sp, #152]
 838 01d4 2280     		strh	r2, [r4]	@ movhi
 238:..\fft.c      ****         w[k] ^= u[0];
 839              		.loc 1 238 0
 840 01d6 34F81630 		ldrh	r3, [r4, r6, lsl #1]
 841 01da 5340     		eors	r3, r3, r2
 842 01dc 24F81630 		strh	r3, [r4, r6, lsl #1]	@ movhi
 843              	.LVL96:
 239:..\fft.c      ****         for (i = 1; i < k; ++i) {
ARM GAS  C:\Users\bogur\AppData\Local\Temp\cc4t6lFa.s 			page 21


 844              		.loc 1 239 0
 845 01e0 0127     		movs	r7, #1
 846 01e2 17E0     		b	.L40
 847              	.LVL97:
 848              	.L41:
 240:..\fft.c      ****             w[i] = u[i] ^ PQCLEAN_HQC256_CLEAN_gf_mul(gammas_sums[i], v[i]);
 849              		.loc 1 240 0 discriminator 3
 850 01e4 26AB     		add	r3, sp, #152
 851 01e6 33F81750 		ldrh	r5, [r3, r7, lsl #1]
 852 01ea 74AB     		add	r3, sp, #464
 853 01ec 03EB4703 		add	r3, r3, r7, lsl #1
 854 01f0 06AA     		add	r2, sp, #24
 855 01f2 32F81710 		ldrh	r1, [r2, r7, lsl #1]
 856 01f6 33F8B80C 		ldrh	r0, [r3, #-184]
 857 01fa FFF7FEFF 		bl	PQCLEAN_HQC256_CLEAN_gf_mul
 858              	.LVL98:
 859 01fe 6840     		eors	r0, r0, r5
 860 0200 80B2     		uxth	r0, r0
 861 0202 24F81700 		strh	r0, [r4, r7, lsl #1]	@ movhi
 241:..\fft.c      ****             w[k + i] ^= w[i];
 862              		.loc 1 241 0 discriminator 3
 863 0206 BA19     		adds	r2, r7, r6
 864 0208 34F81230 		ldrh	r3, [r4, r2, lsl #1]
 865 020c 5840     		eors	r0, r0, r3
 866 020e 24F81200 		strh	r0, [r4, r2, lsl #1]	@ movhi
 239:..\fft.c      ****         for (i = 1; i < k; ++i) {
 867              		.loc 1 239 0 discriminator 3
 868 0212 0137     		adds	r7, r7, #1
 869              	.LVL99:
 870              	.L40:
 239:..\fft.c      ****         for (i = 1; i < k; ++i) {
 871              		.loc 1 239 0 is_stmt 0 discriminator 1
 872 0214 B742     		cmp	r7, r6
 873 0216 E5D3     		bcc	.L41
 874              	.LVL100:
 875              	.L23:
 242:..\fft.c      ****         }
 243:..\fft.c      ****     }
 244:..\fft.c      **** }
 876              		.loc 1 244 0 is_stmt 1
 877 0218 75B0     		add	sp, sp, #468
 878              		.cfi_def_cfa_offset 36
 879              		@ sp needed
 880 021a BDE8F08F 		pop	{r4, r5, r6, r7, r8, r9, r10, fp, pc}
 881              		.cfi_endproc
 882              	.LFE4:
 883              		.size	fft_rec, .-fft_rec
 884 021e 00BF     		.section	.text.PQCLEAN_HQC256_CLEAN_fft,"ax",%progbits
 885              		.align	2
 886              		.global	PQCLEAN_HQC256_CLEAN_fft
 887              		.thumb
 888              		.thumb_func
 889              		.type	PQCLEAN_HQC256_CLEAN_fft, %function
 890              	PQCLEAN_HQC256_CLEAN_fft:
 891              	.LFB5:
 245:..\fft.c      **** 
 246:..\fft.c      **** 
ARM GAS  C:\Users\bogur\AppData\Local\Temp\cc4t6lFa.s 			page 22


 247:..\fft.c      **** 
 248:..\fft.c      **** /**
 249:..\fft.c      ****  * @brief Evaluates f on all fields elements using an additive FFT algorithm
 250:..\fft.c      ****  *
 251:..\fft.c      ****  * f_coeffs is the number of coefficients of f (one less than its degree). <br>
 252:..\fft.c      ****  * The FFT proceeds recursively to evaluate f at all subset sums of a basis B. <br>
 253:..\fft.c      ****  * This implementation is based on the paper from Gao and Mateer: <br>
 254:..\fft.c      ****  * Shuhong Gao and Todd Mateer, Additive Fast Fourier Transforms over Finite Fields,
 255:..\fft.c      ****  * IEEE Transactions on Information Theory 56 (2010), 6265--6272.
 256:..\fft.c      ****  * http://www.math.clemson.edu/~sgao/papers/GM10.pdf <br>
 257:..\fft.c      ****  * and includes improvements proposed by Bernstein, Chou and Schwabe here:
 258:..\fft.c      ****  * https://binary.cr.yp.to/mcbits-20130616.pdf <br>
 259:..\fft.c      ****  * Note that on this first call (as opposed to the recursive calls to fft_rec), gammas are equal to
 260:..\fft.c      ****  * meaning the first gammas subset sums are actually the subset sums of betas (except 1). <br>
 261:..\fft.c      ****  * Also note that f is altered during computation (twisted at each level).
 262:..\fft.c      ****  *
 263:..\fft.c      ****  * @param[out] w Array
 264:..\fft.c      ****  * @param[in] f Array of 2^PARAM_FFT elements
 265:..\fft.c      ****  * @param[in] f_coeffs Number coefficients of f (i.e. deg(f)+1)
 266:..\fft.c      ****  */
 267:..\fft.c      **** void PQCLEAN_HQC256_CLEAN_fft(uint16_t *w, const uint16_t *f, size_t f_coeffs) {
 892              		.loc 1 267 0
 893              		.cfi_startproc
 894              		@ args = 0, pretend = 0, frame = 864
 895              		@ frame_needed = 0, uses_anonymous_args = 0
 896              	.LVL101:
 897 0000 2DE9F043 		push	{r4, r5, r6, r7, r8, r9, lr}
 898              		.cfi_def_cfa_offset 28
 899              		.cfi_offset 4, -28
 900              		.cfi_offset 5, -24
 901              		.cfi_offset 6, -20
 902              		.cfi_offset 7, -16
 903              		.cfi_offset 8, -12
 904              		.cfi_offset 9, -8
 905              		.cfi_offset 14, -4
 906 0004 ADF55B7D 		sub	sp, sp, #876
 907              		.cfi_def_cfa_offset 904
 908 0008 0646     		mov	r6, r0
 909 000a 8946     		mov	r9, r1
 910 000c 1746     		mov	r7, r2
 268:..\fft.c      ****     uint16_t betas[PARAM_M - 1] = {0};
 911              		.loc 1 268 0
 912 000e 0024     		movs	r4, #0
 913 0010 D694     		str	r4, [sp, #856]
 914 0012 D794     		str	r4, [sp, #860]
 915 0014 D894     		str	r4, [sp, #864]
 916 0016 ADF86443 		strh	r4, [sp, #868]	@ movhi
 269:..\fft.c      ****     uint16_t betas_sums[1 << (PARAM_M - 1)] = {0};
 917              		.loc 1 269 0
 918 001a 4FF48075 		mov	r5, #256
 919 001e 2A46     		mov	r2, r5
 920              	.LVL102:
 921 0020 2146     		mov	r1, r4
 922              	.LVL103:
 923 0022 96A8     		add	r0, sp, #600
 924              	.LVL104:
 925 0024 FFF7FEFF 		bl	memset
ARM GAS  C:\Users\bogur\AppData\Local\Temp\cc4t6lFa.s 			page 23


 926              	.LVL105:
 270:..\fft.c      ****     uint16_t f0[1 << (PARAM_FFT - 1)] = {0};
 927              		.loc 1 270 0
 928 0028 4FF02008 		mov	r8, #32
 929 002c 4246     		mov	r2, r8
 930 002e 2146     		mov	r1, r4
 931 0030 8EA8     		add	r0, sp, #568
 932 0032 FFF7FEFF 		bl	memset
 933              	.LVL106:
 271:..\fft.c      ****     uint16_t f1[1 << (PARAM_FFT - 1)] = {0};
 934              		.loc 1 271 0
 935 0036 4246     		mov	r2, r8
 936 0038 2146     		mov	r1, r4
 937 003a 86A8     		add	r0, sp, #536
 938 003c FFF7FEFF 		bl	memset
 939              	.LVL107:
 272:..\fft.c      ****     uint16_t deltas[PARAM_M - 1] = {0};
 940              		.loc 1 272 0
 941 0040 8294     		str	r4, [sp, #520]
 942 0042 8394     		str	r4, [sp, #524]
 943 0044 8494     		str	r4, [sp, #528]
 944 0046 ADF81442 		strh	r4, [sp, #532]	@ movhi
 273:..\fft.c      ****     uint16_t u[1 << (PARAM_M - 1)] = {0};
 945              		.loc 1 273 0
 946 004a 2A46     		mov	r2, r5
 947 004c 2146     		mov	r1, r4
 948 004e 42A8     		add	r0, sp, #264
 949 0050 FFF7FEFF 		bl	memset
 950              	.LVL108:
 274:..\fft.c      ****     uint16_t v[1 << (PARAM_M - 1)] = {0};
 951              		.loc 1 274 0
 952 0054 2A46     		mov	r2, r5
 953 0056 2146     		mov	r1, r4
 954 0058 02A8     		add	r0, sp, #8
 955 005a FFF7FEFF 		bl	memset
 956              	.LVL109:
 275:..\fft.c      **** 
 276:..\fft.c      ****     size_t i, k;
 277:..\fft.c      **** 
 278:..\fft.c      ****     // Follows Gao and Mateer algorithm
 279:..\fft.c      ****     compute_fft_betas(betas);
 957              		.loc 1 279 0
 958 005e D6A8     		add	r0, sp, #856
 959 0060 FFF7FEFF 		bl	compute_fft_betas
 960              	.LVL110:
 280:..\fft.c      **** 
 281:..\fft.c      ****     // Step 1: PARAM_FFT > 1, nothing to do
 282:..\fft.c      **** 
 283:..\fft.c      ****     // Compute gammas sums
 284:..\fft.c      ****     compute_subset_sums(betas_sums, betas, PARAM_M - 1);
 961              		.loc 1 284 0
 962 0064 0722     		movs	r2, #7
 963 0066 D6A9     		add	r1, sp, #856
 964 0068 96A8     		add	r0, sp, #600
 965 006a FFF7FEFF 		bl	compute_subset_sums
 966              	.LVL111:
 285:..\fft.c      **** 
ARM GAS  C:\Users\bogur\AppData\Local\Temp\cc4t6lFa.s 			page 24


 286:..\fft.c      ****     // Step 2: beta_m = 1, nothing to do
 287:..\fft.c      **** 
 288:..\fft.c      ****     // Step 3
 289:..\fft.c      ****     radix(f0, f1, f, PARAM_FFT);
 967              		.loc 1 289 0
 968 006e 0523     		movs	r3, #5
 969 0070 4A46     		mov	r2, r9
 970 0072 86A9     		add	r1, sp, #536
 971 0074 8EA8     		add	r0, sp, #568
 972 0076 FFF7FEFF 		bl	radix
 973              	.LVL112:
 290:..\fft.c      **** 
 291:..\fft.c      ****     // Step 4: Compute deltas
 292:..\fft.c      ****     for (i = 0; i < PARAM_M - 1; ++i) {
 974              		.loc 1 292 0
 975 007a 0DE0     		b	.L48
 976              	.LVL113:
 977              	.L49:
 293:..\fft.c      ****         deltas[i] = PQCLEAN_HQC256_CLEAN_gf_square(betas[i]) ^ betas[i];
 978              		.loc 1 293 0 discriminator 3
 979 007c DAAB     		add	r3, sp, #872
 980 007e 03EB4405 		add	r5, r3, r4, lsl #1
 981 0082 35F8100C 		ldrh	r0, [r5, #-16]
 982 0086 FFF7FEFF 		bl	PQCLEAN_HQC256_CLEAN_gf_square
 983              	.LVL114:
 984 008a 35F8103C 		ldrh	r3, [r5, #-16]
 985 008e 5840     		eors	r0, r0, r3
 986 0090 82AB     		add	r3, sp, #520
 987 0092 23F81400 		strh	r0, [r3, r4, lsl #1]	@ movhi
 292:..\fft.c      ****         deltas[i] = PQCLEAN_HQC256_CLEAN_gf_square(betas[i]) ^ betas[i];
 988              		.loc 1 292 0 discriminator 3
 989 0096 0134     		adds	r4, r4, #1
 990              	.LVL115:
 991              	.L48:
 292:..\fft.c      ****         deltas[i] = PQCLEAN_HQC256_CLEAN_gf_square(betas[i]) ^ betas[i];
 992              		.loc 1 292 0 is_stmt 0 discriminator 1
 993 0098 062C     		cmp	r4, #6
 994 009a EFD9     		bls	.L49
 294:..\fft.c      ****     }
 295:..\fft.c      **** 
 296:..\fft.c      ****     // Step 5
 297:..\fft.c      ****     fft_rec(u, f0, (f_coeffs + 1) / 2, PARAM_M - 1, PARAM_FFT - 1, deltas);
 995              		.loc 1 297 0 is_stmt 1
 996 009c 7A1C     		adds	r2, r7, #1
 997 009e 82AD     		add	r5, sp, #520
 998 00a0 0195     		str	r5, [sp, #4]
 999 00a2 0424     		movs	r4, #4
 1000              	.LVL116:
 1001 00a4 0094     		str	r4, [sp]
 1002 00a6 0723     		movs	r3, #7
 1003 00a8 5208     		lsrs	r2, r2, #1
 1004 00aa 8EA9     		add	r1, sp, #568
 1005 00ac 42A8     		add	r0, sp, #264
 1006 00ae FFF7FEFF 		bl	fft_rec
 1007              	.LVL117:
 298:..\fft.c      ****     fft_rec(v, f1, f_coeffs / 2, PARAM_M - 1, PARAM_FFT - 1, deltas);
 1008              		.loc 1 298 0
ARM GAS  C:\Users\bogur\AppData\Local\Temp\cc4t6lFa.s 			page 25


 1009 00b2 0195     		str	r5, [sp, #4]
 1010 00b4 0094     		str	r4, [sp]
 1011 00b6 0723     		movs	r3, #7
 1012 00b8 7A08     		lsrs	r2, r7, #1
 1013 00ba 86A9     		add	r1, sp, #536
 1014 00bc 02A8     		add	r0, sp, #8
 1015 00be FFF7FEFF 		bl	fft_rec
 1016              	.LVL118:
 299:..\fft.c      **** 
 300:..\fft.c      ****     k = 1 << (PARAM_M - 1);
 301:..\fft.c      ****     // Step 6, 7 and error polynomial computation
 302:..\fft.c      ****     memcpy(w + k, v, 2 * k);
 1017              		.loc 1 302 0
 1018 00c2 4FF48072 		mov	r2, #256
 1019 00c6 02A9     		add	r1, sp, #8
 1020 00c8 B018     		adds	r0, r6, r2
 1021 00ca FFF7FEFF 		bl	memcpy
 1022              	.LVL119:
 303:..\fft.c      **** 
 304:..\fft.c      ****     // Check if 0 is root
 305:..\fft.c      ****     w[0] = u[0];
 1023              		.loc 1 305 0
 1024 00ce BDF80821 		ldrh	r2, [sp, #264]
 1025 00d2 3280     		strh	r2, [r6]	@ movhi
 306:..\fft.c      **** 
 307:..\fft.c      ****     // Check if 1 is root
 308:..\fft.c      ****     w[k] ^= u[0];
 1026              		.loc 1 308 0
 1027 00d4 B6F80031 		ldrh	r3, [r6, #256]
 1028 00d8 5340     		eors	r3, r3, r2
 1029 00da A6F80031 		strh	r3, [r6, #256]	@ movhi
 1030              	.LVL120:
 309:..\fft.c      **** 
 310:..\fft.c      ****     // Find other roots
 311:..\fft.c      ****     for (i = 1; i < k; ++i) {
 1031              		.loc 1 311 0
 1032 00de 0124     		movs	r4, #1
 1033 00e0 16E0     		b	.L50
 1034              	.LVL121:
 1035              	.L51:
 312:..\fft.c      ****         w[i] = u[i] ^ PQCLEAN_HQC256_CLEAN_gf_mul(betas_sums[i], v[i]);
 1036              		.loc 1 312 0 discriminator 3
 1037 00e2 42AB     		add	r3, sp, #264
 1038 00e4 33F81450 		ldrh	r5, [r3, r4, lsl #1]
 1039 00e8 02AB     		add	r3, sp, #8
 1040 00ea 33F81410 		ldrh	r1, [r3, r4, lsl #1]
 1041 00ee 96AB     		add	r3, sp, #600
 1042 00f0 33F81400 		ldrh	r0, [r3, r4, lsl #1]
 1043 00f4 FFF7FEFF 		bl	PQCLEAN_HQC256_CLEAN_gf_mul
 1044              	.LVL122:
 1045 00f8 6840     		eors	r0, r0, r5
 1046 00fa 80B2     		uxth	r0, r0
 1047 00fc 26F81400 		strh	r0, [r6, r4, lsl #1]	@ movhi
 313:..\fft.c      ****         w[k + i] ^= w[i];
 1048              		.loc 1 313 0 discriminator 3
 1049 0100 04F18002 		add	r2, r4, #128
 1050 0104 36F81230 		ldrh	r3, [r6, r2, lsl #1]
ARM GAS  C:\Users\bogur\AppData\Local\Temp\cc4t6lFa.s 			page 26


 1051 0108 5840     		eors	r0, r0, r3
 1052 010a 26F81200 		strh	r0, [r6, r2, lsl #1]	@ movhi
 311:..\fft.c      ****         w[i] = u[i] ^ PQCLEAN_HQC256_CLEAN_gf_mul(betas_sums[i], v[i]);
 1053              		.loc 1 311 0 discriminator 3
 1054 010e 0134     		adds	r4, r4, #1
 1055              	.LVL123:
 1056              	.L50:
 311:..\fft.c      ****         w[i] = u[i] ^ PQCLEAN_HQC256_CLEAN_gf_mul(betas_sums[i], v[i]);
 1057              		.loc 1 311 0 is_stmt 0 discriminator 1
 1058 0110 7F2C     		cmp	r4, #127
 1059 0112 E6D9     		bls	.L51
 314:..\fft.c      ****     }
 315:..\fft.c      **** }
 1060              		.loc 1 315 0 is_stmt 1
 1061 0114 0DF55B7D 		add	sp, sp, #876
 1062              		.cfi_def_cfa_offset 28
 1063              		@ sp needed
 1064 0118 BDE8F083 		pop	{r4, r5, r6, r7, r8, r9, pc}
 1065              		.cfi_endproc
 1066              	.LFE5:
 1067              		.size	PQCLEAN_HQC256_CLEAN_fft, .-PQCLEAN_HQC256_CLEAN_fft
 1068              		.section	.text.PQCLEAN_HQC256_CLEAN_fft_retrieve_error_poly,"ax",%progbits
 1069              		.align	2
 1070              		.global	PQCLEAN_HQC256_CLEAN_fft_retrieve_error_poly
 1071              		.thumb
 1072              		.thumb_func
 1073              		.type	PQCLEAN_HQC256_CLEAN_fft_retrieve_error_poly, %function
 1074              	PQCLEAN_HQC256_CLEAN_fft_retrieve_error_poly:
 1075              	.LFB6:
 316:..\fft.c      **** 
 317:..\fft.c      **** 
 318:..\fft.c      **** 
 319:..\fft.c      **** /**
 320:..\fft.c      ****  * @brief Retrieves the error polynomial error from the evaluations w of the ELP (Error Locator Pol
 321:..\fft.c      ****  *
 322:..\fft.c      ****  * @param[out] error Array with the error
 323:..\fft.c      ****  * @param[out] error_compact Array with the error in a compact form
 324:..\fft.c      ****  * @param[in] w Array of size 2^PARAM_M
 325:..\fft.c      ****  */
 326:..\fft.c      **** void PQCLEAN_HQC256_CLEAN_fft_retrieve_error_poly(uint8_t *error, const uint16_t *w) {
 1076              		.loc 1 326 0
 1077              		.cfi_startproc
 1078              		@ args = 0, pretend = 0, frame = 272
 1079              		@ frame_needed = 0, uses_anonymous_args = 0
 1080              	.LVL124:
 1081 0000 F0B5     		push	{r4, r5, r6, r7, lr}
 1082              		.cfi_def_cfa_offset 20
 1083              		.cfi_offset 4, -20
 1084              		.cfi_offset 5, -16
 1085              		.cfi_offset 6, -12
 1086              		.cfi_offset 7, -8
 1087              		.cfi_offset 14, -4
 1088 0002 C5B0     		sub	sp, sp, #276
 1089              		.cfi_def_cfa_offset 296
 1090 0004 0446     		mov	r4, r0
 1091 0006 0D46     		mov	r5, r1
 327:..\fft.c      ****     uint16_t gammas[PARAM_M - 1] = {0};
ARM GAS  C:\Users\bogur\AppData\Local\Temp\cc4t6lFa.s 			page 27


 1092              		.loc 1 327 0
 1093 0008 0021     		movs	r1, #0
 1094              	.LVL125:
 1095 000a 4091     		str	r1, [sp, #256]
 1096 000c 4191     		str	r1, [sp, #260]
 1097 000e 4291     		str	r1, [sp, #264]
 1098 0010 ADF80C11 		strh	r1, [sp, #268]	@ movhi
 328:..\fft.c      ****     uint16_t gammas_sums[1 << (PARAM_M - 1)] = {0};
 1099              		.loc 1 328 0
 1100 0014 4FF48072 		mov	r2, #256
 1101 0018 6846     		mov	r0, sp
 1102              	.LVL126:
 1103 001a FFF7FEFF 		bl	memset
 1104              	.LVL127:
 329:..\fft.c      ****     uint16_t k;
 330:..\fft.c      ****     size_t i, index;
 331:..\fft.c      **** 
 332:..\fft.c      ****     compute_fft_betas(gammas);
 1105              		.loc 1 332 0
 1106 001e 40A8     		add	r0, sp, #256
 1107 0020 FFF7FEFF 		bl	compute_fft_betas
 1108              	.LVL128:
 333:..\fft.c      ****     compute_subset_sums(gammas_sums, gammas, PARAM_M - 1);
 1109              		.loc 1 333 0
 1110 0024 0722     		movs	r2, #7
 1111 0026 40A9     		add	r1, sp, #256
 1112 0028 6846     		mov	r0, sp
 1113 002a FFF7FEFF 		bl	compute_subset_sums
 1114              	.LVL129:
 334:..\fft.c      **** 
 335:..\fft.c      ****     k = 1 << (PARAM_M - 1);
 336:..\fft.c      ****     error[0] ^= 1 ^ ((uint16_t) - w[0] >> 15);
 1115              		.loc 1 336 0
 1116 002e 2B88     		ldrh	r3, [r5]
 1117 0030 5B42     		negs	r3, r3
 1118 0032 C3F3C032 		ubfx	r2, r3, #15, #1
 1119 0036 2378     		ldrb	r3, [r4]	@ zero_extendqisi2
 1120 0038 5340     		eors	r3, r3, r2
 1121 003a 83F00102 		eor	r2, r3, #1
 1122 003e 2270     		strb	r2, [r4]
 337:..\fft.c      ****     error[0] ^= 1 ^ ((uint16_t) - w[k] >> 15);
 1123              		.loc 1 337 0
 1124 0040 B5F80031 		ldrh	r3, [r5, #256]
 1125 0044 5B42     		negs	r3, r3
 1126 0046 C3F3C033 		ubfx	r3, r3, #15, #1
 1127 004a 5340     		eors	r3, r3, r2
 1128 004c 83F00103 		eor	r3, r3, #1
 1129 0050 2370     		strb	r3, [r4]
 1130              	.LVL130:
 338:..\fft.c      **** 
 339:..\fft.c      ****     for (i = 1; i < k; ++i) {
 1131              		.loc 1 339 0
 1132 0052 0123     		movs	r3, #1
 1133 0054 23E0     		b	.L54
 1134              	.LVL131:
 1135              	.L55:
 340:..\fft.c      ****         index = PARAM_GF_MUL_ORDER - gf_log[gammas_sums[i]];
ARM GAS  C:\Users\bogur\AppData\Local\Temp\cc4t6lFa.s 			page 28


 1136              		.loc 1 340 0 discriminator 3
 1137 0056 3DF81300 		ldrh	r0, [sp, r3, lsl #1]
 1138 005a 134F     		ldr	r7, .L57
 1139 005c 37F81060 		ldrh	r6, [r7, r0, lsl #1]
 1140 0060 C6F1FF06 		rsb	r6, r6, #255
 1141              	.LVL132:
 341:..\fft.c      ****         error[index] ^= 1 ^ ((uint16_t) - w[i] >> 15);
 1142              		.loc 1 341 0 discriminator 3
 1143 0064 35F81320 		ldrh	r2, [r5, r3, lsl #1]
 1144 0068 5242     		negs	r2, r2
 1145 006a C2F3C032 		ubfx	r2, r2, #15, #1
 1146 006e A15D     		ldrb	r1, [r4, r6]	@ zero_extendqisi2
 1147 0070 4A40     		eors	r2, r2, r1
 1148 0072 82F00102 		eor	r2, r2, #1
 1149 0076 A255     		strb	r2, [r4, r6]
 342:..\fft.c      **** 
 343:..\fft.c      ****         index = PARAM_GF_MUL_ORDER - gf_log[gammas_sums[i] ^ 1];
 1150              		.loc 1 343 0 discriminator 3
 1151 0078 80F00100 		eor	r0, r0, #1
 1152 007c 37F81000 		ldrh	r0, [r7, r0, lsl #1]
 1153 0080 C0F1FF00 		rsb	r0, r0, #255
 1154              	.LVL133:
 344:..\fft.c      ****         error[index] ^= 1 ^ ((uint16_t) - w[k + i] >> 15);
 1155              		.loc 1 344 0 discriminator 3
 1156 0084 03F18002 		add	r2, r3, #128
 1157 0088 35F81220 		ldrh	r2, [r5, r2, lsl #1]
 1158 008c 5242     		negs	r2, r2
 1159 008e C2F3C032 		ubfx	r2, r2, #15, #1
 1160 0092 215C     		ldrb	r1, [r4, r0]	@ zero_extendqisi2
 1161 0094 4A40     		eors	r2, r2, r1
 1162 0096 82F00102 		eor	r2, r2, #1
 1163 009a 2254     		strb	r2, [r4, r0]
 339:..\fft.c      ****         index = PARAM_GF_MUL_ORDER - gf_log[gammas_sums[i]];
 1164              		.loc 1 339 0 discriminator 3
 1165 009c 0133     		adds	r3, r3, #1
 1166              	.LVL134:
 1167              	.L54:
 339:..\fft.c      ****         index = PARAM_GF_MUL_ORDER - gf_log[gammas_sums[i]];
 1168              		.loc 1 339 0 is_stmt 0 discriminator 1
 1169 009e 7F2B     		cmp	r3, #127
 1170 00a0 D9D9     		bls	.L55
 345:..\fft.c      ****     }
 346:..\fft.c      **** }
 1171              		.loc 1 346 0 is_stmt 1
 1172 00a2 45B0     		add	sp, sp, #276
 1173              		.cfi_def_cfa_offset 20
 1174              		@ sp needed
 1175 00a4 F0BD     		pop	{r4, r5, r6, r7, pc}
 1176              	.LVL135:
 1177              	.L58:
 1178 00a6 00BF     		.align	2
 1179              	.L57:
 1180 00a8 00000000 		.word	.LANCHOR0
 1181              		.cfi_endproc
 1182              	.LFE6:
 1183              		.size	PQCLEAN_HQC256_CLEAN_fft_retrieve_error_poly, .-PQCLEAN_HQC256_CLEAN_fft_retrieve_error_poly
 1184              		.section	.rodata
ARM GAS  C:\Users\bogur\AppData\Local\Temp\cc4t6lFa.s 			page 29


 1185              		.align	2
 1186              		.set	.LANCHOR0,. + 0
 1187              		.type	gf_log, %object
 1188              		.size	gf_log, 512
 1189              	gf_log:
 1190 0000 0000     		.short	0
 1191 0002 0000     		.short	0
 1192 0004 0100     		.short	1
 1193 0006 1900     		.short	25
 1194 0008 0200     		.short	2
 1195 000a 3200     		.short	50
 1196 000c 1A00     		.short	26
 1197 000e C600     		.short	198
 1198 0010 0300     		.short	3
 1199 0012 DF00     		.short	223
 1200 0014 3300     		.short	51
 1201 0016 EE00     		.short	238
 1202 0018 1B00     		.short	27
 1203 001a 6800     		.short	104
 1204 001c C700     		.short	199
 1205 001e 4B00     		.short	75
 1206 0020 0400     		.short	4
 1207 0022 6400     		.short	100
 1208 0024 E000     		.short	224
 1209 0026 0E00     		.short	14
 1210 0028 3400     		.short	52
 1211 002a 8D00     		.short	141
 1212 002c EF00     		.short	239
 1213 002e 8100     		.short	129
 1214 0030 1C00     		.short	28
 1215 0032 C100     		.short	193
 1216 0034 6900     		.short	105
 1217 0036 F800     		.short	248
 1218 0038 C800     		.short	200
 1219 003a 0800     		.short	8
 1220 003c 4C00     		.short	76
 1221 003e 7100     		.short	113
 1222 0040 0500     		.short	5
 1223 0042 8A00     		.short	138
 1224 0044 6500     		.short	101
 1225 0046 2F00     		.short	47
 1226 0048 E100     		.short	225
 1227 004a 2400     		.short	36
 1228 004c 0F00     		.short	15
 1229 004e 2100     		.short	33
 1230 0050 3500     		.short	53
 1231 0052 9300     		.short	147
 1232 0054 8E00     		.short	142
 1233 0056 DA00     		.short	218
 1234 0058 F000     		.short	240
 1235 005a 1200     		.short	18
 1236 005c 8200     		.short	130
 1237 005e 4500     		.short	69
 1238 0060 1D00     		.short	29
 1239 0062 B500     		.short	181
 1240 0064 C200     		.short	194
 1241 0066 7D00     		.short	125
ARM GAS  C:\Users\bogur\AppData\Local\Temp\cc4t6lFa.s 			page 30


 1242 0068 6A00     		.short	106
 1243 006a 2700     		.short	39
 1244 006c F900     		.short	249
 1245 006e B900     		.short	185
 1246 0070 C900     		.short	201
 1247 0072 9A00     		.short	154
 1248 0074 0900     		.short	9
 1249 0076 7800     		.short	120
 1250 0078 4D00     		.short	77
 1251 007a E400     		.short	228
 1252 007c 7200     		.short	114
 1253 007e A600     		.short	166
 1254 0080 0600     		.short	6
 1255 0082 BF00     		.short	191
 1256 0084 8B00     		.short	139
 1257 0086 6200     		.short	98
 1258 0088 6600     		.short	102
 1259 008a DD00     		.short	221
 1260 008c 3000     		.short	48
 1261 008e FD00     		.short	253
 1262 0090 E200     		.short	226
 1263 0092 9800     		.short	152
 1264 0094 2500     		.short	37
 1265 0096 B300     		.short	179
 1266 0098 1000     		.short	16
 1267 009a 9100     		.short	145
 1268 009c 2200     		.short	34
 1269 009e 8800     		.short	136
 1270 00a0 3600     		.short	54
 1271 00a2 D000     		.short	208
 1272 00a4 9400     		.short	148
 1273 00a6 CE00     		.short	206
 1274 00a8 8F00     		.short	143
 1275 00aa 9600     		.short	150
 1276 00ac DB00     		.short	219
 1277 00ae BD00     		.short	189
 1278 00b0 F100     		.short	241
 1279 00b2 D200     		.short	210
 1280 00b4 1300     		.short	19
 1281 00b6 5C00     		.short	92
 1282 00b8 8300     		.short	131
 1283 00ba 3800     		.short	56
 1284 00bc 4600     		.short	70
 1285 00be 4000     		.short	64
 1286 00c0 1E00     		.short	30
 1287 00c2 4200     		.short	66
 1288 00c4 B600     		.short	182
 1289 00c6 A300     		.short	163
 1290 00c8 C300     		.short	195
 1291 00ca 4800     		.short	72
 1292 00cc 7E00     		.short	126
 1293 00ce 6E00     		.short	110
 1294 00d0 6B00     		.short	107
 1295 00d2 3A00     		.short	58
 1296 00d4 2800     		.short	40
 1297 00d6 5400     		.short	84
 1298 00d8 FA00     		.short	250
ARM GAS  C:\Users\bogur\AppData\Local\Temp\cc4t6lFa.s 			page 31


 1299 00da 8500     		.short	133
 1300 00dc BA00     		.short	186
 1301 00de 3D00     		.short	61
 1302 00e0 CA00     		.short	202
 1303 00e2 5E00     		.short	94
 1304 00e4 9B00     		.short	155
 1305 00e6 9F00     		.short	159
 1306 00e8 0A00     		.short	10
 1307 00ea 1500     		.short	21
 1308 00ec 7900     		.short	121
 1309 00ee 2B00     		.short	43
 1310 00f0 4E00     		.short	78
 1311 00f2 D400     		.short	212
 1312 00f4 E500     		.short	229
 1313 00f6 AC00     		.short	172
 1314 00f8 7300     		.short	115
 1315 00fa F300     		.short	243
 1316 00fc A700     		.short	167
 1317 00fe 5700     		.short	87
 1318 0100 0700     		.short	7
 1319 0102 7000     		.short	112
 1320 0104 C000     		.short	192
 1321 0106 F700     		.short	247
 1322 0108 8C00     		.short	140
 1323 010a 8000     		.short	128
 1324 010c 6300     		.short	99
 1325 010e 0D00     		.short	13
 1326 0110 6700     		.short	103
 1327 0112 4A00     		.short	74
 1328 0114 DE00     		.short	222
 1329 0116 ED00     		.short	237
 1330 0118 3100     		.short	49
 1331 011a C500     		.short	197
 1332 011c FE00     		.short	254
 1333 011e 1800     		.short	24
 1334 0120 E300     		.short	227
 1335 0122 A500     		.short	165
 1336 0124 9900     		.short	153
 1337 0126 7700     		.short	119
 1338 0128 2600     		.short	38
 1339 012a B800     		.short	184
 1340 012c B400     		.short	180
 1341 012e 7C00     		.short	124
 1342 0130 1100     		.short	17
 1343 0132 4400     		.short	68
 1344 0134 9200     		.short	146
 1345 0136 D900     		.short	217
 1346 0138 2300     		.short	35
 1347 013a 2000     		.short	32
 1348 013c 8900     		.short	137
 1349 013e 2E00     		.short	46
 1350 0140 3700     		.short	55
 1351 0142 3F00     		.short	63
 1352 0144 D100     		.short	209
 1353 0146 5B00     		.short	91
 1354 0148 9500     		.short	149
 1355 014a BC00     		.short	188
ARM GAS  C:\Users\bogur\AppData\Local\Temp\cc4t6lFa.s 			page 32


 1356 014c CF00     		.short	207
 1357 014e CD00     		.short	205
 1358 0150 9000     		.short	144
 1359 0152 8700     		.short	135
 1360 0154 9700     		.short	151
 1361 0156 B200     		.short	178
 1362 0158 DC00     		.short	220
 1363 015a FC00     		.short	252
 1364 015c BE00     		.short	190
 1365 015e 6100     		.short	97
 1366 0160 F200     		.short	242
 1367 0162 5600     		.short	86
 1368 0164 D300     		.short	211
 1369 0166 AB00     		.short	171
 1370 0168 1400     		.short	20
 1371 016a 2A00     		.short	42
 1372 016c 5D00     		.short	93
 1373 016e 9E00     		.short	158
 1374 0170 8400     		.short	132
 1375 0172 3C00     		.short	60
 1376 0174 3900     		.short	57
 1377 0176 5300     		.short	83
 1378 0178 4700     		.short	71
 1379 017a 6D00     		.short	109
 1380 017c 4100     		.short	65
 1381 017e A200     		.short	162
 1382 0180 1F00     		.short	31
 1383 0182 2D00     		.short	45
 1384 0184 4300     		.short	67
 1385 0186 D800     		.short	216
 1386 0188 B700     		.short	183
 1387 018a 7B00     		.short	123
 1388 018c A400     		.short	164
 1389 018e 7600     		.short	118
 1390 0190 C400     		.short	196
 1391 0192 1700     		.short	23
 1392 0194 4900     		.short	73
 1393 0196 EC00     		.short	236
 1394 0198 7F00     		.short	127
 1395 019a 0C00     		.short	12
 1396 019c 6F00     		.short	111
 1397 019e F600     		.short	246
 1398 01a0 6C00     		.short	108
 1399 01a2 A100     		.short	161
 1400 01a4 3B00     		.short	59
 1401 01a6 5200     		.short	82
 1402 01a8 2900     		.short	41
 1403 01aa 9D00     		.short	157
 1404 01ac 5500     		.short	85
 1405 01ae AA00     		.short	170
 1406 01b0 FB00     		.short	251
 1407 01b2 6000     		.short	96
 1408 01b4 8600     		.short	134
 1409 01b6 B100     		.short	177
 1410 01b8 BB00     		.short	187
 1411 01ba CC00     		.short	204
 1412 01bc 3E00     		.short	62
ARM GAS  C:\Users\bogur\AppData\Local\Temp\cc4t6lFa.s 			page 33


 1413 01be 5A00     		.short	90
 1414 01c0 CB00     		.short	203
 1415 01c2 5900     		.short	89
 1416 01c4 5F00     		.short	95
 1417 01c6 B000     		.short	176
 1418 01c8 9C00     		.short	156
 1419 01ca A900     		.short	169
 1420 01cc A000     		.short	160
 1421 01ce 5100     		.short	81
 1422 01d0 0B00     		.short	11
 1423 01d2 F500     		.short	245
 1424 01d4 1600     		.short	22
 1425 01d6 EB00     		.short	235
 1426 01d8 7A00     		.short	122
 1427 01da 7500     		.short	117
 1428 01dc 2C00     		.short	44
 1429 01de D700     		.short	215
 1430 01e0 4F00     		.short	79
 1431 01e2 AE00     		.short	174
 1432 01e4 D500     		.short	213
 1433 01e6 E900     		.short	233
 1434 01e8 E600     		.short	230
 1435 01ea E700     		.short	231
 1436 01ec AD00     		.short	173
 1437 01ee E800     		.short	232
 1438 01f0 7400     		.short	116
 1439 01f2 D600     		.short	214
 1440 01f4 F400     		.short	244
 1441 01f6 EA00     		.short	234
 1442 01f8 A800     		.short	168
 1443 01fa 5000     		.short	80
 1444 01fc 5800     		.short	88
 1445 01fe AF00     		.short	175
 1446              		.text
 1447              	.Letext0:
 1448              		.file 2 "c:\\program files (x86)\\cypress\\psoc creator\\4.4\\psoc creator\\import\\gnu\\arm\\5.4.
 1449              		.file 3 "c:\\program files (x86)\\cypress\\psoc creator\\4.4\\psoc creator\\import\\gnu\\arm\\5.4.
 1450              		.file 4 "c:\\program files (x86)\\cypress\\psoc creator\\4.4\\psoc creator\\import\\gnu\\arm\\5.4.
 1451              		.file 5 "..\\gf.h"