ARM GAS  C:\Users\bogurad\AppData\Local\Temp\cczl7p9K.s 			page 1


   1              		.syntax unified
   2              		.cpu cortex-m4
   3              		.eabi_attribute 27, 1
   4              		.fpu fpv4-sp-d16
   5              		.eabi_attribute 20, 1
   6              		.eabi_attribute 21, 1
   7              		.eabi_attribute 23, 3
   8              		.eabi_attribute 24, 1
   9              		.eabi_attribute 25, 1
  10              		.eabi_attribute 26, 1
  11              		.eabi_attribute 30, 1
  12              		.eabi_attribute 34, 1
  13              		.eabi_attribute 18, 4
  14              		.thumb
  15              		.syntax unified
  16              		.file	"gf2x.c"
  17              		.text
  18              	.Ltext0:
  19              		.cfi_sections	.debug_frame
  20              		.section	.text.base_mul,"ax",%progbits
  21              		.align	2
  22              		.thumb
  23              		.thumb_func
  24              		.type	base_mul, %function
  25              	base_mul:
  26              	.LFB0:
  27              		.file 1 "..\\gf2x.c"
   1:..\gf2x.c     **** #include "gf2x.h"
   2:..\gf2x.c     **** #include "parameters.h"
   3:..\gf2x.c     **** #include <stddef.h>
   4:..\gf2x.c     **** #include <stdint.h>
   5:..\gf2x.c     **** /**
   6:..\gf2x.c     ****  * @file gf2x.c
   7:..\gf2x.c     ****  * @brief Implementation of multiplication of two polynomials
   8:..\gf2x.c     ****  */
   9:..\gf2x.c     **** 
  10:..\gf2x.c     **** 
  11:..\gf2x.c     **** /**
  12:..\gf2x.c     ****  * @brief Caryless multiplication of two words of 64 bits
  13:..\gf2x.c     ****  *
  14:..\gf2x.c     ****  * Implemntation of the algorithm mul1 in https://hal.inria.fr/inria-00188261v4/document.
  15:..\gf2x.c     ****  * With w = 64 and s = 4
  16:..\gf2x.c     ****  *
  17:..\gf2x.c     ****  * @param[out] c The result c = a * b
  18:..\gf2x.c     ****  * @param[in] a The first value a
  19:..\gf2x.c     ****  * @param[in] b The second value b
  20:..\gf2x.c     ****  */
  21:..\gf2x.c     **** static void base_mul(uint64_t *c, uint64_t a, uint64_t b) {
  28              		.loc 1 21 0
  29              		.cfi_startproc
  30              		@ args = 8, pretend = 0, frame = 184
  31              		@ frame_needed = 0, uses_anonymous_args = 0
  32              	.LVL0:
  33 0000 2DE9F04F 		push	{r4, r5, r6, r7, r8, r9, r10, fp, lr}
  34              		.cfi_def_cfa_offset 36
  35              		.cfi_offset 4, -36
  36              		.cfi_offset 5, -32
ARM GAS  C:\Users\bogurad\AppData\Local\Temp\cczl7p9K.s 			page 2


  37              		.cfi_offset 6, -28
  38              		.cfi_offset 7, -24
  39              		.cfi_offset 8, -20
  40              		.cfi_offset 9, -16
  41              		.cfi_offset 10, -12
  42              		.cfi_offset 11, -8
  43              		.cfi_offset 14, -4
  44 0004 AFB0     		sub	sp, sp, #188
  45              		.cfi_def_cfa_offset 224
  46 0006 0D90     		str	r0, [sp, #52]
  47 0008 9046     		mov	r8, r2
  48 000a 9946     		mov	r9, r3
  49 000c CDE90A89 		strd	r8, [sp, #40]
  50              	.LVL1:
  22:..\gf2x.c     ****     uint64_t h = 0;
  23:..\gf2x.c     ****     uint64_t l = 0;
  24:..\gf2x.c     ****     uint64_t g;
  25:..\gf2x.c     ****     uint64_t u[16] = {0};
  51              		.loc 1 25 0
  52 0010 8022     		movs	r2, #128
  53              	.LVL2:
  54 0012 0021     		movs	r1, #0
  55 0014 0EA8     		add	r0, sp, #56
  56              	.LVL3:
  57 0016 FFF7FEFF 		bl	memset
  58              	.LVL4:
  26:..\gf2x.c     ****     uint64_t mask_tab[4] = {0};
  27:..\gf2x.c     ****     uint64_t tmp1, tmp2;
  28:..\gf2x.c     **** 
  29:..\gf2x.c     ****     // Step 1
  30:..\gf2x.c     ****     u[0] = 0;
  31:..\gf2x.c     ****     u[1] = b & (((uint64_t)1 << (64 - 4)) - 1);
  59              		.loc 1 31 0
  60 001a DDE93801 		ldrd	r0, [sp, #224]
  61 001e 21F07041 		bic	r1, r1, #-268435456
  62 0022 CDE91001 		strd	r0, [sp, #64]
  32:..\gf2x.c     ****     u[2] = u[1] << 1;
  63              		.loc 1 32 0
  64 0026 0218     		adds	r2, r0, r0
  65 0028 41EB0103 		adc	r3, r1, r1
  66 002c CDE91223 		strd	r2, [sp, #72]
  33:..\gf2x.c     ****     u[3] = u[2] ^ u[1];
  67              		.loc 1 33 0
  68 0030 80EA0204 		eor	r4, r0, r2
  69 0034 81EA0305 		eor	r5, r1, r3
  70 0038 CDE91445 		strd	r4, [sp, #80]
  34:..\gf2x.c     ****     u[4] = u[2] << 1;
  71              		.loc 1 34 0
  72 003c 9218     		adds	r2, r2, r2
  73 003e 5B41     		adcs	r3, r3, r3
  74 0040 CDE91623 		strd	r2, [sp, #88]
  35:..\gf2x.c     ****     u[5] = u[4] ^ u[1];
  75              		.loc 1 35 0
  76 0044 80EA0206 		eor	r6, r0, r2
  77 0048 81EA0307 		eor	r7, r1, r3
  78 004c CDE90667 		strd	r6, [sp, #24]
  79 0050 CDE91867 		strd	r6, [sp, #96]
ARM GAS  C:\Users\bogurad\AppData\Local\Temp\cczl7p9K.s 			page 3


  36:..\gf2x.c     ****     u[6] = u[3] << 1;
  80              		.loc 1 36 0
  81 0054 2419     		adds	r4, r4, r4
  82 0056 6D41     		adcs	r5, r5, r5
  83 0058 CDE91A45 		strd	r4, [sp, #104]
  37:..\gf2x.c     ****     u[7] = u[6] ^ u[1];
  84              		.loc 1 37 0
  85 005c 80EA0406 		eor	r6, r0, r4
  86 0060 81EA0507 		eor	r7, r1, r5
  87 0064 CDE91C67 		strd	r6, [sp, #112]
  38:..\gf2x.c     ****     u[8] = u[4] << 1;
  88              		.loc 1 38 0
  89 0068 9218     		adds	r2, r2, r2
  90 006a 5B41     		adcs	r3, r3, r3
  91 006c CDE91E23 		strd	r2, [sp, #120]
  39:..\gf2x.c     ****     u[9] = u[8] ^ u[1];
  92              		.loc 1 39 0
  93 0070 4240     		eors	r2, r2, r0
  94 0072 4B40     		eors	r3, r3, r1
  95 0074 CDE92023 		strd	r2, [sp, #128]
  40:..\gf2x.c     ****     u[10] = u[5] << 1;
  96              		.loc 1 40 0
  97 0078 DDE90623 		ldrd	r2, [sp, #24]
  98 007c 9218     		adds	r2, r2, r2
  99 007e 5B41     		adcs	r3, r3, r3
 100 0080 CDE92223 		strd	r2, [sp, #136]
  41:..\gf2x.c     ****     u[11] = u[10] ^ u[1];
 101              		.loc 1 41 0
 102 0084 4240     		eors	r2, r2, r0
 103 0086 4B40     		eors	r3, r3, r1
 104 0088 CDE92423 		strd	r2, [sp, #144]
  42:..\gf2x.c     ****     u[12] = u[6] << 1;
 105              		.loc 1 42 0
 106 008c 2419     		adds	r4, r4, r4
 107 008e 6D41     		adcs	r5, r5, r5
 108 0090 CDE92645 		strd	r4, [sp, #152]
  43:..\gf2x.c     ****     u[13] = u[12] ^ u[1];
 109              		.loc 1 43 0
 110 0094 4440     		eors	r4, r4, r0
 111 0096 4D40     		eors	r5, r5, r1
 112 0098 CDE92845 		strd	r4, [sp, #160]
  44:..\gf2x.c     ****     u[14] = u[7] << 1;
 113              		.loc 1 44 0
 114 009c B619     		adds	r6, r6, r6
 115 009e 7F41     		adcs	r7, r7, r7
 116 00a0 3246     		mov	r2, r6
 117 00a2 3B46     		mov	r3, r7
 118 00a4 CDE92A23 		strd	r2, [sp, #168]
  45:..\gf2x.c     ****     u[15] = u[14] ^ u[1];
 119              		.loc 1 45 0
 120 00a8 7040     		eors	r0, r0, r6
 121 00aa 7940     		eors	r1, r1, r7
 122 00ac CDE92C01 		strd	r0, [sp, #176]
 123              	.LVL5:
  46:..\gf2x.c     **** 
  47:..\gf2x.c     ****     g = 0;
  48:..\gf2x.c     ****     tmp1 = a & 0x0f;
ARM GAS  C:\Users\bogurad\AppData\Local\Temp\cczl7p9K.s 			page 4


 124              		.loc 1 48 0
 125 00b0 08F00F06 		and	r6, r8, #15
 126 00b4 0027     		movs	r7, #0
 127              	.LVL6:
 128              	.LBB2:
  49:..\gf2x.c     **** 
  50:..\gf2x.c     ****     for (size_t i = 0; i < 16; ++i) {
 129              		.loc 1 50 0
 130 00b6 4FF0000E 		mov	lr, #0
 131              	.LBE2:
  47:..\gf2x.c     ****     tmp1 = a & 0x0f;
 132              		.loc 1 47 0
 133 00ba 0023     		movs	r3, #0
 134 00bc 0024     		movs	r4, #0
 135 00be CDE90634 		strd	r3, [sp, #24]
 136              	.LBB3:
 137              		.loc 1 50 0
 138 00c2 1AE0     		b	.L2
 139              	.LVL7:
 140              	.L3:
  51:..\gf2x.c     ****         tmp2 = tmp1 - i;
 141              		.loc 1 51 0 discriminator 3
 142 00c4 B6EB0E02 		subs	r2, r6, lr
 143 00c8 67F10003 		sbc	r3, r7, #0
 144              	.LVL8:
  52:..\gf2x.c     ****         g ^= (u[i] & (uint64_t)(0 - (1 - ((uint64_t)(tmp2 | (0 - tmp2)) >> 63))));
 145              		.loc 1 52 0 discriminator 3
 146 00cc 2EA9     		add	r1, sp, #184
 147 00ce 01EBCE01 		add	r1, r1, lr, lsl #3
 148 00d2 51E92045 		ldrd	r4, [r1, #-128]
 149 00d6 5042     		rsbs	r0, r2, #0
 150 00d8 63EB4301 		sbc	r1, r3, r3, lsl #1
 151 00dc 0B43     		orrs	r3, r3, r1
 152 00de 4FEAE378 		asr	r8, r3, #31
 153 00e2 24EA0804 		bic	r4, r4, r8
 154 00e6 25EA0805 		bic	r5, r5, r8
 155 00ea DDE90623 		ldrd	r2, [sp, #24]
 156              	.LVL9:
 157 00ee 6240     		eors	r2, r2, r4
 158 00f0 6B40     		eors	r3, r3, r5
 159 00f2 CDE90623 		strd	r2, [sp, #24]
 160              	.LVL10:
  50:..\gf2x.c     ****         tmp2 = tmp1 - i;
 161              		.loc 1 50 0 discriminator 3
 162 00f6 0EF1010E 		add	lr, lr, #1
 163              	.LVL11:
 164              	.L2:
  50:..\gf2x.c     ****         tmp2 = tmp1 - i;
 165              		.loc 1 50 0 is_stmt 0 discriminator 1
 166 00fa BEF10F0F 		cmp	lr, #15
 167 00fe E1D9     		bls	.L3
 168 0100 4FF0040C 		mov	ip, #4
 169 0104 0023     		movs	r3, #0
 170 0106 0024     		movs	r4, #0
 171 0108 CDE90834 		strd	r3, [sp, #32]
 172 010c 6FE0     		b	.L4
 173              	.LVL12:
ARM GAS  C:\Users\bogurad\AppData\Local\Temp\cczl7p9K.s 			page 5


 174              	.L7:
 175              	.LBE3:
 176              	.LBB4:
  53:..\gf2x.c     ****     }
  54:..\gf2x.c     **** 
  55:..\gf2x.c     ****     l = g;
  56:..\gf2x.c     ****     h = 0;
  57:..\gf2x.c     **** 
  58:..\gf2x.c     ****     // Step 2
  59:..\gf2x.c     ****     for (size_t i = 4; i < 64; i += 4) {
  60:..\gf2x.c     ****         g = 0;
  61:..\gf2x.c     ****         tmp1 = (a >> i) & 0x0f;
 177              		.loc 1 61 0 is_stmt 1
 178 010e CCF12002 		rsb	r2, ip, #32
 179 0112 ACF12003 		sub	r3, ip, #32
 180 0116 DDE90A45 		ldrd	r4, [sp, #40]
 181 011a 24FA0CF1 		lsr	r1, r4, ip
 182 011e 0091     		str	r1, [sp]
 183 0120 05FA02F2 		lsl	r2, r5, r2
 184 0124 0099     		ldr	r1, [sp]
 185 0126 1143     		orrs	r1, r1, r2
 186 0128 25FA03F3 		lsr	r3, r5, r3
 187 012c 0A46     		mov	r2, r1
 188 012e 1A43     		orrs	r2, r2, r3
 189 0130 0092     		str	r2, [sp]
 190 0132 25FA0CF3 		lsr	r3, r5, ip
 191 0136 0193     		str	r3, [sp, #4]
 192 0138 DDE90089 		ldrd	r8, [sp]
 193 013c 08F00F08 		and	r8, r8, #15
 194 0140 4FF00009 		mov	r9, #0
 195              	.LVL13:
 196              	.LBB5:
  62:..\gf2x.c     ****         for (size_t j = 0; j < 16; ++j) {
 197              		.loc 1 62 0
 198 0144 4FF0000E 		mov	lr, #0
 199              	.LBE5:
  60:..\gf2x.c     ****         tmp1 = (a >> i) & 0x0f;
 200              		.loc 1 60 0
 201 0148 0026     		movs	r6, #0
 202 014a 0027     		movs	r7, #0
 203              	.LBB6:
 204              		.loc 1 62 0
 205 014c 16E0     		b	.L5
 206              	.LVL14:
 207              	.L6:
  63:..\gf2x.c     ****             tmp2 = tmp1 - j;
 208              		.loc 1 63 0 discriminator 3
 209 014e B8EB0E00 		subs	r0, r8, lr
 210 0152 69F10001 		sbc	r1, r9, #0
 211              	.LVL15:
  64:..\gf2x.c     ****             g ^= (u[j] & (uint64_t)(0 - (1 - ((uint64_t)(tmp2 | (0 - tmp2)) >> 63))));
 212              		.loc 1 64 0 discriminator 3
 213 0156 2EAB     		add	r3, sp, #184
 214 0158 03EBCE03 		add	r3, r3, lr, lsl #3
 215 015c 53E92045 		ldrd	r4, [r3, #-128]
 216 0160 4242     		rsbs	r2, r0, #0
 217 0162 61EB4103 		sbc	r3, r1, r1, lsl #1
ARM GAS  C:\Users\bogurad\AppData\Local\Temp\cczl7p9K.s 			page 6


 218 0166 0B43     		orrs	r3, r3, r1
 219 0168 4FEAE37A 		asr	r10, r3, #31
 220 016c 24EA0A04 		bic	r4, r4, r10
 221 0170 25EA0A05 		bic	r5, r5, r10
 222 0174 6640     		eors	r6, r6, r4
 223              	.LVL16:
 224 0176 6F40     		eors	r7, r7, r5
 225              	.LVL17:
  62:..\gf2x.c     ****             tmp2 = tmp1 - j;
 226              		.loc 1 62 0 discriminator 3
 227 0178 0EF1010E 		add	lr, lr, #1
 228              	.LVL18:
 229              	.L5:
  62:..\gf2x.c     ****             tmp2 = tmp1 - j;
 230              		.loc 1 62 0 is_stmt 0 discriminator 1
 231 017c BEF10F0F 		cmp	lr, #15
 232 0180 E5D9     		bls	.L6
 233              	.LBE6:
  65:..\gf2x.c     ****         }
  66:..\gf2x.c     **** 
  67:..\gf2x.c     ****         l ^= g << i;
 234              		.loc 1 67 0 is_stmt 1 discriminator 2
 235 0182 ACF12002 		sub	r2, ip, #32
 236 0186 CCF12003 		rsb	r3, ip, #32
 237 018a 07FA0CF1 		lsl	r1, r7, ip
 238 018e 06FA02F2 		lsl	r2, r6, r2
 239 0192 1143     		orrs	r1, r1, r2
 240 0194 26FA03F3 		lsr	r3, r6, r3
 241 0198 0A46     		mov	r2, r1
 242 019a 1A43     		orrs	r2, r2, r3
 243 019c 0392     		str	r2, [sp, #12]
 244 019e 06FA0CF3 		lsl	r3, r6, ip
 245 01a2 0293     		str	r3, [sp, #8]
 246 01a4 DDE90234 		ldrd	r3, [sp, #8]
 247 01a8 DDE90612 		ldrd	r1, [sp, #24]
 248 01ac 4B40     		eors	r3, r3, r1
 249 01ae 5440     		eors	r4, r4, r2
 250 01b0 CDE90634 		strd	r3, [sp, #24]
 251              	.LVL19:
  68:..\gf2x.c     ****         h ^= g >> (64 - i);
 252              		.loc 1 68 0 discriminator 2
 253 01b4 CCF14003 		rsb	r3, ip, #64
 254              	.LVL20:
 255 01b8 C3F12001 		rsb	r1, r3, #32
 256 01bc A3F12002 		sub	r2, r3, #32
 257 01c0 26FA03F0 		lsr	r0, r6, r3
 258 01c4 07FA01F1 		lsl	r1, r7, r1
 259 01c8 0843     		orrs	r0, r0, r1
 260 01ca 27FA02F2 		lsr	r2, r7, r2
 261 01ce 0146     		mov	r1, r0
 262 01d0 1143     		orrs	r1, r1, r2
 263 01d2 0491     		str	r1, [sp, #16]
 264 01d4 27FA03F3 		lsr	r3, r7, r3
 265 01d8 0593     		str	r3, [sp, #20]
 266 01da DDE90434 		ldrd	r3, [sp, #16]
 267 01de DDE90812 		ldrd	r1, [sp, #32]
 268 01e2 4B40     		eors	r3, r3, r1
ARM GAS  C:\Users\bogurad\AppData\Local\Temp\cczl7p9K.s 			page 7


 269 01e4 5440     		eors	r4, r4, r2
 270 01e6 CDE90834 		strd	r3, [sp, #32]
 271              	.LVL21:
  59:..\gf2x.c     ****         g = 0;
 272              		.loc 1 59 0 discriminator 2
 273 01ea 0CF1040C 		add	ip, ip, #4
 274              	.LVL22:
 275              	.L4:
  59:..\gf2x.c     ****         g = 0;
 276              		.loc 1 59 0 is_stmt 0 discriminator 1
 277 01ee BCF13F0F 		cmp	ip, #63
 278 01f2 8CD9     		bls	.L7
 279              	.LBE4:
  69:..\gf2x.c     ****     }
  70:..\gf2x.c     **** 
  71:..\gf2x.c     ****     // Step 3
  72:..\gf2x.c     ****     mask_tab [0] = 0 - ((b >> 60) & 1);
 280              		.loc 1 72 0 is_stmt 1
 281 01f4 399B     		ldr	r3, [sp, #228]
 282 01f6 4FEA1378 		lsr	r8, r3, #28
 283 01fa 4FF00009 		mov	r9, #0
 284 01fe 08F00102 		and	r2, r8, #1
 285 0202 0023     		movs	r3, #0
 286 0204 5042     		rsbs	r0, r2, #0
 287 0206 63EB4301 		sbc	r1, r3, r3, lsl #1
  73:..\gf2x.c     ****     mask_tab [1] = 0 - ((b >> 61) & 1);
 288              		.loc 1 73 0
 289 020a 399C     		ldr	r4, [sp, #228]
 290 020c 620F     		lsrs	r2, r4, #29
 291 020e 02F00102 		and	r2, r2, #1
 292 0212 0023     		movs	r3, #0
 293 0214 5442     		rsbs	r4, r2, #0
 294 0216 63EB4305 		sbc	r5, r3, r3, lsl #1
  74:..\gf2x.c     ****     mask_tab [2] = 0 - ((b >> 62) & 1);
 295              		.loc 1 74 0
 296 021a 399E     		ldr	r6, [sp, #228]
 297 021c B20F     		lsrs	r2, r6, #30
 298 021e 02F00102 		and	r2, r2, #1
 299 0222 0023     		movs	r3, #0
 300 0224 D2F1000A 		rsbs	r10, r2, #0
 301 0228 63EB430B 		sbc	fp, r3, r3, lsl #1
  75:..\gf2x.c     ****     mask_tab [3] = 0 - ((b >> 63) & 1);
 302              		.loc 1 75 0
 303 022c F317     		asrs	r3, r6, #31
 304 022e 0093     		str	r3, [sp]
 305 0230 0193     		str	r3, [sp, #4]
  76:..\gf2x.c     **** 
  77:..\gf2x.c     ****     l ^= ((a << 60) & mask_tab[0]);
 306              		.loc 1 77 0
 307 0232 0A9E     		ldr	r6, [sp, #40]
 308 0234 3307     		lsls	r3, r6, #28
 309 0236 4A46     		mov	r2, r9
 310 0238 0240     		ands	r2, r2, r0
 311 023a 0B40     		ands	r3, r3, r1
 312 023c DDE90667 		ldrd	r6, [sp, #24]
 313 0240 5640     		eors	r6, r6, r2
 314 0242 5F40     		eors	r7, r7, r3
ARM GAS  C:\Users\bogurad\AppData\Local\Temp\cczl7p9K.s 			page 8


 315 0244 CDE90267 		strd	r6, [sp, #8]
 316              	.LVL23:
  78:..\gf2x.c     ****     h ^= ((a >> 4) & mask_tab[0]);
 317              		.loc 1 78 0
 318 0248 0A9E     		ldr	r6, [sp, #40]
 319              	.LVL24:
 320 024a 3209     		lsrs	r2, r6, #4
 321 024c 0B9E     		ldr	r6, [sp, #44]
 322 024e 42EA0672 		orr	r2, r2, r6, lsl #28
 323 0252 3309     		lsrs	r3, r6, #4
 324 0254 0240     		ands	r2, r2, r0
 325 0256 0B40     		ands	r3, r3, r1
 326 0258 DDE90801 		ldrd	r0, [sp, #32]
 327 025c 5040     		eors	r0, r0, r2
 328 025e 5940     		eors	r1, r1, r3
 329 0260 CDE90401 		strd	r0, [sp, #16]
 330              	.LVL25:
  79:..\gf2x.c     **** 
  80:..\gf2x.c     ****     l ^= ((a << 61) & mask_tab[1]);
 331              		.loc 1 80 0
 332 0264 DDE90A67 		ldrd	r6, [sp, #40]
 333 0268 7307     		lsls	r3, r6, #29
 334 026a 04EA0900 		and	r0, r4, r9
 335              	.LVL26:
 336 026e 05EA0301 		and	r1, r5, r3
 337 0272 DDE90223 		ldrd	r2, [sp, #8]
 338 0276 4240     		eors	r2, r2, r0
 339 0278 4B40     		eors	r3, r3, r1
 340 027a 1046     		mov	r0, r2
 341 027c 1946     		mov	r1, r3
 342              	.LVL27:
  81:..\gf2x.c     ****     h ^= ((a >> 3) & mask_tab[1]);
 343              		.loc 1 81 0
 344 027e F208     		lsrs	r2, r6, #3
 345 0280 0B9E     		ldr	r6, [sp, #44]
 346 0282 42EA4672 		orr	r2, r2, r6, lsl #29
 347 0286 F308     		lsrs	r3, r6, #3
 348 0288 2240     		ands	r2, r2, r4
 349 028a 2B40     		ands	r3, r3, r5
 350 028c DDE90445 		ldrd	r4, [sp, #16]
 351 0290 5440     		eors	r4, r4, r2
 352 0292 5D40     		eors	r5, r5, r3
 353 0294 2246     		mov	r2, r4
 354 0296 2B46     		mov	r3, r5
 355              	.LVL28:
  82:..\gf2x.c     **** 
  83:..\gf2x.c     ****     l ^= ((a << 62) & mask_tab[2]);
 356              		.loc 1 83 0
 357 0298 0A9E     		ldr	r6, [sp, #40]
 358 029a B507     		lsls	r5, r6, #30
 359 029c 09EA0A04 		and	r4, r9, r10
 360 02a0 05EA0B05 		and	r5, r5, fp
 361 02a4 6040     		eors	r0, r0, r4
 362              	.LVL29:
 363 02a6 6940     		eors	r1, r1, r5
 364              	.LVL30:
  84:..\gf2x.c     ****     h ^= ((a >> 2) & mask_tab[2]);
ARM GAS  C:\Users\bogurad\AppData\Local\Temp\cczl7p9K.s 			page 9


 365              		.loc 1 84 0
 366 02a8 B408     		lsrs	r4, r6, #2
 367 02aa 0B9E     		ldr	r6, [sp, #44]
 368 02ac 44EA8674 		orr	r4, r4, r6, lsl #30
 369 02b0 B508     		lsrs	r5, r6, #2
 370 02b2 04EA0A04 		and	r4, r4, r10
 371 02b6 05EA0B05 		and	r5, r5, fp
 372 02ba 6240     		eors	r2, r2, r4
 373              	.LVL31:
 374 02bc 6B40     		eors	r3, r3, r5
 375              	.LVL32:
  85:..\gf2x.c     **** 
  86:..\gf2x.c     ****     l ^= ((a << 63) & mask_tab[3]);
 376              		.loc 1 86 0
 377 02be DDE90AAB 		ldrd	r10, [sp, #40]
 378 02c2 5646     		mov	r6, r10
 379 02c4 F507     		lsls	r5, r6, #31
 380 02c6 4C46     		mov	r4, r9
 381 02c8 DDE90078 		ldrd	r7, [sp]
 382 02cc 2740     		ands	r7, r7, r4
 383 02ce 08EA0508 		and	r8, r8, r5
 384 02d2 3C46     		mov	r4, r7
 385 02d4 4546     		mov	r5, r8
 386 02d6 4440     		eors	r4, r4, r0
 387 02d8 4D40     		eors	r5, r5, r1
 388              	.LVL33:
  87:..\gf2x.c     ****     h ^= ((a >> 1) & mask_tab[3]);
 389              		.loc 1 87 0
 390 02da 5046     		mov	r0, r10
 391 02dc 5946     		mov	r1, fp
 392 02de 4908     		movs	r1, r1, lsr #1
 393 02e0 4FEA3000 		mov	r0, r0, rrx
 394 02e4 DDE90067 		ldrd	r6, [sp]
 395 02e8 0640     		ands	r6, r6, r0
 396 02ea 0F40     		ands	r7, r7, r1
 397 02ec 3046     		mov	r0, r6
 398 02ee 3946     		mov	r1, r7
 399 02f0 5040     		eors	r0, r0, r2
 400 02f2 5940     		eors	r1, r1, r3
 401              	.LVL34:
  88:..\gf2x.c     **** 
  89:..\gf2x.c     ****     c[0] = l;
 402              		.loc 1 89 0
 403 02f4 0D9A     		ldr	r2, [sp, #52]
 404 02f6 C2E90045 		strd	r4, [r2]
  90:..\gf2x.c     ****     c[1] = h;
 405              		.loc 1 90 0
 406 02fa C2E90201 		strd	r0, [r2, #8]
  91:..\gf2x.c     **** }
 407              		.loc 1 91 0
 408 02fe 2FB0     		add	sp, sp, #188
 409              		.cfi_def_cfa_offset 36
 410              		@ sp needed
 411 0300 BDE8F08F 		pop	{r4, r5, r6, r7, r8, r9, r10, fp, pc}
 412              		.cfi_endproc
 413              	.LFE0:
 414              		.size	base_mul, .-base_mul
ARM GAS  C:\Users\bogurad\AppData\Local\Temp\cczl7p9K.s 			page 10


 415              		.section	.text.karatsuba_add1,"ax",%progbits
 416              		.align	2
 417              		.thumb
 418              		.thumb_func
 419              		.type	karatsuba_add1, %function
 420              	karatsuba_add1:
 421              	.LFB1:
  92:..\gf2x.c     **** 
  93:..\gf2x.c     **** static void karatsuba_add1(uint64_t *alh, uint64_t *blh, const uint64_t *a, const uint64_t *b, size
 422              		.loc 1 93 0
 423              		.cfi_startproc
 424              		@ args = 8, pretend = 0, frame = 0
 425              		@ frame_needed = 0, uses_anonymous_args = 0
 426              	.LVL35:
 427 0000 2DE9F04F 		push	{r4, r5, r6, r7, r8, r9, r10, fp, lr}
 428              		.cfi_def_cfa_offset 36
 429              		.cfi_offset 4, -36
 430              		.cfi_offset 5, -32
 431              		.cfi_offset 6, -28
 432              		.cfi_offset 7, -24
 433              		.cfi_offset 8, -20
 434              		.cfi_offset 9, -16
 435              		.cfi_offset 10, -12
 436              		.cfi_offset 11, -8
 437              		.cfi_offset 14, -4
 438 0004 8A46     		mov	r10, r1
 439 0006 DDF824B0 		ldr	fp, [sp, #36]
 440 000a DDF828E0 		ldr	lr, [sp, #40]
 441              	.LVL36:
 442              	.LBB7:
  94:..\gf2x.c     ****     for (size_t i = 0; i < size_h; ++i) {
 443              		.loc 1 94 0
 444 000e 0021     		movs	r1, #0
 445              	.LVL37:
 446 0010 20E0     		b	.L10
 447              	.LVL38:
 448              	.L11:
  95:..\gf2x.c     ****         alh[i] = a[i] ^ a[i + size_l];
 449              		.loc 1 95 0 discriminator 3
 450 0012 4FEAC108 		lsl	r8, r1, #3
 451 0016 00EB0809 		add	r9, r0, r8
 452 001a 02EB0804 		add	r4, r2, r8
 453 001e D4E90067 		ldrd	r6, [r4]
 454 0022 01EB0B0C 		add	ip, r1, fp
 455 0026 4FEACC0C 		lsl	ip, ip, #3
 456 002a 02EB0C04 		add	r4, r2, ip
 457 002e D4E90045 		ldrd	r4, [r4]
 458 0032 7440     		eors	r4, r4, r6
 459 0034 7D40     		eors	r5, r5, r7
 460 0036 C9E90045 		strd	r4, [r9]
  96:..\gf2x.c     ****         blh[i] = b[i] ^ b[i + size_l];
 461              		.loc 1 96 0 discriminator 3
 462 003a 0AEB0809 		add	r9, r10, r8
 463 003e 9844     		add	r8, r8, r3
 464 0040 D8E90067 		ldrd	r6, [r8]
 465 0044 9C44     		add	ip, ip, r3
 466 0046 DCE90045 		ldrd	r4, [ip]
ARM GAS  C:\Users\bogurad\AppData\Local\Temp\cczl7p9K.s 			page 11


 467 004a 7440     		eors	r4, r4, r6
 468 004c 7D40     		eors	r5, r5, r7
 469 004e C9E90045 		strd	r4, [r9]
  94:..\gf2x.c     ****     for (size_t i = 0; i < size_h; ++i) {
 470              		.loc 1 94 0 discriminator 3
 471 0052 0131     		adds	r1, r1, #1
 472              	.LVL39:
 473              	.L10:
  94:..\gf2x.c     ****     for (size_t i = 0; i < size_h; ++i) {
 474              		.loc 1 94 0 is_stmt 0 discriminator 1
 475 0054 7145     		cmp	r1, lr
 476 0056 DCD3     		bcc	.L11
 477              	.LBE7:
  97:..\gf2x.c     ****     }
  98:..\gf2x.c     **** 
  99:..\gf2x.c     ****     if (size_h < size_l) {
 478              		.loc 1 99 0 is_stmt 1
 479 0058 DE45     		cmp	lr, fp
 480 005a 0DD2     		bcs	.L9
 100:..\gf2x.c     ****         alh[size_h] = a[size_h];
 481              		.loc 1 100 0
 482 005c 4FEACE0E 		lsl	lr, lr, #3
 483 0060 7044     		add	r0, r0, lr
 484              	.LVL40:
 485 0062 7244     		add	r2, r2, lr
 486              	.LVL41:
 487 0064 D2E90045 		ldrd	r4, [r2]
 488 0068 C0E90045 		strd	r4, [r0]
 101:..\gf2x.c     ****         blh[size_h] = b[size_h];
 489              		.loc 1 101 0
 490 006c F244     		add	r10, r10, lr
 491              	.LVL42:
 492 006e 9E44     		add	lr, lr, r3
 493 0070 DEE90023 		ldrd	r2, [lr]
 494 0074 CAE90023 		strd	r2, [r10]
 495              	.L9:
 496 0078 BDE8F08F 		pop	{r4, r5, r6, r7, r8, r9, r10, fp, pc}
 497              		.cfi_endproc
 498              	.LFE1:
 499              		.size	karatsuba_add1, .-karatsuba_add1
 500              		.section	.text.karatsuba_add2,"ax",%progbits
 501              		.align	2
 502              		.thumb
 503              		.thumb_func
 504              		.type	karatsuba_add2, %function
 505              	karatsuba_add2:
 506              	.LFB2:
 102:..\gf2x.c     ****     }
 103:..\gf2x.c     **** }
 104:..\gf2x.c     **** 
 105:..\gf2x.c     **** static void karatsuba_add2(uint64_t *o, uint64_t *tmp1, const uint64_t *tmp2, size_t size_l, size_t
 507              		.loc 1 105 0
 508              		.cfi_startproc
 509              		@ args = 4, pretend = 0, frame = 0
 510              		@ frame_needed = 0, uses_anonymous_args = 0
 511              	.LVL43:
 512 0000 2DE9F043 		push	{r4, r5, r6, r7, r8, r9, lr}
ARM GAS  C:\Users\bogurad\AppData\Local\Temp\cczl7p9K.s 			page 12


 513              		.cfi_def_cfa_offset 28
 514              		.cfi_offset 4, -28
 515              		.cfi_offset 5, -24
 516              		.cfi_offset 6, -20
 517              		.cfi_offset 7, -16
 518              		.cfi_offset 8, -12
 519              		.cfi_offset 9, -8
 520              		.cfi_offset 14, -4
 521 0004 9E46     		mov	lr, r3
 522 0006 079B     		ldr	r3, [sp, #28]
 523              	.LVL44:
 524              	.LBB8:
 106:..\gf2x.c     ****     for (size_t i = 0; i < (2 * size_l); ++i) {
 525              		.loc 1 106 0
 526 0008 4FF00008 		mov	r8, #0
 527 000c 0EE0     		b	.L15
 528              	.LVL45:
 529              	.L16:
 107:..\gf2x.c     ****         tmp1[i] = tmp1[i] ^ o[i];
 530              		.loc 1 107 0 discriminator 3
 531 000e 4FEAC804 		lsl	r4, r8, #3
 532 0012 01EB040C 		add	ip, r1, r4
 533 0016 DCE90067 		ldrd	r6, [ip]
 534 001a 0444     		add	r4, r4, r0
 535 001c D4E90045 		ldrd	r4, [r4]
 536 0020 7440     		eors	r4, r4, r6
 537 0022 7D40     		eors	r5, r5, r7
 538 0024 CCE90045 		strd	r4, [ip]
 106:..\gf2x.c     ****     for (size_t i = 0; i < (2 * size_l); ++i) {
 539              		.loc 1 106 0 discriminator 3
 540 0028 08F10108 		add	r8, r8, #1
 541              	.LVL46:
 542              	.L15:
 106:..\gf2x.c     ****     for (size_t i = 0; i < (2 * size_l); ++i) {
 543              		.loc 1 106 0 is_stmt 0 discriminator 1
 544 002c 4FEA4E0C 		lsl	ip, lr, #1
 545 0030 E045     		cmp	r8, ip
 546 0032 ECD3     		bcc	.L16
 547 0034 4FF00008 		mov	r8, #0
 548              	.LVL47:
 549 0038 0EE0     		b	.L17
 550              	.LVL48:
 551              	.L18:
 552              	.LBE8:
 553              	.LBB9:
 108:..\gf2x.c     ****     }
 109:..\gf2x.c     **** 
 110:..\gf2x.c     ****     for (size_t i = 0; i < ( 2 * size_h); ++i) {
 111:..\gf2x.c     ****         tmp1[i] = tmp1[i] ^ tmp2[i];
 554              		.loc 1 111 0 is_stmt 1 discriminator 3
 555 003a 4FEAC804 		lsl	r4, r8, #3
 556 003e 01EB0409 		add	r9, r1, r4
 557 0042 D9E90067 		ldrd	r6, [r9]
 558 0046 1444     		add	r4, r4, r2
 559 0048 D4E90045 		ldrd	r4, [r4]
 560 004c 7440     		eors	r4, r4, r6
 561 004e 7D40     		eors	r5, r5, r7
ARM GAS  C:\Users\bogurad\AppData\Local\Temp\cczl7p9K.s 			page 13


 562 0050 C9E90045 		strd	r4, [r9]
 110:..\gf2x.c     ****         tmp1[i] = tmp1[i] ^ tmp2[i];
 563              		.loc 1 110 0 discriminator 3
 564 0054 08F10108 		add	r8, r8, #1
 565              	.LVL49:
 566              	.L17:
 110:..\gf2x.c     ****         tmp1[i] = tmp1[i] ^ tmp2[i];
 567              		.loc 1 110 0 is_stmt 0 discriminator 1
 568 0058 B8EB430F 		cmp	r8, r3, lsl #1
 569 005c EDD3     		bcc	.L18
 570 005e 0026     		movs	r6, #0
 571 0060 0EE0     		b	.L19
 572              	.LVL50:
 573              	.L20:
 574              	.LBE9:
 575              	.LBB10:
 112:..\gf2x.c     ****     }
 113:..\gf2x.c     **** 
 114:..\gf2x.c     ****     for (size_t i = 0; i <  (2 * size_l); ++i) {
 115:..\gf2x.c     ****         o[i + size_l] = o[i + size_l] ^ tmp1[i];
 576              		.loc 1 115 0 is_stmt 1 discriminator 3
 577 0062 06EB0E07 		add	r7, r6, lr
 578 0066 00EBC707 		add	r7, r0, r7, lsl #3
 579 006a D7E90023 		ldrd	r2, [r7]
 580 006e 01EBC604 		add	r4, r1, r6, lsl #3
 581 0072 D4E90045 		ldrd	r4, [r4]
 582 0076 6240     		eors	r2, r2, r4
 583 0078 6B40     		eors	r3, r3, r5
 584 007a C7E90023 		strd	r2, [r7]
 114:..\gf2x.c     ****         o[i + size_l] = o[i + size_l] ^ tmp1[i];
 585              		.loc 1 114 0 discriminator 3
 586 007e 0136     		adds	r6, r6, #1
 587              	.LVL51:
 588              	.L19:
 114:..\gf2x.c     ****         o[i + size_l] = o[i + size_l] ^ tmp1[i];
 589              		.loc 1 114 0 is_stmt 0 discriminator 1
 590 0080 6645     		cmp	r6, ip
 591 0082 EED3     		bcc	.L20
 592              	.LBE10:
 116:..\gf2x.c     ****     }
 117:..\gf2x.c     **** }
 593              		.loc 1 117 0 is_stmt 1
 594 0084 BDE8F083 		pop	{r4, r5, r6, r7, r8, r9, pc}
 595              		.cfi_endproc
 596              	.LFE2:
 597              		.size	karatsuba_add2, .-karatsuba_add2
 598              		.section	.text.karatsuba,"ax",%progbits
 599              		.align	2
 600              		.thumb
 601              		.thumb_func
 602              		.type	karatsuba, %function
 603              	karatsuba:
 604              	.LFB3:
 118:..\gf2x.c     **** 
 119:..\gf2x.c     **** /**
 120:..\gf2x.c     ****  * Karatsuba multiplication of a and b, Implementation inspired from the NTL library.
 121:..\gf2x.c     ****  *
ARM GAS  C:\Users\bogurad\AppData\Local\Temp\cczl7p9K.s 			page 14


 122:..\gf2x.c     ****  * @param[out] o Polynomial
 123:..\gf2x.c     ****  * @param[in] a Polynomial
 124:..\gf2x.c     ****  * @param[in] b Polynomial
 125:..\gf2x.c     ****  * @param[in] size Length of polynomial
 126:..\gf2x.c     ****  * @param[in] stack Length of polynomial
 127:..\gf2x.c     ****  */
 128:..\gf2x.c     **** static void karatsuba(uint64_t *o, const uint64_t *a, const uint64_t *b, size_t size, uint64_t *sta
 605              		.loc 1 128 0
 606              		.cfi_startproc
 607              		@ args = 4, pretend = 0, frame = 16
 608              		@ frame_needed = 0, uses_anonymous_args = 0
 609              	.LVL52:
 610 0000 2DE9F04F 		push	{r4, r5, r6, r7, r8, r9, r10, fp, lr}
 611              		.cfi_def_cfa_offset 36
 612              		.cfi_offset 4, -36
 613              		.cfi_offset 5, -32
 614              		.cfi_offset 6, -28
 615              		.cfi_offset 7, -24
 616              		.cfi_offset 8, -20
 617              		.cfi_offset 9, -16
 618              		.cfi_offset 10, -12
 619              		.cfi_offset 11, -8
 620              		.cfi_offset 14, -4
 621 0004 87B0     		sub	sp, sp, #28
 622              		.cfi_def_cfa_offset 64
 623 0006 0646     		mov	r6, r0
 624 0008 0F46     		mov	r7, r1
 625 000a 9046     		mov	r8, r2
 129:..\gf2x.c     ****     size_t size_l, size_h;
 130:..\gf2x.c     ****     const uint64_t *ah, *bh;
 131:..\gf2x.c     **** 
 132:..\gf2x.c     ****     if (size == 1) {
 626              		.loc 1 132 0
 627 000c 012B     		cmp	r3, #1
 628 000e 09D1     		bne	.L23
 133:..\gf2x.c     ****         base_mul(o, a[0], b[0]);
 629              		.loc 1 133 0
 630 0010 D1E90023 		ldrd	r2, [r1]
 631              	.LVL53:
 632 0014 D8E90001 		ldrd	r0, [r8]
 633              	.LVL54:
 634 0018 CDE90001 		strd	r0, [sp]
 635 001c 3046     		mov	r0, r6
 636 001e FFF7FEFF 		bl	base_mul
 637              	.LVL55:
 134:..\gf2x.c     ****         return;
 638              		.loc 1 134 0
 639 0022 3CE0     		b	.L22
 640              	.LVL56:
 641              	.L23:
 135:..\gf2x.c     ****     }
 136:..\gf2x.c     **** 
 137:..\gf2x.c     ****     size_h = size / 2;
 642              		.loc 1 137 0
 643 0024 4FEA5309 		lsr	r9, r3, #1
 644              	.LVL57:
 138:..\gf2x.c     ****     size_l = (size + 1) / 2;
ARM GAS  C:\Users\bogurad\AppData\Local\Temp\cczl7p9K.s 			page 15


 645              		.loc 1 138 0
 646 0028 0133     		adds	r3, r3, #1
 647              	.LVL58:
 648 002a 5C08     		lsrs	r4, r3, #1
 649              	.LVL59:
 139:..\gf2x.c     **** 
 140:..\gf2x.c     ****     uint64_t *alh = stack;
 141:..\gf2x.c     ****     uint64_t *blh = alh + size_l;
 650              		.loc 1 141 0
 651 002c E500     		lsls	r5, r4, #3
 652 002e 109B     		ldr	r3, [sp, #64]
 653              	.LVL60:
 654 0030 03EB050A 		add	r10, r3, r5
 655              	.LVL61:
 142:..\gf2x.c     ****     uint64_t *tmp1 = blh + size_l;
 656              		.loc 1 142 0
 657 0034 0AEB0503 		add	r3, r10, r5
 658 0038 0493     		str	r3, [sp, #16]
 659              	.LVL62:
 143:..\gf2x.c     ****     uint64_t *tmp2 = o + 2 * size_l;
 660              		.loc 1 143 0
 661 003a 00EB0412 		add	r2, r0, r4, lsl #4
 662              	.LVL63:
 663 003e 0392     		str	r2, [sp, #12]
 664              	.LVL64:
 144:..\gf2x.c     **** 
 145:..\gf2x.c     ****     stack += 4 * size_l;
 665              		.loc 1 145 0
 666 0040 1099     		ldr	r1, [sp, #64]
 667              	.LVL65:
 668 0042 01EB441B 		add	fp, r1, r4, lsl #5
 669              	.LVL66:
 146:..\gf2x.c     **** 
 147:..\gf2x.c     ****     ah = a + size_l;
 670              		.loc 1 147 0
 671 0046 7919     		adds	r1, r7, r5
 672 0048 0591     		str	r1, [sp, #20]
 673              	.LVL67:
 148:..\gf2x.c     ****     bh = b + size_l;
 674              		.loc 1 148 0
 675 004a 4544     		add	r5, r5, r8
 676              	.LVL68:
 149:..\gf2x.c     **** 
 150:..\gf2x.c     ****     karatsuba(o, a, b, size_l, stack);
 677              		.loc 1 150 0
 678 004c CDF800B0 		str	fp, [sp]
 679 0050 2346     		mov	r3, r4
 680              	.LVL69:
 681 0052 4246     		mov	r2, r8
 682              	.LVL70:
 683 0054 3946     		mov	r1, r7
 684              	.LVL71:
 685 0056 FFF7D3FF 		bl	karatsuba
 686              	.LVL72:
 151:..\gf2x.c     **** 
 152:..\gf2x.c     ****     karatsuba(tmp2, ah, bh, size_h, stack);
 687              		.loc 1 152 0
ARM GAS  C:\Users\bogurad\AppData\Local\Temp\cczl7p9K.s 			page 16


 688 005a CDF800B0 		str	fp, [sp]
 689 005e 4B46     		mov	r3, r9
 690 0060 2A46     		mov	r2, r5
 691 0062 0599     		ldr	r1, [sp, #20]
 692 0064 0398     		ldr	r0, [sp, #12]
 693 0066 FFF7CBFF 		bl	karatsuba
 694              	.LVL73:
 153:..\gf2x.c     **** 
 154:..\gf2x.c     ****     karatsuba_add1(alh, blh, a, b, size_l, size_h);
 695              		.loc 1 154 0
 696 006a CDF80490 		str	r9, [sp, #4]
 697 006e 0094     		str	r4, [sp]
 698 0070 4346     		mov	r3, r8
 699 0072 3A46     		mov	r2, r7
 700 0074 5146     		mov	r1, r10
 701 0076 1098     		ldr	r0, [sp, #64]
 702 0078 FFF7FEFF 		bl	karatsuba_add1
 703              	.LVL74:
 155:..\gf2x.c     **** 
 156:..\gf2x.c     ****     karatsuba(tmp1, alh, blh, size_l, stack);
 704              		.loc 1 156 0
 705 007c CDF800B0 		str	fp, [sp]
 706 0080 2346     		mov	r3, r4
 707 0082 5246     		mov	r2, r10
 708 0084 1099     		ldr	r1, [sp, #64]
 709 0086 049D     		ldr	r5, [sp, #16]
 710              	.LVL75:
 711 0088 2846     		mov	r0, r5
 712 008a FFF7B9FF 		bl	karatsuba
 713              	.LVL76:
 157:..\gf2x.c     **** 
 158:..\gf2x.c     ****     karatsuba_add2(o, tmp1, tmp2, size_l, size_h);
 714              		.loc 1 158 0
 715 008e CDF80090 		str	r9, [sp]
 716 0092 2346     		mov	r3, r4
 717 0094 039A     		ldr	r2, [sp, #12]
 718 0096 2946     		mov	r1, r5
 719 0098 3046     		mov	r0, r6
 720 009a FFF7FEFF 		bl	karatsuba_add2
 721              	.LVL77:
 722              	.L22:
 159:..\gf2x.c     **** }
 723              		.loc 1 159 0
 724 009e 07B0     		add	sp, sp, #28
 725              		.cfi_def_cfa_offset 36
 726              		@ sp needed
 727 00a0 BDE8F08F 		pop	{r4, r5, r6, r7, r8, r9, r10, fp, pc}
 728              		.cfi_endproc
 729              	.LFE3:
 730              		.size	karatsuba, .-karatsuba
 731              		.section	.text.reduce,"ax",%progbits
 732              		.align	2
 733              		.thumb
 734              		.thumb_func
 735              		.type	reduce, %function
 736              	reduce:
 737              	.LFB4:
ARM GAS  C:\Users\bogurad\AppData\Local\Temp\cczl7p9K.s 			page 17


 160:..\gf2x.c     **** 
 161:..\gf2x.c     **** /**
 162:..\gf2x.c     ****  * @brief Compute o(x) = a(x) mod \f$ X^n - 1\f$
 163:..\gf2x.c     ****  *
 164:..\gf2x.c     ****  * This function computes the modular reduction of the polynomial a(x)
 165:..\gf2x.c     ****  *
 166:..\gf2x.c     ****  * @param[in] a Pointer to the polynomial a(x)
 167:..\gf2x.c     ****  * @param[out] o Pointer to the result
 168:..\gf2x.c     ****  */
 169:..\gf2x.c     **** static void reduce(uint64_t *o, const uint64_t *a) {
 738              		.loc 1 169 0
 739              		.cfi_startproc
 740              		@ args = 0, pretend = 0, frame = 0
 741              		@ frame_needed = 0, uses_anonymous_args = 0
 742              	.LVL78:
 743 0000 2DE9F043 		push	{r4, r5, r6, r7, r8, r9, lr}
 744              		.cfi_def_cfa_offset 28
 745              		.cfi_offset 4, -28
 746              		.cfi_offset 5, -24
 747              		.cfi_offset 6, -20
 748              		.cfi_offset 7, -16
 749              		.cfi_offset 8, -12
 750              		.cfi_offset 9, -8
 751              		.cfi_offset 14, -4
 752              	.LVL79:
 753              	.LBB11:
 170:..\gf2x.c     ****     uint64_t r;
 171:..\gf2x.c     ****     uint64_t carry;
 172:..\gf2x.c     **** 
 173:..\gf2x.c     ****     for (size_t i = 0; i < VEC_N_SIZE_64; ++i) {
 754              		.loc 1 173 0
 755 0004 0023     		movs	r3, #0
 756 0006 25E0     		b	.L27
 757              	.LVL80:
 758              	.L28:
 174:..\gf2x.c     ****         r = a[i + VEC_N_SIZE_64 - 1] >> (PARAM_N & 0x3F);
 759              		.loc 1 174 0 discriminator 3
 760 0008 03F56172 		add	r2, r3, #900
 761 000c 01EBC202 		add	r2, r1, r2, lsl #3
 762 0010 5268     		ldr	r2, [r2, #4]
 763 0012 5609     		lsrs	r6, r2, #5
 764 0014 0027     		movs	r7, #0
 765              	.LVL81:
 175:..\gf2x.c     ****         carry = a[i + VEC_N_SIZE_64] << (64 - (PARAM_N & 0x3F));
 766              		.loc 1 175 0 discriminator 3
 767 0016 03F28532 		addw	r2, r3, #901
 768 001a 01EBC20E 		add	lr, r1, r2, lsl #3
 769 001e 51F83220 		ldr	r2, [r1, r2, lsl #3]
 770 0022 DEF804E0 		ldr	lr, [lr, #4]
 771 0026 4FEACE65 		lsl	r5, lr, #27
 772 002a 45EA5215 		orr	r5, r5, r2, lsr #5
 773 002e D406     		lsls	r4, r2, #27
 774              	.LVL82:
 176:..\gf2x.c     ****         o[i] = a[i] ^ r ^ carry;
 775              		.loc 1 176 0 discriminator 3
 776 0030 4FEAC30E 		lsl	lr, r3, #3
 777 0034 00EB0E02 		add	r2, r0, lr
ARM GAS  C:\Users\bogurad\AppData\Local\Temp\cczl7p9K.s 			page 18


 778 0038 8E44     		add	lr, lr, r1
 779 003a DEE90089 		ldrd	r8, [lr]
 780 003e 88EA0608 		eor	r8, r8, r6
 781 0042 89EA0709 		eor	r9, r9, r7
 782 0046 88EA0408 		eor	r8, r8, r4
 783 004a 89EA0509 		eor	r9, r9, r5
 784 004e C2E90089 		strd	r8, [r2]
 173:..\gf2x.c     ****         r = a[i + VEC_N_SIZE_64 - 1] >> (PARAM_N & 0x3F);
 785              		.loc 1 173 0 discriminator 3
 786 0052 0133     		adds	r3, r3, #1
 787              	.LVL83:
 788              	.L27:
 173:..\gf2x.c     ****         r = a[i + VEC_N_SIZE_64 - 1] >> (PARAM_N & 0x3F);
 789              		.loc 1 173 0 is_stmt 0 discriminator 1
 790 0054 B3F5617F 		cmp	r3, #900
 791 0058 D6D9     		bls	.L28
 792              	.LBE11:
 177:..\gf2x.c     ****     }
 178:..\gf2x.c     **** 
 179:..\gf2x.c     ****     o[VEC_N_SIZE_64 - 1] &= RED_MASK;
 793              		.loc 1 179 0 is_stmt 1
 794 005a 00F5E150 		add	r0, r0, #7200
 795              	.LVL84:
 796 005e D0E90023 		ldrd	r2, [r0]
 797 0062 03F01F03 		and	r3, r3, #31
 798              	.LVL85:
 799 0066 C0E90023 		strd	r2, [r0]
 800 006a BDE8F083 		pop	{r4, r5, r6, r7, r8, r9, pc}
 801              		.cfi_endproc
 802              	.LFE4:
 803              		.size	reduce, .-reduce
 804 006e 00BF     		.section	.text.PQCLEAN_HQC256_CLEAN_vect_mul,"ax",%progbits
 805              		.align	2
 806              		.global	PQCLEAN_HQC256_CLEAN_vect_mul
 807              		.thumb
 808              		.thumb_func
 809              		.type	PQCLEAN_HQC256_CLEAN_vect_mul, %function
 810              	PQCLEAN_HQC256_CLEAN_vect_mul:
 811              	.LFB5:
 180:..\gf2x.c     **** }
 181:..\gf2x.c     **** 
 182:..\gf2x.c     **** /**
 183:..\gf2x.c     ****  * @brief Multiply two polynomials modulo \f$ X^n - 1\f$.
 184:..\gf2x.c     ****  *
 185:..\gf2x.c     ****  * This functions multiplies polynomials <b>v1</b> and <b>v2</b>.
 186:..\gf2x.c     ****  * The multiplication is done modulo \f$ X^n - 1\f$.
 187:..\gf2x.c     ****  *
 188:..\gf2x.c     ****  * @param[out] o Product of <b>v1</b> and <b>v2</b>
 189:..\gf2x.c     ****  * @param[in] v1 Pointer to the first polynomial
 190:..\gf2x.c     ****  * @param[in] v2 Pointer to the second polynomial
 191:..\gf2x.c     ****  */
 192:..\gf2x.c     **** void PQCLEAN_HQC256_CLEAN_vect_mul(uint64_t *o, const uint64_t *v1, const uint64_t *v2) {
 812              		.loc 1 192 0
 813              		.cfi_startproc
 814              		@ args = 0, pretend = 0, frame = 72080
 815              		@ frame_needed = 0, uses_anonymous_args = 0
 816              	.LVL86:
ARM GAS  C:\Users\bogurad\AppData\Local\Temp\cczl7p9K.s 			page 19


 817 0000 F0B5     		push	{r4, r5, r6, r7, lr}
 818              		.cfi_def_cfa_offset 20
 819              		.cfi_offset 4, -20
 820              		.cfi_offset 5, -16
 821              		.cfi_offset 6, -12
 822              		.cfi_offset 7, -8
 823              		.cfi_offset 14, -4
 824 0002 ADF58C3D 		sub	sp, sp, #71680
 825              		.cfi_def_cfa_offset 71700
 826 0006 E7B0     		sub	sp, sp, #412
 827              		.cfi_def_cfa_offset 72112
 828 0008 0546     		mov	r5, r0
 829 000a 0E46     		mov	r6, r1
 830 000c 1746     		mov	r7, r2
 193:..\gf2x.c     ****     uint64_t stack[VEC_N_SIZE_64 << 3] = {0};
 831              		.loc 1 193 0
 832 000e 0DF56154 		add	r4, sp, #14400
 833 0012 1834     		adds	r4, r4, #24
 834 0014 4EF24012 		movw	r2, #57664
 835              	.LVL87:
 836 0018 0021     		movs	r1, #0
 837              	.LVL88:
 838 001a 2046     		mov	r0, r4
 839              	.LVL89:
 840 001c FFF7FEFF 		bl	memset
 841              	.LVL90:
 194:..\gf2x.c     ****     uint64_t o_karat[VEC_N_SIZE_64 << 1] = {0};
 842              		.loc 1 194 0
 843 0020 43F65002 		movw	r2, #14416
 844 0024 0021     		movs	r1, #0
 845 0026 02A8     		add	r0, sp, #8
 846 0028 FFF7FEFF 		bl	memset
 847              	.LVL91:
 195:..\gf2x.c     **** 
 196:..\gf2x.c     ****     karatsuba(o_karat, v1, v2, VEC_N_SIZE_64, stack);
 848              		.loc 1 196 0
 849 002c 0094     		str	r4, [sp]
 850 002e 40F28533 		movw	r3, #901
 851 0032 3A46     		mov	r2, r7
 852 0034 3146     		mov	r1, r6
 853 0036 02A8     		add	r0, sp, #8
 854 0038 FFF7FEFF 		bl	karatsuba
 855              	.LVL92:
 197:..\gf2x.c     ****     reduce(o, o_karat);
 856              		.loc 1 197 0
 857 003c 02A9     		add	r1, sp, #8
 858 003e 2846     		mov	r0, r5
 859 0040 FFF7FEFF 		bl	reduce
 860              	.LVL93:
 198:..\gf2x.c     **** }
 861              		.loc 1 198 0
 862 0044 0DF58C3D 		add	sp, sp, #71680
 863 0048 67B0     		add	sp, sp, #412
 864              		.cfi_def_cfa_offset 20
 865              		@ sp needed
 866 004a F0BD     		pop	{r4, r5, r6, r7, pc}
 867              		.cfi_endproc
ARM GAS  C:\Users\bogurad\AppData\Local\Temp\cczl7p9K.s 			page 20


 868              	.LFE5:
 869              		.size	PQCLEAN_HQC256_CLEAN_vect_mul, .-PQCLEAN_HQC256_CLEAN_vect_mul
 870              		.text
 871              	.Letext0:
 872              		.file 2 "c:\\program files (x86)\\cypress\\psoc creator\\4.4\\psoc creator\\import\\gnu\\arm\\5.4.
 873              		.file 3 "c:\\program files (x86)\\cypress\\psoc creator\\4.4\\psoc creator\\import\\gnu\\arm\\5.4.
 874              		.file 4 "c:\\program files (x86)\\cypress\\psoc creator\\4.4\\psoc creator\\import\\gnu\\arm\\5.4.