ARM GAS  C:\Users\bogurad\AppData\Local\Temp\ccQIOfbe.s 			page 1


   1              		.syntax unified
   2              		.cpu cortex-m4
   3              		.eabi_attribute 27, 1
   4              		.fpu fpv4-sp-d16
   5              		.eabi_attribute 20, 1
   6              		.eabi_attribute 21, 1
   7              		.eabi_attribute 23, 3
   8              		.eabi_attribute 24, 1
   9              		.eabi_attribute 25, 1
  10              		.eabi_attribute 26, 1
  11              		.eabi_attribute 30, 1
  12              		.eabi_attribute 34, 1
  13              		.eabi_attribute 18, 4
  14              		.thumb
  15              		.syntax unified
  16              		.file	"hqc_wrapper.c"
  17              		.text
  18              	.Ltext0:
  19              		.cfi_sections	.debug_frame
  20              		.section	.text.hqc_init,"ax",%progbits
  21              		.align	2
  22              		.global	hqc_init
  23              		.thumb
  24              		.thumb_func
  25              		.type	hqc_init, %function
  26              	hqc_init:
  27              	.LFB0:
  28              		.file 1 "..\\hqc_wrapper.c"
   1:..\hqc_wrapper.c **** #include "hqc_wrapper.h"
   2:..\hqc_wrapper.c **** #include "api.h"
   3:..\hqc_wrapper.c **** 
   4:..\hqc_wrapper.c **** // Current security level
   5:..\hqc_wrapper.c **** static hqc_security_level_t current_security_level = HQC_SECURITY_256;
   6:..\hqc_wrapper.c **** 
   7:..\hqc_wrapper.c **** // Static flag to indicate if the library has been initialized
   8:..\hqc_wrapper.c **** static int is_initialized = 0;
   9:..\hqc_wrapper.c **** 
  10:..\hqc_wrapper.c **** int hqc_init(hqc_security_level_t security_level) {
  29              		.loc 1 10 0
  30              		.cfi_startproc
  31              		@ args = 0, pretend = 0, frame = 0
  32              		@ frame_needed = 0, uses_anonymous_args = 0
  33              		@ link register save eliminated.
  34              	.LVL0:
  11:..\hqc_wrapper.c ****     // Validate security level
  12:..\hqc_wrapper.c ****     if (security_level != HQC_SECURITY_128 && 
  35              		.loc 1 12 0
  36 0000 8028     		cmp	r0, #128
  37 0002 04D0     		beq	.L2
  38              		.loc 1 12 0 is_stmt 0 discriminator 1
  39 0004 C028     		cmp	r0, #192
  40 0006 02D0     		beq	.L2
  13:..\hqc_wrapper.c ****         security_level != HQC_SECURITY_192 && 
  41              		.loc 1 13 0 is_stmt 1
  42 0008 B0F5807F 		cmp	r0, #256
  43 000c 04D1     		bne	.L4
  44              	.L2:
ARM GAS  C:\Users\bogurad\AppData\Local\Temp\ccQIOfbe.s 			page 2


  14:..\hqc_wrapper.c ****         security_level != HQC_SECURITY_256) {
  15:..\hqc_wrapper.c ****         return -1;
  16:..\hqc_wrapper.c ****     }
  17:..\hqc_wrapper.c ****     
  18:..\hqc_wrapper.c ****     // Store security level (for runtime checking)
  19:..\hqc_wrapper.c ****     current_security_level = security_level;
  20:..\hqc_wrapper.c ****     is_initialized = 1;
  45              		.loc 1 20 0
  46 000e 0122     		movs	r2, #1
  47 0010 034B     		ldr	r3, .L5
  48 0012 1A60     		str	r2, [r3]
  21:..\hqc_wrapper.c ****     
  22:..\hqc_wrapper.c ****     return 0;
  49              		.loc 1 22 0
  50 0014 0020     		movs	r0, #0
  51              	.LVL1:
  52 0016 7047     		bx	lr
  53              	.LVL2:
  54              	.L4:
  15:..\hqc_wrapper.c ****     }
  55              		.loc 1 15 0
  56 0018 4FF0FF30 		mov	r0, #-1
  57              	.LVL3:
  23:..\hqc_wrapper.c **** }
  58              		.loc 1 23 0
  59 001c 7047     		bx	lr
  60              	.L6:
  61 001e 00BF     		.align	2
  62              	.L5:
  63 0020 00000000 		.word	.LANCHOR0
  64              		.cfi_endproc
  65              	.LFE0:
  66              		.size	hqc_init, .-hqc_init
  67              		.section	.text.hqc_get_public_key_size,"ax",%progbits
  68              		.align	2
  69              		.global	hqc_get_public_key_size
  70              		.thumb
  71              		.thumb_func
  72              		.type	hqc_get_public_key_size, %function
  73              	hqc_get_public_key_size:
  74              	.LFB1:
  24:..\hqc_wrapper.c **** 
  25:..\hqc_wrapper.c **** size_t hqc_get_public_key_size(void) {
  75              		.loc 1 25 0
  76              		.cfi_startproc
  77              		@ args = 0, pretend = 0, frame = 0
  78              		@ frame_needed = 0, uses_anonymous_args = 0
  79              		@ link register save eliminated.
  26:..\hqc_wrapper.c ****     return PQCLEAN_HQC256_CLEAN_CRYPTO_PUBLICKEYBYTES;
  27:..\hqc_wrapper.c **** }
  80              		.loc 1 27 0
  81 0000 41F64D40 		movw	r0, #7245
  82 0004 7047     		bx	lr
  83              		.cfi_endproc
  84              	.LFE1:
  85              		.size	hqc_get_public_key_size, .-hqc_get_public_key_size
  86 0006 00BF     		.section	.text.hqc_get_secret_key_size,"ax",%progbits
ARM GAS  C:\Users\bogurad\AppData\Local\Temp\ccQIOfbe.s 			page 3


  87              		.align	2
  88              		.global	hqc_get_secret_key_size
  89              		.thumb
  90              		.thumb_func
  91              		.type	hqc_get_secret_key_size, %function
  92              	hqc_get_secret_key_size:
  93              	.LFB2:
  28:..\hqc_wrapper.c **** 
  29:..\hqc_wrapper.c **** size_t hqc_get_secret_key_size(void) {
  94              		.loc 1 29 0
  95              		.cfi_startproc
  96              		@ args = 0, pretend = 0, frame = 0
  97              		@ frame_needed = 0, uses_anonymous_args = 0
  98              		@ link register save eliminated.
  30:..\hqc_wrapper.c ****     return PQCLEAN_HQC256_CLEAN_CRYPTO_SECRETKEYBYTES;
  31:..\hqc_wrapper.c **** }
  99              		.loc 1 31 0
 100 0000 41F69540 		movw	r0, #7317
 101 0004 7047     		bx	lr
 102              		.cfi_endproc
 103              	.LFE2:
 104              		.size	hqc_get_secret_key_size, .-hqc_get_secret_key_size
 105 0006 00BF     		.section	.text.hqc_get_ciphertext_size,"ax",%progbits
 106              		.align	2
 107              		.global	hqc_get_ciphertext_size
 108              		.thumb
 109              		.thumb_func
 110              		.type	hqc_get_ciphertext_size, %function
 111              	hqc_get_ciphertext_size:
 112              	.LFB3:
  32:..\hqc_wrapper.c **** 
  33:..\hqc_wrapper.c **** size_t hqc_get_ciphertext_size(void) {
 113              		.loc 1 33 0
 114              		.cfi_startproc
 115              		@ args = 0, pretend = 0, frame = 0
 116              		@ frame_needed = 0, uses_anonymous_args = 0
 117              		@ link register save eliminated.
  34:..\hqc_wrapper.c ****     return PQCLEAN_HQC256_CLEAN_CRYPTO_CIPHERTEXTBYTES;
  35:..\hqc_wrapper.c **** }
 118              		.loc 1 35 0
 119 0000 43F65500 		movw	r0, #14421
 120 0004 7047     		bx	lr
 121              		.cfi_endproc
 122              	.LFE3:
 123              		.size	hqc_get_ciphertext_size, .-hqc_get_ciphertext_size
 124 0006 00BF     		.section	.text.hqc_get_shared_secret_size,"ax",%progbits
 125              		.align	2
 126              		.global	hqc_get_shared_secret_size
 127              		.thumb
 128              		.thumb_func
 129              		.type	hqc_get_shared_secret_size, %function
 130              	hqc_get_shared_secret_size:
 131              	.LFB4:
  36:..\hqc_wrapper.c **** 
  37:..\hqc_wrapper.c **** size_t hqc_get_shared_secret_size(void) {
 132              		.loc 1 37 0
 133              		.cfi_startproc
ARM GAS  C:\Users\bogurad\AppData\Local\Temp\ccQIOfbe.s 			page 4


 134              		@ args = 0, pretend = 0, frame = 0
 135              		@ frame_needed = 0, uses_anonymous_args = 0
 136              		@ link register save eliminated.
  38:..\hqc_wrapper.c ****     return PQCLEAN_HQC256_CLEAN_CRYPTO_BYTES;
  39:..\hqc_wrapper.c **** }
 137              		.loc 1 39 0
 138 0000 4020     		movs	r0, #64
 139 0002 7047     		bx	lr
 140              		.cfi_endproc
 141              	.LFE4:
 142              		.size	hqc_get_shared_secret_size, .-hqc_get_shared_secret_size
 143              		.section	.text.hqc_keypair,"ax",%progbits
 144              		.align	2
 145              		.global	hqc_keypair
 146              		.thumb
 147              		.thumb_func
 148              		.type	hqc_keypair, %function
 149              	hqc_keypair:
 150              	.LFB5:
  40:..\hqc_wrapper.c **** 
  41:..\hqc_wrapper.c **** int hqc_keypair(unsigned char *pk, unsigned char *sk) {
 151              		.loc 1 41 0
 152              		.cfi_startproc
 153              		@ args = 0, pretend = 0, frame = 0
 154              		@ frame_needed = 0, uses_anonymous_args = 0
 155              	.LVL4:
 156 0000 08B5     		push	{r3, lr}
 157              		.cfi_def_cfa_offset 8
 158              		.cfi_offset 3, -8
 159              		.cfi_offset 14, -4
  42:..\hqc_wrapper.c ****     if (!is_initialized) return -1;
 160              		.loc 1 42 0
 161 0002 084B     		ldr	r3, .L17
 162 0004 1B68     		ldr	r3, [r3]
 163 0006 23B1     		cbz	r3, .L13
  43:..\hqc_wrapper.c ****     if (pk == NULL || sk == NULL) return -2;
 164              		.loc 1 43 0
 165 0008 30B1     		cbz	r0, .L14
 166              		.loc 1 43 0 is_stmt 0 discriminator 2
 167 000a 41B1     		cbz	r1, .L15
  44:..\hqc_wrapper.c ****     
  45:..\hqc_wrapper.c ****     int result = PQCLEAN_HQC256_CLEAN_crypto_kem_keypair(pk, sk);
 168              		.loc 1 45 0 is_stmt 1
 169 000c FFF7FEFF 		bl	PQCLEAN_HQC256_CLEAN_crypto_kem_keypair
 170              	.LVL5:
  46:..\hqc_wrapper.c ****     return result;
 171              		.loc 1 46 0
 172 0010 08BD     		pop	{r3, pc}
 173              	.LVL6:
 174              	.L13:
  42:..\hqc_wrapper.c ****     if (pk == NULL || sk == NULL) return -2;
 175              		.loc 1 42 0
 176 0012 4FF0FF30 		mov	r0, #-1
 177              	.LVL7:
 178 0016 08BD     		pop	{r3, pc}
 179              	.LVL8:
 180              	.L14:
ARM GAS  C:\Users\bogurad\AppData\Local\Temp\ccQIOfbe.s 			page 5


  43:..\hqc_wrapper.c ****     
 181              		.loc 1 43 0
 182 0018 6FF00100 		mvn	r0, #1
 183              	.LVL9:
 184 001c 08BD     		pop	{r3, pc}
 185              	.LVL10:
 186              	.L15:
 187 001e 6FF00100 		mvn	r0, #1
 188              	.LVL11:
  47:..\hqc_wrapper.c **** }
 189              		.loc 1 47 0
 190 0022 08BD     		pop	{r3, pc}
 191              	.L18:
 192              		.align	2
 193              	.L17:
 194 0024 00000000 		.word	.LANCHOR0
 195              		.cfi_endproc
 196              	.LFE5:
 197              		.size	hqc_keypair, .-hqc_keypair
 198              		.section	.text.hqc_encapsulate,"ax",%progbits
 199              		.align	2
 200              		.global	hqc_encapsulate
 201              		.thumb
 202              		.thumb_func
 203              		.type	hqc_encapsulate, %function
 204              	hqc_encapsulate:
 205              	.LFB6:
  48:..\hqc_wrapper.c **** 
  49:..\hqc_wrapper.c **** int hqc_encapsulate(unsigned char *ct, unsigned char *ss, const unsigned char *pk) {
 206              		.loc 1 49 0
 207              		.cfi_startproc
 208              		@ args = 0, pretend = 0, frame = 0
 209              		@ frame_needed = 0, uses_anonymous_args = 0
 210              	.LVL12:
 211 0000 08B5     		push	{r3, lr}
 212              		.cfi_def_cfa_offset 8
 213              		.cfi_offset 3, -8
 214              		.cfi_offset 14, -4
  50:..\hqc_wrapper.c ****     if (!is_initialized) return -1;
 215              		.loc 1 50 0
 216 0002 0A4B     		ldr	r3, .L26
 217 0004 1B68     		ldr	r3, [r3]
 218 0006 2BB1     		cbz	r3, .L21
  51:..\hqc_wrapper.c ****     if (ct == NULL || ss == NULL || pk == NULL) return -2;
 219              		.loc 1 51 0
 220 0008 38B1     		cbz	r0, .L22
 221              		.loc 1 51 0 is_stmt 0 discriminator 2
 222 000a 49B1     		cbz	r1, .L23
 223              		.loc 1 51 0 discriminator 4
 224 000c 5AB1     		cbz	r2, .L24
  52:..\hqc_wrapper.c ****     
  53:..\hqc_wrapper.c ****     int result = PQCLEAN_HQC256_CLEAN_crypto_kem_enc(ct, ss, pk);
 225              		.loc 1 53 0 is_stmt 1
 226 000e FFF7FEFF 		bl	PQCLEAN_HQC256_CLEAN_crypto_kem_enc
 227              	.LVL13:
  54:..\hqc_wrapper.c ****     return result;
 228              		.loc 1 54 0
ARM GAS  C:\Users\bogurad\AppData\Local\Temp\ccQIOfbe.s 			page 6


 229 0012 08BD     		pop	{r3, pc}
 230              	.LVL14:
 231              	.L21:
  50:..\hqc_wrapper.c ****     if (ct == NULL || ss == NULL || pk == NULL) return -2;
 232              		.loc 1 50 0
 233 0014 4FF0FF30 		mov	r0, #-1
 234              	.LVL15:
 235 0018 08BD     		pop	{r3, pc}
 236              	.LVL16:
 237              	.L22:
  51:..\hqc_wrapper.c ****     
 238              		.loc 1 51 0
 239 001a 6FF00100 		mvn	r0, #1
 240              	.LVL17:
 241 001e 08BD     		pop	{r3, pc}
 242              	.LVL18:
 243              	.L23:
 244 0020 6FF00100 		mvn	r0, #1
 245              	.LVL19:
 246 0024 08BD     		pop	{r3, pc}
 247              	.LVL20:
 248              	.L24:
 249 0026 6FF00100 		mvn	r0, #1
 250              	.LVL21:
  55:..\hqc_wrapper.c **** }
 251              		.loc 1 55 0
 252 002a 08BD     		pop	{r3, pc}
 253              	.L27:
 254              		.align	2
 255              	.L26:
 256 002c 00000000 		.word	.LANCHOR0
 257              		.cfi_endproc
 258              	.LFE6:
 259              		.size	hqc_encapsulate, .-hqc_encapsulate
 260              		.section	.text.hqc_decapsulate,"ax",%progbits
 261              		.align	2
 262              		.global	hqc_decapsulate
 263              		.thumb
 264              		.thumb_func
 265              		.type	hqc_decapsulate, %function
 266              	hqc_decapsulate:
 267              	.LFB7:
  56:..\hqc_wrapper.c **** 
  57:..\hqc_wrapper.c **** int hqc_decapsulate(unsigned char *ss, const unsigned char *ct, const unsigned char *sk) {
 268              		.loc 1 57 0
 269              		.cfi_startproc
 270              		@ args = 0, pretend = 0, frame = 0
 271              		@ frame_needed = 0, uses_anonymous_args = 0
 272              	.LVL22:
 273 0000 08B5     		push	{r3, lr}
 274              		.cfi_def_cfa_offset 8
 275              		.cfi_offset 3, -8
 276              		.cfi_offset 14, -4
  58:..\hqc_wrapper.c ****     if (!is_initialized) return -1;
 277              		.loc 1 58 0
 278 0002 0D4B     		ldr	r3, .L36
 279 0004 1B68     		ldr	r3, [r3]
ARM GAS  C:\Users\bogurad\AppData\Local\Temp\ccQIOfbe.s 			page 7


 280 0006 43B1     		cbz	r3, .L30
  59:..\hqc_wrapper.c ****     if (ss == NULL || ct == NULL || sk == NULL) return -2;
 281              		.loc 1 59 0
 282 0008 50B1     		cbz	r0, .L31
 283              		.loc 1 59 0 is_stmt 0 discriminator 2
 284 000a 61B1     		cbz	r1, .L32
 285              		.loc 1 59 0 discriminator 4
 286 000c 72B1     		cbz	r2, .L33
  60:..\hqc_wrapper.c ****     
  61:..\hqc_wrapper.c ****     int result = PQCLEAN_HQC256_CLEAN_crypto_kem_dec(ss, ct, sk);
 287              		.loc 1 61 0 is_stmt 1
 288 000e FFF7FEFF 		bl	PQCLEAN_HQC256_CLEAN_crypto_kem_dec
 289              	.LVL23:
  62:..\hqc_wrapper.c ****     if (result != 0) return -3; // Decapsulation failed
 290              		.loc 1 62 0
 291 0012 70B1     		cbz	r0, .L34
 292 0014 6FF00200 		mvn	r0, #2
 293              	.LVL24:
 294 0018 08BD     		pop	{r3, pc}
 295              	.LVL25:
 296              	.L30:
  58:..\hqc_wrapper.c ****     if (ss == NULL || ct == NULL || sk == NULL) return -2;
 297              		.loc 1 58 0
 298 001a 4FF0FF30 		mov	r0, #-1
 299              	.LVL26:
 300 001e 08BD     		pop	{r3, pc}
 301              	.LVL27:
 302              	.L31:
  59:..\hqc_wrapper.c ****     
 303              		.loc 1 59 0
 304 0020 6FF00100 		mvn	r0, #1
 305              	.LVL28:
 306 0024 08BD     		pop	{r3, pc}
 307              	.LVL29:
 308              	.L32:
 309 0026 6FF00100 		mvn	r0, #1
 310              	.LVL30:
 311 002a 08BD     		pop	{r3, pc}
 312              	.LVL31:
 313              	.L33:
 314 002c 6FF00100 		mvn	r0, #1
 315              	.LVL32:
 316 0030 08BD     		pop	{r3, pc}
 317              	.LVL33:
 318              	.L34:
  63:..\hqc_wrapper.c ****     
  64:..\hqc_wrapper.c ****     return 0;
 319              		.loc 1 64 0
 320 0032 0020     		movs	r0, #0
 321              	.LVL34:
  65:..\hqc_wrapper.c **** }...
 322              		.loc 1 65 0
 323 0034 08BD     		pop	{r3, pc}
 324              	.L37:
 325 0036 00BF     		.align	2
 326              	.L36:
 327 0038 00000000 		.word	.LANCHOR0
ARM GAS  C:\Users\bogurad\AppData\Local\Temp\ccQIOfbe.s 			page 8


 328              		.cfi_endproc
 329              	.LFE7:
 330              		.size	hqc_decapsulate, .-hqc_decapsulate
 331              		.bss
 332              		.align	2
 333              		.set	.LANCHOR0,. + 0
 334              		.type	is_initialized, %object
 335              		.size	is_initialized, 4
 336              	is_initialized:
 337 0000 00000000 		.space	4
 338              		.text
 339              	.Letext0:
 340              		.file 2 "c:\\program files (x86)\\cypress\\psoc creator\\4.4\\psoc creator\\import\\gnu\\arm\\5.4.
 341              		.file 3 "..\\hqc_wrapper.h"
 342              		.file 4 "..\\api.h"