ARM GAS  C:\Users\bogur\AppData\Local\Temp\cclRbiEk.s 			page 1


   1              		.syntax unified
   2              		.cpu cortex-m4
   3              		.eabi_attribute 27, 1
   4              		.fpu fpv4-sp-d16
   5              		.eabi_attribute 20, 1
   6              		.eabi_attribute 21, 1
   7              		.eabi_attribute 23, 3
   8              		.eabi_attribute 24, 1
   9              		.eabi_attribute 25, 1
  10              		.eabi_attribute 26, 1
  11              		.eabi_attribute 30, 1
  12              		.eabi_attribute 34, 1
  13              		.eabi_attribute 18, 4
  14              		.thumb
  15              		.syntax unified
  16              		.file	"kem.c"
  17              		.text
  18              	.Ltext0:
  19              		.cfi_sections	.debug_frame
  20              		.section	.text.PQCLEAN_HQC256_CLEAN_crypto_kem_keypair,"ax",%progbits
  21              		.align	2
  22              		.global	PQCLEAN_HQC256_CLEAN_crypto_kem_keypair
  23              		.thumb
  24              		.thumb_func
  25              		.type	PQCLEAN_HQC256_CLEAN_crypto_kem_keypair, %function
  26              	PQCLEAN_HQC256_CLEAN_crypto_kem_keypair:
  27              	.LFB0:
  28              		.file 1 "..\\kem.c"
   1:..\kem.c      **** #include "api.h"
   2:..\kem.c      **** #include "domains.h"
   3:..\kem.c      **** #include "fips202.h"
   4:..\kem.c      **** #include "hqc.h"
   5:..\kem.c      **** #include "parameters.h"
   6:..\kem.c      **** #include "parsing.h"
   7:..\kem.c      **** #include "randombytes.h"
   8:..\kem.c      **** #include "shake_ds.h"
   9:..\kem.c      **** #include "vector.h"
  10:..\kem.c      **** #include <stdint.h>
  11:..\kem.c      **** #include <string.h>
  12:..\kem.c      **** /**
  13:..\kem.c      ****  * @file kem.c
  14:..\kem.c      ****  * @brief Implementation of api.h
  15:..\kem.c      ****  */
  16:..\kem.c      **** 
  17:..\kem.c      **** 
  18:..\kem.c      **** 
  19:..\kem.c      **** /**
  20:..\kem.c      ****  * @brief Keygen of the HQC_KEM IND_CAA2 scheme
  21:..\kem.c      ****  *
  22:..\kem.c      ****  * The public key is composed of the syndrome <b>s</b> as well as the seed used to generate the vec
  23:..\kem.c      ****  *
  24:..\kem.c      ****  * The secret key is composed of the seed used to generate vectors <b>x</b> and <b>y</b>.
  25:..\kem.c      ****  * As a technicality, the public key is appended to the secret key in order to respect NIST API.
  26:..\kem.c      ****  *
  27:..\kem.c      ****  * @param[out] pk String containing the public key
  28:..\kem.c      ****  * @param[out] sk String containing the secret key
  29:..\kem.c      ****  * @returns 0 if keygen is successful
ARM GAS  C:\Users\bogur\AppData\Local\Temp\cclRbiEk.s 			page 2


  30:..\kem.c      ****  */
  31:..\kem.c      **** int PQCLEAN_HQC256_CLEAN_crypto_kem_keypair(uint8_t *pk, uint8_t *sk) {
  29              		.loc 1 31 0
  30              		.cfi_startproc
  31              		@ args = 0, pretend = 0, frame = 0
  32              		@ frame_needed = 0, uses_anonymous_args = 0
  33              	.LVL0:
  34 0000 08B5     		push	{r3, lr}
  35              		.cfi_def_cfa_offset 8
  36              		.cfi_offset 3, -8
  37              		.cfi_offset 14, -4
  32:..\kem.c      **** 
  33:..\kem.c      ****     PQCLEAN_HQC256_CLEAN_hqc_pke_keygen(pk, sk);
  38              		.loc 1 33 0
  39 0002 FFF7FEFF 		bl	PQCLEAN_HQC256_CLEAN_hqc_pke_keygen
  40              	.LVL1:
  34:..\kem.c      ****     return 0;
  35:..\kem.c      **** }
  41              		.loc 1 35 0
  42 0006 0020     		movs	r0, #0
  43 0008 08BD     		pop	{r3, pc}
  44              		.cfi_endproc
  45              	.LFE0:
  46              		.size	PQCLEAN_HQC256_CLEAN_crypto_kem_keypair, .-PQCLEAN_HQC256_CLEAN_crypto_kem_keypair
  47 000a 00BF     		.section	.text.PQCLEAN_HQC256_CLEAN_crypto_kem_enc,"ax",%progbits
  48              		.align	2
  49              		.global	PQCLEAN_HQC256_CLEAN_crypto_kem_enc
  50              		.thumb
  51              		.thumb_func
  52              		.type	PQCLEAN_HQC256_CLEAN_crypto_kem_enc, %function
  53              	PQCLEAN_HQC256_CLEAN_crypto_kem_enc:
  54              	.LFB1:
  36:..\kem.c      **** 
  37:..\kem.c      **** 
  38:..\kem.c      **** 
  39:..\kem.c      **** /**
  40:..\kem.c      ****  * @brief Encapsulation of the HQC_KEM IND_CAA2 scheme
  41:..\kem.c      ****  *
  42:..\kem.c      ****  * @param[out] ct String containing the ciphertext
  43:..\kem.c      ****  * @param[out] ss String containing the shared secret
  44:..\kem.c      ****  * @param[in] pk String containing the public key
  45:..\kem.c      ****  * @returns 0 if encapsulation is successful
  46:..\kem.c      ****  */
  47:..\kem.c      **** int PQCLEAN_HQC256_CLEAN_crypto_kem_enc(uint8_t *ct, uint8_t *ss, const uint8_t *pk) {
  55              		.loc 1 47 0
  56              		.cfi_startproc
  57              		@ args = 0, pretend = 0, frame = 36224
  58              		@ frame_needed = 0, uses_anonymous_args = 0
  59              	.LVL2:
  60 0000 2DE9F047 		push	{r4, r5, r6, r7, r8, r9, r10, lr}
  61              		.cfi_def_cfa_offset 32
  62              		.cfi_offset 4, -32
  63              		.cfi_offset 5, -28
  64              		.cfi_offset 6, -24
  65              		.cfi_offset 7, -20
  66              		.cfi_offset 8, -16
  67              		.cfi_offset 9, -12
ARM GAS  C:\Users\bogur\AppData\Local\Temp\cclRbiEk.s 			page 3


  68              		.cfi_offset 10, -8
  69              		.cfi_offset 14, -4
  70 0004 ADF50D4D 		sub	sp, sp, #36096
  71              		.cfi_def_cfa_offset 36128
  72 0008 A2B0     		sub	sp, sp, #136
  73              		.cfi_def_cfa_offset 36264
  74 000a 8146     		mov	r9, r0
  75 000c 8A46     		mov	r10, r1
  76 000e 1446     		mov	r4, r2
  48:..\kem.c      **** 
  49:..\kem.c      ****     uint8_t theta[SHAKE256_512_BYTES] = {0};
  77              		.loc 1 49 0
  78 0010 4022     		movs	r2, #64
  79              	.LVL3:
  80 0012 0021     		movs	r1, #0
  81              	.LVL4:
  82 0014 0DF50D40 		add	r0, sp, #36096
  83              	.LVL5:
  84 0018 4830     		adds	r0, r0, #72
  85 001a FFF7FEFF 		bl	memset
  86              	.LVL6:
  50:..\kem.c      ****     uint64_t u[VEC_N_SIZE_64] = {0};
  87              		.loc 1 50 0
  88 001e 41F62842 		movw	r2, #7208
  89 0022 0021     		movs	r1, #0
  90 0024 0DF5E240 		add	r0, sp, #28928
  91 0028 2030     		adds	r0, r0, #32
  92 002a FFF7FEFF 		bl	memset
  93              	.LVL7:
  51:..\kem.c      ****     uint64_t v[VEC_N1N2_SIZE_64] = {0};
  94              		.loc 1 51 0
  95 002e 4FF4E158 		mov	r8, #7200
  96 0032 4246     		mov	r2, r8
  97 0034 0021     		movs	r1, #0
  98 0036 0DF5AA40 		add	r0, sp, #21760
  99 003a FFF7FEFF 		bl	memset
 100              	.LVL8:
  52:..\kem.c      ****     uint8_t mc[VEC_K_SIZE_BYTES + VEC_N_SIZE_BYTES + VEC_N1N2_SIZE_BYTES] = {0};
 101              		.loc 1 52 0
 102 003e 43F66507 		movw	r7, #14437
 103 0042 3A46     		mov	r2, r7
 104 0044 0021     		movs	r1, #0
 105 0046 0DF5E450 		add	r0, sp, #7296
 106 004a 1830     		adds	r0, r0, #24
 107 004c FFF7FEFF 		bl	memset
 108              	.LVL9:
  53:..\kem.c      ****     uint8_t tmp[VEC_K_SIZE_BYTES + PUBLIC_KEY_BYTES + SALT_SIZE_BYTES] = {0};
 109              		.loc 1 53 0
 110 0050 41F67D45 		movw	r5, #7293
 111 0054 2A46     		mov	r2, r5
 112 0056 0021     		movs	r1, #0
 113 0058 06A8     		add	r0, sp, #24
 114 005a FFF7FEFF 		bl	memset
 115              	.LVL10:
  54:..\kem.c      ****     uint8_t *m = tmp;
  55:..\kem.c      ****     uint8_t *salt = tmp + VEC_K_SIZE_BYTES + PUBLIC_KEY_BYTES;
  56:..\kem.c      ****     shake256incctx shake256state;
ARM GAS  C:\Users\bogur\AppData\Local\Temp\cclRbiEk.s 			page 4


  57:..\kem.c      **** 
  58:..\kem.c      ****     // Computing m
  59:..\kem.c      ****     randombytes(m, VEC_K_SIZE_BYTES);
 116              		.loc 1 59 0
 117 005e 2021     		movs	r1, #32
 118 0060 06A8     		add	r0, sp, #24
 119              	.LVL11:
 120 0062 FFF7FEFF 		bl	randombytes
 121              	.LVL12:
  60:..\kem.c      **** 
  61:..\kem.c      ****     // Computing theta
  62:..\kem.c      ****     randombytes(salt, SALT_SIZE_BYTES);
 122              		.loc 1 62 0
 123 0066 06AB     		add	r3, sp, #24
 124              	.LVL13:
 125 0068 03F5E356 		add	r6, r3, #7264
 126 006c 0D36     		adds	r6, r6, #13
 127 006e 1021     		movs	r1, #16
 128 0070 3046     		mov	r0, r6
 129 0072 FFF7FEFF 		bl	randombytes
 130              	.LVL14:
  63:..\kem.c      ****     memcpy(tmp + VEC_K_SIZE_BYTES, pk, PUBLIC_KEY_BYTES);
 131              		.loc 1 63 0
 132 0076 41F64D42 		movw	r2, #7245
 133 007a 2146     		mov	r1, r4
 134 007c 0EA8     		add	r0, sp, #56
 135 007e FFF7FEFF 		bl	memcpy
 136              	.LVL15:
  64:..\kem.c      ****     PQCLEAN_HQC256_CLEAN_shake256_512_ds(&shake256state, theta, tmp, VEC_K_SIZE_BYTES + PUBLIC_KEY_
 137              		.loc 1 64 0
 138 0082 05AB     		add	r3, sp, #20
 139 0084 0393     		str	r3, [sp, #12]
 140 0086 0323     		movs	r3, #3
 141 0088 0093     		str	r3, [sp]
 142 008a 2B46     		mov	r3, r5
 143 008c 06AA     		add	r2, sp, #24
 144              	.LVL16:
 145 008e 0DF50D41 		add	r1, sp, #36096
 146 0092 4831     		adds	r1, r1, #72
 147 0094 0398     		ldr	r0, [sp, #12]
 148 0096 FFF7FEFF 		bl	PQCLEAN_HQC256_CLEAN_shake256_512_ds
 149              	.LVL17:
  65:..\kem.c      **** 
  66:..\kem.c      ****     // Encrypting m
  67:..\kem.c      ****     PQCLEAN_HQC256_CLEAN_hqc_pke_encrypt(u, v, m, theta, pk);
 150              		.loc 1 67 0
 151 009a 0094     		str	r4, [sp]
 152 009c 0DF50D43 		add	r3, sp, #36096
 153 00a0 4833     		adds	r3, r3, #72
 154 00a2 06AA     		add	r2, sp, #24
 155              	.LVL18:
 156 00a4 0DF5AA41 		add	r1, sp, #21760
 157 00a8 0DF5E240 		add	r0, sp, #28928
 158 00ac 2030     		adds	r0, r0, #32
 159 00ae FFF7FEFF 		bl	PQCLEAN_HQC256_CLEAN_hqc_pke_encrypt
 160              	.LVL19:
  68:..\kem.c      **** 
ARM GAS  C:\Users\bogur\AppData\Local\Temp\cclRbiEk.s 			page 5


  69:..\kem.c      ****     // Computing shared secret
  70:..\kem.c      ****     memcpy(mc, m, VEC_K_SIZE_BYTES);
 161              		.loc 1 70 0
 162 00b2 0DF5E455 		add	r5, sp, #7296
 163 00b6 1835     		adds	r5, r5, #24
 164 00b8 06AC     		add	r4, sp, #24
 165              	.LVL20:
 166 00ba 0FCC     		ldmia	r4!, {r0, r1, r2, r3}
 167              	.LVL21:
 168 00bc 0FC5     		stmia	r5!, {r0, r1, r2, r3}
 169 00be 94E80F00 		ldmia	r4, {r0, r1, r2, r3}
 170 00c2 85E80F00 		stmia	r5, {r0, r1, r2, r3}
  71:..\kem.c      ****     PQCLEAN_HQC256_CLEAN_store8_arr(mc + VEC_K_SIZE_BYTES, VEC_N_SIZE_BYTES, u, VEC_N_SIZE_64);
 171              		.loc 1 71 0
 172 00c6 40F28533 		movw	r3, #901
 173 00ca 0DF5E242 		add	r2, sp, #28928
 174 00ce 2032     		adds	r2, r2, #32
 175 00d0 41F62541 		movw	r1, #7205
 176 00d4 0DF5E850 		add	r0, sp, #7424
 177 00d8 0830     		adds	r0, r0, #8
 178 00da 5038     		subs	r0, r0, #80
 179 00dc FFF7FEFF 		bl	PQCLEAN_HQC256_CLEAN_store8_arr
 180              	.LVL22:
  72:..\kem.c      ****     PQCLEAN_HQC256_CLEAN_store8_arr(mc + VEC_K_SIZE_BYTES + VEC_N_SIZE_BYTES, VEC_N1N2_SIZE_BYTES, 
 181              		.loc 1 72 0
 182 00e0 4FF46173 		mov	r3, #900
 183 00e4 0DF5AA42 		add	r2, sp, #21760
 184 00e8 4146     		mov	r1, r8
 185 00ea 0DF5E450 		add	r0, sp, #7296
 186 00ee 1830     		adds	r0, r0, #24
 187 00f0 00F5E250 		add	r0, r0, #7232
 188 00f4 0530     		adds	r0, r0, #5
 189 00f6 FFF7FEFF 		bl	PQCLEAN_HQC256_CLEAN_store8_arr
 190              	.LVL23:
  73:..\kem.c      ****     PQCLEAN_HQC256_CLEAN_shake256_512_ds(&shake256state, ss, mc, VEC_K_SIZE_BYTES + VEC_N_SIZE_BYTE
 191              		.loc 1 73 0
 192 00fa 0423     		movs	r3, #4
 193 00fc 0093     		str	r3, [sp]
 194 00fe 3B46     		mov	r3, r7
 195 0100 0DF5E452 		add	r2, sp, #7296
 196 0104 1832     		adds	r2, r2, #24
 197 0106 5146     		mov	r1, r10
 198 0108 0398     		ldr	r0, [sp, #12]
 199 010a FFF7FEFF 		bl	PQCLEAN_HQC256_CLEAN_shake256_512_ds
 200              	.LVL24:
  74:..\kem.c      **** 
  75:..\kem.c      ****     // Computing ciphertext
  76:..\kem.c      ****     PQCLEAN_HQC256_CLEAN_hqc_ciphertext_to_string(ct, u, v, salt);
 201              		.loc 1 76 0
 202 010e 3346     		mov	r3, r6
 203 0110 0DF5AA42 		add	r2, sp, #21760
 204 0114 0DF5E241 		add	r1, sp, #28928
 205 0118 2031     		adds	r1, r1, #32
 206 011a 4846     		mov	r0, r9
 207 011c FFF7FEFF 		bl	PQCLEAN_HQC256_CLEAN_hqc_ciphertext_to_string
 208              	.LVL25:
  77:..\kem.c      **** 
ARM GAS  C:\Users\bogur\AppData\Local\Temp\cclRbiEk.s 			page 6


  78:..\kem.c      **** 
  79:..\kem.c      ****     return 0;
  80:..\kem.c      **** }
 209              		.loc 1 80 0
 210 0120 0020     		movs	r0, #0
 211 0122 0DF50D4D 		add	sp, sp, #36096
 212 0126 22B0     		add	sp, sp, #136
 213              		.cfi_def_cfa_offset 32
 214              		@ sp needed
 215 0128 BDE8F087 		pop	{r4, r5, r6, r7, r8, r9, r10, pc}
 216              		.cfi_endproc
 217              	.LFE1:
 218              		.size	PQCLEAN_HQC256_CLEAN_crypto_kem_enc, .-PQCLEAN_HQC256_CLEAN_crypto_kem_enc
 219              		.section	.text.PQCLEAN_HQC256_CLEAN_crypto_kem_dec,"ax",%progbits
 220              		.align	2
 221              		.global	PQCLEAN_HQC256_CLEAN_crypto_kem_dec
 222              		.thumb
 223              		.thumb_func
 224              		.type	PQCLEAN_HQC256_CLEAN_crypto_kem_dec, %function
 225              	PQCLEAN_HQC256_CLEAN_crypto_kem_dec:
 226              	.LFB2:
  81:..\kem.c      **** 
  82:..\kem.c      **** 
  83:..\kem.c      **** 
  84:..\kem.c      **** /**
  85:..\kem.c      ****  * @brief Decapsulation of the HQC_KEM IND_CAA2 scheme
  86:..\kem.c      ****  *
  87:..\kem.c      ****  * @param[out] ss String containing the shared secret
  88:..\kem.c      ****  * @param[in] ct String containing the cipĥertext
  89:..\kem.c      ****  * @param[in] sk String containing the secret key
  90:..\kem.c      ****  * @returns 0 if decapsulation is successful, -1 otherwise
  91:..\kem.c      ****  */
  92:..\kem.c      **** int PQCLEAN_HQC256_CLEAN_crypto_kem_dec(uint8_t *ss, const uint8_t *ct, const uint8_t *sk) {
 227              		.loc 1 92 0
 228              		.cfi_startproc
 229              		@ args = 0, pretend = 0, frame = 50664
 230              		@ frame_needed = 0, uses_anonymous_args = 0
 231              	.LVL26:
 232 0000 2DE9F043 		push	{r4, r5, r6, r7, r8, r9, lr}
 233              		.cfi_def_cfa_offset 28
 234              		.cfi_offset 4, -28
 235              		.cfi_offset 5, -24
 236              		.cfi_offset 6, -20
 237              		.cfi_offset 7, -16
 238              		.cfi_offset 8, -12
 239              		.cfi_offset 9, -8
 240              		.cfi_offset 14, -4
 241 0004 ADF5454D 		sub	sp, sp, #50432
 242              		.cfi_def_cfa_offset 50460
 243 0008 BDB0     		sub	sp, sp, #244
 244              		.cfi_def_cfa_offset 50704
 245 000a 0546     		mov	r5, r0
 246 000c 8946     		mov	r9, r1
 247 000e 1446     		mov	r4, r2
  93:..\kem.c      **** 
  94:..\kem.c      ****     uint8_t result;
  95:..\kem.c      ****     uint64_t u[VEC_N_SIZE_64] = {0};
ARM GAS  C:\Users\bogur\AppData\Local\Temp\cclRbiEk.s 			page 7


 248              		.loc 1 95 0
 249 0010 41F62848 		movw	r8, #7208
 250 0014 4246     		mov	r2, r8
 251              	.LVL27:
 252 0016 0021     		movs	r1, #0
 253              	.LVL28:
 254 0018 0DF52940 		add	r0, sp, #43264
 255              	.LVL29:
 256 001c C830     		adds	r0, r0, #200
 257 001e FFF7FEFF 		bl	memset
 258              	.LVL30:
  96:..\kem.c      ****     uint64_t v[VEC_N1N2_SIZE_64] = {0};
 259              		.loc 1 96 0
 260 0022 4FF4E156 		mov	r6, #7200
 261 0026 3246     		mov	r2, r6
 262 0028 0021     		movs	r1, #0
 263 002a 0DF50D40 		add	r0, sp, #36096
 264 002e A830     		adds	r0, r0, #168
 265 0030 FFF7FEFF 		bl	memset
 266              	.LVL31:
  97:..\kem.c      ****     const uint8_t *pk = sk + SEED_BYTES + VEC_K_SIZE_BYTES;
 267              		.loc 1 97 0
 268 0034 04F14807 		add	r7, r4, #72
 269              	.LVL32:
  98:..\kem.c      ****     uint8_t sigma[VEC_K_SIZE_BYTES] = {0};
 270              		.loc 1 98 0
 271 0038 0DF50D43 		add	r3, sp, #36096
 272 003c B033     		adds	r3, r3, #176
 273 003e 283B     		subs	r3, r3, #40
 274 0040 0393     		str	r3, [sp, #12]
 275 0042 2022     		movs	r2, #32
 276 0044 0021     		movs	r1, #0
 277 0046 1846     		mov	r0, r3
 278 0048 FFF7FEFF 		bl	memset
 279              	.LVL33:
  99:..\kem.c      ****     uint8_t theta[SHAKE256_512_BYTES] = {0};
 280              		.loc 1 99 0
 281 004c 4022     		movs	r2, #64
 282 004e 0021     		movs	r1, #0
 283 0050 0DF50D40 		add	r0, sp, #36096
 284 0054 4830     		adds	r0, r0, #72
 285 0056 FFF7FEFF 		bl	memset
 286              	.LVL34:
 100:..\kem.c      ****     uint64_t u2[VEC_N_SIZE_64] = {0};
 287              		.loc 1 100 0
 288 005a 4246     		mov	r2, r8
 289 005c 0021     		movs	r1, #0
 290 005e 0DF5E240 		add	r0, sp, #28928
 291 0062 2030     		adds	r0, r0, #32
 292 0064 FFF7FEFF 		bl	memset
 293              	.LVL35:
 101:..\kem.c      ****     uint64_t v2[VEC_N1N2_SIZE_64] = {0};
 294              		.loc 1 101 0
 295 0068 3246     		mov	r2, r6
 296 006a 0021     		movs	r1, #0
 297 006c 0DF5AA40 		add	r0, sp, #21760
 298 0070 FFF7FEFF 		bl	memset
ARM GAS  C:\Users\bogur\AppData\Local\Temp\cclRbiEk.s 			page 8


 299              	.LVL36:
 102:..\kem.c      ****     uint8_t mc[VEC_K_SIZE_BYTES + VEC_N_SIZE_BYTES + VEC_N1N2_SIZE_BYTES] = {0};
 300              		.loc 1 102 0
 301 0074 43F66502 		movw	r2, #14437
 302 0078 0021     		movs	r1, #0
 303 007a 0DF5E450 		add	r0, sp, #7296
 304 007e 1830     		adds	r0, r0, #24
 305 0080 FFF7FEFF 		bl	memset
 306              	.LVL37:
 103:..\kem.c      ****     uint8_t tmp[VEC_K_SIZE_BYTES + PUBLIC_KEY_BYTES + SALT_SIZE_BYTES] = {0};
 307              		.loc 1 103 0
 308 0084 41F67D48 		movw	r8, #7293
 309 0088 4246     		mov	r2, r8
 310 008a 0021     		movs	r1, #0
 311 008c 06A8     		add	r0, sp, #24
 312 008e FFF7FEFF 		bl	memset
 313              	.LVL38:
 104:..\kem.c      ****     uint8_t *m = tmp;
 105:..\kem.c      ****     uint8_t *salt = tmp + VEC_K_SIZE_BYTES + PUBLIC_KEY_BYTES;
 106:..\kem.c      ****     shake256incctx shake256state;
 107:..\kem.c      **** 
 108:..\kem.c      ****     // Retrieving u, v and d from ciphertext
 109:..\kem.c      ****     PQCLEAN_HQC256_CLEAN_hqc_ciphertext_from_string(u, v, salt, ct);
 314              		.loc 1 109 0
 315 0092 4B46     		mov	r3, r9
 316 0094 06AA     		add	r2, sp, #24
 317              	.LVL39:
 318 0096 02F5E352 		add	r2, r2, #7264
 319              	.LVL40:
 320 009a 0D32     		adds	r2, r2, #13
 321              	.LVL41:
 322 009c 0DF50D41 		add	r1, sp, #36096
 323 00a0 A831     		adds	r1, r1, #168
 324 00a2 0DF52940 		add	r0, sp, #43264
 325 00a6 C830     		adds	r0, r0, #200
 326 00a8 FFF7FEFF 		bl	PQCLEAN_HQC256_CLEAN_hqc_ciphertext_from_string
 327              	.LVL42:
 110:..\kem.c      **** 
 111:..\kem.c      ****     // Decrypting
 112:..\kem.c      ****     result = PQCLEAN_HQC256_CLEAN_hqc_pke_decrypt(m, sigma, u, v, sk);
 328              		.loc 1 112 0
 329 00ac 0094     		str	r4, [sp]
 330 00ae 0DF50D43 		add	r3, sp, #36096
 331 00b2 A833     		adds	r3, r3, #168
 332 00b4 0DF52942 		add	r2, sp, #43264
 333 00b8 C832     		adds	r2, r2, #200
 334 00ba 0399     		ldr	r1, [sp, #12]
 335 00bc 06A8     		add	r0, sp, #24
 336              	.LVL43:
 337 00be FFF7FEFF 		bl	PQCLEAN_HQC256_CLEAN_hqc_pke_decrypt
 338              	.LVL44:
 339 00c2 0446     		mov	r4, r0
 340              	.LVL45:
 113:..\kem.c      **** 
 114:..\kem.c      ****     // Computing theta
 115:..\kem.c      ****     memcpy(tmp + VEC_K_SIZE_BYTES, pk, PUBLIC_KEY_BYTES);
 341              		.loc 1 115 0
ARM GAS  C:\Users\bogur\AppData\Local\Temp\cclRbiEk.s 			page 9


 342 00c4 41F64D42 		movw	r2, #7245
 343 00c8 3946     		mov	r1, r7
 344 00ca 0EA8     		add	r0, sp, #56
 345 00cc FFF7FEFF 		bl	memcpy
 346              	.LVL46:
 116:..\kem.c      ****     PQCLEAN_HQC256_CLEAN_shake256_512_ds(&shake256state, theta, tmp, VEC_K_SIZE_BYTES + PUBLIC_KEY_
 347              		.loc 1 116 0
 348 00d0 0323     		movs	r3, #3
 349 00d2 0093     		str	r3, [sp]
 350 00d4 4346     		mov	r3, r8
 351 00d6 06AA     		add	r2, sp, #24
 352              	.LVL47:
 353 00d8 0DF50D41 		add	r1, sp, #36096
 354 00dc 4831     		adds	r1, r1, #72
 355 00de 05A8     		add	r0, sp, #20
 356 00e0 FFF7FEFF 		bl	PQCLEAN_HQC256_CLEAN_shake256_512_ds
 357              	.LVL48:
 117:..\kem.c      **** 
 118:..\kem.c      ****     // Encrypting m'
 119:..\kem.c      ****     PQCLEAN_HQC256_CLEAN_hqc_pke_encrypt(u2, v2, m, theta, pk);
 358              		.loc 1 119 0
 359 00e4 0097     		str	r7, [sp]
 360 00e6 0DF50D43 		add	r3, sp, #36096
 361 00ea 4833     		adds	r3, r3, #72
 362 00ec 06AA     		add	r2, sp, #24
 363              	.LVL49:
 364 00ee 0DF5AA41 		add	r1, sp, #21760
 365 00f2 0DF5E240 		add	r0, sp, #28928
 366 00f6 2030     		adds	r0, r0, #32
 367 00f8 FFF7FEFF 		bl	PQCLEAN_HQC256_CLEAN_hqc_pke_encrypt
 368              	.LVL50:
 120:..\kem.c      **** 
 121:..\kem.c      ****     // Check if c != c'
 122:..\kem.c      ****     result |= PQCLEAN_HQC256_CLEAN_vect_compare((uint8_t *)u, (uint8_t *)u2, VEC_N_SIZE_BYTES);
 369              		.loc 1 122 0
 370 00fc 41F62542 		movw	r2, #7205
 371 0100 0DF5E241 		add	r1, sp, #28928
 372 0104 2031     		adds	r1, r1, #32
 373 0106 0DF52940 		add	r0, sp, #43264
 374 010a C830     		adds	r0, r0, #200
 375 010c FFF7FEFF 		bl	PQCLEAN_HQC256_CLEAN_vect_compare
 376              	.LVL51:
 377 0110 2043     		orrs	r0, r0, r4
 378 0112 C4B2     		uxtb	r4, r0
 379              	.LVL52:
 123:..\kem.c      ****     result |= PQCLEAN_HQC256_CLEAN_vect_compare((uint8_t *)v, (uint8_t *)v2, VEC_N1N2_SIZE_BYTES);
 380              		.loc 1 123 0
 381 0114 3246     		mov	r2, r6
 382 0116 0DF5AA41 		add	r1, sp, #21760
 383 011a 0DF50D40 		add	r0, sp, #36096
 384 011e A830     		adds	r0, r0, #168
 385 0120 FFF7FEFF 		bl	PQCLEAN_HQC256_CLEAN_vect_compare
 386              	.LVL53:
 387 0124 2043     		orrs	r0, r0, r4
 388 0126 C4B2     		uxtb	r4, r0
 389              	.LVL54:
 124:..\kem.c      **** 
ARM GAS  C:\Users\bogur\AppData\Local\Temp\cclRbiEk.s 			page 10


 125:..\kem.c      ****     result -= 1;
 390              		.loc 1 125 0
 391 0128 013C     		subs	r4, r4, #1
 392              	.LVL55:
 393 012a E4B2     		uxtb	r4, r4
 394              	.LVL56:
 395              	.LBB2:
 126:..\kem.c      **** 
 127:..\kem.c      ****     for (size_t i = 0; i < VEC_K_SIZE_BYTES; ++i) {
 396              		.loc 1 127 0
 397 012c 0023     		movs	r3, #0
 398 012e 0EE0     		b	.L6
 399              	.LVL57:
 400              	.L7:
 128:..\kem.c      ****         mc[i] = (m[i] & result) ^ (sigma[i] & ~result);
 401              		.loc 1 128 0 discriminator 3
 402 0130 06AA     		add	r2, sp, #24
 403              	.LVL58:
 404 0132 D25C     		ldrb	r2, [r2, r3]	@ zero_extendqisi2
 405              	.LVL59:
 406 0134 0DF50D41 		add	r1, sp, #36096
 407 0138 8831     		adds	r1, r1, #136
 408 013a C95C     		ldrb	r1, [r1, r3]	@ zero_extendqisi2
 409 013c 21EA0401 		bic	r1, r1, r4
 410 0140 2240     		ands	r2, r2, r4
 411 0142 4A40     		eors	r2, r2, r1
 412 0144 0DF5E451 		add	r1, sp, #7296
 413 0148 1831     		adds	r1, r1, #24
 414 014a CA54     		strb	r2, [r1, r3]
 127:..\kem.c      ****         mc[i] = (m[i] & result) ^ (sigma[i] & ~result);
 415              		.loc 1 127 0 discriminator 3
 416 014c 0133     		adds	r3, r3, #1
 417              	.LVL60:
 418              	.L6:
 127:..\kem.c      ****         mc[i] = (m[i] & result) ^ (sigma[i] & ~result);
 419              		.loc 1 127 0 is_stmt 0 discriminator 1
 420 014e 1F2B     		cmp	r3, #31
 421 0150 EED9     		bls	.L7
 422              	.LBE2:
 129:..\kem.c      ****     }
 130:..\kem.c      **** 
 131:..\kem.c      ****     // Computing shared secret
 132:..\kem.c      ****     PQCLEAN_HQC256_CLEAN_store8_arr(mc + VEC_K_SIZE_BYTES, VEC_N_SIZE_BYTES, u, VEC_N_SIZE_64);
 423              		.loc 1 132 0 is_stmt 1
 424 0152 40F28533 		movw	r3, #901
 425              	.LVL61:
 426 0156 0DF52942 		add	r2, sp, #43264
 427 015a C832     		adds	r2, r2, #200
 428 015c 41F62541 		movw	r1, #7205
 429 0160 0DF5E750 		add	r0, sp, #7392
 430 0164 1030     		adds	r0, r0, #16
 431 0166 3838     		subs	r0, r0, #56
 432 0168 FFF7FEFF 		bl	PQCLEAN_HQC256_CLEAN_store8_arr
 433              	.LVL62:
 133:..\kem.c      ****     PQCLEAN_HQC256_CLEAN_store8_arr(mc + VEC_K_SIZE_BYTES + VEC_N_SIZE_BYTES, VEC_N1N2_SIZE_BYTES, 
 434              		.loc 1 133 0
 435 016c 4FF46173 		mov	r3, #900
ARM GAS  C:\Users\bogur\AppData\Local\Temp\cclRbiEk.s 			page 11


 436 0170 0DF50D42 		add	r2, sp, #36096
 437 0174 A832     		adds	r2, r2, #168
 438 0176 4FF4E151 		mov	r1, #7200
 439 017a 0DF5E450 		add	r0, sp, #7296
 440 017e 1830     		adds	r0, r0, #24
 441 0180 00F5E250 		add	r0, r0, #7232
 442 0184 0530     		adds	r0, r0, #5
 443 0186 FFF7FEFF 		bl	PQCLEAN_HQC256_CLEAN_store8_arr
 444              	.LVL63:
 134:..\kem.c      ****     PQCLEAN_HQC256_CLEAN_shake256_512_ds(&shake256state, ss, mc, VEC_K_SIZE_BYTES + VEC_N_SIZE_BYTE
 445              		.loc 1 134 0
 446 018a 0423     		movs	r3, #4
 447 018c 0093     		str	r3, [sp]
 448 018e 43F66503 		movw	r3, #14437
 449 0192 0DF5E452 		add	r2, sp, #7296
 450 0196 1832     		adds	r2, r2, #24
 451 0198 2946     		mov	r1, r5
 452 019a 05A8     		add	r0, sp, #20
 453 019c FFF7FEFF 		bl	PQCLEAN_HQC256_CLEAN_shake256_512_ds
 454              	.LVL64:
 135:..\kem.c      **** 
 136:..\kem.c      **** 
 137:..\kem.c      ****     return (result & 1) - 1;
 455              		.loc 1 137 0
 456 01a0 04F00100 		and	r0, r4, #1
 138:..\kem.c      **** }
 457              		.loc 1 138 0
 458 01a4 0138     		subs	r0, r0, #1
 459 01a6 0DF5454D 		add	sp, sp, #50432
 460 01aa 3DB0     		add	sp, sp, #244
 461              		.cfi_def_cfa_offset 28
 462              		@ sp needed
 463 01ac BDE8F083 		pop	{r4, r5, r6, r7, r8, r9, pc}
 464              		.cfi_endproc
 465              	.LFE2:
 466              		.size	PQCLEAN_HQC256_CLEAN_crypto_kem_dec, .-PQCLEAN_HQC256_CLEAN_crypto_kem_dec
 467              		.text
 468              	.Letext0:
 469              		.file 2 "c:\\program files (x86)\\cypress\\psoc creator\\4.4\\psoc creator\\import\\gnu\\arm\\5.4.
 470              		.file 3 "c:\\program files (x86)\\cypress\\psoc creator\\4.4\\psoc creator\\import\\gnu\\arm\\5.4.
 471              		.file 4 "c:\\program files (x86)\\cypress\\psoc creator\\4.4\\psoc creator\\import\\gnu\\arm\\5.4.
 472              		.file 5 "..\\fips202.h"
 473              		.file 6 "..\\hqc.h"
 474              		.file 7 "..\\randombytes.h"
 475              		.file 8 "..\\shake_ds.h"
 476              		.file 9 "..\\parsing.h"
 477              		.file 10 "..\\vector.h"