ARM GAS  C:\Users\bogurad\AppData\Local\Temp\cc1pPM9h.s 			page 1


   1              		.syntax unified
   2              		.cpu cortex-m4
   3              		.eabi_attribute 27, 1
   4              		.fpu fpv4-sp-d16
   5              		.eabi_attribute 20, 1
   6              		.eabi_attribute 21, 1
   7              		.eabi_attribute 23, 3
   8              		.eabi_attribute 24, 1
   9              		.eabi_attribute 25, 1
  10              		.eabi_attribute 26, 1
  11              		.eabi_attribute 30, 1
  12              		.eabi_attribute 34, 1
  13              		.eabi_attribute 18, 4
  14              		.thumb
  15              		.syntax unified
  16              		.file	"parsing.c"
  17              		.text
  18              	.Ltext0:
  19              		.cfi_sections	.debug_frame
  20              		.section	.text.load8,"ax",%progbits
  21              		.align	2
  22              		.thumb
  23              		.thumb_func
  24              		.type	load8, %function
  25              	load8:
  26              	.LFB0:
  27              		.file 1 "..\\parsing.c"
   1:..\parsing.c  **** #include "parameters.h"
   2:..\parsing.c  **** #include "parsing.h"
   3:..\parsing.c  **** #include "vector.h"
   4:..\parsing.c  **** #include <stdint.h>
   5:..\parsing.c  **** #include <string.h>
   6:..\parsing.c  **** /**
   7:..\parsing.c  ****  * @file parsing.c
   8:..\parsing.c  ****  * @brief Functions to parse secret key, public key and ciphertext of the HQC scheme
   9:..\parsing.c  ****  */
  10:..\parsing.c  **** 
  11:..\parsing.c  **** 
  12:..\parsing.c  **** static uint64_t load8(const uint8_t *in) {
  28              		.loc 1 12 0
  29              		.cfi_startproc
  30              		@ args = 0, pretend = 0, frame = 0
  31              		@ frame_needed = 0, uses_anonymous_args = 0
  32              		@ link register save eliminated.
  33              	.LVL0:
  34 0000 30B4     		push	{r4, r5}
  35              		.cfi_def_cfa_offset 8
  36              		.cfi_offset 4, -8
  37              		.cfi_offset 5, -4
  13:..\parsing.c  ****     uint64_t ret = in[7];
  38              		.loc 1 13 0
  39 0002 C279     		ldrb	r2, [r0, #7]	@ zero_extendqisi2
  40 0004 0023     		movs	r3, #0
  41              	.LVL1:
  42              	.LBB2:
  14:..\parsing.c  **** 
  15:..\parsing.c  ****     for (int8_t i = 6; i >= 0; --i) {
ARM GAS  C:\Users\bogurad\AppData\Local\Temp\cc1pPM9h.s 			page 2


  43              		.loc 1 15 0
  44 0006 0621     		movs	r1, #6
  45 0008 09E0     		b	.L2
  46              	.LVL2:
  47              	.L3:
  16:..\parsing.c  ****         ret <<= 8;
  48              		.loc 1 16 0 discriminator 3
  49 000a 1D02     		lsls	r5, r3, #8
  50 000c 45EA1265 		orr	r5, r5, r2, lsr #24
  51 0010 1402     		lsls	r4, r2, #8
  52              	.LVL3:
  17:..\parsing.c  ****         ret |= in[i];
  53              		.loc 1 17 0 discriminator 3
  54 0012 425C     		ldrb	r2, [r0, r1]	@ zero_extendqisi2
  55 0014 0023     		movs	r3, #0
  56 0016 2243     		orrs	r2, r2, r4
  57 0018 2B43     		orrs	r3, r3, r5
  58              	.LVL4:
  15:..\parsing.c  ****         ret <<= 8;
  59              		.loc 1 15 0 discriminator 3
  60 001a 0139     		subs	r1, r1, #1
  61              	.LVL5:
  62 001c 49B2     		sxtb	r1, r1
  63              	.LVL6:
  64              	.L2:
  15:..\parsing.c  ****         ret <<= 8;
  65              		.loc 1 15 0 is_stmt 0 discriminator 1
  66 001e 0029     		cmp	r1, #0
  67 0020 F3DA     		bge	.L3
  68              	.LBE2:
  18:..\parsing.c  ****     }
  19:..\parsing.c  **** 
  20:..\parsing.c  ****     return ret;
  21:..\parsing.c  **** }
  69              		.loc 1 21 0 is_stmt 1
  70 0022 1046     		mov	r0, r2
  71              	.LVL7:
  72 0024 1946     		mov	r1, r3
  73              	.LVL8:
  74 0026 30BC     		pop	{r4, r5}
  75              		.cfi_restore 5
  76              		.cfi_restore 4
  77              		.cfi_def_cfa_offset 0
  78 0028 7047     		bx	lr
  79              		.cfi_endproc
  80              	.LFE0:
  81              		.size	load8, .-load8
  82 002a 00BF     		.section	.text.PQCLEAN_HQC256_CLEAN_load8_arr,"ax",%progbits
  83              		.align	2
  84              		.global	PQCLEAN_HQC256_CLEAN_load8_arr
  85              		.thumb
  86              		.thumb_func
  87              		.type	PQCLEAN_HQC256_CLEAN_load8_arr, %function
  88              	PQCLEAN_HQC256_CLEAN_load8_arr:
  89              	.LFB1:
  22:..\parsing.c  **** 
  23:..\parsing.c  **** void PQCLEAN_HQC256_CLEAN_load8_arr(uint64_t *out64, size_t outlen, const uint8_t *in8, size_t inle
ARM GAS  C:\Users\bogurad\AppData\Local\Temp\cc1pPM9h.s 			page 3


  90              		.loc 1 23 0
  91              		.cfi_startproc
  92              		@ args = 0, pretend = 0, frame = 8
  93              		@ frame_needed = 0, uses_anonymous_args = 0
  94              	.LVL9:
  95 0000 2DE9F04F 		push	{r4, r5, r6, r7, r8, r9, r10, fp, lr}
  96              		.cfi_def_cfa_offset 36
  97              		.cfi_offset 4, -36
  98              		.cfi_offset 5, -32
  99              		.cfi_offset 6, -28
 100              		.cfi_offset 7, -24
 101              		.cfi_offset 8, -20
 102              		.cfi_offset 9, -16
 103              		.cfi_offset 10, -12
 104              		.cfi_offset 11, -8
 105              		.cfi_offset 14, -4
 106 0004 83B0     		sub	sp, sp, #12
 107              		.cfi_def_cfa_offset 48
 108 0006 0190     		str	r0, [sp, #4]
 109 0008 0E46     		mov	r6, r1
 110 000a 9146     		mov	r9, r2
 111 000c 9B46     		mov	fp, r3
 112              	.LVL10:
  24:..\parsing.c  ****     size_t index_in = 0;
  25:..\parsing.c  ****     size_t index_out = 0;
  26:..\parsing.c  **** 
  27:..\parsing.c  ****     // first copy by 8 bytes
  28:..\parsing.c  ****     if (inlen >= 8 && outlen >= 1) {
 113              		.loc 1 28 0
 114 000e 072B     		cmp	r3, #7
 115 0010 17D9     		bls	.L12
 116              		.loc 1 28 0 is_stmt 0 discriminator 1
 117 0012 69B9     		cbnz	r1, .L13
  25:..\parsing.c  **** 
 118              		.loc 1 25 0 is_stmt 1
 119 0014 0027     		movs	r7, #0
  24:..\parsing.c  ****     size_t index_in = 0;
 120              		.loc 1 24 0
 121 0016 3846     		mov	r0, r7
 122              	.LVL11:
 123 0018 15E0     		b	.L6
 124              	.LVL12:
 125              	.L8:
  29:..\parsing.c  ****         while (index_out < outlen && index_in + 8 <= inlen) {
  30:..\parsing.c  ****             out64[index_out] = load8(in8 + index_in);
 126              		.loc 1 30 0
 127 001a 019B     		ldr	r3, [sp, #4]
 128 001c 03EBC70A 		add	r10, r3, r7, lsl #3
 129 0020 4844     		add	r0, r0, r9
 130              	.LVL13:
 131 0022 FFF7FEFF 		bl	load8
 132              	.LVL14:
 133 0026 CAE90001 		strd	r0, [r10]
 134              	.LVL15:
  31:..\parsing.c  **** 
  32:..\parsing.c  ****             index_in += 8;
  33:..\parsing.c  ****             index_out += 1;
ARM GAS  C:\Users\bogurad\AppData\Local\Temp\cc1pPM9h.s 			page 4


 135              		.loc 1 33 0
 136 002a 0137     		adds	r7, r7, #1
 137              	.LVL16:
  32:..\parsing.c  ****             index_out += 1;
 138              		.loc 1 32 0
 139 002c 4046     		mov	r0, r8
 140 002e 01E0     		b	.L7
 141              	.LVL17:
 142              	.L13:
 143 0030 0027     		movs	r7, #0
 144 0032 3846     		mov	r0, r7
 145              	.LVL18:
 146              	.L7:
  29:..\parsing.c  ****         while (index_out < outlen && index_in + 8 <= inlen) {
 147              		.loc 1 29 0
 148 0034 B742     		cmp	r7, r6
 149 0036 06D2     		bcs	.L6
  29:..\parsing.c  ****         while (index_out < outlen && index_in + 8 <= inlen) {
 150              		.loc 1 29 0 is_stmt 0 discriminator 1
 151 0038 00F10808 		add	r8, r0, #8
 152 003c C345     		cmp	fp, r8
 153 003e ECD2     		bcs	.L8
 154 0040 01E0     		b	.L6
 155              	.LVL19:
 156              	.L12:
  25:..\parsing.c  **** 
 157              		.loc 1 25 0 is_stmt 1
 158 0042 0027     		movs	r7, #0
  24:..\parsing.c  ****     size_t index_out = 0;
 159              		.loc 1 24 0
 160 0044 3846     		mov	r0, r7
 161              	.LVL20:
 162              	.L6:
  34:..\parsing.c  ****         }
  35:..\parsing.c  ****     }
  36:..\parsing.c  **** 
  37:..\parsing.c  ****     // we now need to do the last 7 bytes if necessary
  38:..\parsing.c  ****     if (index_in >= inlen || index_out >= outlen) {
 163              		.loc 1 38 0
 164 0046 5845     		cmp	r0, fp
 165 0048 28D2     		bcs	.L5
 166              		.loc 1 38 0 is_stmt 0 discriminator 1
 167 004a B742     		cmp	r7, r6
 168 004c 26D2     		bcs	.L5
  39:..\parsing.c  ****         return;
  40:..\parsing.c  ****     }
  41:..\parsing.c  ****     out64[index_out] = in8[inlen - 1];
 169              		.loc 1 41 0 is_stmt 1
 170 004e 019B     		ldr	r3, [sp, #4]
 171 0050 03EBC706 		add	r6, r3, r7, lsl #3
 172              	.LVL21:
 173 0054 09EB0B03 		add	r3, r9, fp
 174 0058 13F8012C 		ldrb	r2, [r3, #-1]	@ zero_extendqisi2
 175 005c 0023     		movs	r3, #0
 176 005e C6E90023 		strd	r2, [r6]
 177              	.LBB3:
  42:..\parsing.c  ****     for (int8_t i = (int8_t)(inlen - index_in) - 2; i >= 0; --i) {
ARM GAS  C:\Users\bogurad\AppData\Local\Temp\cc1pPM9h.s 			page 5


 178              		.loc 1 42 0
 179 0062 C0EB0B03 		rsb	r3, r0, fp
 180 0066 023B     		subs	r3, r3, #2
 181 0068 5BB2     		sxtb	r3, r3
 182              	.LVL22:
 183 006a 15E0     		b	.L10
 184              	.LVL23:
 185              	.L11:
  43:..\parsing.c  ****         out64[index_out] <<= 8;
 186              		.loc 1 43 0 discriminator 3
 187 006c 3268     		ldr	r2, [r6]
 188 006e 7168     		ldr	r1, [r6, #4]
 189 0070 0D02     		lsls	r5, r1, #8
 190 0072 45EA1265 		orr	r5, r5, r2, lsr #24
 191 0076 1402     		lsls	r4, r2, #8
 192 0078 C6E90045 		strd	r4, [r6]
  44:..\parsing.c  ****         out64[index_out] |= in8[index_in + i];
 193              		.loc 1 44 0 discriminator 3
 194 007c 09EB0002 		add	r2, r9, r0
 195 0080 12F803A0 		ldrb	r10, [r2, r3]	@ zero_extendqisi2
 196 0084 4FF0000B 		mov	fp, #0
 197 0088 4AEA040A 		orr	r10, r10, r4
 198 008c 4BEA050B 		orr	fp, fp, r5
 199 0090 C6E900AB 		strd	r10, [r6]
  42:..\parsing.c  ****     for (int8_t i = (int8_t)(inlen - index_in) - 2; i >= 0; --i) {
 200              		.loc 1 42 0 discriminator 3
 201 0094 013B     		subs	r3, r3, #1
 202              	.LVL24:
 203 0096 5BB2     		sxtb	r3, r3
 204              	.LVL25:
 205              	.L10:
  42:..\parsing.c  ****     for (int8_t i = (int8_t)(inlen - index_in) - 2; i >= 0; --i) {
 206              		.loc 1 42 0 is_stmt 0 discriminator 1
 207 0098 002B     		cmp	r3, #0
 208 009a E7DA     		bge	.L11
 209              	.LVL26:
 210              	.L5:
 211              	.LBE3:
  45:..\parsing.c  ****     }
  46:..\parsing.c  **** }
 212              		.loc 1 46 0 is_stmt 1
 213 009c 03B0     		add	sp, sp, #12
 214              		.cfi_def_cfa_offset 36
 215              		@ sp needed
 216 009e BDE8F08F 		pop	{r4, r5, r6, r7, r8, r9, r10, fp, pc}
 217              		.cfi_endproc
 218              	.LFE1:
 219              		.size	PQCLEAN_HQC256_CLEAN_load8_arr, .-PQCLEAN_HQC256_CLEAN_load8_arr
 220 00a2 00BF     		.section	.text.PQCLEAN_HQC256_CLEAN_store8_arr,"ax",%progbits
 221              		.align	2
 222              		.global	PQCLEAN_HQC256_CLEAN_store8_arr
 223              		.thumb
 224              		.thumb_func
 225              		.type	PQCLEAN_HQC256_CLEAN_store8_arr, %function
 226              	PQCLEAN_HQC256_CLEAN_store8_arr:
 227              	.LFB2:
  47:..\parsing.c  **** 
ARM GAS  C:\Users\bogurad\AppData\Local\Temp\cc1pPM9h.s 			page 6


  48:..\parsing.c  **** void PQCLEAN_HQC256_CLEAN_store8_arr(uint8_t *out8, size_t outlen, const uint64_t *in64, size_t inl
 228              		.loc 1 48 0
 229              		.cfi_startproc
 230              		@ args = 0, pretend = 0, frame = 0
 231              		@ frame_needed = 0, uses_anonymous_args = 0
 232              	.LVL27:
 233 0000 2DE9F041 		push	{r4, r5, r6, r7, r8, lr}
 234              		.cfi_def_cfa_offset 24
 235              		.cfi_offset 4, -24
 236              		.cfi_offset 5, -20
 237              		.cfi_offset 6, -16
 238              		.cfi_offset 7, -12
 239              		.cfi_offset 8, -8
 240              		.cfi_offset 14, -4
 241 0004 8046     		mov	r8, r0
 242              	.LVL28:
 243              	.LBB4:
  49:..\parsing.c  ****     for (size_t index_out = 0, index_in = 0; index_out < outlen && index_in < inlen;) {
 244              		.loc 1 49 0
 245 0006 0027     		movs	r7, #0
 246 0008 3E46     		mov	r6, r7
 247 000a 1CE0     		b	.L16
 248              	.LVL29:
 249              	.L19:
  50:..\parsing.c  ****         out8[index_out] = (in64[index_in] >> ((index_out % 8) * 8)) & 0xFF;
 250              		.loc 1 50 0
 251 000c 02EBC704 		add	r4, r2, r7, lsl #3
 252 0010 6568     		ldr	r5, [r4, #4]
 253 0012 06F00704 		and	r4, r6, #7
 254 0016 E400     		lsls	r4, r4, #3
 255 0018 C4F1200C 		rsb	ip, r4, #32
 256 001c A4F1200E 		sub	lr, r4, #32
 257 0020 52F83700 		ldr	r0, [r2, r7, lsl #3]
 258 0024 20FA04F4 		lsr	r4, r0, r4
 259 0028 05FA0CFC 		lsl	ip, r5, ip
 260 002c 44EA0C04 		orr	r4, r4, ip
 261 0030 25FA0EFE 		lsr	lr, r5, lr
 262 0034 44EA0E04 		orr	r4, r4, lr
 263 0038 08F80640 		strb	r4, [r8, r6]
  51:..\parsing.c  ****         ++index_out;
 264              		.loc 1 51 0
 265 003c 0136     		adds	r6, r6, #1
 266              	.LVL30:
  52:..\parsing.c  ****         if (index_out % 8 == 0) {
 267              		.loc 1 52 0
 268 003e 16F0070F 		tst	r6, #7
 269 0042 00D1     		bne	.L16
  53:..\parsing.c  ****             ++index_in;
 270              		.loc 1 53 0
 271 0044 0137     		adds	r7, r7, #1
 272              	.LVL31:
 273              	.L16:
  49:..\parsing.c  ****         out8[index_out] = (in64[index_in] >> ((index_out % 8) * 8)) & 0xFF;
 274              		.loc 1 49 0 discriminator 1
 275 0046 8E42     		cmp	r6, r1
 276 0048 01D2     		bcs	.L15
  49:..\parsing.c  ****         out8[index_out] = (in64[index_in] >> ((index_out % 8) * 8)) & 0xFF;
ARM GAS  C:\Users\bogurad\AppData\Local\Temp\cc1pPM9h.s 			page 7


 277              		.loc 1 49 0 is_stmt 0 discriminator 2
 278 004a 9F42     		cmp	r7, r3
 279 004c DED3     		bcc	.L19
 280              	.L15:
 281 004e BDE8F081 		pop	{r4, r5, r6, r7, r8, pc}
 282              	.LBE4:
 283              		.cfi_endproc
 284              	.LFE2:
 285              		.size	PQCLEAN_HQC256_CLEAN_store8_arr, .-PQCLEAN_HQC256_CLEAN_store8_arr
 286 0052 00BF     		.section	.text.PQCLEAN_HQC256_CLEAN_hqc_secret_key_to_string,"ax",%progbits
 287              		.align	2
 288              		.global	PQCLEAN_HQC256_CLEAN_hqc_secret_key_to_string
 289              		.thumb
 290              		.thumb_func
 291              		.type	PQCLEAN_HQC256_CLEAN_hqc_secret_key_to_string, %function
 292              	PQCLEAN_HQC256_CLEAN_hqc_secret_key_to_string:
 293              	.LFB3:
  54:..\parsing.c  ****         }
  55:..\parsing.c  ****     }
  56:..\parsing.c  **** }
  57:..\parsing.c  **** 
  58:..\parsing.c  **** /**
  59:..\parsing.c  ****  * @brief Parse a secret key into a string
  60:..\parsing.c  ****  *
  61:..\parsing.c  ****  * The secret key is composed of the seed used to generate vectors <b>x</b> and <b>y</b>.
  62:..\parsing.c  ****  * As technicality, the public key is appended to the secret key in order to respect NIST API.
  63:..\parsing.c  ****  *
  64:..\parsing.c  ****  * @param[out] sk String containing the secret key
  65:..\parsing.c  ****  * @param[in] sk_seed Seed used to generate the secret key
  66:..\parsing.c  ****  * @param[in] sigma String used in HHK transform
  67:..\parsing.c  ****  * @param[in] pk String containing the public key
  68:..\parsing.c  ****  */
  69:..\parsing.c  **** void PQCLEAN_HQC256_CLEAN_hqc_secret_key_to_string(uint8_t *sk, const uint8_t *sk_seed, const uint8
 294              		.loc 1 69 0 is_stmt 1
 295              		.cfi_startproc
 296              		@ args = 0, pretend = 0, frame = 0
 297              		@ frame_needed = 0, uses_anonymous_args = 0
 298              	.LVL32:
 299 0000 2DE9F041 		push	{r4, r5, r6, r7, r8, lr}
 300              		.cfi_def_cfa_offset 24
 301              		.cfi_offset 4, -24
 302              		.cfi_offset 5, -20
 303              		.cfi_offset 6, -16
 304              		.cfi_offset 7, -12
 305              		.cfi_offset 8, -8
 306              		.cfi_offset 14, -4
  70:..\parsing.c  ****     memcpy(sk, sk_seed, SEED_BYTES);
 307              		.loc 1 70 0
 308 0004 0C46     		mov	r4, r1
 309 0006 0546     		mov	r5, r0
 310 0008 01F12006 		add	r6, r1, #32
 311              	.L22:
 312 000c D4F80080 		ldr	r8, [r4]	@ unaligned
 313 0010 D4F804C0 		ldr	ip, [r4, #4]	@ unaligned
 314 0014 D4F808E0 		ldr	lr, [r4, #8]	@ unaligned
 315 0018 E768     		ldr	r7, [r4, #12]	@ unaligned
 316 001a C5F80080 		str	r8, [r5]	@ unaligned
ARM GAS  C:\Users\bogurad\AppData\Local\Temp\cc1pPM9h.s 			page 8


 317 001e C5F804C0 		str	ip, [r5, #4]	@ unaligned
 318 0022 C5F808E0 		str	lr, [r5, #8]	@ unaligned
 319 0026 EF60     		str	r7, [r5, #12]	@ unaligned
 320 0028 1034     		adds	r4, r4, #16
 321 002a 1035     		adds	r5, r5, #16
 322 002c B442     		cmp	r4, r6
 323 002e EDD1     		bne	.L22
 324 0030 2668     		ldr	r6, [r4]	@ unaligned
 325 0032 6168     		ldr	r1, [r4, #4]	@ unaligned
 326              	.LVL33:
 327 0034 2E60     		str	r6, [r5]	@ unaligned
 328 0036 6960     		str	r1, [r5, #4]	@ unaligned
  71:..\parsing.c  ****     memcpy(sk + SEED_BYTES, sigma, VEC_K_SIZE_BYTES);
 329              		.loc 1 71 0
 330 0038 1768     		ldr	r7, [r2]	@ unaligned
 331 003a 5668     		ldr	r6, [r2, #4]	@ unaligned
 332 003c 9568     		ldr	r5, [r2, #8]	@ unaligned
 333 003e D168     		ldr	r1, [r2, #12]	@ unaligned
 334 0040 8762     		str	r7, [r0, #40]	@ unaligned
 335 0042 C662     		str	r6, [r0, #44]	@ unaligned
 336 0044 0563     		str	r5, [r0, #48]	@ unaligned
 337 0046 4163     		str	r1, [r0, #52]	@ unaligned
 338 0048 1769     		ldr	r7, [r2, #16]	@ unaligned
 339 004a 5669     		ldr	r6, [r2, #20]	@ unaligned
 340 004c 9569     		ldr	r5, [r2, #24]	@ unaligned
 341 004e D169     		ldr	r1, [r2, #28]	@ unaligned
 342 0050 8763     		str	r7, [r0, #56]	@ unaligned
 343 0052 C663     		str	r6, [r0, #60]	@ unaligned
 344 0054 0564     		str	r5, [r0, #64]	@ unaligned
 345 0056 4164     		str	r1, [r0, #68]	@ unaligned
  72:..\parsing.c  ****     memcpy(sk + SEED_BYTES + VEC_K_SIZE_BYTES, pk, PUBLIC_KEY_BYTES);
 346              		.loc 1 72 0
 347 0058 41F64D42 		movw	r2, #7245
 348              	.LVL34:
 349 005c 1946     		mov	r1, r3
 350 005e 4830     		adds	r0, r0, #72
 351              	.LVL35:
 352 0060 FFF7FEFF 		bl	memcpy
 353              	.LVL36:
 354 0064 BDE8F081 		pop	{r4, r5, r6, r7, r8, pc}
 355              		.cfi_endproc
 356              	.LFE3:
 357              		.size	PQCLEAN_HQC256_CLEAN_hqc_secret_key_to_string, .-PQCLEAN_HQC256_CLEAN_hqc_secret_key_to_stri
 358              		.section	.text.PQCLEAN_HQC256_CLEAN_hqc_secret_key_from_string,"ax",%progbits
 359              		.align	2
 360              		.global	PQCLEAN_HQC256_CLEAN_hqc_secret_key_from_string
 361              		.thumb
 362              		.thumb_func
 363              		.type	PQCLEAN_HQC256_CLEAN_hqc_secret_key_from_string, %function
 364              	PQCLEAN_HQC256_CLEAN_hqc_secret_key_from_string:
 365              	.LFB4:
  73:..\parsing.c  **** }
  74:..\parsing.c  **** 
  75:..\parsing.c  **** 
  76:..\parsing.c  **** 
  77:..\parsing.c  **** /**
  78:..\parsing.c  ****  * @brief Parse a secret key from a string
ARM GAS  C:\Users\bogurad\AppData\Local\Temp\cc1pPM9h.s 			page 9


  79:..\parsing.c  ****  *
  80:..\parsing.c  ****  * The secret key is composed of the seed used to generate vectors <b>x</b> and <b>y</b>.
  81:..\parsing.c  ****  * As technicality, the public key is appended to the secret key in order to respect NIST API.
  82:..\parsing.c  ****  *
  83:..\parsing.c  ****  * @param[out] x uint64_t representation of vector x
  84:..\parsing.c  ****  * @param[out] y uint64_t representation of vector y
  85:..\parsing.c  ****  * @param[out] pk String containing the public key
  86:..\parsing.c  ****  * @param[in] sk String containing the secret key
  87:..\parsing.c  ****  */
  88:..\parsing.c  **** void PQCLEAN_HQC256_CLEAN_hqc_secret_key_from_string(uint64_t *x, uint64_t *y, uint8_t *sigma, uint
 366              		.loc 1 88 0
 367              		.cfi_startproc
 368              		@ args = 4, pretend = 0, frame = 8
 369              		@ frame_needed = 0, uses_anonymous_args = 0
 370              	.LVL37:
 371 0000 F0B5     		push	{r4, r5, r6, r7, lr}
 372              		.cfi_def_cfa_offset 20
 373              		.cfi_offset 4, -20
 374              		.cfi_offset 5, -16
 375              		.cfi_offset 6, -12
 376              		.cfi_offset 7, -8
 377              		.cfi_offset 14, -4
 378 0002 83B0     		sub	sp, sp, #12
 379              		.cfi_def_cfa_offset 32
 380 0004 0746     		mov	r7, r0
 381 0006 0E46     		mov	r6, r1
 382 0008 1D46     		mov	r5, r3
 383 000a 089C     		ldr	r4, [sp, #32]
  89:..\parsing.c  ****     seedexpander_state sk_seedexpander;
  90:..\parsing.c  **** 
  91:..\parsing.c  ****     memcpy(sigma, sk + SEED_BYTES, VEC_K_SIZE_BYTES);
 384              		.loc 1 91 0
 385 000c 2346     		mov	r3, r4
 386              	.LVL38:
 387 000e 53F828CF 		ldr	ip, [r3, #40]!	@ unaligned
 388 0012 D3F804E0 		ldr	lr, [r3, #4]	@ unaligned
 389 0016 9868     		ldr	r0, [r3, #8]	@ unaligned
 390              	.LVL39:
 391 0018 D968     		ldr	r1, [r3, #12]	@ unaligned
 392              	.LVL40:
 393 001a C2F800C0 		str	ip, [r2]	@ unaligned
 394 001e C2F804E0 		str	lr, [r2, #4]	@ unaligned
 395 0022 9060     		str	r0, [r2, #8]	@ unaligned
 396 0024 D160     		str	r1, [r2, #12]	@ unaligned
 397 0026 D3F810C0 		ldr	ip, [r3, #16]	@ unaligned
 398 002a D3F814E0 		ldr	lr, [r3, #20]	@ unaligned
 399 002e 9869     		ldr	r0, [r3, #24]	@ unaligned
 400 0030 D969     		ldr	r1, [r3, #28]	@ unaligned
 401 0032 C2F810C0 		str	ip, [r2, #16]	@ unaligned
 402 0036 C2F814E0 		str	lr, [r2, #20]	@ unaligned
 403 003a 9061     		str	r0, [r2, #24]	@ unaligned
 404 003c D161     		str	r1, [r2, #28]	@ unaligned
  92:..\parsing.c  ****     PQCLEAN_HQC256_CLEAN_seedexpander_init(&sk_seedexpander, sk, SEED_BYTES);
 405              		.loc 1 92 0
 406 003e 2822     		movs	r2, #40
 407              	.LVL41:
 408 0040 2146     		mov	r1, r4
ARM GAS  C:\Users\bogurad\AppData\Local\Temp\cc1pPM9h.s 			page 10


 409 0042 01A8     		add	r0, sp, #4
 410 0044 FFF7FEFF 		bl	PQCLEAN_HQC256_CLEAN_seedexpander_init
 411              	.LVL42:
  93:..\parsing.c  **** 
  94:..\parsing.c  ****     PQCLEAN_HQC256_CLEAN_vect_set_random_fixed_weight(&sk_seedexpander, x, PARAM_OMEGA);
 412              		.loc 1 94 0
 413 0048 8322     		movs	r2, #131
 414 004a 3946     		mov	r1, r7
 415 004c 01A8     		add	r0, sp, #4
 416 004e FFF7FEFF 		bl	PQCLEAN_HQC256_CLEAN_vect_set_random_fixed_weight
 417              	.LVL43:
  95:..\parsing.c  ****     PQCLEAN_HQC256_CLEAN_vect_set_random_fixed_weight(&sk_seedexpander, y, PARAM_OMEGA);
 418              		.loc 1 95 0
 419 0052 8322     		movs	r2, #131
 420 0054 3146     		mov	r1, r6
 421 0056 01A8     		add	r0, sp, #4
 422 0058 FFF7FEFF 		bl	PQCLEAN_HQC256_CLEAN_vect_set_random_fixed_weight
 423              	.LVL44:
  96:..\parsing.c  ****     memcpy(pk, sk + SEED_BYTES + VEC_K_SIZE_BYTES, PUBLIC_KEY_BYTES);
 424              		.loc 1 96 0
 425 005c 41F64D42 		movw	r2, #7245
 426 0060 04F14801 		add	r1, r4, #72
 427 0064 2846     		mov	r0, r5
 428 0066 FFF7FEFF 		bl	memcpy
 429              	.LVL45:
  97:..\parsing.c  **** 
  98:..\parsing.c  ****     PQCLEAN_HQC256_CLEAN_seedexpander_release(&sk_seedexpander);
 430              		.loc 1 98 0
 431 006a 01A8     		add	r0, sp, #4
 432 006c FFF7FEFF 		bl	PQCLEAN_HQC256_CLEAN_seedexpander_release
 433              	.LVL46:
  99:..\parsing.c  **** }
 434              		.loc 1 99 0
 435 0070 03B0     		add	sp, sp, #12
 436              		.cfi_def_cfa_offset 20
 437              		@ sp needed
 438 0072 F0BD     		pop	{r4, r5, r6, r7, pc}
 439              		.cfi_endproc
 440              	.LFE4:
 441              		.size	PQCLEAN_HQC256_CLEAN_hqc_secret_key_from_string, .-PQCLEAN_HQC256_CLEAN_hqc_secret_key_from_
 442              		.section	.text.PQCLEAN_HQC256_CLEAN_hqc_public_key_to_string,"ax",%progbits
 443              		.align	2
 444              		.global	PQCLEAN_HQC256_CLEAN_hqc_public_key_to_string
 445              		.thumb
 446              		.thumb_func
 447              		.type	PQCLEAN_HQC256_CLEAN_hqc_public_key_to_string, %function
 448              	PQCLEAN_HQC256_CLEAN_hqc_public_key_to_string:
 449              	.LFB5:
 100:..\parsing.c  **** 
 101:..\parsing.c  **** 
 102:..\parsing.c  **** 
 103:..\parsing.c  **** /**
 104:..\parsing.c  ****  * @brief Parse a public key into a string
 105:..\parsing.c  ****  *
 106:..\parsing.c  ****  * The public key is composed of the syndrome <b>s</b> as well as the seed used to generate the vec
 107:..\parsing.c  ****  *
 108:..\parsing.c  ****  * @param[out] pk String containing the public key
ARM GAS  C:\Users\bogurad\AppData\Local\Temp\cc1pPM9h.s 			page 11


 109:..\parsing.c  ****  * @param[in] pk_seed Seed used to generate the public key
 110:..\parsing.c  ****  * @param[in] s uint64_t representation of vector s
 111:..\parsing.c  ****  */
 112:..\parsing.c  **** void PQCLEAN_HQC256_CLEAN_hqc_public_key_to_string(uint8_t *pk, const uint8_t *pk_seed, const uint6
 450              		.loc 1 112 0
 451              		.cfi_startproc
 452              		@ args = 0, pretend = 0, frame = 0
 453              		@ frame_needed = 0, uses_anonymous_args = 0
 454              	.LVL47:
 455 0000 F8B5     		push	{r3, r4, r5, r6, r7, lr}
 456              		.cfi_def_cfa_offset 24
 457              		.cfi_offset 3, -24
 458              		.cfi_offset 4, -20
 459              		.cfi_offset 5, -16
 460              		.cfi_offset 6, -12
 461              		.cfi_offset 7, -8
 462              		.cfi_offset 14, -4
 113:..\parsing.c  ****     memcpy(pk, pk_seed, SEED_BYTES);
 463              		.loc 1 113 0
 464 0002 0B46     		mov	r3, r1
 465 0004 0446     		mov	r4, r0
 466 0006 2031     		adds	r1, r1, #32
 467              	.LVL48:
 468              	.L27:
 469 0008 D3F800E0 		ldr	lr, [r3]	@ unaligned
 470 000c 5F68     		ldr	r7, [r3, #4]	@ unaligned
 471 000e 9E68     		ldr	r6, [r3, #8]	@ unaligned
 472 0010 DD68     		ldr	r5, [r3, #12]	@ unaligned
 473 0012 C4F800E0 		str	lr, [r4]	@ unaligned
 474 0016 6760     		str	r7, [r4, #4]	@ unaligned
 475 0018 A660     		str	r6, [r4, #8]	@ unaligned
 476 001a E560     		str	r5, [r4, #12]	@ unaligned
 477 001c 1033     		adds	r3, r3, #16
 478 001e 1034     		adds	r4, r4, #16
 479 0020 8B42     		cmp	r3, r1
 480 0022 F1D1     		bne	.L27
 481 0024 1968     		ldr	r1, [r3]	@ unaligned
 482              	.LVL49:
 483 0026 5B68     		ldr	r3, [r3, #4]	@ unaligned
 484 0028 2160     		str	r1, [r4]	@ unaligned
 485 002a 6360     		str	r3, [r4, #4]	@ unaligned
 114:..\parsing.c  ****     PQCLEAN_HQC256_CLEAN_store8_arr(pk + SEED_BYTES, VEC_N_SIZE_BYTES, s, VEC_N_SIZE_64);
 486              		.loc 1 114 0
 487 002c 40F28533 		movw	r3, #901
 488 0030 41F62541 		movw	r1, #7205
 489 0034 2830     		adds	r0, r0, #40
 490              	.LVL50:
 491 0036 FFF7FEFF 		bl	PQCLEAN_HQC256_CLEAN_store8_arr
 492              	.LVL51:
 493 003a F8BD     		pop	{r3, r4, r5, r6, r7, pc}
 494              		.cfi_endproc
 495              	.LFE5:
 496              		.size	PQCLEAN_HQC256_CLEAN_hqc_public_key_to_string, .-PQCLEAN_HQC256_CLEAN_hqc_public_key_to_stri
 497              		.section	.text.PQCLEAN_HQC256_CLEAN_hqc_public_key_from_string,"ax",%progbits
 498              		.align	2
 499              		.global	PQCLEAN_HQC256_CLEAN_hqc_public_key_from_string
 500              		.thumb
ARM GAS  C:\Users\bogurad\AppData\Local\Temp\cc1pPM9h.s 			page 12


 501              		.thumb_func
 502              		.type	PQCLEAN_HQC256_CLEAN_hqc_public_key_from_string, %function
 503              	PQCLEAN_HQC256_CLEAN_hqc_public_key_from_string:
 504              	.LFB6:
 115:..\parsing.c  **** }
 116:..\parsing.c  **** 
 117:..\parsing.c  **** 
 118:..\parsing.c  **** 
 119:..\parsing.c  **** /**
 120:..\parsing.c  ****  * @brief Parse a public key from a string
 121:..\parsing.c  ****  *
 122:..\parsing.c  ****  * The public key is composed of the syndrome <b>s</b> as well as the seed used to generate the vec
 123:..\parsing.c  ****  *
 124:..\parsing.c  ****  * @param[out] h uint64_t representation of vector h
 125:..\parsing.c  ****  * @param[out] s uint64_t representation of vector s
 126:..\parsing.c  ****  * @param[in] pk String containing the public key
 127:..\parsing.c  ****  */
 128:..\parsing.c  **** void PQCLEAN_HQC256_CLEAN_hqc_public_key_from_string(uint64_t *h, uint64_t *s, const uint8_t *pk) {
 505              		.loc 1 128 0
 506              		.cfi_startproc
 507              		@ args = 0, pretend = 0, frame = 8
 508              		@ frame_needed = 0, uses_anonymous_args = 0
 509              	.LVL52:
 510 0000 70B5     		push	{r4, r5, r6, lr}
 511              		.cfi_def_cfa_offset 16
 512              		.cfi_offset 4, -16
 513              		.cfi_offset 5, -12
 514              		.cfi_offset 6, -8
 515              		.cfi_offset 14, -4
 516 0002 82B0     		sub	sp, sp, #8
 517              		.cfi_def_cfa_offset 24
 518 0004 0646     		mov	r6, r0
 519 0006 0D46     		mov	r5, r1
 520 0008 1446     		mov	r4, r2
 129:..\parsing.c  ****     seedexpander_state pk_seedexpander;
 130:..\parsing.c  **** 
 131:..\parsing.c  ****     PQCLEAN_HQC256_CLEAN_seedexpander_init(&pk_seedexpander, pk, SEED_BYTES);
 521              		.loc 1 131 0
 522 000a 2822     		movs	r2, #40
 523              	.LVL53:
 524 000c 2146     		mov	r1, r4
 525              	.LVL54:
 526 000e 01A8     		add	r0, sp, #4
 527              	.LVL55:
 528 0010 FFF7FEFF 		bl	PQCLEAN_HQC256_CLEAN_seedexpander_init
 529              	.LVL56:
 132:..\parsing.c  ****     PQCLEAN_HQC256_CLEAN_vect_set_random(&pk_seedexpander, h);
 530              		.loc 1 132 0
 531 0014 3146     		mov	r1, r6
 532 0016 01A8     		add	r0, sp, #4
 533 0018 FFF7FEFF 		bl	PQCLEAN_HQC256_CLEAN_vect_set_random
 534              	.LVL57:
 133:..\parsing.c  **** 
 134:..\parsing.c  ****     PQCLEAN_HQC256_CLEAN_load8_arr(s, VEC_N_SIZE_64, pk + SEED_BYTES, VEC_N_SIZE_BYTES);
 535              		.loc 1 134 0
 536 001c 41F62543 		movw	r3, #7205
 537 0020 04F12802 		add	r2, r4, #40
ARM GAS  C:\Users\bogurad\AppData\Local\Temp\cc1pPM9h.s 			page 13


 538 0024 40F28531 		movw	r1, #901
 539 0028 2846     		mov	r0, r5
 540 002a FFF7FEFF 		bl	PQCLEAN_HQC256_CLEAN_load8_arr
 541              	.LVL58:
 135:..\parsing.c  **** 
 136:..\parsing.c  ****     PQCLEAN_HQC256_CLEAN_seedexpander_release(&pk_seedexpander);
 542              		.loc 1 136 0
 543 002e 01A8     		add	r0, sp, #4
 544 0030 FFF7FEFF 		bl	PQCLEAN_HQC256_CLEAN_seedexpander_release
 545              	.LVL59:
 137:..\parsing.c  **** }
 546              		.loc 1 137 0
 547 0034 02B0     		add	sp, sp, #8
 548              		.cfi_def_cfa_offset 16
 549              		@ sp needed
 550 0036 70BD     		pop	{r4, r5, r6, pc}
 551              		.cfi_endproc
 552              	.LFE6:
 553              		.size	PQCLEAN_HQC256_CLEAN_hqc_public_key_from_string, .-PQCLEAN_HQC256_CLEAN_hqc_public_key_from_
 554              		.section	.text.PQCLEAN_HQC256_CLEAN_hqc_ciphertext_to_string,"ax",%progbits
 555              		.align	2
 556              		.global	PQCLEAN_HQC256_CLEAN_hqc_ciphertext_to_string
 557              		.thumb
 558              		.thumb_func
 559              		.type	PQCLEAN_HQC256_CLEAN_hqc_ciphertext_to_string, %function
 560              	PQCLEAN_HQC256_CLEAN_hqc_ciphertext_to_string:
 561              	.LFB7:
 138:..\parsing.c  **** 
 139:..\parsing.c  **** 
 140:..\parsing.c  **** 
 141:..\parsing.c  **** /**
 142:..\parsing.c  ****  * @brief Parse a ciphertext into a string
 143:..\parsing.c  ****  *
 144:..\parsing.c  ****  * The ciphertext is composed of vectors <b>u</b>, <b>v</b> and salt.
 145:..\parsing.c  ****  *
 146:..\parsing.c  ****  * @param[out] ct String containing the ciphertext
 147:..\parsing.c  ****  * @param[in] u uint64_t representation of vector u
 148:..\parsing.c  ****  * @param[in] v uint64_t representation of vector v
 149:..\parsing.c  ****  * @param[in] salt String containing a salt
 150:..\parsing.c  ****  */
 151:..\parsing.c  **** void PQCLEAN_HQC256_CLEAN_hqc_ciphertext_to_string(uint8_t *ct, const uint64_t *u, const uint64_t *
 562              		.loc 1 151 0
 563              		.cfi_startproc
 564              		@ args = 0, pretend = 0, frame = 0
 565              		@ frame_needed = 0, uses_anonymous_args = 0
 566              	.LVL60:
 567 0000 F8B5     		push	{r3, r4, r5, r6, r7, lr}
 568              		.cfi_def_cfa_offset 24
 569              		.cfi_offset 3, -24
 570              		.cfi_offset 4, -20
 571              		.cfi_offset 5, -16
 572              		.cfi_offset 6, -12
 573              		.cfi_offset 7, -8
 574              		.cfi_offset 14, -4
 575 0002 0546     		mov	r5, r0
 576 0004 1646     		mov	r6, r2
 577 0006 1C46     		mov	r4, r3
ARM GAS  C:\Users\bogurad\AppData\Local\Temp\cc1pPM9h.s 			page 14


 152:..\parsing.c  ****     PQCLEAN_HQC256_CLEAN_store8_arr(ct, VEC_N_SIZE_BYTES, u, VEC_N_SIZE_64);
 578              		.loc 1 152 0
 579 0008 40F28533 		movw	r3, #901
 580              	.LVL61:
 581 000c 0A46     		mov	r2, r1
 582              	.LVL62:
 583 000e 41F62541 		movw	r1, #7205
 584              	.LVL63:
 585 0012 FFF7FEFF 		bl	PQCLEAN_HQC256_CLEAN_store8_arr
 586              	.LVL64:
 153:..\parsing.c  ****     PQCLEAN_HQC256_CLEAN_store8_arr(ct + VEC_N_SIZE_BYTES, VEC_N1N2_SIZE_BYTES, v, VEC_N1N2_SIZE_64
 587              		.loc 1 153 0
 588 0016 4FF46173 		mov	r3, #900
 589 001a 3246     		mov	r2, r6
 590 001c 4FF4E151 		mov	r1, #7200
 591 0020 6818     		adds	r0, r5, r1
 592 0022 0530     		adds	r0, r0, #5
 593 0024 FFF7FEFF 		bl	PQCLEAN_HQC256_CLEAN_store8_arr
 594              	.LVL65:
 154:..\parsing.c  ****     memcpy(ct + VEC_N_SIZE_BYTES + VEC_N1N2_SIZE_BYTES, salt, SALT_SIZE_BYTES);
 595              		.loc 1 154 0
 596 0028 43F64502 		movw	r2, #14405
 597 002c AB18     		adds	r3, r5, r2
 598 002e 2768     		ldr	r7, [r4]	@ unaligned
 599 0030 6668     		ldr	r6, [r4, #4]	@ unaligned
 600              	.LVL66:
 601 0032 A068     		ldr	r0, [r4, #8]	@ unaligned
 602 0034 E168     		ldr	r1, [r4, #12]	@ unaligned
 603 0036 AF50     		str	r7, [r5, r2]	@ unaligned
 604 0038 5E60     		str	r6, [r3, #4]	@ unaligned
 605 003a 9860     		str	r0, [r3, #8]	@ unaligned
 606 003c D960     		str	r1, [r3, #12]	@ unaligned
 607 003e F8BD     		pop	{r3, r4, r5, r6, r7, pc}
 608              		.cfi_endproc
 609              	.LFE7:
 610              		.size	PQCLEAN_HQC256_CLEAN_hqc_ciphertext_to_string, .-PQCLEAN_HQC256_CLEAN_hqc_ciphertext_to_stri
 611              		.section	.text.PQCLEAN_HQC256_CLEAN_hqc_ciphertext_from_string,"ax",%progbits
 612              		.align	2
 613              		.global	PQCLEAN_HQC256_CLEAN_hqc_ciphertext_from_string
 614              		.thumb
 615              		.thumb_func
 616              		.type	PQCLEAN_HQC256_CLEAN_hqc_ciphertext_from_string, %function
 617              	PQCLEAN_HQC256_CLEAN_hqc_ciphertext_from_string:
 618              	.LFB8:
 155:..\parsing.c  **** }
 156:..\parsing.c  **** 
 157:..\parsing.c  **** 
 158:..\parsing.c  **** 
 159:..\parsing.c  **** /**
 160:..\parsing.c  ****  * @brief Parse a ciphertext from a string
 161:..\parsing.c  ****  *
 162:..\parsing.c  ****  * The ciphertext is composed of vectors <b>u</b>, <b>v</b> and salt.
 163:..\parsing.c  ****  *
 164:..\parsing.c  ****  * @param[out] u uint64_t representation of vector u
 165:..\parsing.c  ****  * @param[out] v uint64_t representation of vector v
 166:..\parsing.c  ****  * @param[out] d String containing the hash d
 167:..\parsing.c  ****  * @param[in] ct String containing the ciphertext
ARM GAS  C:\Users\bogurad\AppData\Local\Temp\cc1pPM9h.s 			page 15


 168:..\parsing.c  ****  */
 169:..\parsing.c  **** void PQCLEAN_HQC256_CLEAN_hqc_ciphertext_from_string(uint64_t *u, uint64_t *v, uint8_t *salt, const
 619              		.loc 1 169 0
 620              		.cfi_startproc
 621              		@ args = 0, pretend = 0, frame = 0
 622              		@ frame_needed = 0, uses_anonymous_args = 0
 623              	.LVL67:
 624 0000 70B5     		push	{r4, r5, r6, lr}
 625              		.cfi_def_cfa_offset 16
 626              		.cfi_offset 4, -16
 627              		.cfi_offset 5, -12
 628              		.cfi_offset 6, -8
 629              		.cfi_offset 14, -4
 630 0002 0E46     		mov	r6, r1
 631 0004 1546     		mov	r5, r2
 632 0006 1C46     		mov	r4, r3
 170:..\parsing.c  ****     PQCLEAN_HQC256_CLEAN_load8_arr(u, VEC_N_SIZE_64, ct, VEC_N_SIZE_BYTES);
 633              		.loc 1 170 0
 634 0008 41F62543 		movw	r3, #7205
 635              	.LVL68:
 636 000c 2246     		mov	r2, r4
 637              	.LVL69:
 638 000e 40F28531 		movw	r1, #901
 639              	.LVL70:
 640 0012 FFF7FEFF 		bl	PQCLEAN_HQC256_CLEAN_load8_arr
 641              	.LVL71:
 171:..\parsing.c  ****     PQCLEAN_HQC256_CLEAN_load8_arr(v, VEC_N1N2_SIZE_64, ct + VEC_N_SIZE_BYTES, VEC_N1N2_SIZE_BYTES)
 642              		.loc 1 171 0
 643 0016 4FF4E153 		mov	r3, #7200
 644 001a E218     		adds	r2, r4, r3
 645 001c 0532     		adds	r2, r2, #5
 646 001e 4FF46171 		mov	r1, #900
 647 0022 3046     		mov	r0, r6
 648 0024 FFF7FEFF 		bl	PQCLEAN_HQC256_CLEAN_load8_arr
 649              	.LVL72:
 172:..\parsing.c  ****     memcpy(salt, ct + VEC_N_SIZE_BYTES + VEC_N1N2_SIZE_BYTES, SALT_SIZE_BYTES);
 650              		.loc 1 172 0
 651 0028 04F56153 		add	r3, r4, #14400
 652 002c D3F80500 		ldr	r0, [r3, #5]	@ unaligned
 653 0030 D3F80910 		ldr	r1, [r3, #9]	@ unaligned
 654 0034 D3F80D20 		ldr	r2, [r3, #13]	@ unaligned
 655 0038 0533     		adds	r3, r3, #5
 656 003a DB68     		ldr	r3, [r3, #12]	@ unaligned
 657 003c 2860     		str	r0, [r5]	@ unaligned
 658 003e 6960     		str	r1, [r5, #4]	@ unaligned
 659 0040 AA60     		str	r2, [r5, #8]	@ unaligned
 660 0042 EB60     		str	r3, [r5, #12]	@ unaligned
 661 0044 70BD     		pop	{r4, r5, r6, pc}
 662              		.cfi_endproc
 663              	.LFE8:
 664              		.size	PQCLEAN_HQC256_CLEAN_hqc_ciphertext_from_string, .-PQCLEAN_HQC256_CLEAN_hqc_ciphertext_from_
 665 0046 00BF     		.text
 666              	.Letext0:
 667              		.file 2 "c:\\program files (x86)\\cypress\\psoc creator\\4.4\\psoc creator\\import\\gnu\\arm\\5.4.
 668              		.file 3 "c:\\program files (x86)\\cypress\\psoc creator\\4.4\\psoc creator\\import\\gnu\\arm\\5.4.
 669              		.file 4 "c:\\program files (x86)\\cypress\\psoc creator\\4.4\\psoc creator\\import\\gnu\\arm\\5.4.
 670              		.file 5 "..\\fips202.h"
ARM GAS  C:\Users\bogurad\AppData\Local\Temp\cc1pPM9h.s 			page 16


 671              		.file 6 "..\\shake_prng.h"
 672              		.file 7 "..\\vector.h"