ARM GAS  C:\Users\bogur\AppData\Local\Temp\ccblAes1.s 			page 1


   1              		.syntax unified
   2              		.cpu cortex-m4
   3              		.eabi_attribute 27, 1
   4              		.fpu fpv4-sp-d16
   5              		.eabi_attribute 20, 1
   6              		.eabi_attribute 21, 1
   7              		.eabi_attribute 23, 3
   8              		.eabi_attribute 24, 1
   9              		.eabi_attribute 25, 1
  10              		.eabi_attribute 26, 1
  11              		.eabi_attribute 30, 1
  12              		.eabi_attribute 34, 1
  13              		.eabi_attribute 18, 4
  14              		.thumb
  15              		.syntax unified
  16              		.file	"shake_ds.c"
  17              		.text
  18              	.Ltext0:
  19              		.cfi_sections	.debug_frame
  20              		.section	.text.PQCLEAN_HQC256_CLEAN_shake256_512_ds,"ax",%progbits
  21              		.align	2
  22              		.global	PQCLEAN_HQC256_CLEAN_shake256_512_ds
  23              		.thumb
  24              		.thumb_func
  25              		.type	PQCLEAN_HQC256_CLEAN_shake256_512_ds, %function
  26              	PQCLEAN_HQC256_CLEAN_shake256_512_ds:
  27              	.LFB0:
  28              		.file 1 "..\\shake_ds.c"
   1:..\shake_ds.c **** #include "shake_ds.h"
   2:..\shake_ds.c **** 
   3:..\shake_ds.c **** 
   4:..\shake_ds.c **** /**
   5:..\shake_ds.c ****  * @file shake_ds.c
   6:..\shake_ds.c ****  * @brief Implementation SHAKE-256 with incremental API and domain separation
   7:..\shake_ds.c ****  */
   8:..\shake_ds.c **** 
   9:..\shake_ds.c **** 
  10:..\shake_ds.c **** 
  11:..\shake_ds.c **** /**
  12:..\shake_ds.c ****  * @brief SHAKE-256 with incremental API and domain separation
  13:..\shake_ds.c ****  *
  14:..\shake_ds.c ****  * Derived from function SHAKE_256 in fips202.c
  15:..\shake_ds.c ****  *
  16:..\shake_ds.c ****  * @param[out] state Internal state of SHAKE
  17:..\shake_ds.c ****  * @param[in] output Pointer to output
  18:..\shake_ds.c ****  * @param[in] input Pointer to input
  19:..\shake_ds.c ****  * @param[in] inlen length of input in bytes
  20:..\shake_ds.c ****  * @param[in] domain byte for domain separation
  21:..\shake_ds.c ****  */
  22:..\shake_ds.c **** void PQCLEAN_HQC256_CLEAN_shake256_512_ds(shake256incctx *state, uint8_t *output, const uint8_t *in
  29              		.loc 1 22 0
  30              		.cfi_startproc
  31              		@ args = 4, pretend = 0, frame = 0
  32              		@ frame_needed = 0, uses_anonymous_args = 0
  33              	.LVL0:
  34 0000 F8B5     		push	{r3, r4, r5, r6, r7, lr}
  35              		.cfi_def_cfa_offset 24
ARM GAS  C:\Users\bogur\AppData\Local\Temp\ccblAes1.s 			page 2


  36              		.cfi_offset 3, -24
  37              		.cfi_offset 4, -20
  38              		.cfi_offset 5, -16
  39              		.cfi_offset 6, -12
  40              		.cfi_offset 7, -8
  41              		.cfi_offset 14, -4
  42 0002 0446     		mov	r4, r0
  43 0004 0D46     		mov	r5, r1
  44 0006 1646     		mov	r6, r2
  45 0008 1F46     		mov	r7, r3
  23:..\shake_ds.c ****     /* Init state */
  24:..\shake_ds.c ****     shake256_inc_init(state);
  46              		.loc 1 24 0
  47 000a FFF7FEFF 		bl	shake256_inc_init
  48              	.LVL1:
  25:..\shake_ds.c **** 
  26:..\shake_ds.c ****     /* Absorb input */
  27:..\shake_ds.c ****     shake256_inc_absorb(state, input, inlen);
  49              		.loc 1 27 0
  50 000e 3A46     		mov	r2, r7
  51 0010 3146     		mov	r1, r6
  52 0012 2046     		mov	r0, r4
  53 0014 FFF7FEFF 		bl	shake256_inc_absorb
  54              	.LVL2:
  28:..\shake_ds.c **** 
  29:..\shake_ds.c ****     /* Absorb domain separation byte */
  30:..\shake_ds.c ****     shake256_inc_absorb(state, &domain, 1);
  55              		.loc 1 30 0
  56 0018 0122     		movs	r2, #1
  57 001a 06A9     		add	r1, sp, #24
  58              	.LVL3:
  59 001c 2046     		mov	r0, r4
  60 001e FFF7FEFF 		bl	shake256_inc_absorb
  61              	.LVL4:
  31:..\shake_ds.c **** 
  32:..\shake_ds.c ****     /* Finalize */
  33:..\shake_ds.c ****     shake256_inc_finalize(state);
  62              		.loc 1 33 0
  63 0022 2046     		mov	r0, r4
  64 0024 FFF7FEFF 		bl	shake256_inc_finalize
  65              	.LVL5:
  34:..\shake_ds.c **** 
  35:..\shake_ds.c ****     /* Squeeze output */
  36:..\shake_ds.c ****     shake256_inc_squeeze(output, 512 / 8, state);
  66              		.loc 1 36 0
  67 0028 2246     		mov	r2, r4
  68 002a 4021     		movs	r1, #64
  69 002c 2846     		mov	r0, r5
  70 002e FFF7FEFF 		bl	shake256_inc_squeeze
  71              	.LVL6:
  37:..\shake_ds.c **** 
  38:..\shake_ds.c ****     /* Release ctx */
  39:..\shake_ds.c ****     shake256_inc_ctx_release(state);
  72              		.loc 1 39 0
  73 0032 2046     		mov	r0, r4
  74 0034 FFF7FEFF 		bl	shake256_inc_ctx_release
  75              	.LVL7:
ARM GAS  C:\Users\bogur\AppData\Local\Temp\ccblAes1.s 			page 3


  76 0038 F8BD     		pop	{r3, r4, r5, r6, r7, pc}
  77              		.cfi_endproc
  78              	.LFE0:
  79              		.size	PQCLEAN_HQC256_CLEAN_shake256_512_ds, .-PQCLEAN_HQC256_CLEAN_shake256_512_ds
  80 003a 00BF     		.text
  81              	.Letext0:
  82              		.file 2 "c:\\program files (x86)\\cypress\\psoc creator\\4.4\\psoc creator\\import\\gnu\\arm\\5.4.
  83              		.file 3 "c:\\program files (x86)\\cypress\\psoc creator\\4.4\\psoc creator\\import\\gnu\\arm\\5.4.
  84              		.file 4 "c:\\program files (x86)\\cypress\\psoc creator\\4.4\\psoc creator\\import\\gnu\\arm\\5.4.
  85              		.file 5 "..\\fips202.h"