ARM GAS  C:\Users\bogurad\AppData\Local\Temp\ccYBex6U.s 			page 1


   1              		.syntax unified
   2              		.cpu cortex-m4
   3              		.eabi_attribute 27, 1
   4              		.fpu fpv4-sp-d16
   5              		.eabi_attribute 20, 1
   6              		.eabi_attribute 21, 1
   7              		.eabi_attribute 23, 3
   8              		.eabi_attribute 24, 1
   9              		.eabi_attribute 25, 1
  10              		.eabi_attribute 26, 1
  11              		.eabi_attribute 30, 1
  12              		.eabi_attribute 34, 1
  13              		.eabi_attribute 18, 4
  14              		.thumb
  15              		.syntax unified
  16              		.file	"shake_prng.c"
  17              		.text
  18              	.Ltext0:
  19              		.cfi_sections	.debug_frame
  20              		.section	.text.PQCLEAN_HQC256_CLEAN_seedexpander_init,"ax",%progbits
  21              		.align	2
  22              		.global	PQCLEAN_HQC256_CLEAN_seedexpander_init
  23              		.thumb
  24              		.thumb_func
  25              		.type	PQCLEAN_HQC256_CLEAN_seedexpander_init, %function
  26              	PQCLEAN_HQC256_CLEAN_seedexpander_init:
  27              	.LFB0:
  28              		.file 1 "..\\shake_prng.c"
   1:..\shake_prng.c **** #include "domains.h"
   2:..\shake_prng.c **** #include "fips202.h"
   3:..\shake_prng.c **** #include "shake_prng.h"
   4:..\shake_prng.c **** 
   5:..\shake_prng.c **** /**
   6:..\shake_prng.c ****  * @file shake_prng.c
   7:..\shake_prng.c ****  * @brief Implementation of SHAKE-256 based seed expander
   8:..\shake_prng.c ****  */
   9:..\shake_prng.c **** 
  10:..\shake_prng.c **** 
  11:..\shake_prng.c **** /**
  12:..\shake_prng.c ****  * @brief Initialise a SHAKE-256 based seed expander
  13:..\shake_prng.c ****  *
  14:..\shake_prng.c ****  * Derived from function SHAKE_256 in fips202.c
  15:..\shake_prng.c ****  *
  16:..\shake_prng.c ****  * @param[out] state Keccak internal state and a counter
  17:..\shake_prng.c ****  * @param[in] seed A seed
  18:..\shake_prng.c ****  * @param[in] seedlen The seed bytes length
  19:..\shake_prng.c ****  */
  20:..\shake_prng.c **** void PQCLEAN_HQC256_CLEAN_seedexpander_init(seedexpander_state *state, const uint8_t *seed, size_t 
  29              		.loc 1 20 0
  30              		.cfi_startproc
  31              		@ args = 0, pretend = 0, frame = 8
  32              		@ frame_needed = 0, uses_anonymous_args = 0
  33              	.LVL0:
  34 0000 F0B5     		push	{r4, r5, r6, r7, lr}
  35              		.cfi_def_cfa_offset 20
  36              		.cfi_offset 4, -20
  37              		.cfi_offset 5, -16
ARM GAS  C:\Users\bogurad\AppData\Local\Temp\ccYBex6U.s 			page 2


  38              		.cfi_offset 6, -12
  39              		.cfi_offset 7, -8
  40              		.cfi_offset 14, -4
  41 0002 83B0     		sub	sp, sp, #12
  42              		.cfi_def_cfa_offset 32
  43 0004 0446     		mov	r4, r0
  44 0006 0E46     		mov	r6, r1
  45 0008 1746     		mov	r7, r2
  21:..\shake_prng.c ****     uint8_t domain = SEEDEXPANDER_DOMAIN;
  46              		.loc 1 21 0
  47 000a 02AD     		add	r5, sp, #8
  48 000c 0223     		movs	r3, #2
  49 000e 05F8013D 		strb	r3, [r5, #-1]!
  22:..\shake_prng.c ****     shake256_inc_init(state);
  50              		.loc 1 22 0
  51 0012 FFF7FEFF 		bl	shake256_inc_init
  52              	.LVL1:
  23:..\shake_prng.c ****     shake256_inc_absorb(state, seed, seedlen);
  53              		.loc 1 23 0
  54 0016 3A46     		mov	r2, r7
  55 0018 3146     		mov	r1, r6
  56 001a 2046     		mov	r0, r4
  57 001c FFF7FEFF 		bl	shake256_inc_absorb
  58              	.LVL2:
  24:..\shake_prng.c ****     shake256_inc_absorb(state, &domain, 1);
  59              		.loc 1 24 0
  60 0020 0122     		movs	r2, #1
  61 0022 2946     		mov	r1, r5
  62 0024 2046     		mov	r0, r4
  63 0026 FFF7FEFF 		bl	shake256_inc_absorb
  64              	.LVL3:
  25:..\shake_prng.c ****     shake256_inc_finalize(state);
  65              		.loc 1 25 0
  66 002a 2046     		mov	r0, r4
  67 002c FFF7FEFF 		bl	shake256_inc_finalize
  68              	.LVL4:
  26:..\shake_prng.c **** }
  69              		.loc 1 26 0
  70 0030 03B0     		add	sp, sp, #12
  71              		.cfi_def_cfa_offset 20
  72              		@ sp needed
  73 0032 F0BD     		pop	{r4, r5, r6, r7, pc}
  74              		.cfi_endproc
  75              	.LFE0:
  76              		.size	PQCLEAN_HQC256_CLEAN_seedexpander_init, .-PQCLEAN_HQC256_CLEAN_seedexpander_init
  77              		.section	.text.PQCLEAN_HQC256_CLEAN_seedexpander,"ax",%progbits
  78              		.align	2
  79              		.global	PQCLEAN_HQC256_CLEAN_seedexpander
  80              		.thumb
  81              		.thumb_func
  82              		.type	PQCLEAN_HQC256_CLEAN_seedexpander, %function
  83              	PQCLEAN_HQC256_CLEAN_seedexpander:
  84              	.LFB1:
  27:..\shake_prng.c **** 
  28:..\shake_prng.c **** 
  29:..\shake_prng.c **** 
  30:..\shake_prng.c **** /**
ARM GAS  C:\Users\bogurad\AppData\Local\Temp\ccYBex6U.s 			page 3


  31:..\shake_prng.c ****  * @brief A SHAKE-256 based seed expander
  32:..\shake_prng.c ****  *
  33:..\shake_prng.c ****  * Derived from function SHAKE_256 in fips202.c
  34:..\shake_prng.c ****  * Squeezes Keccak state by 64-bit blocks (hardware version compatibility)
  35:..\shake_prng.c ****  *
  36:..\shake_prng.c ****  * @param[out] state Internal state of SHAKE
  37:..\shake_prng.c ****  * @param[out] output The XOF data
  38:..\shake_prng.c ****  * @param[in] outlen Number of bytes to return
  39:..\shake_prng.c ****  */
  40:..\shake_prng.c **** void PQCLEAN_HQC256_CLEAN_seedexpander(seedexpander_state *state, uint8_t *output, size_t outlen) {
  85              		.loc 1 40 0
  86              		.cfi_startproc
  87              		@ args = 0, pretend = 0, frame = 8
  88              		@ frame_needed = 0, uses_anonymous_args = 0
  89              	.LVL5:
  90 0000 F0B5     		push	{r4, r5, r6, r7, lr}
  91              		.cfi_def_cfa_offset 20
  92              		.cfi_offset 4, -20
  93              		.cfi_offset 5, -16
  94              		.cfi_offset 6, -12
  95              		.cfi_offset 7, -8
  96              		.cfi_offset 14, -4
  97 0002 83B0     		sub	sp, sp, #12
  98              		.cfi_def_cfa_offset 32
  99 0004 0746     		mov	r7, r0
 100 0006 0E46     		mov	r6, r1
 101              	.LVL6:
  41:..\shake_prng.c ****     const size_t bsize = sizeof(uint64_t);
  42:..\shake_prng.c ****     const size_t remainder = outlen % bsize;
 102              		.loc 1 42 0
 103 0008 02F00705 		and	r5, r2, #7
 104              	.LVL7:
  43:..\shake_prng.c ****     uint8_t tmp[sizeof(uint64_t)];
  44:..\shake_prng.c ****     shake256_inc_squeeze(output, outlen - remainder, state);
 105              		.loc 1 44 0
 106 000c 541B     		subs	r4, r2, r5
 107 000e 0246     		mov	r2, r0
 108              	.LVL8:
 109 0010 2146     		mov	r1, r4
 110              	.LVL9:
 111 0012 3046     		mov	r0, r6
 112              	.LVL10:
 113 0014 FFF7FEFF 		bl	shake256_inc_squeeze
 114              	.LVL11:
  45:..\shake_prng.c ****     if (remainder != 0) {
 115              		.loc 1 45 0
 116 0018 85B1     		cbz	r5, .L3
  46:..\shake_prng.c ****         shake256_inc_squeeze(tmp, bsize, state);
 117              		.loc 1 46 0
 118 001a 3A46     		mov	r2, r7
 119 001c 0821     		movs	r1, #8
 120 001e 6846     		mov	r0, sp
 121 0020 FFF7FEFF 		bl	shake256_inc_squeeze
 122              	.LVL12:
 123              	.LBB2:
  47:..\shake_prng.c ****         output += outlen - remainder;
  48:..\shake_prng.c ****         for (uint8_t i = 0; i < remainder; i++) {
ARM GAS  C:\Users\bogurad\AppData\Local\Temp\ccYBex6U.s 			page 4


 124              		.loc 1 48 0
 125 0024 0023     		movs	r3, #0
 126 0026 07E0     		b	.L5
 127              	.LVL13:
 128              	.L6:
  49:..\shake_prng.c ****             output[i] = tmp[i];
 129              		.loc 1 49 0 discriminator 3
 130 0028 E218     		adds	r2, r4, r3
 131 002a 02A9     		add	r1, sp, #8
 132 002c 1944     		add	r1, r1, r3
 133 002e 11F8081C 		ldrb	r1, [r1, #-8]	@ zero_extendqisi2
 134 0032 B154     		strb	r1, [r6, r2]
  48:..\shake_prng.c ****             output[i] = tmp[i];
 135              		.loc 1 48 0 discriminator 3
 136 0034 0133     		adds	r3, r3, #1
 137              	.LVL14:
 138 0036 DBB2     		uxtb	r3, r3
 139              	.LVL15:
 140              	.L5:
  48:..\shake_prng.c ****             output[i] = tmp[i];
 141              		.loc 1 48 0 is_stmt 0 discriminator 1
 142 0038 9D42     		cmp	r5, r3
 143 003a F5D8     		bhi	.L6
 144              	.LVL16:
 145              	.L3:
 146              	.LBE2:
  50:..\shake_prng.c ****         }
  51:..\shake_prng.c ****     }
  52:..\shake_prng.c **** }
 147              		.loc 1 52 0 is_stmt 1
 148 003c 03B0     		add	sp, sp, #12
 149              		.cfi_def_cfa_offset 20
 150              		@ sp needed
 151 003e F0BD     		pop	{r4, r5, r6, r7, pc}
 152              		.cfi_endproc
 153              	.LFE1:
 154              		.size	PQCLEAN_HQC256_CLEAN_seedexpander, .-PQCLEAN_HQC256_CLEAN_seedexpander
 155              		.section	.text.PQCLEAN_HQC256_CLEAN_seedexpander_release,"ax",%progbits
 156              		.align	2
 157              		.global	PQCLEAN_HQC256_CLEAN_seedexpander_release
 158              		.thumb
 159              		.thumb_func
 160              		.type	PQCLEAN_HQC256_CLEAN_seedexpander_release, %function
 161              	PQCLEAN_HQC256_CLEAN_seedexpander_release:
 162              	.LFB2:
  53:..\shake_prng.c **** 
  54:..\shake_prng.c **** /**
  55:..\shake_prng.c ****  * @brief Release the seed expander context
  56:..\shake_prng.c ****  * @param[in] state Internal state of the seed expander
  57:..\shake_prng.c ****  */
  58:..\shake_prng.c **** void PQCLEAN_HQC256_CLEAN_seedexpander_release(seedexpander_state *state) {
 163              		.loc 1 58 0
 164              		.cfi_startproc
 165              		@ args = 0, pretend = 0, frame = 0
 166              		@ frame_needed = 0, uses_anonymous_args = 0
 167              	.LVL17:
 168 0000 08B5     		push	{r3, lr}
ARM GAS  C:\Users\bogurad\AppData\Local\Temp\ccYBex6U.s 			page 5


 169              		.cfi_def_cfa_offset 8
 170              		.cfi_offset 3, -8
 171              		.cfi_offset 14, -4
  59:..\shake_prng.c ****     shake256_inc_ctx_release(state);
 172              		.loc 1 59 0
 173 0002 FFF7FEFF 		bl	shake256_inc_ctx_release
 174              	.LVL18:
 175 0006 08BD     		pop	{r3, pc}
 176              		.cfi_endproc
 177              	.LFE2:
 178              		.size	PQCLEAN_HQC256_CLEAN_seedexpander_release, .-PQCLEAN_HQC256_CLEAN_seedexpander_release
 179              		.text
 180              	.Letext0:
 181              		.file 2 "c:\\program files (x86)\\cypress\\psoc creator\\4.4\\psoc creator\\import\\gnu\\arm\\5.4.
 182              		.file 3 "c:\\program files (x86)\\cypress\\psoc creator\\4.4\\psoc creator\\import\\gnu\\arm\\5.4.
 183              		.file 4 "c:\\program files (x86)\\cypress\\psoc creator\\4.4\\psoc creator\\import\\gnu\\arm\\5.4.
 184              		.file 5 "..\\fips202.h"
 185              		.file 6 "..\\shake_prng.h"