ARM GAS  C:\Users\bogur\AppData\Local\Temp\ccMfnM12.s 			page 1


   1              		.syntax unified
   2              		.cpu cortex-m4
   3              		.eabi_attribute 27, 1
   4              		.fpu fpv4-sp-d16
   5              		.eabi_attribute 20, 1
   6              		.eabi_attribute 21, 1
   7              		.eabi_attribute 23, 3
   8              		.eabi_attribute 24, 1
   9              		.eabi_attribute 25, 1
  10              		.eabi_attribute 26, 1
  11              		.eabi_attribute 30, 1
  12              		.eabi_attribute 34, 1
  13              		.eabi_attribute 18, 4
  14              		.thumb
  15              		.syntax unified
  16              		.file	"stringFormater.c"
  17              		.text
  18              	.Ltext0:
  19              		.cfi_sections	.debug_frame
  20              		.section	.text.crc8,"ax",%progbits
  21              		.align	2
  22              		.global	crc8
  23              		.thumb
  24              		.thumb_func
  25              		.type	crc8, %function
  26              	crc8:
  27              	.LFB0:
  28              		.file 1 "..\\..\\..\\stringFormater.c"
   1:..\..\../stringFormater.c **** /* ========================================
   2:..\..\../stringFormater.c ****  *
   3:..\..\../stringFormater.c ****  * Copyright YOUR COMPANY, THE YEAR
   4:..\..\../stringFormater.c ****  * All Rights Reserved
   5:..\..\../stringFormater.c ****  * UNPUBLISHED, LICENSED SOFTWARE.
   6:..\..\../stringFormater.c ****  *
   7:..\..\../stringFormater.c ****  * CONFIDENTIAL AND PROPRIETARY INFORMATION
   8:..\..\../stringFormater.c ****  * WHICH IS THE PROPERTY OF your company.
   9:..\..\../stringFormater.c ****  *
  10:..\..\../stringFormater.c ****  * ========================================
  11:..\..\../stringFormater.c **** */
  12:..\..\../stringFormater.c **** #include "stringFormater.h"
  13:..\..\../stringFormater.c **** #include <string.h>
  14:..\..\../stringFormater.c **** 
  15:..\..\../stringFormater.c **** uint8_t crc8(const uint8_t *data, uint16_t len)
  16:..\..\../stringFormater.c **** {
  29              		.loc 1 16 0
  30              		.cfi_startproc
  31              		@ args = 0, pretend = 0, frame = 0
  32              		@ frame_needed = 0, uses_anonymous_args = 0
  33              		@ link register save eliminated.
  34              	.LVL0:
  35 0000 30B4     		push	{r4, r5}
  36              		.cfi_def_cfa_offset 8
  37              		.cfi_offset 4, -8
  38              		.cfi_offset 5, -4
  39 0002 0246     		mov	r2, r0
  40              	.LVL1:
  17:..\..\../stringFormater.c ****     uint8_t crc = 0x00;
ARM GAS  C:\Users\bogur\AppData\Local\Temp\ccMfnM12.s 			page 2


  41              		.loc 1 17 0
  42 0004 0020     		movs	r0, #0
  43              	.LVL2:
  18:..\..\../stringFormater.c ****     while (len--) {
  44              		.loc 1 18 0
  45 0006 14E0     		b	.L2
  46              	.LVL3:
  47              	.L6:
  48              	.LBB2:
  19:..\..\../stringFormater.c ****         uint8_t extract = *data++;
  49              		.loc 1 19 0
  50 0008 551C     		adds	r5, r2, #1
  51              	.LVL4:
  52 000a 1178     		ldrb	r1, [r2]	@ zero_extendqisi2
  53              	.LVL5:
  54              	.LBB3:
  20:..\..\../stringFormater.c ****         for (uint8_t i = 8; i; i--) {
  55              		.loc 1 20 0
  56 000c 0823     		movs	r3, #8
  57 000e 0CE0     		b	.L3
  58              	.LVL6:
  59              	.L5:
  60              	.LBB4:
  21:..\..\../stringFormater.c ****             uint8_t sum = (crc ^ extract) & 0x01;
  61              		.loc 1 21 0
  62 0010 80EA0102 		eor	r2, r0, r1
  22:..\..\../stringFormater.c ****             crc >>= 1;
  23:..\..\../stringFormater.c ****             if (sum)
  63              		.loc 1 23 0
  64 0014 12F0010F 		tst	r2, #1
  65 0018 4FEA5000 		lsr	r0, r0, #1
  66              	.LVL7:
  67 001c 02D0     		beq	.L4
  24:..\..\../stringFormater.c ****                 crc ^= 0x8C;
  68              		.loc 1 24 0
  69 001e 80F08C00 		eor	r0, r0, #140
  70 0022 C0B2     		uxtb	r0, r0
  71              	.LVL8:
  72              	.L4:
  25:..\..\../stringFormater.c ****             extract >>= 1;
  73              		.loc 1 25 0 discriminator 2
  74 0024 4908     		lsrs	r1, r1, #1
  75              	.LVL9:
  76              	.LBE4:
  20:..\..\../stringFormater.c ****             uint8_t sum = (crc ^ extract) & 0x01;
  77              		.loc 1 20 0 discriminator 2
  78 0026 013B     		subs	r3, r3, #1
  79              	.LVL10:
  80 0028 DBB2     		uxtb	r3, r3
  81              	.LVL11:
  82              	.L3:
  20:..\..\../stringFormater.c ****             uint8_t sum = (crc ^ extract) & 0x01;
  83              		.loc 1 20 0 is_stmt 0 discriminator 1
  84 002a 002B     		cmp	r3, #0
  85 002c F0D1     		bne	.L5
  86              	.LBE3:
  87              	.LBE2:
ARM GAS  C:\Users\bogur\AppData\Local\Temp\ccMfnM12.s 			page 3


  18:..\..\../stringFormater.c ****         uint8_t extract = *data++;
  88              		.loc 1 18 0 is_stmt 1
  89 002e 2146     		mov	r1, r4
  90              	.LVL12:
  91              	.LBB5:
  19:..\..\../stringFormater.c ****         for (uint8_t i = 8; i; i--) {
  92              		.loc 1 19 0
  93 0030 2A46     		mov	r2, r5
  94              	.LVL13:
  95              	.L2:
  96              	.LBE5:
  18:..\..\../stringFormater.c ****         uint8_t extract = *data++;
  97              		.loc 1 18 0
  98 0032 4B1E     		subs	r3, r1, #1
  99 0034 9CB2     		uxth	r4, r3
 100              	.LVL14:
 101 0036 0029     		cmp	r1, #0
 102 0038 E6D1     		bne	.L6
  26:..\..\../stringFormater.c ****         }
  27:..\..\../stringFormater.c ****     }
  28:..\..\../stringFormater.c ****     return crc;
  29:..\..\../stringFormater.c **** }
 103              		.loc 1 29 0
 104 003a 30BC     		pop	{r4, r5}
 105              		.cfi_restore 5
 106              		.cfi_restore 4
 107              		.cfi_def_cfa_offset 0
 108              	.LVL15:
 109 003c 7047     		bx	lr
 110              		.cfi_endproc
 111              	.LFE0:
 112              		.size	crc8, .-crc8
 113 003e 00BF     		.section	.text.build_message,"ax",%progbits
 114              		.align	2
 115              		.global	build_message
 116              		.thumb
 117              		.thumb_func
 118              		.type	build_message, %function
 119              	build_message:
 120              	.LFB1:
  30:..\..\../stringFormater.c **** 
  31:..\..\../stringFormater.c **** int build_message(const uint8_t *payload, uint16_t length, uint8_t *frame)
  32:..\..\../stringFormater.c **** {
 121              		.loc 1 32 0
 122              		.cfi_startproc
 123              		@ args = 0, pretend = 0, frame = 0
 124              		@ frame_needed = 0, uses_anonymous_args = 0
 125              	.LVL16:
  33:..\..\../stringFormater.c ****     if (payload == NULL || frame == NULL)
 126              		.loc 1 33 0
 127 0000 C8B1     		cbz	r0, .L10
  32:..\..\../stringFormater.c ****     if (payload == NULL || frame == NULL)
 128              		.loc 1 32 0 discriminator 1
 129 0002 70B5     		push	{r4, r5, r6, lr}
 130              		.cfi_def_cfa_offset 16
 131              		.cfi_offset 4, -16
 132              		.cfi_offset 5, -12
ARM GAS  C:\Users\bogur\AppData\Local\Temp\ccMfnM12.s 			page 4


 133              		.cfi_offset 6, -8
 134              		.cfi_offset 14, -4
 135 0004 0646     		mov	r6, r0
 136              		.loc 1 33 0 discriminator 1
 137 0006 CAB1     		cbz	r2, .L11
  34:..\..\../stringFormater.c ****         return -1;
  35:..\..\../stringFormater.c **** 
  36:..\..\../stringFormater.c ****     if (length > MAXIMUM_LENGTH)
 138              		.loc 1 36 0
 139 0008 B1F5005F 		cmp	r1, #8192
 140 000c 19D8     		bhi	.L12
 141 000e 1546     		mov	r5, r2
 142 0010 0C46     		mov	r4, r1
  37:..\..\../stringFormater.c ****         return -1; // too long
  38:..\..\../stringFormater.c **** 
  39:..\..\../stringFormater.c ****     frame[0] = START_BYTE;
 143              		.loc 1 39 0
 144 0012 0223     		movs	r3, #2
 145 0014 1370     		strb	r3, [r2]
  40:..\..\../stringFormater.c ****     frame[1] = (length >> 8) & 0xFF;
 146              		.loc 1 40 0
 147 0016 0B0A     		lsrs	r3, r1, #8
 148 0018 5370     		strb	r3, [r2, #1]
  41:..\..\../stringFormater.c ****     frame[2] = length & 0xFF;
 149              		.loc 1 41 0
 150 001a A970     		strb	r1, [r5, #2]
  42:..\..\../stringFormater.c **** 
  43:..\..\../stringFormater.c ****     memcpy(&frame[3], payload, length);
 151              		.loc 1 43 0
 152 001c 0A46     		mov	r2, r1
 153              	.LVL17:
 154 001e 0146     		mov	r1, r0
 155              	.LVL18:
 156 0020 E81C     		adds	r0, r5, #3
 157              	.LVL19:
 158 0022 FFF7FEFF 		bl	memcpy
 159              	.LVL20:
  44:..\..\../stringFormater.c **** 
  45:..\..\../stringFormater.c ****     uint8_t crc = crc8(payload, length);
 160              		.loc 1 45 0
 161 0026 2146     		mov	r1, r4
 162 0028 3046     		mov	r0, r6
 163 002a FFF7FEFF 		bl	crc8
 164              	.LVL21:
  46:..\..\../stringFormater.c ****     frame[3 + length] = crc;
 165              		.loc 1 46 0
 166 002e E31C     		adds	r3, r4, #3
 167 0030 E854     		strb	r0, [r5, r3]
  47:..\..\../stringFormater.c **** 
  48:..\..\../stringFormater.c ****     return (int)(length + 4); // total frame length
 168              		.loc 1 48 0
 169 0032 201D     		adds	r0, r4, #4
 170              	.LVL22:
 171 0034 70BD     		pop	{r4, r5, r6, pc}
 172              	.LVL23:
 173              	.L10:
 174              		.cfi_def_cfa_offset 0
ARM GAS  C:\Users\bogur\AppData\Local\Temp\ccMfnM12.s 			page 5


 175              		.cfi_restore 4
 176              		.cfi_restore 5
 177              		.cfi_restore 6
 178              		.cfi_restore 14
  34:..\..\../stringFormater.c **** 
 179              		.loc 1 34 0
 180 0036 4FF0FF30 		mov	r0, #-1
 181              	.LVL24:
  49:..\..\../stringFormater.c **** }
 182              		.loc 1 49 0
 183 003a 7047     		bx	lr
 184              	.LVL25:
 185              	.L11:
 186              		.cfi_def_cfa_offset 16
 187              		.cfi_offset 4, -16
 188              		.cfi_offset 5, -12
 189              		.cfi_offset 6, -8
 190              		.cfi_offset 14, -4
  34:..\..\../stringFormater.c **** 
 191              		.loc 1 34 0
 192 003c 4FF0FF30 		mov	r0, #-1
 193              	.LVL26:
 194 0040 70BD     		pop	{r4, r5, r6, pc}
 195              	.LVL27:
 196              	.L12:
  37:..\..\../stringFormater.c **** 
 197              		.loc 1 37 0
 198 0042 4FF0FF30 		mov	r0, #-1
 199              	.LVL28:
 200              		.loc 1 49 0
 201 0046 70BD     		pop	{r4, r5, r6, pc}
 202              		.cfi_endproc
 203              	.LFE1:
 204              		.size	build_message, .-build_message
 205              		.section	.text.verify_message,"ax",%progbits
 206              		.align	2
 207              		.global	verify_message
 208              		.thumb
 209              		.thumb_func
 210              		.type	verify_message, %function
 211              	verify_message:
 212              	.LFB2:
  50:..\..\../stringFormater.c **** 
  51:..\..\../stringFormater.c **** int verify_message(const uint8_t *frame, uint16_t total_len)
  52:..\..\../stringFormater.c **** {
 213              		.loc 1 52 0
 214              		.cfi_startproc
 215              		@ args = 0, pretend = 0, frame = 0
 216              		@ frame_needed = 0, uses_anonymous_args = 0
 217              	.LVL29:
  53:..\..\../stringFormater.c ****     if (frame == NULL)
 218              		.loc 1 53 0
 219 0000 C0B1     		cbz	r0, .L16
  52:..\..\../stringFormater.c ****     if (frame == NULL)
 220              		.loc 1 52 0
 221 0002 38B5     		push	{r3, r4, r5, lr}
 222              		.cfi_def_cfa_offset 16
ARM GAS  C:\Users\bogur\AppData\Local\Temp\ccMfnM12.s 			page 6


 223              		.cfi_offset 3, -16
 224              		.cfi_offset 4, -12
 225              		.cfi_offset 5, -8
 226              		.cfi_offset 14, -4
  54:..\..\../stringFormater.c ****         return 0;
  55:..\..\../stringFormater.c **** 
  56:..\..\../stringFormater.c ****     if (total_len < 4)
 227              		.loc 1 56 0
 228 0004 0329     		cmp	r1, #3
 229 0006 17D9     		bls	.L17
  57:..\..\../stringFormater.c ****         return 0;
  58:..\..\../stringFormater.c **** 
  59:..\..\../stringFormater.c ****     if (frame[0] != START_BYTE)
 230              		.loc 1 59 0
 231 0008 0278     		ldrb	r2, [r0]	@ zero_extendqisi2
 232 000a 022A     		cmp	r2, #2
 233 000c 16D1     		bne	.L18
  60:..\..\../stringFormater.c ****         return 0;
  61:..\..\../stringFormater.c **** 
  62:..\..\../stringFormater.c ****     uint16_t length = ((uint16_t)frame[1] << 8) | frame[2];
 234              		.loc 1 62 0
 235 000e 4578     		ldrb	r5, [r0, #1]	@ zero_extendqisi2
 236 0010 8278     		ldrb	r2, [r0, #2]	@ zero_extendqisi2
 237 0012 42EA0525 		orr	r5, r2, r5, lsl #8
 238              	.LVL30:
  63:..\..\../stringFormater.c ****     if ((length + 4) != total_len)
 239              		.loc 1 63 0
 240 0016 2A1D     		adds	r2, r5, #4
 241 0018 8A42     		cmp	r2, r1
 242 001a 11D1     		bne	.L19
 243 001c 0446     		mov	r4, r0
  64:..\..\../stringFormater.c ****         return 0;
  65:..\..\../stringFormater.c **** 
  66:..\..\../stringFormater.c ****     uint8_t crc_calc = crc8(&frame[3], length);
 244              		.loc 1 66 0
 245 001e 2946     		mov	r1, r5
 246              	.LVL31:
 247 0020 0330     		adds	r0, r0, #3
 248              	.LVL32:
 249 0022 FFF7FEFF 		bl	crc8
 250              	.LVL33:
  67:..\..\../stringFormater.c ****     uint8_t crc_recv = frame[3 + length];
 251              		.loc 1 67 0
 252 0026 0335     		adds	r5, r5, #3
 253              	.LVL34:
 254 0028 635D     		ldrb	r3, [r4, r5]	@ zero_extendqisi2
 255              	.LVL35:
  68:..\..\../stringFormater.c **** 
  69:..\..\../stringFormater.c ****     return (crc_calc == crc_recv);
 256              		.loc 1 69 0
 257 002a 9842     		cmp	r0, r3
 258 002c 14BF     		ite	ne
 259 002e 0020     		movne	r0, #0
 260              	.LVL36:
 261 0030 0120     		moveq	r0, #1
 262 0032 38BD     		pop	{r3, r4, r5, pc}
 263              	.LVL37:
ARM GAS  C:\Users\bogur\AppData\Local\Temp\ccMfnM12.s 			page 7


 264              	.L16:
 265              		.cfi_def_cfa_offset 0
 266              		.cfi_restore 3
 267              		.cfi_restore 4
 268              		.cfi_restore 5
 269              		.cfi_restore 14
  54:..\..\../stringFormater.c **** 
 270              		.loc 1 54 0
 271 0034 0020     		movs	r0, #0
 272              	.LVL38:
  70:..\..\../stringFormater.c **** }
 273              		.loc 1 70 0
 274 0036 7047     		bx	lr
 275              	.LVL39:
 276              	.L17:
 277              		.cfi_def_cfa_offset 16
 278              		.cfi_offset 3, -16
 279              		.cfi_offset 4, -12
 280              		.cfi_offset 5, -8
 281              		.cfi_offset 14, -4
  57:..\..\../stringFormater.c **** 
 282              		.loc 1 57 0
 283 0038 0020     		movs	r0, #0
 284              	.LVL40:
 285 003a 38BD     		pop	{r3, r4, r5, pc}
 286              	.LVL41:
 287              	.L18:
  60:..\..\../stringFormater.c **** 
 288              		.loc 1 60 0
 289 003c 0020     		movs	r0, #0
 290              	.LVL42:
 291 003e 38BD     		pop	{r3, r4, r5, pc}
 292              	.LVL43:
 293              	.L19:
  64:..\..\../stringFormater.c **** 
 294              		.loc 1 64 0
 295 0040 0020     		movs	r0, #0
 296              	.LVL44:
 297              		.loc 1 70 0
 298 0042 38BD     		pop	{r3, r4, r5, pc}
 299              		.cfi_endproc
 300              	.LFE2:
 301              		.size	verify_message, .-verify_message
 302              		.text
 303              	.Letext0:
 304              		.file 2 "c:\\program files (x86)\\cypress\\psoc creator\\4.4\\psoc creator\\import\\gnu\\arm\\5.4.
 305              		.file 3 "c:\\program files (x86)\\cypress\\psoc creator\\4.4\\psoc creator\\import\\gnu\\arm\\5.4.