ARM GAS  C:\Users\bogur\AppData\Local\Temp\ccGwyS3j.s 			page 1


   1              		.syntax unified
   2              		.cpu cortex-m4
   3              		.eabi_attribute 27, 1
   4              		.fpu fpv4-sp-d16
   5              		.eabi_attribute 20, 1
   6              		.eabi_attribute 21, 1
   7              		.eabi_attribute 23, 3
   8              		.eabi_attribute 24, 1
   9              		.eabi_attribute 25, 1
  10              		.eabi_attribute 26, 1
  11              		.eabi_attribute 30, 1
  12              		.eabi_attribute 34, 1
  13              		.eabi_attribute 18, 4
  14              		.thumb
  15              		.syntax unified
  16              		.file	"vector.c"
  17              		.text
  18              	.Ltext0:
  19              		.cfi_sections	.debug_frame
  20              		.section	.text.single_bit_mask,"ax",%progbits
  21              		.align	2
  22              		.thumb
  23              		.thumb_func
  24              		.type	single_bit_mask, %function
  25              	single_bit_mask:
  26              	.LFB1:
  27              		.file 1 "..\\vector.c"
   1:..\vector.c   **** #include "parameters.h"
   2:..\vector.c   **** #include "parsing.h"
   3:..\vector.c   **** #include "randombytes.h"
   4:..\vector.c   **** #include "vector.h"
   5:..\vector.c   **** #include <stdint.h>
   6:..\vector.c   **** #include <string.h>
   7:..\vector.c   **** /**
   8:..\vector.c   ****  * @file vector.c
   9:..\vector.c   ****  * @brief Implementation of vectors sampling and some utilities for the HQC scheme
  10:..\vector.c   ****  */
  11:..\vector.c   **** 
  12:..\vector.c   **** 
  13:..\vector.c   **** static uint32_t m_val[149] = { 74517, 74518, 74520, 74521, 74522, 74524, 74525, 74526, 74527, 74529
  14:..\vector.c   **** 
  15:..\vector.c   **** /**
  16:..\vector.c   ****  * @brief Constant-time comparison of two integers v1 and v2
  17:..\vector.c   ****  *
  18:..\vector.c   ****  * Returns 1 if v1 is equal to v2 and 0 otherwise
  19:..\vector.c   ****  * https://gist.github.com/sneves/10845247
  20:..\vector.c   ****  *
  21:..\vector.c   ****  * @param[in] v1
  22:..\vector.c   ****  * @param[in] v2
  23:..\vector.c   ****  */
  24:..\vector.c   **** static inline uint32_t compare_u32(uint32_t v1, uint32_t v2) {
  25:..\vector.c   ****     return 1 ^ ((uint32_t)((v1 - v2) | (v2 - v1)) >> 31);
  26:..\vector.c   **** }
  27:..\vector.c   **** 
  28:..\vector.c   **** static uint64_t single_bit_mask(uint32_t pos) {
  28              		.loc 1 28 0
  29              		.cfi_startproc
ARM GAS  C:\Users\bogur\AppData\Local\Temp\ccGwyS3j.s 			page 2


  30              		@ args = 0, pretend = 0, frame = 0
  31              		@ frame_needed = 0, uses_anonymous_args = 0
  32              	.LVL0:
  33 0000 2DE9F043 		push	{r4, r5, r6, r7, r8, r9, lr}
  34              		.cfi_def_cfa_offset 28
  35              		.cfi_offset 4, -28
  36              		.cfi_offset 5, -24
  37              		.cfi_offset 6, -20
  38              		.cfi_offset 7, -16
  39              		.cfi_offset 8, -12
  40              		.cfi_offset 9, -8
  41              		.cfi_offset 14, -4
  42 0004 8446     		mov	ip, r0
  43              	.LVL1:
  44              	.LBB16:
  29:..\vector.c   ****     uint64_t ret = 0;
  30:..\vector.c   ****     uint64_t mask = 1;
  31:..\vector.c   ****     uint64_t tmp;
  32:..\vector.c   **** 
  33:..\vector.c   ****     for (size_t i = 0; i < 64; ++i) {
  45              		.loc 1 33 0
  46 0006 4FF0000E 		mov	lr, #0
  47              	.LBE16:
  30:..\vector.c   ****     uint64_t tmp;
  48              		.loc 1 30 0
  49 000a 0120     		movs	r0, #1
  50              	.LVL2:
  51 000c 0021     		movs	r1, #0
  29:..\vector.c   ****     uint64_t ret = 0;
  52              		.loc 1 29 0
  53 000e 4FF00008 		mov	r8, #0
  54 0012 4FF00009 		mov	r9, #0
  55              	.LBB17:
  56              		.loc 1 33 0
  57 0016 13E0     		b	.L2
  58              	.LVL3:
  59              	.L3:
  34:..\vector.c   ****         tmp = pos - i;
  60              		.loc 1 34 0 discriminator 3
  61 0018 CEEB0C02 		rsb	r2, lr, ip
  62 001c 0023     		movs	r3, #0
  63              	.LVL4:
  35:..\vector.c   ****         tmp = 0 - (1 - ((uint64_t)(tmp | (0 - tmp)) >> 63));
  64              		.loc 1 35 0 discriminator 3
  65 001e 5642     		rsbs	r6, r2, #0
  66 0020 63EB4307 		sbc	r7, r3, r3, lsl #1
  67 0024 3B43     		orrs	r3, r3, r7
  68 0026 DC17     		asrs	r4, r3, #31
  69              	.LVL5:
  36:..\vector.c   ****         ret |= mask & tmp;
  70              		.loc 1 36 0 discriminator 3
  71 0028 20EA0402 		bic	r2, r0, r4
  72 002c 21EA0403 		bic	r3, r1, r4
  73 0030 48EA0208 		orr	r8, r8, r2
  74              	.LVL6:
  75 0034 49EA0309 		orr	r9, r9, r3
  76              	.LVL7:
ARM GAS  C:\Users\bogur\AppData\Local\Temp\ccGwyS3j.s 			page 3


  37:..\vector.c   ****         mask <<= 1;
  77              		.loc 1 37 0 discriminator 3
  78 0038 0018     		adds	r0, r0, r0
  79              	.LVL8:
  80 003a 4941     		adcs	r1, r1, r1
  33:..\vector.c   ****         tmp = pos - i;
  81              		.loc 1 33 0 discriminator 3
  82 003c 0EF1010E 		add	lr, lr, #1
  83              	.LVL9:
  84              	.L2:
  33:..\vector.c   ****         tmp = pos - i;
  85              		.loc 1 33 0 is_stmt 0 discriminator 1
  86 0040 BEF13F0F 		cmp	lr, #63
  87 0044 E8D9     		bls	.L3
  88              	.LBE17:
  38:..\vector.c   ****     }
  39:..\vector.c   **** 
  40:..\vector.c   ****     return ret;
  41:..\vector.c   **** }
  89              		.loc 1 41 0 is_stmt 1
  90 0046 4046     		mov	r0, r8
  91              	.LVL10:
  92 0048 4946     		mov	r1, r9
  93 004a BDE8F083 		pop	{r4, r5, r6, r7, r8, r9, pc}
  94              		.cfi_endproc
  95              	.LFE1:
  96              		.size	single_bit_mask, .-single_bit_mask
  97 004e 00BF     		.section	.text.PQCLEAN_HQC256_CLEAN_vect_set_random_fixed_weight,"ax",%progbits
  98              		.align	2
  99              		.global	PQCLEAN_HQC256_CLEAN_vect_set_random_fixed_weight
 100              		.thumb
 101              		.thumb_func
 102              		.type	PQCLEAN_HQC256_CLEAN_vect_set_random_fixed_weight, %function
 103              	PQCLEAN_HQC256_CLEAN_vect_set_random_fixed_weight:
 104              	.LFB4:
  42:..\vector.c   **** 
  43:..\vector.c   **** static inline uint32_t cond_sub(uint32_t r, uint32_t n) {
  44:..\vector.c   ****     uint32_t mask;
  45:..\vector.c   ****     r -= n;
  46:..\vector.c   ****     mask = 0 - (r >> 31);
  47:..\vector.c   ****     return r + (n & mask);
  48:..\vector.c   **** }
  49:..\vector.c   **** 
  50:..\vector.c   **** static inline uint32_t reduce(uint32_t a, size_t i) {
  51:..\vector.c   ****     uint32_t q, n, r;
  52:..\vector.c   ****     q = ((uint64_t) a * m_val[i]) >> 32;
  53:..\vector.c   ****     n = (uint32_t)(PARAM_N - i);
  54:..\vector.c   ****     r = a - q * n;
  55:..\vector.c   ****     return cond_sub(r, n);
  56:..\vector.c   **** }
  57:..\vector.c   **** 
  58:..\vector.c   **** /**
  59:..\vector.c   ****  * @brief Generates a vector of a given Hamming weight
  60:..\vector.c   ****  *
  61:..\vector.c   ****  * Implementation of Algorithm 5 in https://eprint.iacr.org/2021/1631.pdf
  62:..\vector.c   ****  *
  63:..\vector.c   ****  * @param[in] ctx Pointer to the context of the seed expander
ARM GAS  C:\Users\bogur\AppData\Local\Temp\ccGwyS3j.s 			page 4


  64:..\vector.c   ****  * @param[in] v Pointer to an array
  65:..\vector.c   ****  * @param[in] weight Integer that is the Hamming weight
  66:..\vector.c   ****  */
  67:..\vector.c   **** void PQCLEAN_HQC256_CLEAN_vect_set_random_fixed_weight(seedexpander_state *ctx, uint64_t *v, uint16
 105              		.loc 1 67 0
 106              		.cfi_startproc
 107              		@ args = 0, pretend = 0, frame = 2984
 108              		@ frame_needed = 0, uses_anonymous_args = 0
 109              	.LVL11:
 110 0000 2DE9F043 		push	{r4, r5, r6, r7, r8, r9, lr}
 111              		.cfi_def_cfa_offset 28
 112              		.cfi_offset 4, -28
 113              		.cfi_offset 5, -24
 114              		.cfi_offset 6, -20
 115              		.cfi_offset 7, -16
 116              		.cfi_offset 8, -12
 117              		.cfi_offset 9, -8
 118              		.cfi_offset 14, -4
 119 0004 ADF6AC3D 		subw	sp, sp, #2988
 120              		.cfi_def_cfa_offset 3016
 121 0008 0746     		mov	r7, r0
 122 000a 0D46     		mov	r5, r1
 123 000c 1646     		mov	r6, r2
  68:..\vector.c   ****     uint8_t rand_bytes[4 * PARAM_OMEGA_R] = {0}; // to be interpreted as PARAM_OMEGA_R 32-bit unsig
 124              		.loc 1 68 0
 125 000e 4FF41574 		mov	r4, #596
 126 0012 2246     		mov	r2, r4
 127              	.LVL12:
 128 0014 0021     		movs	r1, #0
 129              	.LVL13:
 130 0016 0DF65410 		addw	r0, sp, #2388
 131              	.LVL14:
 132 001a FFF7FEFF 		bl	memset
 133              	.LVL15:
  69:..\vector.c   ****     uint32_t support[PARAM_OMEGA_R] = {0};
 134              		.loc 1 69 0
 135 001e 2246     		mov	r2, r4
 136 0020 0021     		movs	r1, #0
 137 0022 0DF5E060 		add	r0, sp, #1792
 138 0026 FFF7FEFF 		bl	memset
 139              	.LVL16:
  70:..\vector.c   ****     uint32_t index_tab [PARAM_OMEGA_R] = {0};
 140              		.loc 1 70 0
 141 002a 2246     		mov	r2, r4
 142 002c 0021     		movs	r1, #0
 143 002e 0DF2AC40 		addw	r0, sp, #1196
 144 0032 FFF7FEFF 		bl	memset
 145              	.LVL17:
  71:..\vector.c   ****     uint64_t bit_tab [PARAM_OMEGA_R] = {0};
 146              		.loc 1 71 0
 147 0036 4FF49562 		mov	r2, #1192
 148 003a 0021     		movs	r1, #0
 149 003c 6846     		mov	r0, sp
 150 003e FFF7FEFF 		bl	memset
 151              	.LVL18:
  72:..\vector.c   ****     uint32_t pos, found, mask32, tmp;
  73:..\vector.c   ****     uint64_t mask64, val;
ARM GAS  C:\Users\bogur\AppData\Local\Temp\ccGwyS3j.s 			page 5


  74:..\vector.c   **** 
  75:..\vector.c   ****     PQCLEAN_HQC256_CLEAN_seedexpander(ctx, rand_bytes, 4 * weight);
 152              		.loc 1 75 0
 153 0042 B200     		lsls	r2, r6, #2
 154 0044 0DF65411 		addw	r1, sp, #2388
 155 0048 3846     		mov	r0, r7
 156 004a FFF7FEFF 		bl	PQCLEAN_HQC256_CLEAN_seedexpander
 157              	.LVL19:
 158              	.LBB18:
  76:..\vector.c   **** 
  77:..\vector.c   ****     for (size_t i = 0; i < weight; ++i) {
 159              		.loc 1 77 0
 160 004e 0021     		movs	r1, #0
 161 0050 24E0     		b	.L6
 162              	.LVL20:
 163              	.L7:
  78:..\vector.c   ****         support[i] = rand_bytes[4 * i];
 164              		.loc 1 78 0 discriminator 3
 165 0052 8A00     		lsls	r2, r1, #2
 166 0054 0DF65410 		addw	r0, sp, #2388
 167 0058 10F82130 		ldrb	r3, [r0, r1, lsl #2]	@ zero_extendqisi2
  79:..\vector.c   ****         support[i] |= rand_bytes[4 * i + 1] << 8;
 168              		.loc 1 79 0 discriminator 3
 169 005c 541C     		adds	r4, r2, #1
 170 005e 045D     		ldrb	r4, [r0, r4]	@ zero_extendqisi2
 171 0060 43EA0423 		orr	r3, r3, r4, lsl #8
  80:..\vector.c   ****         support[i] |= (uint32_t)rand_bytes[4 * i + 2] << 16;
 172              		.loc 1 80 0 discriminator 3
 173 0064 941C     		adds	r4, r2, #2
 174 0066 045D     		ldrb	r4, [r0, r4]	@ zero_extendqisi2
 175 0068 43EA0443 		orr	r3, r3, r4, lsl #16
  81:..\vector.c   ****         support[i] |= (uint32_t)rand_bytes[4 * i + 3] << 24;
 176              		.loc 1 81 0 discriminator 3
 177 006c 0332     		adds	r2, r2, #3
 178 006e 825C     		ldrb	r2, [r0, r2]	@ zero_extendqisi2
 179 0070 43EA0263 		orr	r3, r3, r2, lsl #24
 180              	.LVL21:
 181              	.LBB19:
 182              	.LBB20:
  52:..\vector.c   ****     n = (uint32_t)(PARAM_N - i);
 183              		.loc 1 52 0 discriminator 3
 184 0074 414A     		ldr	r2, .L19
 185 0076 52F82120 		ldr	r2, [r2, r1, lsl #2]
 186 007a A2FB0389 		umull	r8, r9, r2, r3
 187              	.LVL22:
  53:..\vector.c   ****     r = a - q * n;
 188              		.loc 1 53 0 discriminator 3
 189 007e C1F56142 		rsb	r2, r1, #57600
 190 0082 2532     		adds	r2, r2, #37
 191              	.LVL23:
  54:..\vector.c   ****     return cond_sub(r, n);
 192              		.loc 1 54 0 discriminator 3
 193 0084 02FB1933 		mls	r3, r2, r9, r3
 194              	.LVL24:
 195              	.LBB21:
 196              	.LBB22:
  45:..\vector.c   ****     mask = 0 - (r >> 31);
ARM GAS  C:\Users\bogur\AppData\Local\Temp\ccGwyS3j.s 			page 6


 197              		.loc 1 45 0 discriminator 3
 198 0088 9B1A     		subs	r3, r3, r2
 199              	.LVL25:
  47:..\vector.c   **** }
 200              		.loc 1 47 0 discriminator 3
 201 008a 02EAE372 		and	r2, r2, r3, asr #31
 202              	.LVL26:
 203 008e 1344     		add	r3, r3, r2
 204              	.LVL27:
 205              	.LBE22:
 206              	.LBE21:
 207              	.LBE20:
 208              	.LBE19:
  82:..\vector.c   ****         support[i] = (uint32_t)(i + reduce(support[i], i)); // use constant-tme reduction
 209              		.loc 1 82 0 discriminator 3
 210 0090 0B44     		add	r3, r3, r1
 211 0092 0DF5E062 		add	r2, sp, #1792
 212 0096 42F82130 		str	r3, [r2, r1, lsl #2]
  77:..\vector.c   ****         support[i] = rand_bytes[4 * i];
 213              		.loc 1 77 0 discriminator 3
 214 009a 0131     		adds	r1, r1, #1
 215              	.LVL28:
 216              	.L6:
  77:..\vector.c   ****         support[i] = rand_bytes[4 * i];
 217              		.loc 1 77 0 is_stmt 0 discriminator 1
 218 009c 3446     		mov	r4, r6
 219 009e B142     		cmp	r1, r6
 220 00a0 D7D3     		bcc	.L7
 221              	.LBE18:
 222              	.LBB23:
  83:..\vector.c   ****     }
  84:..\vector.c   **** 
  85:..\vector.c   ****     for (size_t i = (weight - 1); i-- > 0;) {
 223              		.loc 1 85 0 is_stmt 1
 224 00a2 721E     		subs	r2, r6, #1
 225              	.LVL29:
 226 00a4 1FE0     		b	.L8
 227              	.LVL30:
 228              	.L9:
 229              	.LBB24:
  86:..\vector.c   ****         found = 0;
  87:..\vector.c   **** 
  88:..\vector.c   ****         for (size_t j = i + 1; j < weight; ++j) {
  89:..\vector.c   ****             found |= compare_u32(support[j], support[i]);
 230              		.loc 1 89 0 discriminator 3
 231 00a6 0DF5E063 		add	r3, sp, #1792
 232 00aa 53F82210 		ldr	r1, [r3, r2, lsl #2]
 233 00ae 53F82730 		ldr	r3, [r3, r7, lsl #2]
 234              	.LVL31:
 235              	.LBB25:
 236              	.LBB26:
  25:..\vector.c   **** }
 237              		.loc 1 25 0 discriminator 3
 238 00b2 CE1A     		subs	r6, r1, r3
 239 00b4 5B1A     		subs	r3, r3, r1
 240              	.LVL32:
 241 00b6 3343     		orrs	r3, r3, r6
ARM GAS  C:\Users\bogur\AppData\Local\Temp\ccGwyS3j.s 			page 7


 242              	.LVL33:
 243              	.LBE26:
 244              	.LBE25:
 245              		.loc 1 89 0 discriminator 3
 246 00b8 002B     		cmp	r3, #0
 247 00ba A8BF     		it	ge
 248 00bc 40F00100 		orrge	r0, r0, #1
 249              	.LVL34:
  88:..\vector.c   ****             found |= compare_u32(support[j], support[i]);
 250              		.loc 1 88 0 discriminator 3
 251 00c0 0132     		adds	r2, r2, #1
 252              	.LVL35:
 253 00c2 00E0     		b	.L10
 254              	.LVL36:
 255              	.L16:
 256              	.LBE24:
 257 00c4 0020     		movs	r0, #0
 258              	.L10:
 259              	.LVL37:
 260              	.LBB27:
  88:..\vector.c   ****             found |= compare_u32(support[j], support[i]);
 261              		.loc 1 88 0 is_stmt 0 discriminator 1
 262 00c6 A242     		cmp	r2, r4
 263 00c8 EDD3     		bcc	.L9
 264              	.LBE27:
  90:..\vector.c   ****         }
  91:..\vector.c   **** 
  92:..\vector.c   ****         mask32 = 0 - found;
 265              		.loc 1 92 0 is_stmt 1
 266 00ca 4042     		negs	r0, r0
 267              	.LVL38:
  93:..\vector.c   ****         support[i] = (mask32 & i) ^ (~mask32 & support[i]);
 268              		.loc 1 93 0
 269 00cc 07EA0001 		and	r1, r7, r0
 270 00d0 0DF5E062 		add	r2, sp, #1792
 271              	.LVL39:
 272 00d4 52F82730 		ldr	r3, [r2, r7, lsl #2]
 273 00d8 23EA0000 		bic	r0, r3, r0
 274              	.LVL40:
 275 00dc 81EA0003 		eor	r3, r1, r0
 276 00e0 42F82730 		str	r3, [r2, r7, lsl #2]
  85:..\vector.c   ****         found = 0;
 277              		.loc 1 85 0
 278 00e4 3A46     		mov	r2, r7
 279              	.LVL41:
 280              	.L8:
  85:..\vector.c   ****         found = 0;
 281              		.loc 1 85 0 is_stmt 0 discriminator 1
 282 00e6 571E     		subs	r7, r2, #1
 283              	.LVL42:
 284 00e8 002A     		cmp	r2, #0
 285 00ea EBD1     		bne	.L16
 286 00ec 0026     		movs	r6, #0
 287 00ee 11E0     		b	.L11
 288              	.LVL43:
 289              	.L12:
 290              	.LBE23:
ARM GAS  C:\Users\bogur\AppData\Local\Temp\ccGwyS3j.s 			page 8


 291              	.LBB28:
  94:..\vector.c   ****     }
  95:..\vector.c   **** 
  96:..\vector.c   ****     for (size_t i = 0; i < weight; ++i) {
  97:..\vector.c   ****         index_tab[i] = support[i] >> 6;
 292              		.loc 1 97 0 is_stmt 1 discriminator 3
 293 00f0 0DF5E063 		add	r3, sp, #1792
 294 00f4 53F82600 		ldr	r0, [r3, r6, lsl #2]
 295 00f8 8209     		lsrs	r2, r0, #6
 296 00fa 0DF2AC43 		addw	r3, sp, #1196
 297 00fe 43F82620 		str	r2, [r3, r6, lsl #2]
 298              	.LVL44:
  98:..\vector.c   ****         pos = support[i] & 0x3f;
  99:..\vector.c   ****         bit_tab[i] = single_bit_mask(pos); // avoid secret shift
 299              		.loc 1 99 0 discriminator 3
 300 0102 00F03F00 		and	r0, r0, #63
 301              	.LVL45:
 302 0106 FFF7FEFF 		bl	single_bit_mask
 303              	.LVL46:
 304 010a 0DEBC603 		add	r3, sp, r6, lsl #3
 305 010e C3E90001 		strd	r0, [r3]
  96:..\vector.c   ****         index_tab[i] = support[i] >> 6;
 306              		.loc 1 96 0 discriminator 3
 307 0112 0136     		adds	r6, r6, #1
 308              	.LVL47:
 309              	.L11:
  96:..\vector.c   ****         index_tab[i] = support[i] >> 6;
 310              		.loc 1 96 0 is_stmt 0 discriminator 1
 311 0114 A642     		cmp	r6, r4
 312 0116 EBD3     		bcc	.L12
 313 0118 4FF0000E 		mov	lr, #0
 314 011c 27E0     		b	.L13
 315              	.LVL48:
 316              	.L14:
 317              	.LBE28:
 318              	.LBB29:
 319              	.LBB30:
 100:..\vector.c   ****     }
 101:..\vector.c   **** 
 102:..\vector.c   ****     for (size_t i = 0; i < VEC_N_SIZE_64; ++i) {
 103:..\vector.c   ****         val = 0;
 104:..\vector.c   ****         for (size_t j = 0; j < weight; ++j) {
 105:..\vector.c   ****             tmp = (uint32_t)(i - index_tab[j]);
 320              		.loc 1 105 0 is_stmt 1 discriminator 3
 321 011e 0DF2AC43 		addw	r3, sp, #1196
 322 0122 53F82C20 		ldr	r2, [r3, ip, lsl #2]
 323 0126 C2EB0E02 		rsb	r2, r2, lr
 324              	.LVL49:
 106:..\vector.c   ****             tmp = 1 ^ ((uint32_t)(tmp | (0 - tmp)) >> 31);
 325              		.loc 1 106 0 discriminator 3
 326 012a 5342     		negs	r3, r2
 327 012c 1A43     		orrs	r2, r2, r3
 328              	.LVL50:
 329 012e D243     		mvns	r2, r2
 330 0130 D20F     		lsrs	r2, r2, #31
 331              	.LVL51:
 107:..\vector.c   ****             mask64 = 0 - (uint64_t)tmp;
ARM GAS  C:\Users\bogur\AppData\Local\Temp\ccGwyS3j.s 			page 9


 332              		.loc 1 107 0 discriminator 3
 333 0132 5242     		rsbs	r2, r2, #0
 334              	.LVL52:
 335 0134 63EB0303 		sbc	r3, r3, r3
 336              	.LVL53:
 108:..\vector.c   ****             val |= (bit_tab[j] & mask64);
 337              		.loc 1 108 0 discriminator 3
 338 0138 0DEBCC06 		add	r6, sp, ip, lsl #3
 339 013c D6E90067 		ldrd	r6, [r6]
 340 0140 3240     		ands	r2, r2, r6
 341              	.LVL54:
 342 0142 3B40     		ands	r3, r3, r7
 343 0144 1043     		orrs	r0, r0, r2
 344              	.LVL55:
 345 0146 1943     		orrs	r1, r1, r3
 346              	.LVL56:
 104:..\vector.c   ****             tmp = (uint32_t)(i - index_tab[j]);
 347              		.loc 1 104 0 discriminator 3
 348 0148 0CF1010C 		add	ip, ip, #1
 349              	.LVL57:
 350 014c 03E0     		b	.L15
 351              	.LVL58:
 352              	.L17:
 353              	.LBE30:
 354 014e 4FF0000C 		mov	ip, #0
 355 0152 0020     		movs	r0, #0
 356 0154 0021     		movs	r1, #0
 357              	.L15:
 358              	.LVL59:
 359              	.LBB31:
 104:..\vector.c   ****             tmp = (uint32_t)(i - index_tab[j]);
 360              		.loc 1 104 0 is_stmt 0 discriminator 1
 361 0156 A445     		cmp	ip, r4
 362 0158 E1D3     		bcc	.L14
 363              	.LBE31:
 109:..\vector.c   ****         }
 110:..\vector.c   ****         v[i] |= val;
 364              		.loc 1 110 0 is_stmt 1 discriminator 2
 365 015a 05EBCE06 		add	r6, r5, lr, lsl #3
 366 015e D6E90023 		ldrd	r2, [r6]
 367 0162 0243     		orrs	r2, r2, r0
 368 0164 0B43     		orrs	r3, r3, r1
 369 0166 C6E90023 		strd	r2, [r6]
 102:..\vector.c   ****         val = 0;
 370              		.loc 1 102 0 discriminator 2
 371 016a 0EF1010E 		add	lr, lr, #1
 372              	.LVL60:
 373              	.L13:
 102:..\vector.c   ****         val = 0;
 374              		.loc 1 102 0 is_stmt 0 discriminator 1
 375 016e BEF5617F 		cmp	lr, #900
 376 0172 ECD9     		bls	.L17
 377              	.LBE29:
 111:..\vector.c   ****     }
 112:..\vector.c   **** }
 378              		.loc 1 112 0 is_stmt 1
 379 0174 0DF6AC3D 		addw	sp, sp, #2988
ARM GAS  C:\Users\bogur\AppData\Local\Temp\ccGwyS3j.s 			page 10


 380              		.cfi_def_cfa_offset 28
 381              		@ sp needed
 382 0178 BDE8F083 		pop	{r4, r5, r6, r7, r8, r9, pc}
 383              	.LVL61:
 384              	.L20:
 385              		.align	2
 386              	.L19:
 387 017c 00000000 		.word	.LANCHOR0
 388              		.cfi_endproc
 389              	.LFE4:
 390              		.size	PQCLEAN_HQC256_CLEAN_vect_set_random_fixed_weight, .-PQCLEAN_HQC256_CLEAN_vect_set_random_fi
 391              		.section	.text.PQCLEAN_HQC256_CLEAN_vect_set_random,"ax",%progbits
 392              		.align	2
 393              		.global	PQCLEAN_HQC256_CLEAN_vect_set_random
 394              		.thumb
 395              		.thumb_func
 396              		.type	PQCLEAN_HQC256_CLEAN_vect_set_random, %function
 397              	PQCLEAN_HQC256_CLEAN_vect_set_random:
 398              	.LFB5:
 113:..\vector.c   **** 
 114:..\vector.c   **** 
 115:..\vector.c   **** 
 116:..\vector.c   **** /**
 117:..\vector.c   ****  * @brief Generates a random vector of dimension <b>PARAM_N</b>
 118:..\vector.c   ****  *
 119:..\vector.c   ****  * This function generates a random binary vector of dimension <b>PARAM_N</b>. It generates a rando
 120:..\vector.c   ****  * array of bytes using the PQCLEAN_HQC256_CLEAN_seedexpander function, and drop the extra bits usi
 121:..\vector.c   ****  *
 122:..\vector.c   ****  * @param[in] v Pointer to an array
 123:..\vector.c   ****  * @param[in] ctx Pointer to the context of the seed expander
 124:..\vector.c   ****  */
 125:..\vector.c   **** void PQCLEAN_HQC256_CLEAN_vect_set_random(seedexpander_state *ctx, uint64_t *v) {
 399              		.loc 1 125 0
 400              		.cfi_startproc
 401              		@ args = 0, pretend = 0, frame = 7208
 402              		@ frame_needed = 0, uses_anonymous_args = 0
 403              	.LVL62:
 404 0000 70B5     		push	{r4, r5, r6, lr}
 405              		.cfi_def_cfa_offset 16
 406              		.cfi_offset 4, -16
 407              		.cfi_offset 5, -12
 408              		.cfi_offset 6, -8
 409              		.cfi_offset 14, -4
 410 0002 ADF5E15D 		sub	sp, sp, #7200
 411              		.cfi_def_cfa_offset 7216
 412 0006 82B0     		sub	sp, sp, #8
 413              		.cfi_def_cfa_offset 7224
 414 0008 0646     		mov	r6, r0
 415 000a 0C46     		mov	r4, r1
 126:..\vector.c   ****     uint8_t rand_bytes[VEC_N_SIZE_BYTES] = {0};
 416              		.loc 1 126 0
 417 000c 41F62545 		movw	r5, #7205
 418 0010 2A46     		mov	r2, r5
 419 0012 0021     		movs	r1, #0
 420              	.LVL63:
 421 0014 6846     		mov	r0, sp
 422              	.LVL64:
ARM GAS  C:\Users\bogur\AppData\Local\Temp\ccGwyS3j.s 			page 11


 423 0016 FFF7FEFF 		bl	memset
 424              	.LVL65:
 127:..\vector.c   **** 
 128:..\vector.c   ****     PQCLEAN_HQC256_CLEAN_seedexpander(ctx, rand_bytes, VEC_N_SIZE_BYTES);
 425              		.loc 1 128 0
 426 001a 2A46     		mov	r2, r5
 427 001c 6946     		mov	r1, sp
 428 001e 3046     		mov	r0, r6
 429 0020 FFF7FEFF 		bl	PQCLEAN_HQC256_CLEAN_seedexpander
 430              	.LVL66:
 129:..\vector.c   **** 
 130:..\vector.c   ****     PQCLEAN_HQC256_CLEAN_load8_arr(v, VEC_N_SIZE_64, rand_bytes, VEC_N_SIZE_BYTES);
 431              		.loc 1 130 0
 432 0024 2B46     		mov	r3, r5
 433 0026 6A46     		mov	r2, sp
 434 0028 40F28531 		movw	r1, #901
 435 002c 2046     		mov	r0, r4
 436 002e FFF7FEFF 		bl	PQCLEAN_HQC256_CLEAN_load8_arr
 437              	.LVL67:
 131:..\vector.c   ****     v[VEC_N_SIZE_64 - 1] &= RED_MASK;
 438              		.loc 1 131 0
 439 0032 04F5E154 		add	r4, r4, #7200
 440              	.LVL68:
 441 0036 D4E90023 		ldrd	r2, [r4]
 442 003a 03F01F03 		and	r3, r3, #31
 443 003e C4E90023 		strd	r2, [r4]
 132:..\vector.c   **** }
 444              		.loc 1 132 0
 445 0042 0DF5E15D 		add	sp, sp, #7200
 446 0046 02B0     		add	sp, sp, #8
 447              		.cfi_def_cfa_offset 16
 448              		@ sp needed
 449 0048 70BD     		pop	{r4, r5, r6, pc}
 450              		.cfi_endproc
 451              	.LFE5:
 452              		.size	PQCLEAN_HQC256_CLEAN_vect_set_random, .-PQCLEAN_HQC256_CLEAN_vect_set_random
 453 004a 00BF     		.section	.text.PQCLEAN_HQC256_CLEAN_vect_add,"ax",%progbits
 454              		.align	2
 455              		.global	PQCLEAN_HQC256_CLEAN_vect_add
 456              		.thumb
 457              		.thumb_func
 458              		.type	PQCLEAN_HQC256_CLEAN_vect_add, %function
 459              	PQCLEAN_HQC256_CLEAN_vect_add:
 460              	.LFB6:
 133:..\vector.c   **** 
 134:..\vector.c   **** 
 135:..\vector.c   **** 
 136:..\vector.c   **** /**
 137:..\vector.c   ****  * @brief Adds two vectors
 138:..\vector.c   ****  *
 139:..\vector.c   ****  * @param[out] o Pointer to an array that is the result
 140:..\vector.c   ****  * @param[in] v1 Pointer to an array that is the first vector
 141:..\vector.c   ****  * @param[in] v2 Pointer to an array that is the second vector
 142:..\vector.c   ****  * @param[in] size Integer that is the size of the vectors
 143:..\vector.c   ****  */
 144:..\vector.c   **** void PQCLEAN_HQC256_CLEAN_vect_add(uint64_t *o, const uint64_t *v1, const uint64_t *v2, size_t size
 461              		.loc 1 144 0
ARM GAS  C:\Users\bogur\AppData\Local\Temp\ccGwyS3j.s 			page 12


 462              		.cfi_startproc
 463              		@ args = 0, pretend = 0, frame = 0
 464              		@ frame_needed = 0, uses_anonymous_args = 0
 465              		@ link register save eliminated.
 466              	.LVL69:
 467 0000 2DE9F00F 		push	{r4, r5, r6, r7, r8, r9, r10, fp}
 468              		.cfi_def_cfa_offset 32
 469              		.cfi_offset 4, -32
 470              		.cfi_offset 5, -28
 471              		.cfi_offset 6, -24
 472              		.cfi_offset 7, -20
 473              		.cfi_offset 8, -16
 474              		.cfi_offset 9, -12
 475              		.cfi_offset 10, -8
 476              		.cfi_offset 11, -4
 477              	.LVL70:
 478              	.LBB32:
 145:..\vector.c   ****     for (size_t i = 0; i < size; ++i) {
 479              		.loc 1 145 0
 480 0004 0025     		movs	r5, #0
 481 0006 0EE0     		b	.L24
 482              	.LVL71:
 483              	.L25:
 146:..\vector.c   ****         o[i] = v1[i] ^ v2[i];
 484              		.loc 1 146 0 discriminator 3
 485 0008 EC00     		lsls	r4, r5, #3
 486 000a 0619     		adds	r6, r0, r4
 487 000c 0F19     		adds	r7, r1, r4
 488 000e D7E900AB 		ldrd	r10, [r7]
 489 0012 1444     		add	r4, r4, r2
 490 0014 D4E90089 		ldrd	r8, [r4]
 491 0018 88EA0A08 		eor	r8, r8, r10
 492 001c 89EA0B09 		eor	r9, r9, fp
 493 0020 C6E90089 		strd	r8, [r6]
 145:..\vector.c   ****     for (size_t i = 0; i < size; ++i) {
 494              		.loc 1 145 0 discriminator 3
 495 0024 0135     		adds	r5, r5, #1
 496              	.LVL72:
 497              	.L24:
 145:..\vector.c   ****     for (size_t i = 0; i < size; ++i) {
 498              		.loc 1 145 0 is_stmt 0 discriminator 1
 499 0026 9D42     		cmp	r5, r3
 500 0028 EED3     		bcc	.L25
 501              	.LBE32:
 147:..\vector.c   ****     }
 148:..\vector.c   **** }
 502              		.loc 1 148 0 is_stmt 1
 503 002a BDE8F00F 		pop	{r4, r5, r6, r7, r8, r9, r10, fp}
 504              		.cfi_restore 11
 505              		.cfi_restore 10
 506              		.cfi_restore 9
 507              		.cfi_restore 8
 508              		.cfi_restore 7
 509              		.cfi_restore 6
 510              		.cfi_restore 5
 511              		.cfi_restore 4
 512              		.cfi_def_cfa_offset 0
ARM GAS  C:\Users\bogur\AppData\Local\Temp\ccGwyS3j.s 			page 13


 513              	.LVL73:
 514 002e 7047     		bx	lr
 515              		.cfi_endproc
 516              	.LFE6:
 517              		.size	PQCLEAN_HQC256_CLEAN_vect_add, .-PQCLEAN_HQC256_CLEAN_vect_add
 518              		.section	.text.PQCLEAN_HQC256_CLEAN_vect_compare,"ax",%progbits
 519              		.align	2
 520              		.global	PQCLEAN_HQC256_CLEAN_vect_compare
 521              		.thumb
 522              		.thumb_func
 523              		.type	PQCLEAN_HQC256_CLEAN_vect_compare, %function
 524              	PQCLEAN_HQC256_CLEAN_vect_compare:
 525              	.LFB7:
 149:..\vector.c   **** 
 150:..\vector.c   **** 
 151:..\vector.c   **** 
 152:..\vector.c   **** /**
 153:..\vector.c   ****  * @brief Compares two vectors
 154:..\vector.c   ****  *
 155:..\vector.c   ****  * @param[in] v1 Pointer to an array that is first vector
 156:..\vector.c   ****  * @param[in] v2 Pointer to an array that is second vector
 157:..\vector.c   ****  * @param[in] size Integer that is the size of the vectors
 158:..\vector.c   ****  * @returns 0 if the vectors are equal and 1 otherwise
 159:..\vector.c   ****  */
 160:..\vector.c   **** uint8_t PQCLEAN_HQC256_CLEAN_vect_compare(const uint8_t *v1, const uint8_t *v2, size_t size) {
 526              		.loc 1 160 0
 527              		.cfi_startproc
 528              		@ args = 0, pretend = 0, frame = 0
 529              		@ frame_needed = 0, uses_anonymous_args = 0
 530              		@ link register save eliminated.
 531              	.LVL74:
 532 0000 70B4     		push	{r4, r5, r6}
 533              		.cfi_def_cfa_offset 12
 534              		.cfi_offset 4, -12
 535              		.cfi_offset 5, -8
 536              		.cfi_offset 6, -4
 537              	.LVL75:
 538              	.LBB33:
 161:..\vector.c   ****     uint16_t r = 0x0100;
 162:..\vector.c   **** 
 163:..\vector.c   ****     for (size_t i = 0; i < size; i++) {
 539              		.loc 1 163 0
 540 0002 0023     		movs	r3, #0
 541              	.LBE33:
 161:..\vector.c   ****     uint16_t r = 0x0100;
 542              		.loc 1 161 0
 543 0004 4FF48075 		mov	r5, #256
 544              	.LBB34:
 545              		.loc 1 163 0
 546 0008 04E0     		b	.L28
 547              	.LVL76:
 548              	.L29:
 164:..\vector.c   ****         r |= v1[i] ^ v2[i];
 549              		.loc 1 164 0 discriminator 3
 550 000a C65C     		ldrb	r6, [r0, r3]	@ zero_extendqisi2
 551 000c CC5C     		ldrb	r4, [r1, r3]	@ zero_extendqisi2
 552 000e 7440     		eors	r4, r4, r6
ARM GAS  C:\Users\bogur\AppData\Local\Temp\ccGwyS3j.s 			page 14


 553 0010 2543     		orrs	r5, r5, r4
 554              	.LVL77:
 163:..\vector.c   ****         r |= v1[i] ^ v2[i];
 555              		.loc 1 163 0 discriminator 3
 556 0012 0133     		adds	r3, r3, #1
 557              	.LVL78:
 558              	.L28:
 163:..\vector.c   ****         r |= v1[i] ^ v2[i];
 559              		.loc 1 163 0 is_stmt 0 discriminator 1
 560 0014 9342     		cmp	r3, r2
 561 0016 F8D3     		bcc	.L29
 562              	.LBE34:
 165:..\vector.c   ****     }
 166:..\vector.c   **** 
 167:..\vector.c   ****     return (r - 1) >> 8;
 563              		.loc 1 167 0 is_stmt 1
 564 0018 681E     		subs	r0, r5, #1
 565              	.LVL79:
 168:..\vector.c   **** }
 566              		.loc 1 168 0
 567 001a C0F30720 		ubfx	r0, r0, #8, #8
 568 001e 70BC     		pop	{r4, r5, r6}
 569              		.cfi_restore 6
 570              		.cfi_restore 5
 571              		.cfi_restore 4
 572              		.cfi_def_cfa_offset 0
 573              	.LVL80:
 574 0020 7047     		bx	lr
 575              		.cfi_endproc
 576              	.LFE7:
 577              		.size	PQCLEAN_HQC256_CLEAN_vect_compare, .-PQCLEAN_HQC256_CLEAN_vect_compare
 578 0022 00BF     		.section	.text.PQCLEAN_HQC256_CLEAN_vect_resize,"ax",%progbits
 579              		.align	2
 580              		.global	PQCLEAN_HQC256_CLEAN_vect_resize
 581              		.thumb
 582              		.thumb_func
 583              		.type	PQCLEAN_HQC256_CLEAN_vect_resize, %function
 584              	PQCLEAN_HQC256_CLEAN_vect_resize:
 585              	.LFB8:
 169:..\vector.c   **** 
 170:..\vector.c   **** 
 171:..\vector.c   **** 
 172:..\vector.c   **** /**
 173:..\vector.c   ****  * @brief Resize a vector so that it contains <b>size_o</b> bits
 174:..\vector.c   ****  *
 175:..\vector.c   ****  * @param[out] o Pointer to the output vector
 176:..\vector.c   ****  * @param[in] size_o Integer that is the size of the output vector in bits
 177:..\vector.c   ****  * @param[in] v Pointer to the input vector
 178:..\vector.c   ****  * @param[in] size_v Integer that is the size of the input vector in bits
 179:..\vector.c   ****  */
 180:..\vector.c   **** void PQCLEAN_HQC256_CLEAN_vect_resize(uint64_t *o, uint32_t size_o, const uint64_t *v, uint32_t siz
 586              		.loc 1 180 0
 587              		.cfi_startproc
 588              		@ args = 0, pretend = 0, frame = 0
 589              		@ frame_needed = 0, uses_anonymous_args = 0
 590              	.LVL81:
 591 0000 F8B5     		push	{r3, r4, r5, r6, r7, lr}
ARM GAS  C:\Users\bogur\AppData\Local\Temp\ccGwyS3j.s 			page 15


 592              		.cfi_def_cfa_offset 24
 593              		.cfi_offset 3, -24
 594              		.cfi_offset 4, -20
 595              		.cfi_offset 5, -16
 596              		.cfi_offset 6, -12
 597              		.cfi_offset 7, -8
 598              		.cfi_offset 14, -4
 599 0002 0746     		mov	r7, r0
 600 0004 0E46     		mov	r6, r1
 601 0006 1146     		mov	r1, r2
 602              	.LVL82:
 181:..\vector.c   ****     uint64_t mask = 0x7FFFFFFFFFFFFFFF;
 182:..\vector.c   ****     size_t val = 0;
 183:..\vector.c   ****     if (size_o < size_v) {
 603              		.loc 1 183 0
 604 0008 9E42     		cmp	r6, r3
 605 000a 2BD2     		bcs	.L32
 184:..\vector.c   **** 
 185:..\vector.c   ****         if (size_o % 64) {
 606              		.loc 1 185 0
 607 000c 16F03F06 		ands	r6, r6, #63
 608              	.LVL83:
 609 0010 02D0     		beq	.L37
 186:..\vector.c   ****             val = 64 - (size_o % 64);
 610              		.loc 1 186 0
 611 0012 C6F14006 		rsb	r6, r6, #64
 612              	.LVL84:
 613 0016 00E0     		b	.L33
 614              	.LVL85:
 615              	.L37:
 182:..\vector.c   ****     if (size_o < size_v) {
 616              		.loc 1 182 0
 617 0018 0026     		movs	r6, #0
 618              	.LVL86:
 619              	.L33:
 187:..\vector.c   ****         }
 188:..\vector.c   **** 
 189:..\vector.c   ****         memcpy(o, v, VEC_N1N2_SIZE_BYTES);
 620              		.loc 1 189 0
 621 001a 4FF4E152 		mov	r2, #7200
 622              	.LVL87:
 623 001e 3846     		mov	r0, r7
 624              	.LVL88:
 625 0020 FFF7FEFF 		bl	memcpy
 626              	.LVL89:
 627              	.LBB35:
 190:..\vector.c   **** 
 191:..\vector.c   ****         for (size_t i = 0; i < val; ++i) {
 628              		.loc 1 191 0
 629 0024 0023     		movs	r3, #0
 630 0026 1AE0     		b	.L34
 631              	.LVL90:
 632              	.L35:
 192:..\vector.c   ****             o[VEC_N1N2_SIZE_64 - 1] &= (mask >> i);
 633              		.loc 1 192 0 discriminator 3
 634 0028 6FF00042 		mvn	r2, #-2147483648
 635 002c C3F12000 		rsb	r0, r3, #32
ARM GAS  C:\Users\bogur\AppData\Local\Temp\ccGwyS3j.s 			page 16


 636 0030 A3F12001 		sub	r1, r3, #32
 637 0034 4FF0FF3E 		mov	lr, #-1
 638 0038 2EFA03F4 		lsr	r4, lr, r3
 639 003c 02FA00F0 		lsl	r0, r2, r0
 640 0040 0443     		orrs	r4, r4, r0
 641 0042 22FA01F1 		lsr	r1, r2, r1
 642 0046 0C43     		orrs	r4, r4, r1
 643 0048 22FA03F5 		lsr	r5, r2, r3
 644 004c 07F5E052 		add	r2, r7, #7168
 645 0050 D2E90601 		ldrd	r0, [r2, #24]
 646 0054 2040     		ands	r0, r0, r4
 647 0056 2940     		ands	r1, r1, r5
 648 0058 C2E90601 		strd	r0, [r2, #24]
 191:..\vector.c   ****             o[VEC_N1N2_SIZE_64 - 1] &= (mask >> i);
 649              		.loc 1 191 0 discriminator 3
 650 005c 0133     		adds	r3, r3, #1
 651              	.LVL91:
 652              	.L34:
 191:..\vector.c   ****             o[VEC_N1N2_SIZE_64 - 1] &= (mask >> i);
 653              		.loc 1 191 0 is_stmt 0 discriminator 1
 654 005e 9E42     		cmp	r6, r3
 655 0060 E2D8     		bhi	.L35
 656 0062 F8BD     		pop	{r3, r4, r5, r6, r7, pc}
 657              	.LVL92:
 658              	.L32:
 659              	.LBE35:
 193:..\vector.c   ****         }
 194:..\vector.c   ****     } else {
 195:..\vector.c   ****         memcpy(o, v, 8 * CEIL_DIVIDE(size_v, 64));
 660              		.loc 1 195 0 is_stmt 1
 661 0064 3F33     		adds	r3, r3, #63
 662              	.LVL93:
 663 0066 9A09     		lsrs	r2, r3, #6
 664 0068 D200     		lsls	r2, r2, #3
 665 006a FFF7FEFF 		bl	memcpy
 666              	.LVL94:
 667 006e F8BD     		pop	{r3, r4, r5, r6, r7, pc}
 668              		.cfi_endproc
 669              	.LFE8:
 670              		.size	PQCLEAN_HQC256_CLEAN_vect_resize, .-PQCLEAN_HQC256_CLEAN_vect_resize
 671              		.section	.rodata
 672              		.align	2
 673              		.set	.LANCHOR0,. + 0
 674              		.type	m_val, %object
 675              		.size	m_val, 596
 676              	m_val:
 677 0000 15230100 		.word	74517
 678 0004 16230100 		.word	74518
 679 0008 18230100 		.word	74520
 680 000c 19230100 		.word	74521
 681 0010 1A230100 		.word	74522
 682 0014 1C230100 		.word	74524
 683 0018 1D230100 		.word	74525
 684 001c 1E230100 		.word	74526
 685 0020 1F230100 		.word	74527
 686 0024 21230100 		.word	74529
 687 0028 22230100 		.word	74530
ARM GAS  C:\Users\bogur\AppData\Local\Temp\ccGwyS3j.s 			page 17


 688 002c 23230100 		.word	74531
 689 0030 25230100 		.word	74533
 690 0034 26230100 		.word	74534
 691 0038 27230100 		.word	74535
 692 003c 28230100 		.word	74536
 693 0040 2A230100 		.word	74538
 694 0044 2B230100 		.word	74539
 695 0048 2C230100 		.word	74540
 696 004c 2E230100 		.word	74542
 697 0050 2F230100 		.word	74543
 698 0054 30230100 		.word	74544
 699 0058 31230100 		.word	74545
 700 005c 33230100 		.word	74547
 701 0060 34230100 		.word	74548
 702 0064 35230100 		.word	74549
 703 0068 37230100 		.word	74551
 704 006c 38230100 		.word	74552
 705 0070 39230100 		.word	74553
 706 0074 3B230100 		.word	74555
 707 0078 3C230100 		.word	74556
 708 007c 3D230100 		.word	74557
 709 0080 3E230100 		.word	74558
 710 0084 40230100 		.word	74560
 711 0088 41230100 		.word	74561
 712 008c 42230100 		.word	74562
 713 0090 44230100 		.word	74564
 714 0094 45230100 		.word	74565
 715 0098 46230100 		.word	74566
 716 009c 47230100 		.word	74567
 717 00a0 49230100 		.word	74569
 718 00a4 4A230100 		.word	74570
 719 00a8 4B230100 		.word	74571
 720 00ac 4D230100 		.word	74573
 721 00b0 4E230100 		.word	74574
 722 00b4 4F230100 		.word	74575
 723 00b8 51230100 		.word	74577
 724 00bc 52230100 		.word	74578
 725 00c0 53230100 		.word	74579
 726 00c4 54230100 		.word	74580
 727 00c8 56230100 		.word	74582
 728 00cc 57230100 		.word	74583
 729 00d0 58230100 		.word	74584
 730 00d4 5A230100 		.word	74586
 731 00d8 5B230100 		.word	74587
 732 00dc 5C230100 		.word	74588
 733 00e0 5E230100 		.word	74590
 734 00e4 5F230100 		.word	74591
 735 00e8 60230100 		.word	74592
 736 00ec 61230100 		.word	74593
 737 00f0 63230100 		.word	74595
 738 00f4 64230100 		.word	74596
 739 00f8 65230100 		.word	74597
 740 00fc 67230100 		.word	74599
 741 0100 68230100 		.word	74600
 742 0104 69230100 		.word	74601
 743 0108 6A230100 		.word	74602
 744 010c 6C230100 		.word	74604
ARM GAS  C:\Users\bogur\AppData\Local\Temp\ccGwyS3j.s 			page 18


 745 0110 6D230100 		.word	74605
 746 0114 6E230100 		.word	74606
 747 0118 70230100 		.word	74608
 748 011c 71230100 		.word	74609
 749 0120 72230100 		.word	74610
 750 0124 74230100 		.word	74612
 751 0128 75230100 		.word	74613
 752 012c 76230100 		.word	74614
 753 0130 77230100 		.word	74615
 754 0134 79230100 		.word	74617
 755 0138 7A230100 		.word	74618
 756 013c 7B230100 		.word	74619
 757 0140 7D230100 		.word	74621
 758 0144 7E230100 		.word	74622
 759 0148 7F230100 		.word	74623
 760 014c 81230100 		.word	74625
 761 0150 82230100 		.word	74626
 762 0154 83230100 		.word	74627
 763 0158 84230100 		.word	74628
 764 015c 86230100 		.word	74630
 765 0160 87230100 		.word	74631
 766 0164 88230100 		.word	74632
 767 0168 8A230100 		.word	74634
 768 016c 8B230100 		.word	74635
 769 0170 8C230100 		.word	74636
 770 0174 8D230100 		.word	74637
 771 0178 8F230100 		.word	74639
 772 017c 90230100 		.word	74640
 773 0180 91230100 		.word	74641
 774 0184 93230100 		.word	74643
 775 0188 94230100 		.word	74644
 776 018c 95230100 		.word	74645
 777 0190 97230100 		.word	74647
 778 0194 98230100 		.word	74648
 779 0198 99230100 		.word	74649
 780 019c 9A230100 		.word	74650
 781 01a0 9C230100 		.word	74652
 782 01a4 9D230100 		.word	74653
 783 01a8 9E230100 		.word	74654
 784 01ac A0230100 		.word	74656
 785 01b0 A1230100 		.word	74657
 786 01b4 A2230100 		.word	74658
 787 01b8 A4230100 		.word	74660
 788 01bc A5230100 		.word	74661
 789 01c0 A6230100 		.word	74662
 790 01c4 A7230100 		.word	74663
 791 01c8 A9230100 		.word	74665
 792 01cc AA230100 		.word	74666
 793 01d0 AB230100 		.word	74667
 794 01d4 AD230100 		.word	74669
 795 01d8 AE230100 		.word	74670
 796 01dc AF230100 		.word	74671
 797 01e0 B1230100 		.word	74673
 798 01e4 B2230100 		.word	74674
 799 01e8 B3230100 		.word	74675
 800 01ec B4230100 		.word	74676
 801 01f0 B6230100 		.word	74678
ARM GAS  C:\Users\bogur\AppData\Local\Temp\ccGwyS3j.s 			page 19


 802 01f4 B7230100 		.word	74679
 803 01f8 B8230100 		.word	74680
 804 01fc BA230100 		.word	74682
 805 0200 BB230100 		.word	74683
 806 0204 BC230100 		.word	74684
 807 0208 BD230100 		.word	74685
 808 020c BF230100 		.word	74687
 809 0210 C0230100 		.word	74688
 810 0214 C1230100 		.word	74689
 811 0218 C3230100 		.word	74691
 812 021c C4230100 		.word	74692
 813 0220 C5230100 		.word	74693
 814 0224 C7230100 		.word	74695
 815 0228 C8230100 		.word	74696
 816 022c C9230100 		.word	74697
 817 0230 CA230100 		.word	74698
 818 0234 CC230100 		.word	74700
 819 0238 CD230100 		.word	74701
 820 023c CE230100 		.word	74702
 821 0240 D0230100 		.word	74704
 822 0244 D1230100 		.word	74705
 823 0248 D2230100 		.word	74706
 824 024c D4230100 		.word	74708
 825 0250 D5230100 		.word	74709
 826              		.text
 827              	.Letext0:
 828              		.file 2 "c:\\program files (x86)\\cypress\\psoc creator\\4.4\\psoc creator\\import\\gnu\\arm\\5.4.
 829              		.file 3 "c:\\program files (x86)\\cypress\\psoc creator\\4.4\\psoc creator\\import\\gnu\\arm\\5.4.
 830              		.file 4 "c:\\program files (x86)\\cypress\\psoc creator\\4.4\\psoc creator\\import\\gnu\\arm\\5.4.
 831              		.file 5 "..\\fips202.h"
 832              		.file 6 "..\\shake_prng.h"
 833              		.file 7 "..\\parsing.h"