ARM GAS  C:\Users\bogur\AppData\Local\Temp\cca0k2e0.s 			page 1


   1              		.syntax unified
   2              		.cpu cortex-m4
   3              		.eabi_attribute 27, 1
   4              		.fpu fpv4-sp-d16
   5              		.eabi_attribute 20, 1
   6              		.eabi_attribute 21, 1
   7              		.eabi_attribute 23, 3
   8              		.eabi_attribute 24, 1
   9              		.eabi_attribute 25, 1
  10              		.eabi_attribute 26, 1
  11              		.eabi_attribute 30, 1
  12              		.eabi_attribute 34, 1
  13              		.eabi_attribute 18, 4
  14              		.thumb
  15              		.syntax unified
  16              		.file	"aes256ctr.c"
  17              		.text
  18              	.Ltext0:
  19              		.cfi_sections	.debug_frame
  20              		.section	.text.br_range_dec32le,"ax",%progbits
  21              		.align	2
  22              		.thumb
  23              		.thumb_func
  24              		.type	br_range_dec32le, %function
  25              	br_range_dec32le:
  26              	.LFB1:
  27              		.file 1 "..\\aes256ctr.c"
   1:..\aes256ctr.c **** /*
   2:..\aes256ctr.c ****  * Copyright (c) 2016 Thomas Pornin <pornin@bolet.org>
   3:..\aes256ctr.c ****  *
   4:..\aes256ctr.c ****  * Permission is hereby granted, free of charge, to any person obtaining
   5:..\aes256ctr.c ****  * a copy of this software and associated documentation files (the
   6:..\aes256ctr.c ****  * "Software"), to deal in the Software without restriction, including
   7:..\aes256ctr.c ****  * without limitation the rights to use, copy, modify, merge, publish,
   8:..\aes256ctr.c ****  * distribute, sublicense, and/or sell copies of the Software, and to
   9:..\aes256ctr.c ****  * permit persons to whom the Software is furnished to do so, subject to
  10:..\aes256ctr.c ****  * the following conditions:
  11:..\aes256ctr.c ****  *
  12:..\aes256ctr.c ****  * The above copyright notice and this permission notice shall be
  13:..\aes256ctr.c ****  * included in all copies or substantial portions of the Software.
  14:..\aes256ctr.c ****  *
  15:..\aes256ctr.c ****  * THE SOFTWARE IS PROVIDED "AS IS", WITHOUT WARRANTY OF ANY KIND,
  16:..\aes256ctr.c ****  * EXPRESS OR IMPLIED, INCLUDING BUT NOT LIMITED TO THE WARRANTIES OF
  17:..\aes256ctr.c ****  * MERCHANTABILITY, FITNESS FOR A PARTICULAR PURPOSE AND
  18:..\aes256ctr.c ****  * NONINFRINGEMENT. IN NO EVENT SHALL THE AUTHORS OR COPYRIGHT HOLDERS
  19:..\aes256ctr.c ****  * BE LIABLE FOR ANY CLAIM, DAMAGES OR OTHER LIABILITY, WHETHER IN AN
  20:..\aes256ctr.c ****  * ACTION OF CONTRACT, TORT OR OTHERWISE, ARISING FROM, OUT OF OR IN
  21:..\aes256ctr.c ****  * CONNECTION WITH THE SOFTWARE OR THE USE OR OTHER DEALINGS IN THE
  22:..\aes256ctr.c ****  * SOFTWARE.
  23:..\aes256ctr.c ****  */
  24:..\aes256ctr.c **** 
  25:..\aes256ctr.c **** #include <stdint.h>
  26:..\aes256ctr.c **** #include <string.h>
  27:..\aes256ctr.c **** #include "aes256ctr.h"
  28:..\aes256ctr.c **** 
  29:..\aes256ctr.c **** static inline uint32_t br_dec32le(const uint8_t *src)
  30:..\aes256ctr.c **** {
ARM GAS  C:\Users\bogur\AppData\Local\Temp\cca0k2e0.s 			page 2


  31:..\aes256ctr.c **** 	return (uint32_t)src[0]
  32:..\aes256ctr.c **** 		| ((uint32_t)src[1] << 8)
  33:..\aes256ctr.c **** 		| ((uint32_t)src[2] << 16)
  34:..\aes256ctr.c **** 		| ((uint32_t)src[3] << 24);
  35:..\aes256ctr.c **** }
  36:..\aes256ctr.c **** 
  37:..\aes256ctr.c **** static void br_range_dec32le(uint32_t *v, size_t num, const uint8_t *src)
  38:..\aes256ctr.c **** {
  28              		.loc 1 38 0
  29              		.cfi_startproc
  30              		@ args = 0, pretend = 0, frame = 0
  31              		@ frame_needed = 0, uses_anonymous_args = 0
  32              		@ link register save eliminated.
  33              	.LVL0:
  34 0000 10B4     		push	{r4}
  35              		.cfi_def_cfa_offset 4
  36              		.cfi_offset 4, -4
  39:..\aes256ctr.c **** 	while (num-- > 0) {
  37              		.loc 1 39 0
  38 0002 0DE0     		b	.L2
  39              	.LVL1:
  40              	.L3:
  41              	.LBB43:
  42              	.LBB44:
  31:..\aes256ctr.c **** 		| ((uint32_t)src[1] << 8)
  43              		.loc 1 31 0
  44 0004 1378     		ldrb	r3, [r2]	@ zero_extendqisi2
  32:..\aes256ctr.c **** 		| ((uint32_t)src[2] << 16)
  45              		.loc 1 32 0
  46 0006 5178     		ldrb	r1, [r2, #1]	@ zero_extendqisi2
  47 0008 43EA0123 		orr	r3, r3, r1, lsl #8
  33:..\aes256ctr.c **** 		| ((uint32_t)src[3] << 24);
  48              		.loc 1 33 0
  49 000c 9178     		ldrb	r1, [r2, #2]	@ zero_extendqisi2
  50 000e 43EA0143 		orr	r3, r3, r1, lsl #16
  34:..\aes256ctr.c **** }
  51              		.loc 1 34 0
  52 0012 D178     		ldrb	r1, [r2, #3]	@ zero_extendqisi2
  31:..\aes256ctr.c **** 		| ((uint32_t)src[1] << 8)
  53              		.loc 1 31 0
  54 0014 43EA0163 		orr	r3, r3, r1, lsl #24
  55              	.LVL2:
  56              	.LBE44:
  57              	.LBE43:
  40:..\aes256ctr.c **** 		*v ++ = br_dec32le(src);
  58              		.loc 1 40 0
  59 0018 0360     		str	r3, [r0]
  41:..\aes256ctr.c **** 		src += 4;
  60              		.loc 1 41 0
  61 001a 0432     		adds	r2, r2, #4
  62              	.LVL3:
  39:..\aes256ctr.c **** 		*v ++ = br_dec32le(src);
  63              		.loc 1 39 0
  64 001c 2146     		mov	r1, r4
  40:..\aes256ctr.c **** 		*v ++ = br_dec32le(src);
  65              		.loc 1 40 0
  66 001e 0430     		adds	r0, r0, #4
ARM GAS  C:\Users\bogur\AppData\Local\Temp\cca0k2e0.s 			page 3


  67              	.LVL4:
  68              	.L2:
  39:..\aes256ctr.c **** 		*v ++ = br_dec32le(src);
  69              		.loc 1 39 0
  70 0020 4C1E     		subs	r4, r1, #1
  71              	.LVL5:
  72 0022 0029     		cmp	r1, #0
  73 0024 EED1     		bne	.L3
  42:..\aes256ctr.c **** 	}
  43:..\aes256ctr.c **** }
  74              		.loc 1 43 0
  75 0026 5DF8044B 		ldr	r4, [sp], #4
  76              		.cfi_restore 4
  77              		.cfi_def_cfa_offset 0
  78              	.LVL6:
  79 002a 7047     		bx	lr
  80              		.cfi_endproc
  81              	.LFE1:
  82              		.size	br_range_dec32le, .-br_range_dec32le
  83              		.section	.text.br_range_enc32le,"ax",%progbits
  84              		.align	2
  85              		.thumb
  86              		.thumb_func
  87              		.type	br_range_enc32le, %function
  88              	br_range_enc32le:
  89              	.LFB4:
  44:..\aes256ctr.c **** 
  45:..\aes256ctr.c **** static inline uint32_t br_swap32(uint32_t x)
  46:..\aes256ctr.c **** {
  47:..\aes256ctr.c **** 	x = ((x & (uint32_t)0x00FF00FF) << 8)
  48:..\aes256ctr.c **** 		| ((x >> 8) & (uint32_t)0x00FF00FF);
  49:..\aes256ctr.c **** 	return (x << 16) | (x >> 16);
  50:..\aes256ctr.c **** }
  51:..\aes256ctr.c **** 
  52:..\aes256ctr.c **** static inline void br_enc32le(uint8_t *dst, uint32_t x)
  53:..\aes256ctr.c **** {
  54:..\aes256ctr.c **** 	dst[0] = (uint8_t)x;
  55:..\aes256ctr.c **** 	dst[1] = (uint8_t)(x >> 8);
  56:..\aes256ctr.c **** 	dst[2] = (uint8_t)(x >> 16);
  57:..\aes256ctr.c **** 	dst[3] = (uint8_t)(x >> 24);
  58:..\aes256ctr.c **** }
  59:..\aes256ctr.c **** 
  60:..\aes256ctr.c **** static void br_range_enc32le(uint8_t *dst, const uint32_t *v, size_t num)
  61:..\aes256ctr.c **** {
  90              		.loc 1 61 0
  91              		.cfi_startproc
  92              		@ args = 0, pretend = 0, frame = 0
  93              		@ frame_needed = 0, uses_anonymous_args = 0
  94              		@ link register save eliminated.
  95              	.LVL7:
  96 0000 10B4     		push	{r4}
  97              		.cfi_def_cfa_offset 4
  98              		.cfi_offset 4, -4
  62:..\aes256ctr.c **** 	while (num-- > 0) {
  99              		.loc 1 62 0
 100 0002 0CE0     		b	.L6
 101              	.LVL8:
ARM GAS  C:\Users\bogur\AppData\Local\Temp\cca0k2e0.s 			page 4


 102              	.L7:
  63:..\aes256ctr.c **** 		br_enc32le(dst, *v ++);
 103              		.loc 1 63 0
 104 0004 0B68     		ldr	r3, [r1]
 105              	.LVL9:
 106              	.LBB45:
 107              	.LBB46:
  54:..\aes256ctr.c **** 	dst[1] = (uint8_t)(x >> 8);
 108              		.loc 1 54 0
 109 0006 0370     		strb	r3, [r0]
  55:..\aes256ctr.c **** 	dst[2] = (uint8_t)(x >> 16);
 110              		.loc 1 55 0
 111 0008 C3F30722 		ubfx	r2, r3, #8, #8
 112 000c 4270     		strb	r2, [r0, #1]
  56:..\aes256ctr.c **** 	dst[3] = (uint8_t)(x >> 24);
 113              		.loc 1 56 0
 114 000e C3F30742 		ubfx	r2, r3, #16, #8
 115 0012 8270     		strb	r2, [r0, #2]
  57:..\aes256ctr.c **** }
 116              		.loc 1 57 0
 117 0014 1B0E     		lsrs	r3, r3, #24
 118              	.LVL10:
 119 0016 C370     		strb	r3, [r0, #3]
 120              	.LVL11:
 121              	.LBE46:
 122              	.LBE45:
  64:..\aes256ctr.c **** 		dst += 4;
 123              		.loc 1 64 0
 124 0018 0430     		adds	r0, r0, #4
 125              	.LVL12:
  62:..\aes256ctr.c **** 		br_enc32le(dst, *v ++);
 126              		.loc 1 62 0
 127 001a 2246     		mov	r2, r4
  63:..\aes256ctr.c **** 		dst += 4;
 128              		.loc 1 63 0
 129 001c 0431     		adds	r1, r1, #4
 130              	.LVL13:
 131              	.L6:
  62:..\aes256ctr.c **** 		br_enc32le(dst, *v ++);
 132              		.loc 1 62 0
 133 001e 541E     		subs	r4, r2, #1
 134              	.LVL14:
 135 0020 002A     		cmp	r2, #0
 136 0022 EFD1     		bne	.L7
  65:..\aes256ctr.c **** 	}
  66:..\aes256ctr.c **** }
 137              		.loc 1 66 0
 138 0024 5DF8044B 		ldr	r4, [sp], #4
 139              		.cfi_restore 4
 140              		.cfi_def_cfa_offset 0
 141              	.LVL15:
 142 0028 7047     		bx	lr
 143              		.cfi_endproc
 144              	.LFE4:
 145              		.size	br_range_enc32le, .-br_range_enc32le
 146 002a 00BF     		.section	.text.br_aes_ct64_bitslice_Sbox,"ax",%progbits
 147              		.align	2
ARM GAS  C:\Users\bogur\AppData\Local\Temp\cca0k2e0.s 			page 5


 148              		.thumb
 149              		.thumb_func
 150              		.type	br_aes_ct64_bitslice_Sbox, %function
 151              	br_aes_ct64_bitslice_Sbox:
 152              	.LFB5:
  67:..\aes256ctr.c **** 
  68:..\aes256ctr.c **** static void br_aes_ct64_bitslice_Sbox(uint64_t *q)
  69:..\aes256ctr.c **** {
 153              		.loc 1 69 0
 154              		.cfi_startproc
 155              		@ args = 0, pretend = 0, frame = 216
 156              		@ frame_needed = 0, uses_anonymous_args = 0
 157              	.LVL16:
 158 0000 2DE9F04F 		push	{r4, r5, r6, r7, r8, r9, r10, fp, lr}
 159              		.cfi_def_cfa_offset 36
 160              		.cfi_offset 4, -36
 161              		.cfi_offset 5, -32
 162              		.cfi_offset 6, -28
 163              		.cfi_offset 7, -24
 164              		.cfi_offset 8, -20
 165              		.cfi_offset 9, -16
 166              		.cfi_offset 10, -12
 167              		.cfi_offset 11, -8
 168              		.cfi_offset 14, -4
 169 0004 B7B0     		sub	sp, sp, #220
 170              		.cfi_def_cfa_offset 256
 171 0006 8646     		mov	lr, r0
  70:..\aes256ctr.c **** 	/*
  71:..\aes256ctr.c **** 	 * This S-box implementation is a straightforward translation of
  72:..\aes256ctr.c **** 	 * the circuit described by Boyar and Peralta in "A new
  73:..\aes256ctr.c **** 	 * combinational logic minimization technique with applications
  74:..\aes256ctr.c **** 	 * to cryptology" (https://eprint.iacr.org/2009/191.pdf).
  75:..\aes256ctr.c **** 	 *
  76:..\aes256ctr.c **** 	 * Note that variables x* (input) and s* (output) are numbered
  77:..\aes256ctr.c **** 	 * in "reverse" order (x0 is the high bit, x7 is the low bit).
  78:..\aes256ctr.c **** 	 */
  79:..\aes256ctr.c **** 
  80:..\aes256ctr.c **** 	uint64_t x0, x1, x2, x3, x4, x5, x6, x7;
  81:..\aes256ctr.c **** 	uint64_t y1, y2, y3, y4, y5, y6, y7, y8, y9;
  82:..\aes256ctr.c **** 	uint64_t y10, y11, y12, y13, y14, y15, y16, y17, y18, y19;
  83:..\aes256ctr.c **** 	uint64_t y20, y21;
  84:..\aes256ctr.c **** 	uint64_t z0, z1, z2, z3, z4, z5, z6, z7, z8, z9;
  85:..\aes256ctr.c **** 	uint64_t z10, z11, z12, z13, z14, z15, z16, z17;
  86:..\aes256ctr.c **** 	uint64_t t0, t1, t2, t3, t4, t5, t6, t7, t8, t9;
  87:..\aes256ctr.c **** 	uint64_t t10, t11, t12, t13, t14, t15, t16, t17, t18, t19;
  88:..\aes256ctr.c **** 	uint64_t t20, t21, t22, t23, t24, t25, t26, t27, t28, t29;
  89:..\aes256ctr.c **** 	uint64_t t30, t31, t32, t33, t34, t35, t36, t37, t38, t39;
  90:..\aes256ctr.c **** 	uint64_t t40, t41, t42, t43, t44, t45, t46, t47, t48, t49;
  91:..\aes256ctr.c **** 	uint64_t t50, t51, t52, t53, t54, t55, t56, t57, t58, t59;
  92:..\aes256ctr.c **** 	uint64_t t60, t61, t62, t63, t64, t65, t66, t67;
  93:..\aes256ctr.c **** 	uint64_t s0, s1, s2, s3, s4, s5, s6, s7;
  94:..\aes256ctr.c **** 
  95:..\aes256ctr.c **** 	x0 = q[7];
 172              		.loc 1 95 0
 173 0008 D0E90E34 		ldrd	r3, [r0, #56]
 174 000c CDE90034 		strd	r3, [sp]
 175              	.LVL17:
ARM GAS  C:\Users\bogur\AppData\Local\Temp\cca0k2e0.s 			page 6


  96:..\aes256ctr.c **** 	x1 = q[6];
 176              		.loc 1 96 0
 177 0010 D0E90C23 		ldrd	r2, [r0, #48]
 178              	.LVL18:
  97:..\aes256ctr.c **** 	x2 = q[5];
 179              		.loc 1 97 0
 180 0014 D0E90A45 		ldrd	r4, [r0, #40]
 181              	.LVL19:
  98:..\aes256ctr.c **** 	x3 = q[4];
 182              		.loc 1 98 0
 183 0018 D0E90889 		ldrd	r8, [r0, #32]
 184              	.LVL20:
  99:..\aes256ctr.c **** 	x4 = q[3];
 100:..\aes256ctr.c **** 	x5 = q[2];
 185              		.loc 1 100 0
 186 001c D0E90401 		ldrd	r0, [r0, #16]
 187              	.LVL21:
 188 0020 CDE90601 		strd	r0, [sp, #24]
 189              	.LVL22:
 101:..\aes256ctr.c **** 	x6 = q[1];
 190              		.loc 1 101 0
 191 0024 DEE90201 		ldrd	r0, [lr, #8]
 192              	.LVL23:
 193 0028 CDE90C01 		strd	r0, [sp, #48]
 194              	.LVL24:
 102:..\aes256ctr.c **** 	x7 = q[0];
 103:..\aes256ctr.c **** 
 104:..\aes256ctr.c **** 	/*
 105:..\aes256ctr.c **** 	 * Top linear transformation.
 106:..\aes256ctr.c **** 	 */
 107:..\aes256ctr.c **** 	y14 = x3 ^ x5;
 195              		.loc 1 107 0
 196 002c DDE90601 		ldrd	r0, [sp, #24]
 197              	.LVL25:
 198 0030 80EA0800 		eor	r0, r0, r8
 199 0034 81EA0901 		eor	r1, r1, r9
 200 0038 8246     		mov	r10, r0
 201 003a 8B46     		mov	fp, r1
 202 003c CDE908AB 		strd	r10, [sp, #32]
 203              	.LVL26:
 108:..\aes256ctr.c **** 	y13 = x0 ^ x6;
 204              		.loc 1 108 0
 205 0040 DDE90001 		ldrd	r0, [sp]
 206 0044 DDE90C67 		ldrd	r6, [sp, #48]
 207 0048 4640     		eors	r6, r6, r0
 208 004a 4F40     		eors	r7, r7, r1
 209 004c B346     		mov	fp, r6
 210 004e BC46     		mov	ip, r7
 211 0050 CDE902BC 		strd	fp, [sp, #8]
 212              	.LVL27:
 109:..\aes256ctr.c **** 	y9 = x0 ^ x3;
 213              		.loc 1 109 0
 214 0054 DDE90001 		ldrd	r0, [sp]
 215 0058 80EA0800 		eor	r0, r0, r8
 216 005c 81EA0901 		eor	r1, r1, r9
 217 0060 8246     		mov	r10, r0
 218              	.LVL28:
ARM GAS  C:\Users\bogur\AppData\Local\Temp\cca0k2e0.s 			page 7


 219 0062 8B46     		mov	fp, r1
 220              	.LVL29:
 221 0064 CDE90AAB 		strd	r10, [sp, #40]
 222              	.LVL30:
 110:..\aes256ctr.c **** 	y8 = x0 ^ x5;
 223              		.loc 1 110 0
 224 0068 DDE90001 		ldrd	r0, [sp]
 225 006c DDE90667 		ldrd	r6, [sp, #24]
 226 0070 7040     		eors	r0, r0, r6
 227 0072 7940     		eors	r1, r1, r7
 228 0074 8346     		mov	fp, r0
 229 0076 8C46     		mov	ip, r1
 230              	.LVL31:
 111:..\aes256ctr.c **** 	t0 = x1 ^ x2;
 231              		.loc 1 111 0
 232 0078 CDE90E23 		strd	r2, [sp, #56]
 233 007c 6240     		eors	r2, r2, r4
 234              	.LVL32:
 235 007e 6B40     		eors	r3, r3, r5
 236              	.LVL33:
 237 0080 1046     		mov	r0, r2
 238 0082 1946     		mov	r1, r3
 239              	.LVL34:
 112:..\aes256ctr.c **** 	y1 = t0 ^ x7;
 240              		.loc 1 112 0
 241 0084 DEE90045 		ldrd	r4, [lr]
 242              	.LVL35:
 243 0088 6240     		eors	r2, r2, r4
 244 008a 6B40     		eors	r3, r3, r5
 245 008c 1446     		mov	r4, r2
 246 008e 1D46     		mov	r5, r3
 247              	.LVL36:
 113:..\aes256ctr.c **** 	y4 = y1 ^ x3;
 248              		.loc 1 113 0
 249 0090 CDE90445 		strd	r4, [sp, #16]
 250 0094 82EA0804 		eor	r4, r2, r8
 251              	.LVL37:
 252 0098 83EA0905 		eor	r5, r3, r9
 253 009c CDE91245 		strd	r4, [sp, #72]
 254              	.LVL38:
 114:..\aes256ctr.c **** 	y12 = y13 ^ y14;
 255              		.loc 1 114 0
 256 00a0 DDE9089A 		ldrd	r9, [sp, #32]
 257 00a4 DDE90245 		ldrd	r4, [sp, #8]
 258              	.LVL39:
 259 00a8 89EA0409 		eor	r9, r9, r4
 260 00ac 8AEA050A 		eor	r10, r10, r5
 261              	.LVL40:
 262 00b0 4A46     		mov	r2, r9
 263 00b2 5346     		mov	r3, r10
 264              	.LVL41:
 115:..\aes256ctr.c **** 	y2 = y1 ^ x0;
 265              		.loc 1 115 0
 266 00b4 DDE90445 		ldrd	r4, [sp, #16]
 267 00b8 DDE90067 		ldrd	r6, [sp]
 268 00bc 6640     		eors	r6, r6, r4
 269 00be 6F40     		eors	r7, r7, r5
ARM GAS  C:\Users\bogur\AppData\Local\Temp\cca0k2e0.s 			page 8


 270 00c0 B046     		mov	r8, r6
 271              	.LVL42:
 272 00c2 B946     		mov	r9, r7
 273 00c4 CDE91689 		strd	r8, [sp, #88]
 274              	.LVL43:
 116:..\aes256ctr.c **** 	y5 = y1 ^ x6;
 275              		.loc 1 116 0
 276 00c8 A046     		mov	r8, r4
 277              	.LVL44:
 278 00ca A946     		mov	r9, r5
 279 00cc DDE90C45 		ldrd	r4, [sp, #48]
 280 00d0 84EA0804 		eor	r4, r4, r8
 281 00d4 85EA0905 		eor	r5, r5, r9
 282 00d8 A046     		mov	r8, r4
 283 00da A946     		mov	r9, r5
 284              	.LVL45:
 117:..\aes256ctr.c **** 	y3 = y5 ^ y8;
 285              		.loc 1 117 0
 286 00dc CDE90CBC 		strd	fp, [sp, #48]
 287 00e0 8BEA040B 		eor	fp, fp, r4
 288              	.LVL46:
 289 00e4 8CEA090C 		eor	ip, ip, r9
 290 00e8 CDE918BC 		strd	fp, [sp, #96]
 291              	.LVL47:
 118:..\aes256ctr.c **** 	t1 = x4 ^ y12;
 292              		.loc 1 118 0
 293 00ec DEE906AB 		ldrd	r10, [lr, #24]
 294 00f0 CDE91423 		strd	r2, [sp, #80]
 295 00f4 8AEA020A 		eor	r10, r10, r2
 296 00f8 8BEA030B 		eor	fp, fp, r3
 297              	.LVL48:
 298 00fc 5646     		mov	r6, r10
 299 00fe 5F46     		mov	r7, fp
 300              	.LVL49:
 119:..\aes256ctr.c **** 	y15 = t1 ^ x5;
 301              		.loc 1 119 0
 302 0100 DDE90634 		ldrd	r3, [sp, #24]
 303 0104 7340     		eors	r3, r3, r6
 304 0106 7C40     		eors	r4, r4, r7
 305 0108 2546     		mov	r5, r4
 306 010a 2C46     		mov	r4, r5
 307              	.LVL50:
 120:..\aes256ctr.c **** 	y20 = t1 ^ x1;
 308              		.loc 1 120 0
 309 010c DDE90EAB 		ldrd	r10, [sp, #56]
 310 0110 8AEA060A 		eor	r10, r10, r6
 311 0114 8BEA070B 		eor	fp, fp, r7
 312              	.LVL51:
 121:..\aes256ctr.c **** 	y6 = y15 ^ x7;
 313              		.loc 1 121 0
 314 0118 DEE90067 		ldrd	r6, [lr]
 315              	.LVL52:
 316 011c 5E40     		eors	r6, r6, r3
 317 011e 6F40     		eors	r7, r7, r5
 318 0120 CDE91C67 		strd	r6, [sp, #112]
 319              	.LVL53:
 122:..\aes256ctr.c **** 	y10 = y15 ^ t0;
ARM GAS  C:\Users\bogur\AppData\Local\Temp\cca0k2e0.s 			page 9


 320              		.loc 1 122 0
 321 0124 CDE91A34 		strd	r3, [sp, #104]
 322 0128 1A46     		mov	r2, r3
 323              	.LVL54:
 324 012a 2B46     		mov	r3, r5
 325              	.LVL55:
 326 012c 0446     		mov	r4, r0
 327 012e 0D46     		mov	r5, r1
 328 0130 5440     		eors	r4, r4, r2
 329 0132 5D40     		eors	r5, r5, r3
 330 0134 2B46     		mov	r3, r5
 331 0136 2546     		mov	r5, r4
 332 0138 1E46     		mov	r6, r3
 333              	.LVL56:
 123:..\aes256ctr.c **** 	y11 = y20 ^ y9;
 334              		.loc 1 123 0
 335 013a DDE90A34 		ldrd	r3, [sp, #40]
 336 013e CDE906AB 		strd	r10, [sp, #24]
 337 0142 83EA0A03 		eor	r3, r3, r10
 338 0146 84EA0B04 		eor	r4, r4, fp
 339 014a 1A46     		mov	r2, r3
 340 014c 2346     		mov	r3, r4
 341              	.LVL57:
 124:..\aes256ctr.c **** 	y7 = x7 ^ y11;
 342              		.loc 1 124 0
 343 014e DEE900AB 		ldrd	r10, [lr]
 344              	.LVL58:
 345 0152 8AEA020A 		eor	r10, r10, r2
 346 0156 8BEA040B 		eor	fp, fp, r4
 347 015a CDE922AB 		strd	r10, [sp, #136]
 348              	.LVL59:
 125:..\aes256ctr.c **** 	y17 = y10 ^ y11;
 349              		.loc 1 125 0
 350 015e AB46     		mov	fp, r5
 351 0160 B446     		mov	ip, r6
 352 0162 5540     		eors	r5, r5, r2
 353              	.LVL60:
 354 0164 6640     		eors	r6, r6, r4
 355 0166 CDE92456 		strd	r5, [sp, #144]
 356              	.LVL61:
 126:..\aes256ctr.c **** 	y19 = y10 ^ y8;
 357              		.loc 1 126 0
 358 016a DDE90C45 		ldrd	r4, [sp, #48]
 359 016e CDE91EBC 		strd	fp, [sp, #120]
 360 0172 5E46     		mov	r6, fp
 361 0174 6746     		mov	r7, ip
 362 0176 7440     		eors	r4, r4, r6
 363 0178 7D40     		eors	r5, r5, r7
 364              	.LVL62:
 365 017a CDE90E45 		strd	r4, [sp, #56]
 366              	.LVL63:
 127:..\aes256ctr.c **** 	y16 = t0 ^ y11;
 367              		.loc 1 127 0
 368 017e CDE92023 		strd	r2, [sp, #128]
 369 0182 1E46     		mov	r6, r3
 370 0184 0346     		mov	r3, r0
 371 0186 0C46     		mov	r4, r1
ARM GAS  C:\Users\bogur\AppData\Local\Temp\cca0k2e0.s 			page 10


 372              	.LVL64:
 373 0188 5340     		eors	r3, r3, r2
 374 018a 7440     		eors	r4, r4, r6
 375 018c 1D46     		mov	r5, r3
 376 018e 2746     		mov	r7, r4
 377 0190 1E46     		mov	r6, r3
 378              	.LVL65:
 128:..\aes256ctr.c **** 	y21 = y13 ^ y16;
 379              		.loc 1 128 0
 380 0192 DDE90234 		ldrd	r3, [sp, #8]
 381 0196 6B40     		eors	r3, r3, r5
 382 0198 7C40     		eors	r4, r4, r7
 383 019a CDE91034 		strd	r3, [sp, #64]
 384              	.LVL66:
 129:..\aes256ctr.c **** 	y18 = x0 ^ y16;
 385              		.loc 1 129 0
 386 019e CDE92667 		strd	r6, [sp, #152]
 387 01a2 DDE90034 		ldrd	r3, [sp]
 388              	.LVL67:
 389 01a6 6B40     		eors	r3, r3, r5
 390 01a8 7C40     		eors	r4, r4, r7
 391 01aa 9B46     		mov	fp, r3
 392 01ac A446     		mov	ip, r4
 393 01ae CDE900BC 		strd	fp, [sp]
 394              	.LVL68:
 130:..\aes256ctr.c **** 
 131:..\aes256ctr.c **** 	/*
 132:..\aes256ctr.c **** 	 * Non-linear section.
 133:..\aes256ctr.c **** 	 */
 134:..\aes256ctr.c **** 	t2 = y12 & y15;
 395              		.loc 1 134 0
 396 01b2 DDE91456 		ldrd	r5, [sp, #80]
 397 01b6 DDE91A12 		ldrd	r1, [sp, #104]
 398 01ba 0D40     		ands	r5, r5, r1
 399 01bc 1640     		ands	r6, r6, r2
 400              	.LVL69:
 401 01be 2A46     		mov	r2, r5
 402              	.LVL70:
 403 01c0 3346     		mov	r3, r6
 404              	.LVL71:
 135:..\aes256ctr.c **** 	t3 = y3 & y6;
 405              		.loc 1 135 0
 406 01c2 DDE91801 		ldrd	r0, [sp, #96]
 407              	.LVL72:
 408 01c6 DDE91C56 		ldrd	r5, [sp, #112]
 409 01ca 2840     		ands	r0, r0, r5
 410 01cc 3140     		ands	r1, r1, r6
 136:..\aes256ctr.c **** 	t4 = t3 ^ t2;
 411              		.loc 1 136 0
 412 01ce 5040     		eors	r0, r0, r2
 413 01d0 5940     		eors	r1, r1, r3
 414 01d2 CDE92801 		strd	r0, [sp, #160]
 415              	.LVL73:
 137:..\aes256ctr.c **** 	t5 = y4 & x7;
 416              		.loc 1 137 0
 417 01d6 DEE90045 		ldrd	r4, [lr]
 418 01da DDE91201 		ldrd	r0, [sp, #72]
ARM GAS  C:\Users\bogur\AppData\Local\Temp\cca0k2e0.s 			page 11


 419              	.LVL74:
 420 01de 0440     		ands	r4, r4, r0
 421 01e0 0D40     		ands	r5, r5, r1
 422              	.LVL75:
 138:..\aes256ctr.c **** 	t6 = t5 ^ t2;
 423              		.loc 1 138 0
 424 01e2 82EA0400 		eor	r0, r2, r4
 425 01e6 83EA0501 		eor	r1, r3, r5
 426 01ea CDE92A01 		strd	r0, [sp, #168]
 427              	.LVL76:
 139:..\aes256ctr.c **** 	t7 = y13 & y16;
 428              		.loc 1 139 0
 429 01ee DDE90234 		ldrd	r3, [sp, #8]
 430 01f2 DDE92612 		ldrd	r1, [sp, #152]
 431 01f6 0B40     		ands	r3, r3, r1
 432 01f8 1440     		ands	r4, r4, r2
 433              	.LVL77:
 434 01fa 2546     		mov	r5, r4
 435 01fc 1C46     		mov	r4, r3
 436              	.LVL78:
 140:..\aes256ctr.c **** 	t8 = y5 & y1;
 437              		.loc 1 140 0
 438 01fe DDE90423 		ldrd	r2, [sp, #16]
 439              	.LVL79:
 440 0202 CDE92C89 		strd	r8, [sp, #176]
 441 0206 4646     		mov	r6, r8
 442 0208 4F46     		mov	r7, r9
 443 020a 3240     		ands	r2, r2, r6
 444 020c 3B40     		ands	r3, r3, r7
 445              	.LVL80:
 141:..\aes256ctr.c **** 	t9 = t8 ^ t7;
 446              		.loc 1 141 0
 447 020e 84EA0200 		eor	r0, r4, r2
 448              	.LVL81:
 449 0212 85EA0301 		eor	r1, r5, r3
 450              	.LVL82:
 142:..\aes256ctr.c **** 	t10 = y2 & y7;
 451              		.loc 1 142 0
 452 0216 DDE916AB 		ldrd	r10, [sp, #88]
 453              	.LVL83:
 454 021a DDE92278 		ldrd	r7, [sp, #136]
 455 021e 0AEA070A 		and	r10, r10, r7
 456 0222 0BEA080B 		and	fp, fp, r8
 457              	.LVL84:
 143:..\aes256ctr.c **** 	t11 = t10 ^ t7;
 458              		.loc 1 143 0
 459 0226 8AEA040A 		eor	r10, r10, r4
 460 022a 8BEA050B 		eor	fp, fp, r5
 461              	.LVL85:
 144:..\aes256ctr.c **** 	t12 = y9 & y11;
 462              		.loc 1 144 0
 463 022e DDE90A45 		ldrd	r4, [sp, #40]
 464              	.LVL86:
 465 0232 DDE92078 		ldrd	r7, [sp, #128]
 466 0236 3C40     		ands	r4, r4, r7
 467 0238 05EA0805 		and	r5, r5, r8
 468              	.LVL87:
ARM GAS  C:\Users\bogur\AppData\Local\Temp\cca0k2e0.s 			page 12


 145:..\aes256ctr.c **** 	t13 = y14 & y17;
 469              		.loc 1 145 0
 470 023c DDE90823 		ldrd	r2, [sp, #32]
 471              	.LVL88:
 472 0240 DDE92478 		ldrd	r7, [sp, #144]
 473 0244 3A40     		ands	r2, r2, r7
 474 0246 03EA0803 		and	r3, r3, r8
 475              	.LVL89:
 146:..\aes256ctr.c **** 	t14 = t13 ^ t12;
 476              		.loc 1 146 0
 477 024a 82EA0406 		eor	r6, r2, r4
 478 024e 83EA0507 		eor	r7, r3, r5
 479              	.LVL90:
 147:..\aes256ctr.c **** 	t15 = y8 & y10;
 480              		.loc 1 147 0
 481 0252 DDE90C89 		ldrd	r8, [sp, #48]
 482              	.LVL91:
 483 0256 DDE91E23 		ldrd	r2, [sp, #120]
 484              	.LVL92:
 485 025a 08EA0208 		and	r8, r8, r2
 486 025e 09EA0309 		and	r9, r9, r3
 487              	.LVL93:
 148:..\aes256ctr.c **** 	t16 = t15 ^ t12;
 488              		.loc 1 148 0
 489 0262 88EA0402 		eor	r2, r8, r4
 490 0266 89EA0503 		eor	r3, r9, r5
 491              	.LVL94:
 149:..\aes256ctr.c **** 	t17 = t4 ^ t14;
 492              		.loc 1 149 0
 493 026a DDE92889 		ldrd	r8, [sp, #160]
 494              	.LVL95:
 495 026e CDE92867 		strd	r6, [sp, #160]
 496              	.LVL96:
 497 0272 88EA0608 		eor	r8, r8, r6
 498              	.LVL97:
 499 0276 89EA0709 		eor	r9, r9, r7
 500 027a 4646     		mov	r6, r8
 501              	.LVL98:
 502 027c 4F46     		mov	r7, r9
 503              	.LVL99:
 150:..\aes256ctr.c **** 	t18 = t6 ^ t16;
 504              		.loc 1 150 0
 505 027e DDE92A45 		ldrd	r4, [sp, #168]
 506              	.LVL100:
 507 0282 9046     		mov	r8, r2
 508 0284 9946     		mov	r9, r3
 509 0286 6240     		eors	r2, r2, r4
 510              	.LVL101:
 511 0288 6B40     		eors	r3, r3, r5
 512 028a 1446     		mov	r4, r2
 513 028c 1D46     		mov	r5, r3
 514              	.LVL102:
 151:..\aes256ctr.c **** 	t19 = t9 ^ t14;
 515              		.loc 1 151 0
 516 028e DDE92823 		ldrd	r2, [sp, #160]
 517 0292 4240     		eors	r2, r2, r0
 518 0294 4B40     		eors	r3, r3, r1
ARM GAS  C:\Users\bogur\AppData\Local\Temp\cca0k2e0.s 			page 13


 519              	.LVL103:
 152:..\aes256ctr.c **** 	t20 = t11 ^ t16;
 520              		.loc 1 152 0
 521 0296 88EA0A08 		eor	r8, r8, r10
 522 029a 89EA0B09 		eor	r9, r9, fp
 523              	.LVL104:
 153:..\aes256ctr.c **** 	t21 = t17 ^ y20;
 524              		.loc 1 153 0
 525 029e DDE906AB 		ldrd	r10, [sp, #24]
 526              	.LVL105:
 527 02a2 8AEA060A 		eor	r10, r10, r6
 528 02a6 8BEA070B 		eor	fp, fp, r7
 529 02aa 5046     		mov	r0, r10
 530              	.LVL106:
 531 02ac 5946     		mov	r1, fp
 532              	.LVL107:
 154:..\aes256ctr.c **** 	t22 = t18 ^ y19;
 533              		.loc 1 154 0
 534 02ae DDE90EBC 		ldrd	fp, [sp, #56]
 535 02b2 8BEA040B 		eor	fp, fp, r4
 536 02b6 8CEA050C 		eor	ip, ip, r5
 537 02ba 5C46     		mov	r4, fp
 538              	.LVL108:
 539 02bc 6546     		mov	r5, ip
 540              	.LVL109:
 155:..\aes256ctr.c **** 	t23 = t19 ^ y21;
 541              		.loc 1 155 0
 542 02be DDE910BC 		ldrd	fp, [sp, #64]
 543 02c2 8BEA020B 		eor	fp, fp, r2
 544 02c6 8CEA030C 		eor	ip, ip, r3
 545 02ca 5E46     		mov	r6, fp
 546              	.LVL110:
 547 02cc 6746     		mov	r7, ip
 548              	.LVL111:
 156:..\aes256ctr.c **** 	t24 = t20 ^ y18;
 549              		.loc 1 156 0
 550 02ce DDE900AB 		ldrd	r10, [sp]
 551 02d2 8AEA080A 		eor	r10, r10, r8
 552 02d6 8BEA090B 		eor	fp, fp, r9
 553              	.LVL112:
 157:..\aes256ctr.c **** 
 158:..\aes256ctr.c **** 	t25 = t21 ^ t22;
 554              		.loc 1 158 0
 555 02da CDE90001 		strd	r0, [sp]
 556              	.LVL113:
 557 02de 0246     		mov	r2, r0
 558              	.LVL114:
 559 02e0 0B46     		mov	r3, r1
 560 02e2 6240     		eors	r2, r2, r4
 561 02e4 6B40     		eors	r3, r3, r5
 562 02e6 1146     		mov	r1, r2
 563 02e8 8846     		mov	r8, r1
 564              	.LVL115:
 565 02ea 9946     		mov	r9, r3
 566              	.LVL116:
 159:..\aes256ctr.c **** 	t26 = t21 & t23;
 567              		.loc 1 159 0
ARM GAS  C:\Users\bogur\AppData\Local\Temp\cca0k2e0.s 			page 14


 568 02ec DDE90001 		ldrd	r0, [sp]
 569 02f0 CDE90667 		strd	r6, [sp, #24]
 570              	.LVL117:
 571 02f4 3040     		ands	r0, r0, r6
 572              	.LVL118:
 573 02f6 3940     		ands	r1, r1, r7
 574 02f8 0646     		mov	r6, r0
 575              	.LVL119:
 576 02fa 0F46     		mov	r7, r1
 577              	.LVL120:
 160:..\aes256ctr.c **** 	t27 = t24 ^ t26;
 578              		.loc 1 160 0
 579 02fc 8AEA0000 		eor	r0, r10, r0
 580 0300 8BEA0101 		eor	r1, fp, r1
 581              	.LVL121:
 161:..\aes256ctr.c **** 	t28 = t25 & t27;
 582              		.loc 1 161 0
 583 0304 CDE90E89 		strd	r8, [sp, #56]
 584              	.LVL122:
 585 0308 08EA0008 		and	r8, r8, r0
 586              	.LVL123:
 587 030c 09EA0109 		and	r9, r9, r1
 588              	.LVL124:
 162:..\aes256ctr.c **** 	t29 = t28 ^ t22;
 589              		.loc 1 162 0
 590 0310 84EA0802 		eor	r2, r4, r8
 591 0314 85EA0903 		eor	r3, r5, r9
 592 0318 CDE90023 		strd	r2, [sp]
 593              	.LVL125:
 163:..\aes256ctr.c **** 	t30 = t23 ^ t24;
 594              		.loc 1 163 0
 595 031c DDE90689 		ldrd	r8, [sp, #24]
 596              	.LVL126:
 597 0320 88EA0A08 		eor	r8, r8, r10
 598 0324 89EA0B09 		eor	r9, r9, fp
 599              	.LVL127:
 164:..\aes256ctr.c **** 	t31 = t22 ^ t26;
 600              		.loc 1 164 0
 601 0328 86EA0402 		eor	r2, r6, r4
 602              	.LVL128:
 603 032c 87EA0503 		eor	r3, r7, r5
 604              	.LVL129:
 165:..\aes256ctr.c **** 	t32 = t31 & t30;
 605              		.loc 1 165 0
 606 0330 02EA0806 		and	r6, r2, r8
 607              	.LVL130:
 608 0334 03EA0907 		and	r7, r3, r9
 609              	.LVL131:
 166:..\aes256ctr.c **** 	t33 = t32 ^ t24;
 610              		.loc 1 166 0
 611 0338 86EA0A08 		eor	r8, r6, r10
 612              	.LVL132:
 613 033c 87EA0B09 		eor	r9, r7, fp
 614 0340 4646     		mov	r6, r8
 615              	.LVL133:
 616 0342 4F46     		mov	r7, r9
 617              	.LVL134:
ARM GAS  C:\Users\bogur\AppData\Local\Temp\cca0k2e0.s 			page 15


 167:..\aes256ctr.c **** 	t34 = t23 ^ t33;
 618              		.loc 1 167 0
 619 0344 DDE90623 		ldrd	r2, [sp, #24]
 620              	.LVL135:
 621 0348 82EA0802 		eor	r2, r2, r8
 622 034c 83EA0903 		eor	r3, r3, r9
 623              	.LVL136:
 168:..\aes256ctr.c **** 	t35 = t27 ^ t33;
 624              		.loc 1 168 0
 625 0350 88EA0008 		eor	r8, r8, r0
 626 0354 89EA0109 		eor	r9, r9, r1
 627              	.LVL137:
 169:..\aes256ctr.c **** 	t36 = t24 & t35;
 628              		.loc 1 169 0
 629 0358 08EA0A04 		and	r4, r8, r10
 630              	.LVL138:
 631 035c 09EA0B05 		and	r5, r9, fp
 632              	.LVL139:
 170:..\aes256ctr.c **** 	t37 = t36 ^ t34;
 633              		.loc 1 170 0
 634 0360 82EA0408 		eor	r8, r2, r4
 635              	.LVL140:
 636 0364 83EA0509 		eor	r9, r3, r5
 637 0368 4246     		mov	r2, r8
 638              	.LVL141:
 639 036a 4B46     		mov	r3, r9
 640              	.LVL142:
 171:..\aes256ctr.c **** 	t38 = t27 ^ t36;
 641              		.loc 1 171 0
 642 036c 84EA0008 		eor	r8, r4, r0
 643 0370 85EA0109 		eor	r9, r5, r1
 644              	.LVL143:
 172:..\aes256ctr.c **** 	t39 = t29 & t38;
 645              		.loc 1 172 0
 646 0374 DDE900BC 		ldrd	fp, [sp]
 647 0378 0BEA0804 		and	r4, fp, r8
 648              	.LVL144:
 649 037c 0CEA0905 		and	r5, ip, r9
 650              	.LVL145:
 173:..\aes256ctr.c **** 	t40 = t25 ^ t39;
 651              		.loc 1 173 0
 652 0380 DDE90E9A 		ldrd	r9, [sp, #56]
 653 0384 89EA0409 		eor	r9, r9, r4
 654 0388 8AEA050A 		eor	r10, r10, r5
 655              	.LVL146:
 656 038c 4C46     		mov	r4, r9
 657              	.LVL147:
 658 038e 5546     		mov	r5, r10
 659              	.LVL148:
 174:..\aes256ctr.c **** 
 175:..\aes256ctr.c **** 	t41 = t40 ^ t37;
 660              		.loc 1 175 0
 661 0390 CDE90E23 		strd	r2, [sp, #56]
 662              	.LVL149:
 663 0394 82EA0408 		eor	r8, r2, r4
 664              	.LVL150:
 665 0398 83EA0A09 		eor	r9, r3, r10
ARM GAS  C:\Users\bogur\AppData\Local\Temp\cca0k2e0.s 			page 16


 666              	.LVL151:
 176:..\aes256ctr.c **** 	t42 = t29 ^ t33;
 667              		.loc 1 176 0
 668 039c 5846     		mov	r0, fp
 669              	.LVL152:
 670 039e 6146     		mov	r1, ip
 671 03a0 CDE90667 		strd	r6, [sp, #24]
 672              	.LVL153:
 673 03a4 4640     		eors	r6, r6, r0
 674              	.LVL154:
 675 03a6 4F40     		eors	r7, r7, r1
 676 03a8 3046     		mov	r0, r6
 677 03aa 3946     		mov	r1, r7
 678 03ac CDE91001 		strd	r0, [sp, #64]
 679              	.LVL155:
 177:..\aes256ctr.c **** 	t43 = t29 ^ t40;
 680              		.loc 1 177 0
 681 03b0 5A46     		mov	r2, fp
 682              	.LVL156:
 683 03b2 6346     		mov	r3, ip
 684 03b4 6240     		eors	r2, r2, r4
 685 03b6 6B40     		eors	r3, r3, r5
 686 03b8 CDE92823 		strd	r2, [sp, #160]
 687              	.LVL157:
 178:..\aes256ctr.c **** 	t44 = t33 ^ t37;
 688              		.loc 1 178 0
 689 03bc DDE90623 		ldrd	r2, [sp, #24]
 690              	.LVL158:
 691 03c0 DDE90EAB 		ldrd	r10, [sp, #56]
 692 03c4 82EA0A00 		eor	r0, r2, r10
 693              	.LVL159:
 694 03c8 83EA0B01 		eor	r1, r3, fp
 695 03cc 8346     		mov	fp, r0
 696 03ce 8C46     		mov	ip, r1
 697              	.LVL160:
 179:..\aes256ctr.c **** 	t45 = t42 ^ t41;
 698              		.loc 1 179 0
 699 03d0 DDE91001 		ldrd	r0, [sp, #64]
 700 03d4 80EA0800 		eor	r0, r0, r8
 701 03d8 81EA0901 		eor	r1, r1, r9
 702 03dc 0646     		mov	r6, r0
 703 03de 0F46     		mov	r7, r1
 704 03e0 CDE92A67 		strd	r6, [sp, #168]
 705              	.LVL161:
 180:..\aes256ctr.c **** 	z0 = t44 & y15;
 706              		.loc 1 180 0
 707 03e4 DDE91A67 		ldrd	r6, [sp, #104]
 708              	.LVL162:
 709 03e8 CDE92EBC 		strd	fp, [sp, #184]
 710 03ec 06EA0B06 		and	r6, r6, fp
 711 03f0 07EA0C07 		and	r7, r7, ip
 712 03f4 CDE93067 		strd	r6, [sp, #192]
 713              	.LVL163:
 181:..\aes256ctr.c **** 	z1 = t37 & y6;
 714              		.loc 1 181 0
 715 03f8 DDE91C67 		ldrd	r6, [sp, #112]
 716              	.LVL164:
ARM GAS  C:\Users\bogur\AppData\Local\Temp\cca0k2e0.s 			page 17


 717 03fc DDE90EAB 		ldrd	r10, [sp, #56]
 718 0400 0AEA060A 		and	r10, r10, r6
 719 0404 0BEA070B 		and	fp, fp, r7
 720              	.LVL165:
 721 0408 5646     		mov	r6, r10
 722 040a 5F46     		mov	r7, fp
 723 040c CDE93267 		strd	r6, [sp, #200]
 724              	.LVL166:
 182:..\aes256ctr.c **** 	z2 = t33 & x7;
 725              		.loc 1 182 0
 726 0410 DEE90067 		ldrd	r6, [lr]
 727              	.LVL167:
 728 0414 1146     		mov	r1, r2
 729 0416 1A46     		mov	r2, r3
 730 0418 3140     		ands	r1, r1, r6
 731 041a 3A40     		ands	r2, r2, r7
 732 041c 0E46     		mov	r6, r1
 733 041e 1746     		mov	r7, r2
 734 0420 CDE93467 		strd	r6, [sp, #208]
 735              	.LVL168:
 183:..\aes256ctr.c **** 	z3 = t43 & y16;
 736              		.loc 1 183 0
 737 0424 DDE92667 		ldrd	r6, [sp, #152]
 738              	.LVL169:
 739 0428 DDE92823 		ldrd	r2, [sp, #160]
 740 042c 3240     		ands	r2, r2, r6
 741 042e 3B40     		ands	r3, r3, r7
 742 0430 1646     		mov	r6, r2
 743 0432 1F46     		mov	r7, r3
 744 0434 CDE91A67 		strd	r6, [sp, #104]
 745              	.LVL170:
 184:..\aes256ctr.c **** 	z4 = t40 & y1;
 746              		.loc 1 184 0
 747 0438 DDE90467 		ldrd	r6, [sp, #16]
 748              	.LVL171:
 749 043c 2640     		ands	r6, r6, r4
 750 043e 2F40     		ands	r7, r7, r5
 751 0440 CDE90467 		strd	r6, [sp, #16]
 752              	.LVL172:
 185:..\aes256ctr.c **** 	z5 = t29 & y7;
 753              		.loc 1 185 0
 754 0444 DDE92267 		ldrd	r6, [sp, #136]
 755              	.LVL173:
 756 0448 DDE900BC 		ldrd	fp, [sp]
 757 044c 06EA0B06 		and	r6, r6, fp
 758 0450 07EA0C07 		and	r7, r7, ip
 759 0454 CDE92267 		strd	r6, [sp, #136]
 760              	.LVL174:
 186:..\aes256ctr.c **** 	z6 = t42 & y11;
 761              		.loc 1 186 0
 762 0458 DDE92067 		ldrd	r6, [sp, #128]
 763              	.LVL175:
 764 045c DDE91023 		ldrd	r2, [sp, #64]
 765 0460 3240     		ands	r2, r2, r6
 766 0462 3B40     		ands	r3, r3, r7
 767 0464 1646     		mov	r6, r2
 768 0466 1F46     		mov	r7, r3
ARM GAS  C:\Users\bogur\AppData\Local\Temp\cca0k2e0.s 			page 18


 769 0468 CDE92067 		strd	r6, [sp, #128]
 770              	.LVL176:
 187:..\aes256ctr.c **** 	z7 = t45 & y17;
 771              		.loc 1 187 0
 772 046c DDE92467 		ldrd	r6, [sp, #144]
 773              	.LVL177:
 774 0470 DDE92AAB 		ldrd	r10, [sp, #168]
 775 0474 06EA0A06 		and	r6, r6, r10
 776 0478 07EA0B07 		and	r7, r7, fp
 777 047c CDE91C67 		strd	r6, [sp, #112]
 778              	.LVL178:
 188:..\aes256ctr.c **** 	z8 = t41 & y10;
 779              		.loc 1 188 0
 780 0480 DDE91E67 		ldrd	r6, [sp, #120]
 781              	.LVL179:
 782 0484 06EA0806 		and	r6, r6, r8
 783 0488 07EA0907 		and	r7, r7, r9
 784 048c CDE91E67 		strd	r6, [sp, #120]
 785              	.LVL180:
 189:..\aes256ctr.c **** 	z9 = t44 & y12;
 786              		.loc 1 189 0
 787 0490 DDE91467 		ldrd	r6, [sp, #80]
 788              	.LVL181:
 789 0494 DDE92EAB 		ldrd	r10, [sp, #184]
 790 0498 06EA0A06 		and	r6, r6, r10
 791 049c 07EA0B07 		and	r7, r7, fp
 792 04a0 CDE91467 		strd	r6, [sp, #80]
 793              	.LVL182:
 190:..\aes256ctr.c **** 	z10 = t37 & y3;
 794              		.loc 1 190 0
 795 04a4 DDE91867 		ldrd	r6, [sp, #96]
 796              	.LVL183:
 797 04a8 DDE90E01 		ldrd	r0, [sp, #56]
 798 04ac 3040     		ands	r0, r0, r6
 799 04ae 3940     		ands	r1, r1, r7
 800 04b0 8246     		mov	r10, r0
 801 04b2 8B46     		mov	fp, r1
 802              	.LVL184:
 191:..\aes256ctr.c **** 	z11 = t33 & y4;
 803              		.loc 1 191 0
 804 04b4 DDE91267 		ldrd	r6, [sp, #72]
 805 04b8 DDE90623 		ldrd	r2, [sp, #24]
 806 04bc 3240     		ands	r2, r2, r6
 807 04be 3B40     		ands	r3, r3, r7
 808 04c0 1646     		mov	r6, r2
 809 04c2 1F46     		mov	r7, r3
 810 04c4 CDE90667 		strd	r6, [sp, #24]
 811              	.LVL185:
 192:..\aes256ctr.c **** 	z12 = t43 & y13;
 812              		.loc 1 192 0
 813 04c8 DDE90267 		ldrd	r6, [sp, #8]
 814              	.LVL186:
 815 04cc DDE92823 		ldrd	r2, [sp, #160]
 816 04d0 3240     		ands	r2, r2, r6
 817 04d2 3B40     		ands	r3, r3, r7
 818 04d4 1646     		mov	r6, r2
 819 04d6 1F46     		mov	r7, r3
ARM GAS  C:\Users\bogur\AppData\Local\Temp\cca0k2e0.s 			page 19


 820 04d8 CDE90267 		strd	r6, [sp, #8]
 821              	.LVL187:
 193:..\aes256ctr.c **** 	z13 = t40 & y5;
 822              		.loc 1 193 0
 823 04dc DDE92C67 		ldrd	r6, [sp, #176]
 824              	.LVL188:
 825 04e0 2640     		ands	r6, r6, r4
 826 04e2 2F40     		ands	r7, r7, r5
 827 04e4 3446     		mov	r4, r6
 828              	.LVL189:
 829 04e6 3D46     		mov	r5, r7
 830              	.LVL190:
 194:..\aes256ctr.c **** 	z14 = t29 & y2;
 831              		.loc 1 194 0
 832 04e8 DDE91667 		ldrd	r6, [sp, #88]
 833 04ec DDE90023 		ldrd	r2, [sp]
 834 04f0 1640     		ands	r6, r6, r2
 835 04f2 1F40     		ands	r7, r7, r3
 836 04f4 CDE90E67 		strd	r6, [sp, #56]
 837              	.LVL191:
 195:..\aes256ctr.c **** 	z15 = t42 & y9;
 838              		.loc 1 195 0
 839 04f8 DDE90A67 		ldrd	r6, [sp, #40]
 840              	.LVL192:
 841 04fc DDE91023 		ldrd	r2, [sp, #64]
 842 0500 3240     		ands	r2, r2, r6
 843 0502 3B40     		ands	r3, r3, r7
 844 0504 1046     		mov	r0, r2
 845 0506 1946     		mov	r1, r3
 846              	.LVL193:
 196:..\aes256ctr.c **** 	z16 = t45 & y14;
 847              		.loc 1 196 0
 848 0508 DDE90823 		ldrd	r2, [sp, #32]
 849 050c DDE92A67 		ldrd	r6, [sp, #168]
 850 0510 3240     		ands	r2, r2, r6
 851 0512 3B40     		ands	r3, r3, r7
 852 0514 1646     		mov	r6, r2
 853 0516 1F46     		mov	r7, r3
 854              	.LVL194:
 197:..\aes256ctr.c **** 	z17 = t41 & y8;
 855              		.loc 1 197 0
 856 0518 DDE90C23 		ldrd	r2, [sp, #48]
 857 051c 02EA0802 		and	r2, r2, r8
 858 0520 03EA0903 		and	r3, r3, r9
 859              	.LVL195:
 198:..\aes256ctr.c **** 
 199:..\aes256ctr.c **** 	/*
 200:..\aes256ctr.c **** 	 * Bottom linear transformation.
 201:..\aes256ctr.c **** 	 */
 202:..\aes256ctr.c **** 	t46 = z15 ^ z16;
 860              		.loc 1 202 0
 861 0524 80EA0608 		eor	r8, r0, r6
 862              	.LVL196:
 863 0528 81EA0709 		eor	r9, r1, r7
 864 052c CDE90089 		strd	r8, [sp]
 865              	.LVL197:
 203:..\aes256ctr.c **** 	t47 = z10 ^ z11;
ARM GAS  C:\Users\bogur\AppData\Local\Temp\cca0k2e0.s 			page 20


 866              		.loc 1 203 0
 867 0530 DDE90601 		ldrd	r0, [sp, #24]
 868              	.LVL198:
 869 0534 80EA0A00 		eor	r0, r0, r10
 870 0538 81EA0B01 		eor	r1, r1, fp
 871 053c CDE90A01 		strd	r0, [sp, #40]
 872              	.LVL199:
 204:..\aes256ctr.c **** 	t48 = z5 ^ z13;
 873              		.loc 1 204 0
 874 0540 DDE92201 		ldrd	r0, [sp, #136]
 875              	.LVL200:
 876 0544 80EA0408 		eor	r8, r0, r4
 877              	.LVL201:
 878 0548 81EA0509 		eor	r9, r1, r5
 879 054c CDE90689 		strd	r8, [sp, #24]
 880              	.LVL202:
 205:..\aes256ctr.c **** 	t49 = z9 ^ z10;
 881              		.loc 1 205 0
 882 0550 DDE91489 		ldrd	r8, [sp, #80]
 883              	.LVL203:
 884 0554 88EA0A08 		eor	r8, r8, r10
 885 0558 89EA0B09 		eor	r9, r9, fp
 886 055c CDE90C89 		strd	r8, [sp, #48]
 887              	.LVL204:
 206:..\aes256ctr.c **** 	t50 = z2 ^ z12;
 888              		.loc 1 206 0
 889 0560 DDE934BC 		ldrd	fp, [sp, #208]
 890 0564 DDE90245 		ldrd	r4, [sp, #8]
 891              	.LVL205:
 892 0568 84EA0B04 		eor	r4, r4, fp
 893 056c 85EA0C05 		eor	r5, r5, ip
 894 0570 A046     		mov	r8, r4
 895              	.LVL206:
 896 0572 A946     		mov	r9, r5
 897              	.LVL207:
 207:..\aes256ctr.c **** 	t51 = z2 ^ z5;
 898              		.loc 1 207 0
 899 0574 5C46     		mov	r4, fp
 900 0576 6546     		mov	r5, ip
 901 0578 4440     		eors	r4, r4, r0
 902 057a 4D40     		eors	r5, r5, r1
 903 057c CDE91045 		strd	r4, [sp, #64]
 904              	.LVL208:
 208:..\aes256ctr.c **** 	t52 = z7 ^ z8;
 905              		.loc 1 208 0
 906 0580 DDE91CAB 		ldrd	r10, [sp, #112]
 907              	.LVL209:
 908 0584 DDE91E01 		ldrd	r0, [sp, #120]
 909 0588 8AEA000A 		eor	r10, r10, r0
 910 058c 8BEA010B 		eor	fp, fp, r1
 911              	.LVL210:
 209:..\aes256ctr.c **** 	t53 = z0 ^ z3;
 912              		.loc 1 209 0
 913 0590 DDE93001 		ldrd	r0, [sp, #192]
 914 0594 DDE91A45 		ldrd	r4, [sp, #104]
 915              	.LVL211:
 916 0598 6040     		eors	r0, r0, r4
ARM GAS  C:\Users\bogur\AppData\Local\Temp\cca0k2e0.s 			page 21


 917 059a 6940     		eors	r1, r1, r5
 918 059c CDE90801 		strd	r0, [sp, #32]
 919              	.LVL212:
 210:..\aes256ctr.c **** 	t54 = z6 ^ z7;
 920              		.loc 1 210 0
 921 05a0 DDE92045 		ldrd	r4, [sp, #128]
 922 05a4 DDE91C01 		ldrd	r0, [sp, #112]
 923              	.LVL213:
 924 05a8 4440     		eors	r4, r4, r0
 925 05aa 4D40     		eors	r5, r5, r1
 926              	.LVL214:
 211:..\aes256ctr.c **** 	t55 = z16 ^ z17;
 927              		.loc 1 211 0
 928 05ac 7240     		eors	r2, r2, r6
 929              	.LVL215:
 930 05ae 7B40     		eors	r3, r3, r7
 931 05b0 CDE91223 		strd	r2, [sp, #72]
 932              	.LVL216:
 212:..\aes256ctr.c **** 	t56 = z12 ^ t48;
 933              		.loc 1 212 0
 934 05b4 DDE90612 		ldrd	r1, [sp, #24]
 935 05b8 DDE90267 		ldrd	r6, [sp, #8]
 936              	.LVL217:
 937 05bc 4E40     		eors	r6, r6, r1
 938 05be 5740     		eors	r7, r7, r2
 939 05c0 3146     		mov	r1, r6
 940 05c2 3A46     		mov	r2, r7
 941              	.LVL218:
 942 05c4 CDE90212 		strd	r1, [sp, #8]
 943              	.LVL219:
 213:..\aes256ctr.c **** 	t57 = t50 ^ t53;
 944              		.loc 1 213 0
 945 05c8 DDE90823 		ldrd	r2, [sp, #32]
 946 05cc 82EA0802 		eor	r2, r2, r8
 947 05d0 83EA0903 		eor	r3, r3, r9
 948 05d4 9046     		mov	r8, r2
 949              	.LVL220:
 950 05d6 9946     		mov	r9, r3
 951              	.LVL221:
 214:..\aes256ctr.c **** 	t58 = z4 ^ t46;
 952              		.loc 1 214 0
 953 05d8 DDE90412 		ldrd	r1, [sp, #16]
 954              	.LVL222:
 955 05dc DDE90067 		ldrd	r6, [sp]
 956 05e0 4E40     		eors	r6, r6, r1
 957 05e2 5740     		eors	r7, r7, r2
 958              	.LVL223:
 215:..\aes256ctr.c **** 	t59 = z3 ^ t54;
 959              		.loc 1 215 0
 960 05e4 DDE91A12 		ldrd	r1, [sp, #104]
 961 05e8 6140     		eors	r1, r1, r4
 962 05ea 6A40     		eors	r2, r2, r5
 963 05ec 0C46     		mov	r4, r1
 964              	.LVL224:
 965 05ee 1546     		mov	r5, r2
 966              	.LVL225:
 216:..\aes256ctr.c **** 	t60 = t46 ^ t57;
ARM GAS  C:\Users\bogur\AppData\Local\Temp\cca0k2e0.s 			page 22


 967              		.loc 1 216 0
 968 05f0 DDE90001 		ldrd	r0, [sp]
 969 05f4 80EA0800 		eor	r0, r0, r8
 970 05f8 5940     		eors	r1, r1, r3
 971              	.LVL226:
 217:..\aes256ctr.c **** 	t61 = z14 ^ t57;
 972              		.loc 1 217 0
 973 05fa DDE90E23 		ldrd	r2, [sp, #56]
 974 05fe 82EA0802 		eor	r2, r2, r8
 975 0602 83EA0903 		eor	r3, r3, r9
 976 0606 9046     		mov	r8, r2
 977              	.LVL227:
 978 0608 9946     		mov	r9, r3
 979              	.LVL228:
 218:..\aes256ctr.c **** 	t62 = t52 ^ t58;
 980              		.loc 1 218 0
 981 060a 8AEA0602 		eor	r2, r10, r6
 982 060e 8BEA0703 		eor	r3, fp, r7
 983 0612 CDE90023 		strd	r2, [sp]
 984              	.LVL229:
 219:..\aes256ctr.c **** 	t63 = t49 ^ t58;
 985              		.loc 1 219 0
 986 0616 DDE90CAB 		ldrd	r10, [sp, #48]
 987              	.LVL230:
 988 061a 8AEA060A 		eor	r10, r10, r6
 989 061e 8BEA070B 		eor	fp, fp, r7
 990 0622 5646     		mov	r6, r10
 991              	.LVL231:
 992 0624 5F46     		mov	r7, fp
 993              	.LVL232:
 220:..\aes256ctr.c **** 	t64 = z4 ^ t59;
 994              		.loc 1 220 0
 995 0626 DDE90423 		ldrd	r2, [sp, #16]
 996              	.LVL233:
 997 062a 6240     		eors	r2, r2, r4
 998 062c 6B40     		eors	r3, r3, r5
 999 062e CDE90423 		strd	r2, [sp, #16]
 1000              	.LVL234:
 221:..\aes256ctr.c **** 	t65 = t61 ^ t62;
 1001              		.loc 1 221 0
 1002 0632 DDE90023 		ldrd	r2, [sp]
 1003              	.LVL235:
 1004 0636 82EA080A 		eor	r10, r2, r8
 1005 063a 83EA090B 		eor	fp, r3, r9
 1006 063e CDE900AB 		strd	r10, [sp]
 1007              	.LVL236:
 222:..\aes256ctr.c **** 	t66 = z1 ^ t63;
 1008              		.loc 1 222 0
 1009 0642 DDE932AB 		ldrd	r10, [sp, #200]
 1010              	.LVL237:
 1011 0646 8AEA060A 		eor	r10, r10, r6
 1012 064a 8BEA070B 		eor	fp, fp, r7
 1013              	.LVL238:
 223:..\aes256ctr.c **** 	s0 = t59 ^ t63;
 1014              		.loc 1 223 0
 1015 064e 84EA0608 		eor	r8, r4, r6
 1016              	.LVL239:
ARM GAS  C:\Users\bogur\AppData\Local\Temp\cca0k2e0.s 			page 23


 1017 0652 85EA0709 		eor	r9, r5, r7
 1018 0656 CEE90E89 		strd	r8, [lr, #56]
 1019              	.LVL240:
 224:..\aes256ctr.c **** 	s6 = t56 ^ ~t62;
 1020              		.loc 1 224 0
 1021 065a D243     		mvns	r2, r2
 1022              	.LVL241:
 1023 065c DB43     		mvns	r3, r3
 1024 065e DDE90245 		ldrd	r4, [sp, #8]
 1025              	.LVL242:
 1026 0662 5440     		eors	r4, r4, r2
 1027 0664 5D40     		eors	r5, r5, r3
 1028 0666 CEE90245 		strd	r4, [lr, #8]
 1029              	.LVL243:
 225:..\aes256ctr.c **** 	s7 = t48 ^ ~t60;
 1030              		.loc 1 225 0
 1031 066a C243     		mvns	r2, r0
 1032 066c CB43     		mvns	r3, r1
 1033 066e DDE90645 		ldrd	r4, [sp, #24]
 1034              	.LVL244:
 1035 0672 5440     		eors	r4, r4, r2
 1036 0674 5D40     		eors	r5, r5, r3
 1037 0676 CDE90245 		strd	r4, [sp, #8]
 1038              	.LVL245:
 226:..\aes256ctr.c **** 	t67 = t64 ^ t65;
 1039              		.loc 1 226 0
 1040 067a DDE90401 		ldrd	r0, [sp, #16]
 1041              	.LVL246:
 1042 067e DDE90045 		ldrd	r4, [sp]
 1043              	.LVL247:
 1044 0682 4440     		eors	r4, r4, r0
 1045 0684 4D40     		eors	r5, r5, r1
 1046 0686 2246     		mov	r2, r4
 1047 0688 2B46     		mov	r3, r5
 1048 068a CDE90423 		strd	r2, [sp, #16]
 1049              	.LVL248:
 227:..\aes256ctr.c **** 	s3 = t53 ^ t66;
 1050              		.loc 1 227 0
 1051 068e DDE90867 		ldrd	r6, [sp, #32]
 1052              	.LVL249:
 1053 0692 86EA0A06 		eor	r6, r6, r10
 1054 0696 87EA0B07 		eor	r7, r7, fp
 1055              	.LVL250:
 228:..\aes256ctr.c **** 	s4 = t51 ^ t66;
 1056              		.loc 1 228 0
 1057 069a DDE91045 		ldrd	r4, [sp, #64]
 1058 069e 84EA0A04 		eor	r4, r4, r10
 1059 06a2 85EA0B05 		eor	r5, r5, fp
 1060 06a6 A246     		mov	r10, r4
 1061              	.LVL251:
 1062 06a8 AB46     		mov	fp, r5
 1063              	.LVL252:
 229:..\aes256ctr.c **** 	s5 = t47 ^ t65;
 1064              		.loc 1 229 0
 1065 06aa DDE90A89 		ldrd	r8, [sp, #40]
 1066              	.LVL253:
 1067 06ae DDE90034 		ldrd	r3, [sp]
ARM GAS  C:\Users\bogur\AppData\Local\Temp\cca0k2e0.s 			page 24


 1068 06b2 83EA0803 		eor	r3, r3, r8
 1069 06b6 84EA0904 		eor	r4, r4, r9
 1070 06ba 9846     		mov	r8, r3
 1071 06bc A146     		mov	r9, r4
 1072              	.LVL254:
 230:..\aes256ctr.c **** 	s1 = t64 ^ ~s3;
 1073              		.loc 1 230 0
 1074 06be F443     		mvns	r4, r6
 1075 06c0 FD43     		mvns	r5, r7
 1076 06c2 0246     		mov	r2, r0
 1077              	.LVL255:
 1078 06c4 0B46     		mov	r3, r1
 1079 06c6 6240     		eors	r2, r2, r4
 1080 06c8 6B40     		eors	r3, r3, r5
 1081 06ca 1446     		mov	r4, r2
 1082 06cc 1D46     		mov	r5, r3
 1083              	.LVL256:
 231:..\aes256ctr.c **** 	s2 = t55 ^ ~t67;
 1084              		.loc 1 231 0
 1085 06ce DDE90423 		ldrd	r2, [sp, #16]
 1086 06d2 D243     		mvns	r2, r2
 1087 06d4 DB43     		mvns	r3, r3
 1088 06d6 DDE91201 		ldrd	r0, [sp, #72]
 1089              	.LVL257:
 1090 06da 5040     		eors	r0, r0, r2
 1091 06dc 5940     		eors	r1, r1, r3
 1092 06de 0246     		mov	r2, r0
 1093 06e0 0B46     		mov	r3, r1
 1094              	.LVL258:
 232:..\aes256ctr.c **** 
 233:..\aes256ctr.c **** 	q[7] = s0;
 234:..\aes256ctr.c **** 	q[6] = s1;
 1095              		.loc 1 234 0
 1096 06e2 CEE90C45 		strd	r4, [lr, #48]
 1097              	.LVL259:
 235:..\aes256ctr.c **** 	q[5] = s2;
 1098              		.loc 1 235 0
 1099 06e6 CEE90A23 		strd	r2, [lr, #40]
 1100              	.LVL260:
 236:..\aes256ctr.c **** 	q[4] = s3;
 1101              		.loc 1 236 0
 1102 06ea CEE90867 		strd	r6, [lr, #32]
 1103              	.LVL261:
 237:..\aes256ctr.c **** 	q[3] = s4;
 1104              		.loc 1 237 0
 1105 06ee CEE906AB 		strd	r10, [lr, #24]
 1106              	.LVL262:
 238:..\aes256ctr.c **** 	q[2] = s5;
 1107              		.loc 1 238 0
 1108 06f2 CEE90489 		strd	r8, [lr, #16]
 1109              	.LVL263:
 239:..\aes256ctr.c **** 	q[1] = s6;
 240:..\aes256ctr.c **** 	q[0] = s7;
 1110              		.loc 1 240 0
 1111 06f6 DDE90234 		ldrd	r3, [sp, #8]
 1112 06fa CEE90034 		strd	r3, [lr]
 1113              	.LVL264:
ARM GAS  C:\Users\bogur\AppData\Local\Temp\cca0k2e0.s 			page 25


 241:..\aes256ctr.c **** }
 1114              		.loc 1 241 0
 1115 06fe 37B0     		add	sp, sp, #220
 1116              		.cfi_def_cfa_offset 36
 1117              	.LVL265:
 1118              		@ sp needed
 1119 0700 BDE8F08F 		pop	{r4, r5, r6, r7, r8, r9, r10, fp, pc}
 1120              		.cfi_endproc
 1121              	.LFE5:
 1122              		.size	br_aes_ct64_bitslice_Sbox, .-br_aes_ct64_bitslice_Sbox
 1123              		.section	.text.br_aes_ct64_ortho,"ax",%progbits
 1124              		.align	2
 1125              		.thumb
 1126              		.thumb_func
 1127              		.type	br_aes_ct64_ortho, %function
 1128              	br_aes_ct64_ortho:
 1129              	.LFB6:
 242:..\aes256ctr.c **** 
 243:..\aes256ctr.c **** static void br_aes_ct64_ortho(uint64_t *q)
 244:..\aes256ctr.c **** {
 1130              		.loc 1 244 0
 1131              		.cfi_startproc
 1132              		@ args = 0, pretend = 0, frame = 72
 1133              		@ frame_needed = 0, uses_anonymous_args = 0
 1134              	.LVL266:
 1135 0000 2DE9F04F 		push	{r4, r5, r6, r7, r8, r9, r10, fp, lr}
 1136              		.cfi_def_cfa_offset 36
 1137              		.cfi_offset 4, -36
 1138              		.cfi_offset 5, -32
 1139              		.cfi_offset 6, -28
 1140              		.cfi_offset 7, -24
 1141              		.cfi_offset 8, -20
 1142              		.cfi_offset 9, -16
 1143              		.cfi_offset 10, -12
 1144              		.cfi_offset 11, -8
 1145              		.cfi_offset 14, -4
 1146 0004 93B0     		sub	sp, sp, #76
 1147              		.cfi_def_cfa_offset 112
 1148 0006 8646     		mov	lr, r0
 1149              	.LBB47:
 245:..\aes256ctr.c **** #define SWAPN(cl, ch, s, x, y)   do { \
 246:..\aes256ctr.c **** 		uint64_t a, b; \
 247:..\aes256ctr.c **** 		a = (x); \
 248:..\aes256ctr.c **** 		b = (y); \
 249:..\aes256ctr.c **** 		(x) = (a & (uint64_t)cl) | ((b & (uint64_t)cl) << (s)); \
 250:..\aes256ctr.c **** 		(y) = ((a & (uint64_t)ch) >> (s)) | (b & (uint64_t)ch); \
 251:..\aes256ctr.c **** 	} while (0)
 252:..\aes256ctr.c **** 
 253:..\aes256ctr.c **** #define SWAP2(x, y)    SWAPN(0x5555555555555555, 0xAAAAAAAAAAAAAAAA,  1, x, y)
 254:..\aes256ctr.c **** #define SWAP4(x, y)    SWAPN(0x3333333333333333, 0xCCCCCCCCCCCCCCCC,  2, x, y)
 255:..\aes256ctr.c **** #define SWAP8(x, y)    SWAPN(0x0F0F0F0F0F0F0F0F, 0xF0F0F0F0F0F0F0F0,  4, x, y)
 256:..\aes256ctr.c **** 
 257:..\aes256ctr.c **** 	SWAP2(q[0], q[1]);
 1150              		.loc 1 257 0
 1151 0008 D0E90045 		ldrd	r4, [r0]
 1152              	.LVL267:
 1153 000c D0E90289 		ldrd	r8, [r0, #8]
ARM GAS  C:\Users\bogur\AppData\Local\Temp\cca0k2e0.s 			page 26


 1154              	.LVL268:
 1155 0010 04F05536 		and	r6, r4, #1431655765
 1156 0014 05F05537 		and	r7, r5, #1431655765
 1157 0018 18EB0800 		adds	r0, r8, r8
 1158              	.LVL269:
 1159 001c 49EB0901 		adc	r1, r9, r9
 1160 0020 00F0AA32 		and	r2, r0, #-1431655766
 1161 0024 01F0AA33 		and	r3, r1, #-1431655766
 1162 0028 42EA0600 		orr	r0, r2, r6
 1163 002c 43EA0701 		orr	r1, r3, r7
 1164 0030 6B08     		movs	r3, r5, lsr #1
 1165 0032 4FEA3402 		mov	r2, r4, rrx
 1166 0036 02F05536 		and	r6, r2, #1431655765
 1167 003a 03F05537 		and	r7, r3, #1431655765
 1168 003e 08F0AA34 		and	r4, r8, #-1431655766
 1169              	.LVL270:
 1170 0042 09F0AA35 		and	r5, r9, #-1431655766
 1171 0046 46EA0402 		orr	r2, r6, r4
 1172 004a 47EA0503 		orr	r3, r7, r5
 1173 004e CDE90223 		strd	r2, [sp, #8]
 1174              	.LBE47:
 1175              	.LBB48:
 258:..\aes256ctr.c **** 	SWAP2(q[2], q[3]);
 1176              		.loc 1 258 0
 1177 0052 DEE90467 		ldrd	r6, [lr, #16]
 1178              	.LVL271:
 1179 0056 DEE906AB 		ldrd	r10, [lr, #24]
 1180              	.LVL272:
 1181 005a 06F05538 		and	r8, r6, #1431655765
 1182              	.LVL273:
 1183 005e 07F05539 		and	r9, r7, #1431655765
 1184 0062 1AEB0A04 		adds	r4, r10, r10
 1185 0066 4BEB0B05 		adc	r5, fp, fp
 1186 006a 04F0AA32 		and	r2, r4, #-1431655766
 1187 006e 05F0AA33 		and	r3, r5, #-1431655766
 1188 0072 42EA0804 		orr	r4, r2, r8
 1189 0076 43EA0905 		orr	r5, r3, r9
 1190 007a CDE90445 		strd	r4, [sp, #16]
 1191 007e 7B08     		movs	r3, r7, lsr #1
 1192 0080 4FEA3602 		mov	r2, r6, rrx
 1193 0084 02F05538 		and	r8, r2, #1431655765
 1194 0088 03F05539 		and	r9, r3, #1431655765
 1195 008c 0AF0AA36 		and	r6, r10, #-1431655766
 1196              	.LVL274:
 1197 0090 0BF0AA37 		and	r7, fp, #-1431655766
 1198 0094 48EA0603 		orr	r3, r8, r6
 1199 0098 49EA0704 		orr	r4, r9, r7
 1200 009c CDE90634 		strd	r3, [sp, #24]
 1201              	.LBE48:
 1202              	.LBB49:
 259:..\aes256ctr.c **** 	SWAP2(q[4], q[5]);
 1203              		.loc 1 259 0
 1204 00a0 DEE90834 		ldrd	r3, [lr, #32]
 1205              	.LVL275:
 1206 00a4 DEE90A67 		ldrd	r6, [lr, #40]
 1207 00a8 B246     		mov	r10, r6
 1208              	.LVL276:
ARM GAS  C:\Users\bogur\AppData\Local\Temp\cca0k2e0.s 			page 27


 1209 00aa BB46     		mov	fp, r7
 1210              	.LVL277:
 1211 00ac 03F05538 		and	r8, r3, #1431655765
 1212 00b0 04F05539 		and	r9, r4, #1431655765
 1213 00b4 CDE900AB 		strd	r10, [sp]
 1214 00b8 B619     		adds	r6, r6, r6
 1215 00ba 7F41     		adcs	r7, r7, r7
 1216 00bc 06F0AA3A 		and	r10, r6, #-1431655766
 1217              	.LVL278:
 1218 00c0 07F0AA3B 		and	fp, r7, #-1431655766
 1219 00c4 48EA0A05 		orr	r5, r8, r10
 1220 00c8 49EA0B06 		orr	r6, r9, fp
 1221 00cc CDE90856 		strd	r5, [sp, #32]
 1222 00d0 5FEA540B 		movs	fp, r4, lsr #1
 1223 00d4 4FEA330A 		mov	r10, r3, rrx
 1224 00d8 0AF05535 		and	r5, r10, #1431655765
 1225 00dc 0BF05536 		and	r6, fp, #1431655765
 1226 00e0 DDE90023 		ldrd	r2, [sp]
 1227 00e4 02F0AA32 		and	r2, r2, #-1431655766
 1228 00e8 03F0AA33 		and	r3, r3, #-1431655766
 1229              	.LVL279:
 1230 00ec 45EA0207 		orr	r7, r5, r2
 1231 00f0 46EA0308 		orr	r8, r6, r3
 1232 00f4 CDE90A78 		strd	r7, [sp, #40]
 1233              	.LVL280:
 1234              	.LBE49:
 1235              	.LBB50:
 260:..\aes256ctr.c **** 	SWAP2(q[6], q[7]);
 1236              		.loc 1 260 0
 1237 00f8 DEE90EAB 		ldrd	r10, [lr, #56]
 1238              	.LVL281:
 1239 00fc DEE90C89 		ldrd	r8, [lr, #48]
 1240 0100 08F05538 		and	r8, r8, #1431655765
 1241 0104 09F05539 		and	r9, r9, #1431655765
 1242 0108 4646     		mov	r6, r8
 1243 010a 4F46     		mov	r7, r9
 1244 010c 1AEB0A08 		adds	r8, r10, r10
 1245 0110 4BEB0B09 		adc	r9, fp, fp
 1246 0114 08F0AA32 		and	r2, r8, #-1431655766
 1247 0118 09F0AA33 		and	r3, r9, #-1431655766
 1248 011c 46EA0208 		orr	r8, r6, r2
 1249 0120 47EA0309 		orr	r9, r7, r3
 1250 0124 CDE90089 		strd	r8, [sp]
 1251              	.LVL282:
 1252 0128 DEE90C23 		ldrd	r2, [lr, #48]
 1253 012c 5B08     		movs	r3, r3, lsr #1
 1254 012e 4FEA3202 		mov	r2, r2, rrx
 1255 0132 02F05534 		and	r4, r2, #1431655765
 1256 0136 03F05535 		and	r5, r3, #1431655765
 1257 013a 0AF0AA36 		and	r6, r10, #-1431655766
 1258 013e 0BF0AA37 		and	r7, fp, #-1431655766
 1259 0142 44EA0608 		orr	r8, r4, r6
 1260 0146 45EA0709 		orr	r9, r5, r7
 1261 014a CDE90C89 		strd	r8, [sp, #48]
 1262              	.LVL283:
 1263              	.LBE50:
 1264              	.LBB51:
ARM GAS  C:\Users\bogur\AppData\Local\Temp\cca0k2e0.s 			page 28


 261:..\aes256ctr.c **** 
 262:..\aes256ctr.c **** 	SWAP4(q[0], q[2]);
 1265              		.loc 1 262 0
 1266 014e 00F03336 		and	r6, r0, #858993459
 1267 0152 01F03337 		and	r7, r1, #858993459
 1268 0156 DDE90445 		ldrd	r4, [sp, #16]
 1269 015a 4FEA850A 		lsl	r10, r5, #2
 1270              	.LVL284:
 1271 015e 4AEA947A 		orr	r10, r10, r4, lsr #30
 1272 0162 4FEA8409 		lsl	r9, r4, #2
 1273 0166 09F0CC32 		and	r2, r9, #-858993460
 1274 016a 0AF0CC33 		and	r3, r10, #-858993460
 1275 016e 46EA0209 		orr	r9, r6, r2
 1276 0172 47EA030A 		orr	r10, r7, r3
 1277 0176 CDE9049A 		strd	r9, [sp, #16]
 1278              	.LVL285:
 1279 017a 4FEA900B 		lsr	fp, r0, #2
 1280 017e 4BEA817B 		orr	fp, fp, r1, lsl #30
 1281 0182 4FEA910C 		lsr	ip, r1, #2
 1282 0186 0BF03332 		and	r2, fp, #858993459
 1283 018a 0CF03333 		and	r3, ip, #858993459
 1284 018e 04F0CC34 		and	r4, r4, #-858993460
 1285              	.LVL286:
 1286 0192 05F0CC35 		and	r5, r5, #-858993460
 1287 0196 42EA0400 		orr	r0, r2, r4
 1288              	.LVL287:
 1289 019a 43EA0501 		orr	r1, r3, r5
 1290 019e CDE90E01 		strd	r0, [sp, #56]
 1291              	.LVL288:
 1292              	.LBE51:
 1293              	.LBB52:
 263:..\aes256ctr.c **** 	SWAP4(q[1], q[3]);
 1294              		.loc 1 263 0
 1295 01a2 DDE90201 		ldrd	r0, [sp, #8]
 1296 01a6 00F03334 		and	r4, r0, #858993459
 1297 01aa 01F03335 		and	r5, r1, #858993459
 1298 01ae DDE90667 		ldrd	r6, [sp, #24]
 1299 01b2 4FEA870C 		lsl	ip, r7, #2
 1300 01b6 4CEA967C 		orr	ip, ip, r6, lsr #30
 1301 01ba 4FEA860B 		lsl	fp, r6, #2
 1302 01be 0BF0CC32 		and	r2, fp, #-858993460
 1303 01c2 0CF0CC33 		and	r3, ip, #-858993460
 1304 01c6 44EA020B 		orr	fp, r4, r2
 1305 01ca 45EA030C 		orr	ip, r5, r3
 1306 01ce CDE906BC 		strd	fp, [sp, #24]
 1307              	.LVL289:
 1308 01d2 4FEA9009 		lsr	r9, r0, #2
 1309 01d6 49EA8179 		orr	r9, r9, r1, lsl #30
 1310 01da 4FEA910A 		lsr	r10, r1, #2
 1311 01de 09F03332 		and	r2, r9, #858993459
 1312 01e2 0AF03333 		and	r3, r10, #858993459
 1313 01e6 06F0CC36 		and	r6, r6, #-858993460
 1314              	.LVL290:
 1315 01ea 07F0CC37 		and	r7, r7, #-858993460
 1316 01ee 42EA0609 		orr	r9, r2, r6
 1317 01f2 43EA070A 		orr	r10, r3, r7
 1318 01f6 CDE9109A 		strd	r9, [sp, #64]
ARM GAS  C:\Users\bogur\AppData\Local\Temp\cca0k2e0.s 			page 29


 1319              	.LVL291:
 1320              	.LBE52:
 1321              	.LBB53:
 264:..\aes256ctr.c **** 	SWAP4(q[4], q[6]);
 1322              		.loc 1 264 0
 1323 01fa DDE90801 		ldrd	r0, [sp, #32]
 1324 01fe 00F03334 		and	r4, r0, #858993459
 1325 0202 01F03335 		and	r5, r1, #858993459
 1326 0206 DDE90089 		ldrd	r8, [sp]
 1327 020a 4E46     		mov	r6, r9
 1328 020c B300     		lsls	r3, r6, #2
 1329 020e 4646     		mov	r6, r8
 1330 0210 43EA9873 		orr	r3, r3, r8, lsr #30
 1331 0214 B200     		lsls	r2, r6, #2
 1332 0216 02F0CC3A 		and	r10, r2, #-858993460
 1333 021a 03F0CC3B 		and	fp, r3, #-858993460
 1334 021e 4AEA0402 		orr	r2, r10, r4
 1335 0222 4BEA0503 		orr	r3, fp, r5
 1336 0226 CDE90223 		strd	r2, [sp, #8]
 1337              	.LVL292:
 1338 022a 8708     		lsrs	r7, r0, #2
 1339 022c 47EA8177 		orr	r7, r7, r1, lsl #30
 1340 0230 4FEA9108 		lsr	r8, r1, #2
 1341 0234 07F03332 		and	r2, r7, #858993459
 1342 0238 08F03333 		and	r3, r8, #858993459
 1343 023c DDE90089 		ldrd	r8, [sp]
 1344 0240 08F0CC38 		and	r8, r8, #-858993460
 1345 0244 09F0CC39 		and	r9, r9, #-858993460
 1346 0248 42EA0800 		orr	r0, r2, r8
 1347 024c 43EA0901 		orr	r1, r3, r9
 1348 0250 CDE90001 		strd	r0, [sp]
 1349              	.LVL293:
 1350              	.LBE53:
 1351              	.LBB54:
 265:..\aes256ctr.c **** 	SWAP4(q[5], q[7]);
 1352              		.loc 1 265 0
 1353 0254 DDE90A89 		ldrd	r8, [sp, #40]
 1354 0258 08F03336 		and	r6, r8, #858993459
 1355 025c 09F03337 		and	r7, r9, #858993459
 1356 0260 DDE90CAB 		ldrd	r10, [sp, #48]
 1357 0264 5946     		mov	r1, fp
 1358 0266 8B00     		lsls	r3, r1, #2
 1359 0268 5146     		mov	r1, r10
 1360 026a 43EA9A73 		orr	r3, r3, r10, lsr #30
 1361 026e 8A00     		lsls	r2, r1, #2
 1362 0270 02F0CC34 		and	r4, r2, #-858993460
 1363 0274 03F0CC35 		and	r5, r3, #-858993460
 1364 0278 44EA0600 		orr	r0, r4, r6
 1365 027c 45EA0701 		orr	r1, r5, r7
 1366 0280 4346     		mov	r3, r8
 1367 0282 9C08     		lsrs	r4, r3, #2
 1368 0284 4F46     		mov	r7, r9
 1369 0286 44EA8974 		orr	r4, r4, r9, lsl #30
 1370 028a BD08     		lsrs	r5, r7, #2
 1371 028c 04F03332 		and	r2, r4, #858993459
 1372 0290 05F03333 		and	r3, r5, #858993459
 1373 0294 0AF0CC36 		and	r6, r10, #-858993460
ARM GAS  C:\Users\bogur\AppData\Local\Temp\cca0k2e0.s 			page 30


 1374 0298 0BF0CC37 		and	r7, fp, #-858993460
 1375 029c 42EA0604 		orr	r4, r2, r6
 1376 02a0 43EA0705 		orr	r5, r3, r7
 1377 02a4 CDE90845 		strd	r4, [sp, #32]
 1378              	.LVL294:
 1379              	.LBE54:
 1380              	.LBB55:
 266:..\aes256ctr.c **** 
 267:..\aes256ctr.c **** 	SWAP8(q[0], q[4]);
 1381              		.loc 1 267 0
 1382 02a8 DDE90434 		ldrd	r3, [sp, #16]
 1383 02ac 03F00F38 		and	r8, r3, #252645135
 1384 02b0 04F00F39 		and	r9, r4, #252645135
 1385 02b4 DDE902AB 		ldrd	r10, [sp, #8]
 1386 02b8 5A46     		mov	r2, fp
 1387 02ba 1701     		lsls	r7, r2, #4
 1388 02bc 5246     		mov	r2, r10
 1389 02be 47EA1A77 		orr	r7, r7, r10, lsr #28
 1390 02c2 1601     		lsls	r6, r2, #4
 1391 02c4 06F0F03A 		and	r10, r6, #-252645136
 1392 02c8 07F0F03B 		and	fp, r7, #-252645136
 1393 02cc 4AEA0806 		orr	r6, r10, r8
 1394 02d0 4BEA0907 		orr	r7, fp, r9
 1395 02d4 CEE90067 		strd	r6, [lr]
 1396              	.LVL295:
 1397 02d8 4FEA131A 		lsr	r10, r3, #4
 1398 02dc 4AEA047A 		orr	r10, r10, r4, lsl #28
 1399 02e0 4FEA141B 		lsr	fp, r4, #4
 1400 02e4 0AF00F36 		and	r6, r10, #252645135
 1401 02e8 0BF00F37 		and	r7, fp, #252645135
 1402 02ec DDE90234 		ldrd	r3, [sp, #8]
 1403 02f0 03F0F033 		and	r3, r3, #-252645136
 1404 02f4 04F0F034 		and	r4, r4, #-252645136
 1405 02f8 43EA060A 		orr	r10, r3, r6
 1406 02fc 44EA070B 		orr	fp, r4, r7
 1407 0300 CEE908AB 		strd	r10, [lr, #32]
 1408              	.LVL296:
 1409              	.LBE55:
 1410              	.LBB56:
 268:..\aes256ctr.c **** 	SWAP8(q[1], q[5]);
 1411              		.loc 1 268 0
 1412 0304 DDE906BC 		ldrd	fp, [sp, #24]
 1413 0308 0BF00F38 		and	r8, fp, #252645135
 1414 030c 0CF00F39 		and	r9, ip, #252645135
 1415 0310 0F01     		lsls	r7, r1, #4
 1416 0312 47EA1077 		orr	r7, r7, r0, lsr #28
 1417 0316 0601     		lsls	r6, r0, #4
 1418 0318 06F0F033 		and	r3, r6, #-252645136
 1419 031c 07F0F034 		and	r4, r7, #-252645136
 1420 0320 43EA0806 		orr	r6, r3, r8
 1421 0324 44EA0907 		orr	r7, r4, r9
 1422 0328 CEE90267 		strd	r6, [lr, #8]
 1423              	.LVL297:
 1424 032c 5B46     		mov	r3, fp
 1425 032e 1C09     		lsrs	r4, r3, #4
 1426 0330 6346     		mov	r3, ip
 1427 0332 44EA0C74 		orr	r4, r4, ip, lsl #28
ARM GAS  C:\Users\bogur\AppData\Local\Temp\cca0k2e0.s 			page 31


 1428 0336 1D09     		lsrs	r5, r3, #4
 1429 0338 04F00F36 		and	r6, r4, #252645135
 1430 033c 05F00F37 		and	r7, r5, #252645135
 1431 0340 00F0F032 		and	r2, r0, #-252645136
 1432 0344 01F0F033 		and	r3, r1, #-252645136
 1433 0348 42EA0604 		orr	r4, r2, r6
 1434 034c 43EA0705 		orr	r5, r3, r7
 1435 0350 CEE90A45 		strd	r4, [lr, #40]
 1436              	.LVL298:
 1437              	.LBE56:
 1438              	.LBB57:
 269:..\aes256ctr.c **** 	SWAP8(q[2], q[6]);
 1439              		.loc 1 269 0
 1440 0354 DDE90E01 		ldrd	r0, [sp, #56]
 1441              	.LVL299:
 1442 0358 00F00F36 		and	r6, r0, #252645135
 1443 035c 01F00F37 		and	r7, r1, #252645135
 1444 0360 DDE90089 		ldrd	r8, [sp]
 1445 0364 4B46     		mov	r3, r9
 1446 0366 1D01     		lsls	r5, r3, #4
 1447 0368 4346     		mov	r3, r8
 1448 036a 45EA1875 		orr	r5, r5, r8, lsr #28
 1449 036e 1C01     		lsls	r4, r3, #4
 1450 0370 04F0F032 		and	r2, r4, #-252645136
 1451 0374 05F0F033 		and	r3, r5, #-252645136
 1452 0378 42EA0604 		orr	r4, r2, r6
 1453 037c 43EA0705 		orr	r5, r3, r7
 1454 0380 CEE90445 		strd	r4, [lr, #16]
 1455              	.LVL300:
 1456 0384 0409     		lsrs	r4, r0, #4
 1457 0386 44EA0174 		orr	r4, r4, r1, lsl #28
 1458 038a 0D09     		lsrs	r5, r1, #4
 1459 038c 04F00F32 		and	r2, r4, #252645135
 1460 0390 05F00F33 		and	r3, r5, #252645135
 1461 0394 08F0F030 		and	r0, r8, #-252645136
 1462 0398 09F0F031 		and	r1, r9, #-252645136
 1463 039c 42EA0004 		orr	r4, r2, r0
 1464 03a0 43EA0105 		orr	r5, r3, r1
 1465 03a4 CEE90C45 		strd	r4, [lr, #48]
 1466              	.LVL301:
 1467              	.LBE57:
 1468              	.LBB58:
 270:..\aes256ctr.c **** 	SWAP8(q[3], q[7]);
 1469              		.loc 1 270 0
 1470 03a8 DDE9109A 		ldrd	r9, [sp, #64]
 1471 03ac 09F00F34 		and	r4, r9, #252645135
 1472 03b0 0AF00F35 		and	r5, r10, #252645135
 1473 03b4 DDE908BC 		ldrd	fp, [sp, #32]
 1474 03b8 6346     		mov	r3, ip
 1475 03ba 1901     		lsls	r1, r3, #4
 1476 03bc 5B46     		mov	r3, fp
 1477 03be 41EA1B71 		orr	r1, r1, fp, lsr #28
 1478 03c2 1801     		lsls	r0, r3, #4
 1479 03c4 00F0F032 		and	r2, r0, #-252645136
 1480 03c8 01F0F033 		and	r3, r1, #-252645136
 1481 03cc 42EA0400 		orr	r0, r2, r4
 1482 03d0 43EA0501 		orr	r1, r3, r5
ARM GAS  C:\Users\bogur\AppData\Local\Temp\cca0k2e0.s 			page 32


 1483 03d4 CEE90601 		strd	r0, [lr, #24]
 1484              	.LVL302:
 1485 03d8 4B46     		mov	r3, r9
 1486 03da 1E09     		lsrs	r6, r3, #4
 1487 03dc 5546     		mov	r5, r10
 1488 03de 46EA0A76 		orr	r6, r6, r10, lsl #28
 1489 03e2 2F09     		lsrs	r7, r5, #4
 1490 03e4 06F00F30 		and	r0, r6, #252645135
 1491 03e8 07F00F31 		and	r1, r7, #252645135
 1492 03ec 0BF0F034 		and	r4, fp, #-252645136
 1493 03f0 0CF0F035 		and	r5, ip, #-252645136
 1494 03f4 44EA0002 		orr	r2, r4, r0
 1495 03f8 45EA0103 		orr	r3, r5, r1
 1496 03fc CEE90E23 		strd	r2, [lr, #56]
 1497              	.LVL303:
 1498              	.LBE58:
 271:..\aes256ctr.c **** }
 1499              		.loc 1 271 0
 1500 0400 13B0     		add	sp, sp, #76
 1501              		.cfi_def_cfa_offset 36
 1502              	.LVL304:
 1503              		@ sp needed
 1504 0402 BDE8F08F 		pop	{r4, r5, r6, r7, r8, r9, r10, fp, pc}
 1505              		.cfi_endproc
 1506              	.LFE6:
 1507              		.size	br_aes_ct64_ortho, .-br_aes_ct64_ortho
 1508 0406 00BF     		.section	.text.br_aes_ct64_interleave_in,"ax",%progbits
 1509              		.align	2
 1510              		.thumb
 1511              		.thumb_func
 1512              		.type	br_aes_ct64_interleave_in, %function
 1513              	br_aes_ct64_interleave_in:
 1514              	.LFB7:
 272:..\aes256ctr.c **** 
 273:..\aes256ctr.c **** static void br_aes_ct64_interleave_in(uint64_t *q0, uint64_t *q1, const uint32_t *w)
 274:..\aes256ctr.c **** {
 1515              		.loc 1 274 0
 1516              		.cfi_startproc
 1517              		@ args = 0, pretend = 0, frame = 24
 1518              		@ frame_needed = 0, uses_anonymous_args = 0
 1519              		@ link register save eliminated.
 1520              	.LVL305:
 1521 0000 2DE9F00F 		push	{r4, r5, r6, r7, r8, r9, r10, fp}
 1522              		.cfi_def_cfa_offset 32
 1523              		.cfi_offset 4, -32
 1524              		.cfi_offset 5, -28
 1525              		.cfi_offset 6, -24
 1526              		.cfi_offset 7, -20
 1527              		.cfi_offset 8, -16
 1528              		.cfi_offset 9, -12
 1529              		.cfi_offset 10, -8
 1530              		.cfi_offset 11, -4
 1531 0004 86B0     		sub	sp, sp, #24
 1532              		.cfi_def_cfa_offset 56
 275:..\aes256ctr.c **** 	uint64_t x0, x1, x2, x3;
 276:..\aes256ctr.c **** 
 277:..\aes256ctr.c **** 	x0 = w[0];
ARM GAS  C:\Users\bogur\AppData\Local\Temp\cca0k2e0.s 			page 33


 1533              		.loc 1 277 0
 1534 0006 1668     		ldr	r6, [r2]
 1535 0008 0027     		movs	r7, #0
 1536              	.LVL306:
 278:..\aes256ctr.c **** 	x1 = w[1];
 1537              		.loc 1 278 0
 1538 000a 5468     		ldr	r4, [r2, #4]
 1539 000c A046     		mov	r8, r4
 1540 000e 4FF00009 		mov	r9, #0
 1541 0012 CDE90089 		strd	r8, [sp]
 1542              	.LVL307:
 279:..\aes256ctr.c **** 	x2 = w[2];
 1543              		.loc 1 279 0
 1544 0016 9368     		ldr	r3, [r2, #8]
 1545 0018 9846     		mov	r8, r3
 1546              	.LVL308:
 1547 001a 4FF00009 		mov	r9, #0
 1548              	.LVL309:
 280:..\aes256ctr.c **** 	x3 = w[3];
 1549              		.loc 1 280 0
 1550 001e D368     		ldr	r3, [r2, #12]
 1551 0020 9A46     		mov	r10, r3
 1552 0022 4FF0000B 		mov	fp, #0
 1553              	.LVL310:
 281:..\aes256ctr.c **** 	x0 |= (x0 << 16);
 1554              		.loc 1 281 0
 1555 0026 0023     		movs	r3, #0
 1556 0028 43EA1643 		orr	r3, r3, r6, lsr #16
 1557 002c 3204     		lsls	r2, r6, #16
 1558              	.LVL311:
 1559 002e 46EA0204 		orr	r4, r6, r2
 1560 0032 47EA0305 		orr	r5, r7, r3
 1561 0036 CDE90245 		strd	r4, [sp, #8]
 1562              	.LVL312:
 282:..\aes256ctr.c **** 	x1 |= (x1 << 16);
 1563              		.loc 1 282 0
 1564 003a 0023     		movs	r3, #0
 1565 003c 009C     		ldr	r4, [sp]
 1566              	.LVL313:
 1567 003e 43EA1443 		orr	r3, r3, r4, lsr #16
 1568 0042 2204     		lsls	r2, r4, #16
 1569 0044 DDE90045 		ldrd	r4, [sp]
 1570 0048 1443     		orrs	r4, r4, r2
 1571 004a 1D43     		orrs	r5, r5, r3
 1572 004c 2646     		mov	r6, r4
 1573 004e 2F46     		mov	r7, r5
 1574 0050 CDE90067 		strd	r6, [sp]
 1575              	.LVL314:
 283:..\aes256ctr.c **** 	x2 |= (x2 << 16);
 1576              		.loc 1 283 0
 1577 0054 0023     		movs	r3, #0
 1578 0056 43EA1843 		orr	r3, r3, r8, lsr #16
 1579 005a 4FEA0842 		lsl	r2, r8, #16
 1580 005e 48EA0208 		orr	r8, r8, r2
 1581              	.LVL315:
 1582 0062 49EA0309 		orr	r9, r9, r3
 1583              	.LVL316:
ARM GAS  C:\Users\bogur\AppData\Local\Temp\cca0k2e0.s 			page 34


 284:..\aes256ctr.c **** 	x3 |= (x3 << 16);
 1584              		.loc 1 284 0
 1585 0066 0023     		movs	r3, #0
 1586 0068 43EA1A43 		orr	r3, r3, r10, lsr #16
 1587 006c 4FEA0A42 		lsl	r2, r10, #16
 1588 0070 4AEA0204 		orr	r4, r10, r2
 1589 0074 4BEA0305 		orr	r5, fp, r3
 1590 0078 CDE90445 		strd	r4, [sp, #16]
 1591              	.LVL317:
 285:..\aes256ctr.c **** 	x0 &= (uint64_t)0x0000FFFF0000FFFF;
 1592              		.loc 1 285 0
 1593 007c 4FF6FF7A 		movw	r10, #65535
 1594 0080 4FF6FF7B 		movw	fp, #65535
 1595 0084 DDE90267 		ldrd	r6, [sp, #8]
 1596              	.LVL318:
 1597 0088 06EA0A06 		and	r6, r6, r10
 1598 008c 07EA0B07 		and	r7, r7, fp
 1599              	.LVL319:
 286:..\aes256ctr.c **** 	x1 &= (uint64_t)0x0000FFFF0000FFFF;
 1600              		.loc 1 286 0
 1601 0090 DDE90045 		ldrd	r4, [sp]
 1602              	.LVL320:
 1603 0094 04EA0A04 		and	r4, r4, r10
 1604 0098 05EA0B05 		and	r5, r5, fp
 1605              	.LVL321:
 287:..\aes256ctr.c **** 	x2 &= (uint64_t)0x0000FFFF0000FFFF;
 1606              		.loc 1 287 0
 1607 009c 08EA0A02 		and	r2, r8, r10
 1608 00a0 09EA0B03 		and	r3, r9, fp
 1609              	.LVL322:
 288:..\aes256ctr.c **** 	x3 &= (uint64_t)0x0000FFFF0000FFFF;
 1610              		.loc 1 288 0
 1611 00a4 DDE90489 		ldrd	r8, [sp, #16]
 1612 00a8 08EA0A08 		and	r8, r8, r10
 1613 00ac 09EA0B09 		and	r9, r9, fp
 1614 00b0 C246     		mov	r10, r8
 1615 00b2 CB46     		mov	fp, r9
 1616              	.LVL323:
 289:..\aes256ctr.c **** 	x0 |= (x0 << 8);
 1617              		.loc 1 289 0
 1618 00b4 4FEA0729 		lsl	r9, r7, #8
 1619 00b8 49EA1669 		orr	r9, r9, r6, lsr #24
 1620 00bc 4FEA0628 		lsl	r8, r6, #8
 1621 00c0 48EA0608 		orr	r8, r8, r6
 1622 00c4 49EA0709 		orr	r9, r9, r7
 1623              	.LVL324:
 290:..\aes256ctr.c **** 	x1 |= (x1 << 8);
 1624              		.loc 1 290 0
 1625 00c8 2F02     		lsls	r7, r5, #8
 1626 00ca 47EA1467 		orr	r7, r7, r4, lsr #24
 1627 00ce 2602     		lsls	r6, r4, #8
 1628 00d0 2643     		orrs	r6, r6, r4
 1629 00d2 2F43     		orrs	r7, r7, r5
 1630              	.LVL325:
 291:..\aes256ctr.c **** 	x2 |= (x2 << 8);
 1631              		.loc 1 291 0
 1632 00d4 1D02     		lsls	r5, r3, #8
ARM GAS  C:\Users\bogur\AppData\Local\Temp\cca0k2e0.s 			page 35


 1633 00d6 45EA1265 		orr	r5, r5, r2, lsr #24
 1634 00da 1402     		lsls	r4, r2, #8
 1635 00dc 2243     		orrs	r2, r2, r4
 1636              	.LVL326:
 1637 00de 2B43     		orrs	r3, r3, r5
 1638              	.LVL327:
 292:..\aes256ctr.c **** 	x3 |= (x3 << 8);
 1639              		.loc 1 292 0
 1640 00e0 4FEA0B25 		lsl	r5, fp, #8
 1641 00e4 45EA1A65 		orr	r5, r5, r10, lsr #24
 1642 00e8 4FEA0A24 		lsl	r4, r10, #8
 1643 00ec 4AEA040A 		orr	r10, r10, r4
 1644              	.LVL328:
 1645 00f0 4BEA050B 		orr	fp, fp, r5
 1646              	.LVL329:
 293:..\aes256ctr.c **** 	x0 &= (uint64_t)0x00FF00FF00FF00FF;
 1647              		.loc 1 293 0
 1648 00f4 08F0FF18 		and	r8, r8, #16711935
 1649              	.LVL330:
 1650 00f8 09F0FF19 		and	r9, r9, #16711935
 1651              	.LVL331:
 294:..\aes256ctr.c **** 	x1 &= (uint64_t)0x00FF00FF00FF00FF;
 1652              		.loc 1 294 0
 1653 00fc 06F0FF16 		and	r6, r6, #16711935
 1654              	.LVL332:
 1655 0100 07F0FF17 		and	r7, r7, #16711935
 1656              	.LVL333:
 295:..\aes256ctr.c **** 	x2 &= (uint64_t)0x00FF00FF00FF00FF;
 296:..\aes256ctr.c **** 	x3 &= (uint64_t)0x00FF00FF00FF00FF;
 297:..\aes256ctr.c **** 	*q0 = x0 | (x2 << 8);
 1657              		.loc 1 297 0
 1658 0104 1D02     		lsls	r5, r3, #8
 1659 0106 45EA1265 		orr	r5, r5, r2, lsr #24
 1660 010a 1402     		lsls	r4, r2, #8
 1661 010c 04F0FF24 		and	r4, r4, #-16711936
 1662 0110 05F0FF25 		and	r5, r5, #-16711936
 1663 0114 48EA0408 		orr	r8, r8, r4
 1664              	.LVL334:
 1665 0118 49EA0509 		orr	r9, r9, r5
 1666 011c C0E90089 		strd	r8, [r0]
 298:..\aes256ctr.c **** 	*q1 = x1 | (x3 << 8);
 1667              		.loc 1 298 0
 1668 0120 4FEA0B23 		lsl	r3, fp, #8
 1669 0124 43EA1A63 		orr	r3, r3, r10, lsr #24
 1670 0128 4FEA0A22 		lsl	r2, r10, #8
 1671              	.LVL335:
 1672 012c 02F0FF22 		and	r2, r2, #-16711936
 1673 0130 03F0FF23 		and	r3, r3, #-16711936
 1674 0134 1643     		orrs	r6, r6, r2
 1675              	.LVL336:
 1676 0136 1F43     		orrs	r7, r7, r3
 1677 0138 C1E90067 		strd	r6, [r1]
 299:..\aes256ctr.c **** }
 1678              		.loc 1 299 0
 1679 013c 06B0     		add	sp, sp, #24
 1680              		.cfi_def_cfa_offset 32
 1681              		@ sp needed
ARM GAS  C:\Users\bogur\AppData\Local\Temp\cca0k2e0.s 			page 36


 1682 013e BDE8F00F 		pop	{r4, r5, r6, r7, r8, r9, r10, fp}
 1683              		.cfi_restore 11
 1684              		.cfi_restore 10
 1685              		.cfi_restore 9
 1686              		.cfi_restore 8
 1687              		.cfi_restore 7
 1688              		.cfi_restore 6
 1689              		.cfi_restore 5
 1690              		.cfi_restore 4
 1691              		.cfi_def_cfa_offset 0
 1692              	.LVL337:
 1693 0142 7047     		bx	lr
 1694              		.cfi_endproc
 1695              	.LFE7:
 1696              		.size	br_aes_ct64_interleave_in, .-br_aes_ct64_interleave_in
 1697              		.section	.text.br_aes_ct64_interleave_out,"ax",%progbits
 1698              		.align	2
 1699              		.thumb
 1700              		.thumb_func
 1701              		.type	br_aes_ct64_interleave_out, %function
 1702              	br_aes_ct64_interleave_out:
 1703              	.LFB8:
 300:..\aes256ctr.c **** 
 301:..\aes256ctr.c **** static void br_aes_ct64_interleave_out(uint32_t *w, uint64_t q0, uint64_t q1)
 302:..\aes256ctr.c **** {
 1704              		.loc 1 302 0
 1705              		.cfi_startproc
 1706              		@ args = 8, pretend = 0, frame = 0
 1707              		@ frame_needed = 0, uses_anonymous_args = 0
 1708              	.LVL338:
 1709 0000 2DE9F04F 		push	{r4, r5, r6, r7, r8, r9, r10, fp, lr}
 1710              		.cfi_def_cfa_offset 36
 1711              		.cfi_offset 4, -36
 1712              		.cfi_offset 5, -32
 1713              		.cfi_offset 6, -28
 1714              		.cfi_offset 7, -24
 1715              		.cfi_offset 8, -20
 1716              		.cfi_offset 9, -16
 1717              		.cfi_offset 10, -12
 1718              		.cfi_offset 11, -8
 1719              		.cfi_offset 14, -4
 1720 0004 8646     		mov	lr, r0
 1721 0006 DDE90901 		ldrd	r0, [sp, #36]
 1722              	.LVL339:
 303:..\aes256ctr.c **** 	uint64_t x0, x1, x2, x3;
 304:..\aes256ctr.c **** 
 305:..\aes256ctr.c **** 	x0 = q0 & (uint64_t)0x00FF00FF00FF00FF;
 1723              		.loc 1 305 0
 1724 000a 02F0FF18 		and	r8, r2, #16711935
 1725 000e 03F0FF19 		and	r9, r3, #16711935
 1726              	.LVL340:
 306:..\aes256ctr.c **** 	x1 = q1 & (uint64_t)0x00FF00FF00FF00FF;
 1727              		.loc 1 306 0
 1728 0012 00F0FF16 		and	r6, r0, #16711935
 1729 0016 01F0FF17 		and	r7, r1, #16711935
 1730              	.LVL341:
 307:..\aes256ctr.c **** 	x2 = (q0 >> 8) & (uint64_t)0x00FF00FF00FF00FF;
ARM GAS  C:\Users\bogur\AppData\Local\Temp\cca0k2e0.s 			page 37


 1731              		.loc 1 307 0
 1732 001a 140A     		lsrs	r4, r2, #8
 1733 001c 44EA0364 		orr	r4, r4, r3, lsl #24
 1734 0020 1D0A     		lsrs	r5, r3, #8
 1735 0022 04F0FF12 		and	r2, r4, #16711935
 1736              	.LVL342:
 1737 0026 05F0FF13 		and	r3, r5, #16711935
 1738              	.LVL343:
 308:..\aes256ctr.c **** 	x3 = (q1 >> 8) & (uint64_t)0x00FF00FF00FF00FF;
 1739              		.loc 1 308 0
 1740 002a 4FEA102A 		lsr	r10, r0, #8
 1741 002e 4AEA016A 		orr	r10, r10, r1, lsl #24
 1742 0032 4FEA112B 		lsr	fp, r1, #8
 1743 0036 0AF0FF1A 		and	r10, r10, #16711935
 1744 003a 0BF0FF1B 		and	fp, fp, #16711935
 1745              	.LVL344:
 309:..\aes256ctr.c **** 	x0 |= (x0 >> 8);
 1746              		.loc 1 309 0
 1747 003e 4FEA1824 		lsr	r4, r8, #8
 1748 0042 44EA0964 		orr	r4, r4, r9, lsl #24
 1749 0046 4FEA1925 		lsr	r5, r9, #8
 1750 004a 48EA0408 		orr	r8, r8, r4
 1751              	.LVL345:
 1752 004e 49EA0509 		orr	r9, r9, r5
 1753              	.LVL346:
 310:..\aes256ctr.c **** 	x1 |= (x1 >> 8);
 1754              		.loc 1 310 0
 1755 0052 340A     		lsrs	r4, r6, #8
 1756 0054 44EA0764 		orr	r4, r4, r7, lsl #24
 1757 0058 3D0A     		lsrs	r5, r7, #8
 1758 005a 2643     		orrs	r6, r6, r4
 1759              	.LVL347:
 1760 005c 2F43     		orrs	r7, r7, r5
 1761              	.LVL348:
 311:..\aes256ctr.c **** 	x2 |= (x2 >> 8);
 1762              		.loc 1 311 0
 1763 005e 140A     		lsrs	r4, r2, #8
 1764 0060 44EA0364 		orr	r4, r4, r3, lsl #24
 1765 0064 1D0A     		lsrs	r5, r3, #8
 1766 0066 1443     		orrs	r4, r4, r2
 1767 0068 1D43     		orrs	r5, r5, r3
 1768              	.LVL349:
 312:..\aes256ctr.c **** 	x3 |= (x3 >> 8);
 1769              		.loc 1 312 0
 1770 006a 4FEA1A22 		lsr	r2, r10, #8
 1771 006e 42EA0B62 		orr	r2, r2, fp, lsl #24
 1772 0072 4FEA1B23 		lsr	r3, fp, #8
 1773 0076 42EA0A02 		orr	r2, r2, r10
 1774 007a 43EA0B03 		orr	r3, r3, fp
 1775              	.LVL350:
 313:..\aes256ctr.c **** 	x0 &= (uint64_t)0x0000FFFF0000FFFF;
 1776              		.loc 1 313 0
 1777 007e 4FF6FF7A 		movw	r10, #65535
 1778 0082 4FF6FF7B 		movw	fp, #65535
 1779 0086 08EA0A08 		and	r8, r8, r10
 1780              	.LVL351:
 1781 008a 09EA0B09 		and	r9, r9, fp
ARM GAS  C:\Users\bogur\AppData\Local\Temp\cca0k2e0.s 			page 38


 1782              	.LVL352:
 314:..\aes256ctr.c **** 	x1 &= (uint64_t)0x0000FFFF0000FFFF;
 1783              		.loc 1 314 0
 1784 008e 06EA0A06 		and	r6, r6, r10
 1785              	.LVL353:
 1786 0092 07EA0B07 		and	r7, r7, fp
 1787              	.LVL354:
 315:..\aes256ctr.c **** 	x2 &= (uint64_t)0x0000FFFF0000FFFF;
 1788              		.loc 1 315 0
 1789 0096 04EA0A04 		and	r4, r4, r10
 1790              	.LVL355:
 1791 009a 05EA0B05 		and	r5, r5, fp
 1792              	.LVL356:
 316:..\aes256ctr.c **** 	x3 &= (uint64_t)0x0000FFFF0000FFFF;
 1793              		.loc 1 316 0
 1794 009e 0AEA020A 		and	r10, r10, r2
 1795 00a2 0BEA030B 		and	fp, fp, r3
 1796              	.LVL357:
 317:..\aes256ctr.c **** 	w[0] = (uint32_t)x0 | (uint32_t)(x0 >> 16);
 1797              		.loc 1 317 0
 1798 00a6 48EA0943 		orr	r3, r8, r9, lsl #16
 1799 00aa CEF80030 		str	r3, [lr]
 318:..\aes256ctr.c **** 	w[1] = (uint32_t)x1 | (uint32_t)(x1 >> 16);
 1800              		.loc 1 318 0
 1801 00ae 46EA0746 		orr	r6, r6, r7, lsl #16
 1802              	.LVL358:
 1803 00b2 CEF80460 		str	r6, [lr, #4]
 319:..\aes256ctr.c **** 	w[2] = (uint32_t)x2 | (uint32_t)(x2 >> 16);
 1804              		.loc 1 319 0
 1805 00b6 44EA0544 		orr	r4, r4, r5, lsl #16
 1806              	.LVL359:
 1807 00ba CEF80840 		str	r4, [lr, #8]
 320:..\aes256ctr.c **** 	w[3] = (uint32_t)x3 | (uint32_t)(x3 >> 16);
 1808              		.loc 1 320 0
 1809 00be 4AEA0B42 		orr	r2, r10, fp, lsl #16
 1810 00c2 CEF80C20 		str	r2, [lr, #12]
 1811 00c6 BDE8F08F 		pop	{r4, r5, r6, r7, r8, r9, r10, fp, pc}
 1812              		.cfi_endproc
 1813              	.LFE8:
 1814              		.size	br_aes_ct64_interleave_out, .-br_aes_ct64_interleave_out
 1815 00ca 00BF     		.section	.text.br_aes_ct64_skey_expand,"ax",%progbits
 1816              		.align	2
 1817              		.thumb
 1818              		.thumb_func
 1819              		.type	br_aes_ct64_skey_expand, %function
 1820              	br_aes_ct64_skey_expand:
 1821              	.LFB11:
 321:..\aes256ctr.c **** }
 322:..\aes256ctr.c **** 
 323:..\aes256ctr.c **** static const uint8_t Rcon[] = {
 324:..\aes256ctr.c **** 	0x01, 0x02, 0x04, 0x08, 0x10, 0x20, 0x40, 0x80, 0x1B, 0x36
 325:..\aes256ctr.c **** };
 326:..\aes256ctr.c **** 
 327:..\aes256ctr.c **** static uint32_t sub_word(uint32_t x)
 328:..\aes256ctr.c **** {
 329:..\aes256ctr.c **** 	uint64_t q[8];
 330:..\aes256ctr.c **** 
ARM GAS  C:\Users\bogur\AppData\Local\Temp\cca0k2e0.s 			page 39


 331:..\aes256ctr.c **** 	memset(q, 0, sizeof q);
 332:..\aes256ctr.c **** 	q[0] = x;
 333:..\aes256ctr.c **** 	br_aes_ct64_ortho(q);
 334:..\aes256ctr.c **** 	br_aes_ct64_bitslice_Sbox(q);
 335:..\aes256ctr.c **** 	br_aes_ct64_ortho(q);
 336:..\aes256ctr.c **** 	return (uint32_t)q[0];
 337:..\aes256ctr.c **** }
 338:..\aes256ctr.c **** 
 339:..\aes256ctr.c **** static void br_aes_ct64_keysched(uint64_t *comp_skey, const uint8_t *key)
 340:..\aes256ctr.c **** {
 341:..\aes256ctr.c **** 	int i, j, k, nk, nkf;
 342:..\aes256ctr.c **** 	uint32_t tmp;
 343:..\aes256ctr.c **** 	uint32_t skey[60];
 344:..\aes256ctr.c **** 
 345:..\aes256ctr.c **** 	int key_len = 32;
 346:..\aes256ctr.c **** 
 347:..\aes256ctr.c **** 	nk = (int)(key_len >> 2);
 348:..\aes256ctr.c **** 	nkf = (int)((14 + 1) << 2);
 349:..\aes256ctr.c **** 	br_range_dec32le(skey, (key_len >> 2), key);
 350:..\aes256ctr.c **** 	tmp = skey[(key_len >> 2) - 1];
 351:..\aes256ctr.c **** 	for (i = nk, j = 0, k = 0; i < nkf; i ++) {
 352:..\aes256ctr.c **** 		if (j == 0) {
 353:..\aes256ctr.c **** 			tmp = (tmp << 24) | (tmp >> 8);
 354:..\aes256ctr.c **** 			tmp = sub_word(tmp) ^ Rcon[k];
 355:..\aes256ctr.c **** 		} else if (nk > 6 && j == 4) {
 356:..\aes256ctr.c **** 			tmp = sub_word(tmp);
 357:..\aes256ctr.c **** 		}
 358:..\aes256ctr.c **** 		tmp ^= skey[i - nk];
 359:..\aes256ctr.c **** 		skey[i] = tmp;
 360:..\aes256ctr.c **** 		if (++ j == nk) {
 361:..\aes256ctr.c **** 			j = 0;
 362:..\aes256ctr.c **** 			k ++;
 363:..\aes256ctr.c **** 		}
 364:..\aes256ctr.c **** 	}
 365:..\aes256ctr.c **** 
 366:..\aes256ctr.c **** 	for (i = 0, j = 0; i < nkf; i += 4, j += 2) {
 367:..\aes256ctr.c **** 		uint64_t q[8];
 368:..\aes256ctr.c **** 
 369:..\aes256ctr.c **** 		br_aes_ct64_interleave_in(&q[0], &q[4], skey + i);
 370:..\aes256ctr.c **** 		q[1] = q[0];
 371:..\aes256ctr.c **** 		q[2] = q[0];
 372:..\aes256ctr.c **** 		q[3] = q[0];
 373:..\aes256ctr.c **** 		q[5] = q[4];
 374:..\aes256ctr.c **** 		q[6] = q[4];
 375:..\aes256ctr.c **** 		q[7] = q[4];
 376:..\aes256ctr.c **** 		br_aes_ct64_ortho(q);
 377:..\aes256ctr.c **** 		comp_skey[j + 0] =
 378:..\aes256ctr.c **** 			  (q[0] & (uint64_t)0x1111111111111111)
 379:..\aes256ctr.c **** 			| (q[1] & (uint64_t)0x2222222222222222)
 380:..\aes256ctr.c **** 			| (q[2] & (uint64_t)0x4444444444444444)
 381:..\aes256ctr.c **** 			| (q[3] & (uint64_t)0x8888888888888888);
 382:..\aes256ctr.c **** 		comp_skey[j + 1] =
 383:..\aes256ctr.c **** 			  (q[4] & (uint64_t)0x1111111111111111)
 384:..\aes256ctr.c **** 			| (q[5] & (uint64_t)0x2222222222222222)
 385:..\aes256ctr.c **** 			| (q[6] & (uint64_t)0x4444444444444444)
 386:..\aes256ctr.c **** 			| (q[7] & (uint64_t)0x8888888888888888);
 387:..\aes256ctr.c **** 	}
ARM GAS  C:\Users\bogur\AppData\Local\Temp\cca0k2e0.s 			page 40


 388:..\aes256ctr.c **** }
 389:..\aes256ctr.c **** 
 390:..\aes256ctr.c **** static void br_aes_ct64_skey_expand(uint64_t *skey, const uint64_t *comp_skey)
 391:..\aes256ctr.c **** {
 1822              		.loc 1 391 0
 1823              		.cfi_startproc
 1824              		@ args = 0, pretend = 0, frame = 56
 1825              		@ frame_needed = 0, uses_anonymous_args = 0
 1826              	.LVL360:
 1827 0000 2DE9F04F 		push	{r4, r5, r6, r7, r8, r9, r10, fp, lr}
 1828              		.cfi_def_cfa_offset 36
 1829              		.cfi_offset 4, -36
 1830              		.cfi_offset 5, -32
 1831              		.cfi_offset 6, -28
 1832              		.cfi_offset 7, -24
 1833              		.cfi_offset 8, -20
 1834              		.cfi_offset 9, -16
 1835              		.cfi_offset 10, -12
 1836              		.cfi_offset 11, -8
 1837              		.cfi_offset 14, -4
 1838 0004 8FB0     		sub	sp, sp, #60
 1839              		.cfi_def_cfa_offset 96
 1840 0006 8C46     		mov	ip, r1
 1841              	.LVL361:
 392:..\aes256ctr.c **** 	unsigned u, v, n;
 393:..\aes256ctr.c **** 
 394:..\aes256ctr.c **** 	n = (14 + 1) << 1;
 395:..\aes256ctr.c **** 	for (u = 0, v = 0; u < n; u ++, v += 4) {
 1842              		.loc 1 395 0
 1843 0008 0021     		movs	r1, #0
 1844              	.LVL362:
 1845 000a 8E46     		mov	lr, r1
 1846 000c 0D90     		str	r0, [sp, #52]
 1847 000e 73E0     		b	.L18
 1848              	.LVL363:
 1849              	.L19:
 1850              	.LBB59:
 396:..\aes256ctr.c **** 		uint64_t x0, x1, x2, x3;
 397:..\aes256ctr.c **** 
 398:..\aes256ctr.c **** 		x0 = x1 = x2 = x3 = comp_skey[u];
 1851              		.loc 1 398 0 discriminator 3
 1852 0010 0CEBCE03 		add	r3, ip, lr, lsl #3
 1853 0014 D3E90045 		ldrd	r4, [r3]
 1854              	.LVL364:
 399:..\aes256ctr.c **** 		x0 &= (uint64_t)0x1111111111111111;
 1855              		.loc 1 399 0 discriminator 3
 1856 0018 04F01136 		and	r6, r4, #286331153
 1857 001c 05F01137 		and	r7, r5, #286331153
 1858              	.LVL365:
 400:..\aes256ctr.c **** 		x1 &= (uint64_t)0x2222222222222222;
 401:..\aes256ctr.c **** 		x2 &= (uint64_t)0x4444444444444444;
 402:..\aes256ctr.c **** 		x3 &= (uint64_t)0x8888888888888888;
 403:..\aes256ctr.c **** 		x1 >>= 1;
 1859              		.loc 1 403 0 discriminator 3
 1860 0020 6B08     		movs	r3, r5, lsr #1
 1861 0022 4FEA3402 		mov	r2, r4, rrx
 1862 0026 02F01132 		and	r2, r2, #286331153
ARM GAS  C:\Users\bogur\AppData\Local\Temp\cca0k2e0.s 			page 41


 1863 002a 03F01133 		and	r3, r3, #286331153
 1864              	.LVL366:
 404:..\aes256ctr.c **** 		x2 >>= 2;
 1865              		.loc 1 404 0 discriminator 3
 1866 002e A008     		lsrs	r0, r4, #2
 1867 0030 40EA8570 		orr	r0, r0, r5, lsl #30
 1868 0034 0690     		str	r0, [sp, #24]
 1869 0036 A808     		lsrs	r0, r5, #2
 1870 0038 0790     		str	r0, [sp, #28]
 1871 003a DDE90689 		ldrd	r8, [sp, #24]
 1872 003e 08F01138 		and	r8, r8, #286331153
 1873 0042 09F01139 		and	r9, r9, #286331153
 1874              	.LVL367:
 405:..\aes256ctr.c **** 		x3 >>= 3;
 1875              		.loc 1 405 0 discriminator 3
 1876 0046 E008     		lsrs	r0, r4, #3
 1877 0048 40EA4570 		orr	r0, r0, r5, lsl #29
 1878 004c 0890     		str	r0, [sp, #32]
 1879 004e E808     		lsrs	r0, r5, #3
 1880 0050 0990     		str	r0, [sp, #36]
 1881 0052 DDE90845 		ldrd	r4, [sp, #32]
 1882              	.LVL368:
 1883 0056 04F01134 		and	r4, r4, #286331153
 1884 005a 05F01135 		and	r5, r5, #286331153
 1885 005e CDE90A45 		strd	r4, [sp, #40]
 1886              	.LVL369:
 406:..\aes256ctr.c **** 		skey[v + 0] = (x0 << 4) - x0;
 1887              		.loc 1 406 0 discriminator 3
 1888 0062 0D9D     		ldr	r5, [sp, #52]
 1889 0064 05EBC104 		add	r4, r5, r1, lsl #3
 1890              	.LVL370:
 1891 0068 4FEA071B 		lsl	fp, r7, #4
 1892 006c 4BEA167B 		orr	fp, fp, r6, lsr #28
 1893 0070 4FEA061A 		lsl	r10, r6, #4
 1894 0074 BAEB0606 		subs	r6, r10, r6
 1895              	.LVL371:
 1896 0078 6BEB0707 		sbc	r7, fp, r7
 1897 007c C4E90067 		strd	r6, [r4]
 407:..\aes256ctr.c **** 		skey[v + 1] = (x1 << 4) - x1;
 1898              		.loc 1 407 0 discriminator 3
 1899 0080 4C1C     		adds	r4, r1, #1
 1900 0082 05EBC404 		add	r4, r5, r4, lsl #3
 1901 0086 1801     		lsls	r0, r3, #4
 1902 0088 40EA1270 		orr	r0, r0, r2, lsr #28
 1903 008c 0190     		str	r0, [sp, #4]
 1904 008e 1001     		lsls	r0, r2, #4
 1905 0090 0090     		str	r0, [sp]
 1906 0092 DDE90067 		ldrd	r6, [sp]
 1907 0096 B61A     		subs	r6, r6, r2
 1908 0098 67EB0307 		sbc	r7, r7, r3
 1909 009c 3246     		mov	r2, r6
 1910              	.LVL372:
 1911 009e 3B46     		mov	r3, r7
 1912 00a0 C4E90023 		strd	r2, [r4]
 408:..\aes256ctr.c **** 		skey[v + 2] = (x2 << 4) - x2;
 1913              		.loc 1 408 0 discriminator 3
 1914 00a4 8B1C     		adds	r3, r1, #2
ARM GAS  C:\Users\bogur\AppData\Local\Temp\cca0k2e0.s 			page 42


 1915 00a6 05EBC303 		add	r3, r5, r3, lsl #3
 1916 00aa 4FEA0912 		lsl	r2, r9, #4
 1917 00ae 42EA1872 		orr	r2, r2, r8, lsr #28
 1918 00b2 0392     		str	r2, [sp, #12]
 1919 00b4 4FEA0812 		lsl	r2, r8, #4
 1920 00b8 0292     		str	r2, [sp, #8]
 1921 00ba DDE90267 		ldrd	r6, [sp, #8]
 1922 00be B6EB0806 		subs	r6, r6, r8
 1923 00c2 67EB0907 		sbc	r7, r7, r9
 1924 00c6 B046     		mov	r8, r6
 1925              	.LVL373:
 1926 00c8 B946     		mov	r9, r7
 1927 00ca C3E90089 		strd	r8, [r3]
 409:..\aes256ctr.c **** 		skey[v + 3] = (x3 << 4) - x3;
 1928              		.loc 1 409 0 discriminator 3
 1929 00ce CC1C     		adds	r4, r1, #3
 1930 00d0 05EBC404 		add	r4, r5, r4, lsl #3
 1931 00d4 DDE90A56 		ldrd	r5, [sp, #40]
 1932 00d8 3301     		lsls	r3, r6, #4
 1933 00da 43EA1573 		orr	r3, r3, r5, lsr #28
 1934 00de 0593     		str	r3, [sp, #20]
 1935 00e0 2B01     		lsls	r3, r5, #4
 1936 00e2 0493     		str	r3, [sp, #16]
 1937 00e4 DDE90423 		ldrd	r2, [sp, #16]
 1938 00e8 521B     		subs	r2, r2, r5
 1939 00ea 63EB0603 		sbc	r3, r3, r6
 1940 00ee C4E90023 		strd	r2, [r4]
 1941              	.LBE59:
 395:..\aes256ctr.c **** 		uint64_t x0, x1, x2, x3;
 1942              		.loc 1 395 0 discriminator 3
 1943 00f2 0EF1010E 		add	lr, lr, #1
 1944              	.LVL374:
 1945 00f6 0431     		adds	r1, r1, #4
 1946              	.LVL375:
 1947              	.L18:
 395:..\aes256ctr.c **** 		uint64_t x0, x1, x2, x3;
 1948              		.loc 1 395 0 is_stmt 0 discriminator 1
 1949 00f8 BEF11D0F 		cmp	lr, #29
 1950 00fc 88D9     		bls	.L19
 410:..\aes256ctr.c **** 	}
 411:..\aes256ctr.c **** }
 1951              		.loc 1 411 0 is_stmt 1
 1952 00fe 0FB0     		add	sp, sp, #60
 1953              		.cfi_def_cfa_offset 36
 1954              		@ sp needed
 1955 0100 BDE8F08F 		pop	{r4, r5, r6, r7, r8, r9, r10, fp, pc}
 1956              		.cfi_endproc
 1957              	.LFE11:
 1958              		.size	br_aes_ct64_skey_expand, .-br_aes_ct64_skey_expand
 1959              		.section	.text.inc4_be,"ax",%progbits
 1960              		.align	2
 1961              		.thumb
 1962              		.thumb_func
 1963              		.type	inc4_be, %function
 1964              	inc4_be:
 1965              	.LFB16:
 412:..\aes256ctr.c **** 
ARM GAS  C:\Users\bogur\AppData\Local\Temp\cca0k2e0.s 			page 43


 413:..\aes256ctr.c **** static inline void add_round_key(uint64_t *q, const uint64_t *sk)
 414:..\aes256ctr.c **** {
 415:..\aes256ctr.c **** 	q[0] ^= sk[0];
 416:..\aes256ctr.c **** 	q[1] ^= sk[1];
 417:..\aes256ctr.c **** 	q[2] ^= sk[2];
 418:..\aes256ctr.c **** 	q[3] ^= sk[3];
 419:..\aes256ctr.c **** 	q[4] ^= sk[4];
 420:..\aes256ctr.c **** 	q[5] ^= sk[5];
 421:..\aes256ctr.c **** 	q[6] ^= sk[6];
 422:..\aes256ctr.c **** 	q[7] ^= sk[7];
 423:..\aes256ctr.c **** }
 424:..\aes256ctr.c **** 
 425:..\aes256ctr.c **** static inline void shift_rows(uint64_t *q)
 426:..\aes256ctr.c **** {
 427:..\aes256ctr.c **** 	int i;
 428:..\aes256ctr.c **** 
 429:..\aes256ctr.c **** 	for (i = 0; i < 8; i ++) {
 430:..\aes256ctr.c **** 		uint64_t x;
 431:..\aes256ctr.c **** 
 432:..\aes256ctr.c **** 		x = q[i];
 433:..\aes256ctr.c **** 		q[i] = (x & (uint64_t)0x000000000000FFFF)
 434:..\aes256ctr.c **** 			| ((x & (uint64_t)0x00000000FFF00000) >> 4)
 435:..\aes256ctr.c **** 			| ((x & (uint64_t)0x00000000000F0000) << 12)
 436:..\aes256ctr.c **** 			| ((x & (uint64_t)0x0000FF0000000000) >> 8)
 437:..\aes256ctr.c **** 			| ((x & (uint64_t)0x000000FF00000000) << 8)
 438:..\aes256ctr.c **** 			| ((x & (uint64_t)0xF000000000000000) >> 12)
 439:..\aes256ctr.c **** 			| ((x & (uint64_t)0x0FFF000000000000) << 4);
 440:..\aes256ctr.c **** 	}
 441:..\aes256ctr.c **** }
 442:..\aes256ctr.c **** 
 443:..\aes256ctr.c **** static inline uint64_t rotr32(uint64_t x)
 444:..\aes256ctr.c **** {
 445:..\aes256ctr.c **** 	return (x << 32) | (x >> 32);
 446:..\aes256ctr.c **** }
 447:..\aes256ctr.c **** 
 448:..\aes256ctr.c **** static inline void mix_columns(uint64_t *q)
 449:..\aes256ctr.c **** {
 450:..\aes256ctr.c **** 	uint64_t q0, q1, q2, q3, q4, q5, q6, q7;
 451:..\aes256ctr.c **** 	uint64_t r0, r1, r2, r3, r4, r5, r6, r7;
 452:..\aes256ctr.c **** 
 453:..\aes256ctr.c **** 	q0 = q[0];
 454:..\aes256ctr.c **** 	q1 = q[1];
 455:..\aes256ctr.c **** 	q2 = q[2];
 456:..\aes256ctr.c **** 	q3 = q[3];
 457:..\aes256ctr.c **** 	q4 = q[4];
 458:..\aes256ctr.c **** 	q5 = q[5];
 459:..\aes256ctr.c **** 	q6 = q[6];
 460:..\aes256ctr.c **** 	q7 = q[7];
 461:..\aes256ctr.c **** 	r0 = (q0 >> 16) | (q0 << 48);
 462:..\aes256ctr.c **** 	r1 = (q1 >> 16) | (q1 << 48);
 463:..\aes256ctr.c **** 	r2 = (q2 >> 16) | (q2 << 48);
 464:..\aes256ctr.c **** 	r3 = (q3 >> 16) | (q3 << 48);
 465:..\aes256ctr.c **** 	r4 = (q4 >> 16) | (q4 << 48);
 466:..\aes256ctr.c **** 	r5 = (q5 >> 16) | (q5 << 48);
 467:..\aes256ctr.c **** 	r6 = (q6 >> 16) | (q6 << 48);
 468:..\aes256ctr.c **** 	r7 = (q7 >> 16) | (q7 << 48);
 469:..\aes256ctr.c **** 
ARM GAS  C:\Users\bogur\AppData\Local\Temp\cca0k2e0.s 			page 44


 470:..\aes256ctr.c **** 	q[0] = q7 ^ r7 ^ r0 ^ rotr32(q0 ^ r0);
 471:..\aes256ctr.c **** 	q[1] = q0 ^ r0 ^ q7 ^ r7 ^ r1 ^ rotr32(q1 ^ r1);
 472:..\aes256ctr.c **** 	q[2] = q1 ^ r1 ^ r2 ^ rotr32(q2 ^ r2);
 473:..\aes256ctr.c **** 	q[3] = q2 ^ r2 ^ q7 ^ r7 ^ r3 ^ rotr32(q3 ^ r3);
 474:..\aes256ctr.c **** 	q[4] = q3 ^ r3 ^ q7 ^ r7 ^ r4 ^ rotr32(q4 ^ r4);
 475:..\aes256ctr.c **** 	q[5] = q4 ^ r4 ^ r5 ^ rotr32(q5 ^ r5);
 476:..\aes256ctr.c **** 	q[6] = q5 ^ r5 ^ r6 ^ rotr32(q6 ^ r6);
 477:..\aes256ctr.c **** 	q[7] = q6 ^ r6 ^ r7 ^ rotr32(q7 ^ r7);
 478:..\aes256ctr.c **** }
 479:..\aes256ctr.c **** 
 480:..\aes256ctr.c **** static void inc4_be(uint32_t *x)
 481:..\aes256ctr.c **** {
 1966              		.loc 1 481 0
 1967              		.cfi_startproc
 1968              		@ args = 0, pretend = 0, frame = 0
 1969              		@ frame_needed = 0, uses_anonymous_args = 0
 1970              		@ link register save eliminated.
 1971              	.LVL376:
 482:..\aes256ctr.c ****   *x = br_swap32(*x)+4;
 1972              		.loc 1 482 0
 1973 0000 0268     		ldr	r2, [r0]
 1974              	.LVL377:
 1975              	.LBB60:
 1976              	.LBB61:
  47:..\aes256ctr.c **** 		| ((x >> 8) & (uint32_t)0x00FF00FF);
 1977              		.loc 1 47 0
 1978 0002 1302     		lsls	r3, r2, #8
 1979 0004 03F0FF23 		and	r3, r3, #-16711936
  48:..\aes256ctr.c **** 	return (x << 16) | (x >> 16);
 1980              		.loc 1 48 0
 1981 0008 120A     		lsrs	r2, r2, #8
 1982              	.LVL378:
 1983 000a 02F0FF12 		and	r2, r2, #16711935
  47:..\aes256ctr.c **** 		| ((x >> 8) & (uint32_t)0x00FF00FF);
 1984              		.loc 1 47 0
 1985 000e 1343     		orrs	r3, r3, r2
 1986              	.LVL379:
  49:..\aes256ctr.c **** }
 1987              		.loc 1 49 0
 1988 0010 4FEA3343 		ror	r3, r3, #16
 1989              	.LVL380:
 1990              	.LBE61:
 1991              	.LBE60:
 1992              		.loc 1 482 0
 1993 0014 0433     		adds	r3, r3, #4
 1994              	.LVL381:
 1995              	.LBB62:
 1996              	.LBB63:
  47:..\aes256ctr.c **** 		| ((x >> 8) & (uint32_t)0x00FF00FF);
 1997              		.loc 1 47 0
 1998 0016 1A02     		lsls	r2, r3, #8
 1999 0018 02F0FF22 		and	r2, r2, #-16711936
  48:..\aes256ctr.c **** 	return (x << 16) | (x >> 16);
 2000              		.loc 1 48 0
 2001 001c 1B0A     		lsrs	r3, r3, #8
 2002              	.LVL382:
 2003 001e 03F0FF13 		and	r3, r3, #16711935
ARM GAS  C:\Users\bogur\AppData\Local\Temp\cca0k2e0.s 			page 45


  47:..\aes256ctr.c **** 		| ((x >> 8) & (uint32_t)0x00FF00FF);
 2004              		.loc 1 47 0
 2005 0022 1343     		orrs	r3, r3, r2
 2006              	.LVL383:
  49:..\aes256ctr.c **** }
 2007              		.loc 1 49 0
 2008 0024 4FEA3343 		ror	r3, r3, #16
 2009              	.LVL384:
 2010              	.LBE63:
 2011              	.LBE62:
 483:..\aes256ctr.c ****   *x = br_swap32(*x);
 2012              		.loc 1 483 0
 2013 0028 0360     		str	r3, [r0]
 2014 002a 7047     		bx	lr
 2015              		.cfi_endproc
 2016              	.LFE16:
 2017              		.size	inc4_be, .-inc4_be
 2018              		.section	.text.sub_word,"ax",%progbits
 2019              		.align	2
 2020              		.thumb
 2021              		.thumb_func
 2022              		.type	sub_word, %function
 2023              	sub_word:
 2024              	.LFB9:
 328:..\aes256ctr.c **** 	uint64_t q[8];
 2025              		.loc 1 328 0
 2026              		.cfi_startproc
 2027              		@ args = 0, pretend = 0, frame = 64
 2028              		@ frame_needed = 0, uses_anonymous_args = 0
 2029              	.LVL385:
 2030 0000 10B5     		push	{r4, lr}
 2031              		.cfi_def_cfa_offset 8
 2032              		.cfi_offset 4, -8
 2033              		.cfi_offset 14, -4
 2034 0002 90B0     		sub	sp, sp, #64
 2035              		.cfi_def_cfa_offset 72
 2036 0004 0446     		mov	r4, r0
 331:..\aes256ctr.c **** 	q[0] = x;
 2037              		.loc 1 331 0
 2038 0006 4022     		movs	r2, #64
 2039 0008 0021     		movs	r1, #0
 2040 000a 6846     		mov	r0, sp
 2041              	.LVL386:
 2042 000c FFF7FEFF 		bl	memset
 2043              	.LVL387:
 332:..\aes256ctr.c **** 	br_aes_ct64_ortho(q);
 2044              		.loc 1 332 0
 2045 0010 0094     		str	r4, [sp]
 333:..\aes256ctr.c **** 	br_aes_ct64_bitslice_Sbox(q);
 2046              		.loc 1 333 0
 2047 0012 6846     		mov	r0, sp
 2048 0014 FFF7FEFF 		bl	br_aes_ct64_ortho
 2049              	.LVL388:
 334:..\aes256ctr.c **** 	br_aes_ct64_ortho(q);
 2050              		.loc 1 334 0
 2051 0018 6846     		mov	r0, sp
 2052 001a FFF7FEFF 		bl	br_aes_ct64_bitslice_Sbox
ARM GAS  C:\Users\bogur\AppData\Local\Temp\cca0k2e0.s 			page 46


 2053              	.LVL389:
 335:..\aes256ctr.c **** 	return (uint32_t)q[0];
 2054              		.loc 1 335 0
 2055 001e 6846     		mov	r0, sp
 2056 0020 FFF7FEFF 		bl	br_aes_ct64_ortho
 2057              	.LVL390:
 337:..\aes256ctr.c **** 
 2058              		.loc 1 337 0
 2059 0024 0098     		ldr	r0, [sp]
 2060 0026 10B0     		add	sp, sp, #64
 2061              		.cfi_def_cfa_offset 8
 2062              		@ sp needed
 2063 0028 10BD     		pop	{r4, pc}
 2064              		.cfi_endproc
 2065              	.LFE9:
 2066              		.size	sub_word, .-sub_word
 2067 002a 00BF     		.section	.text.br_aes_ct64_keysched,"ax",%progbits
 2068              		.align	2
 2069              		.thumb
 2070              		.thumb_func
 2071              		.type	br_aes_ct64_keysched, %function
 2072              	br_aes_ct64_keysched:
 2073              	.LFB10:
 340:..\aes256ctr.c **** 	int i, j, k, nk, nkf;
 2074              		.loc 1 340 0
 2075              		.cfi_startproc
 2076              		@ args = 0, pretend = 0, frame = 304
 2077              		@ frame_needed = 0, uses_anonymous_args = 0
 2078              	.LVL391:
 2079 0000 2DE9F043 		push	{r4, r5, r6, r7, r8, r9, lr}
 2080              		.cfi_def_cfa_offset 28
 2081              		.cfi_offset 4, -28
 2082              		.cfi_offset 5, -24
 2083              		.cfi_offset 6, -20
 2084              		.cfi_offset 7, -16
 2085              		.cfi_offset 8, -12
 2086              		.cfi_offset 9, -8
 2087              		.cfi_offset 14, -4
 2088 0004 CDB0     		sub	sp, sp, #308
 2089              		.cfi_def_cfa_offset 336
 2090 0006 0646     		mov	r6, r0
 2091              	.LVL392:
 349:..\aes256ctr.c **** 	tmp = skey[(key_len >> 2) - 1];
 2092              		.loc 1 349 0
 2093 0008 0A46     		mov	r2, r1
 2094 000a 0821     		movs	r1, #8
 2095              	.LVL393:
 2096 000c 10A8     		add	r0, sp, #64
 2097              	.LVL394:
 2098 000e FFF7FEFF 		bl	br_range_dec32le
 2099              	.LVL395:
 350:..\aes256ctr.c **** 	for (i = nk, j = 0, k = 0; i < nkf; i ++) {
 2100              		.loc 1 350 0
 2101 0012 1798     		ldr	r0, [sp, #92]
 2102              	.LVL396:
 351:..\aes256ctr.c **** 		if (j == 0) {
 2103              		.loc 1 351 0
ARM GAS  C:\Users\bogur\AppData\Local\Temp\cca0k2e0.s 			page 47


 2104 0014 0027     		movs	r7, #0
 2105 0016 3D46     		mov	r5, r7
 2106 0018 0824     		movs	r4, #8
 2107 001a 1EE0     		b	.L25
 2108              	.LVL397:
 2109              	.L29:
 352:..\aes256ctr.c **** 			tmp = (tmp << 24) | (tmp >> 8);
 2110              		.loc 1 352 0
 2111 001c 3DB9     		cbnz	r5, .L26
 2112              	.LVL398:
 354:..\aes256ctr.c **** 		} else if (nk > 6 && j == 4) {
 2113              		.loc 1 354 0
 2114 001e 4FEA3020 		ror	r0, r0, #8
 2115              	.LVL399:
 2116 0022 FFF7FEFF 		bl	sub_word
 2117              	.LVL400:
 2118 0026 444B     		ldr	r3, .L33
 2119 0028 DB5D     		ldrb	r3, [r3, r7]	@ zero_extendqisi2
 2120 002a 5840     		eors	r0, r0, r3
 2121              	.LVL401:
 2122 002c 03E0     		b	.L27
 2123              	.L26:
 355:..\aes256ctr.c **** 			tmp = sub_word(tmp);
 2124              		.loc 1 355 0 discriminator 1
 2125 002e 042D     		cmp	r5, #4
 2126 0030 01D1     		bne	.L27
 356:..\aes256ctr.c **** 		}
 2127              		.loc 1 356 0
 2128 0032 FFF7FEFF 		bl	sub_word
 2129              	.LVL402:
 2130              	.L27:
 358:..\aes256ctr.c **** 		skey[i] = tmp;
 2131              		.loc 1 358 0
 2132 0036 A4F10803 		sub	r3, r4, #8
 2133 003a 4CAA     		add	r2, sp, #304
 2134 003c 02EB8303 		add	r3, r2, r3, lsl #2
 2135 0040 53F8F03C 		ldr	r3, [r3, #-240]
 2136 0044 5840     		eors	r0, r0, r3
 2137              	.LVL403:
 359:..\aes256ctr.c **** 		if (++ j == nk) {
 2138              		.loc 1 359 0
 2139 0046 02EB8403 		add	r3, r2, r4, lsl #2
 2140 004a 43F8F00C 		str	r0, [r3, #-240]
 360:..\aes256ctr.c **** 			j = 0;
 2141              		.loc 1 360 0
 2142 004e 0135     		adds	r5, r5, #1
 2143              	.LVL404:
 2144 0050 082D     		cmp	r5, #8
 2145 0052 01D1     		bne	.L28
 2146              	.LVL405:
 362:..\aes256ctr.c **** 		}
 2147              		.loc 1 362 0
 2148 0054 0137     		adds	r7, r7, #1
 2149              	.LVL406:
 361:..\aes256ctr.c **** 			k ++;
 2150              		.loc 1 361 0
 2151 0056 0025     		movs	r5, #0
ARM GAS  C:\Users\bogur\AppData\Local\Temp\cca0k2e0.s 			page 48


 2152              	.LVL407:
 2153              	.L28:
 351:..\aes256ctr.c **** 		if (j == 0) {
 2154              		.loc 1 351 0 discriminator 2
 2155 0058 0134     		adds	r4, r4, #1
 2156              	.LVL408:
 2157              	.L25:
 351:..\aes256ctr.c **** 		if (j == 0) {
 2158              		.loc 1 351 0 is_stmt 0 discriminator 1
 2159 005a 3B2C     		cmp	r4, #59
 2160 005c DEDD     		ble	.L29
 2161 005e 0025     		movs	r5, #0
 2162              	.LVL409:
 2163 0060 2C46     		mov	r4, r5
 2164              	.LVL410:
 2165 0062 64E0     		b	.L30
 2166              	.LVL411:
 2167              	.L31:
 2168              	.LBB64:
 369:..\aes256ctr.c **** 		q[1] = q[0];
 2169              		.loc 1 369 0 is_stmt 1 discriminator 3
 2170 0064 10AB     		add	r3, sp, #64
 2171 0066 03EB8402 		add	r2, r3, r4, lsl #2
 2172 006a 08A9     		add	r1, sp, #32
 2173 006c 6846     		mov	r0, sp
 2174 006e FFF7FEFF 		bl	br_aes_ct64_interleave_in
 2175              	.LVL412:
 370:..\aes256ctr.c **** 		q[2] = q[0];
 2176              		.loc 1 370 0 discriminator 3
 2177 0072 DDE90023 		ldrd	r2, [sp]
 2178 0076 CDE90223 		strd	r2, [sp, #8]
 371:..\aes256ctr.c **** 		q[3] = q[0];
 2179              		.loc 1 371 0 discriminator 3
 2180 007a CDE90423 		strd	r2, [sp, #16]
 372:..\aes256ctr.c **** 		q[5] = q[4];
 2181              		.loc 1 372 0 discriminator 3
 2182 007e CDE90623 		strd	r2, [sp, #24]
 373:..\aes256ctr.c **** 		q[6] = q[4];
 2183              		.loc 1 373 0 discriminator 3
 2184 0082 DDE90823 		ldrd	r2, [sp, #32]
 2185 0086 CDE90A23 		strd	r2, [sp, #40]
 374:..\aes256ctr.c **** 		q[7] = q[4];
 2186              		.loc 1 374 0 discriminator 3
 2187 008a CDE90C23 		strd	r2, [sp, #48]
 375:..\aes256ctr.c **** 		br_aes_ct64_ortho(q);
 2188              		.loc 1 375 0 discriminator 3
 2189 008e CDE90E23 		strd	r2, [sp, #56]
 376:..\aes256ctr.c **** 		comp_skey[j + 0] =
 2190              		.loc 1 376 0 discriminator 3
 2191 0092 6846     		mov	r0, sp
 2192 0094 FFF7FEFF 		bl	br_aes_ct64_ortho
 2193              	.LVL413:
 377:..\aes256ctr.c **** 			  (q[0] & (uint64_t)0x1111111111111111)
 2194              		.loc 1 377 0 discriminator 3
 2195 0098 06EBC507 		add	r7, r6, r5, lsl #3
 378:..\aes256ctr.c **** 			| (q[1] & (uint64_t)0x2222222222222222)
 2196              		.loc 1 378 0 discriminator 3
ARM GAS  C:\Users\bogur\AppData\Local\Temp\cca0k2e0.s 			page 49


 2197 009c DDE90001 		ldrd	r0, [sp]
 2198 00a0 00F01132 		and	r2, r0, #286331153
 2199 00a4 01F01133 		and	r3, r1, #286331153
 379:..\aes256ctr.c **** 			| (q[2] & (uint64_t)0x4444444444444444)
 2200              		.loc 1 379 0 discriminator 3
 2201 00a8 DDE90289 		ldrd	r8, [sp, #8]
 2202 00ac 08F02230 		and	r0, r8, #572662306
 2203 00b0 09F02231 		and	r1, r9, #572662306
 2204 00b4 1043     		orrs	r0, r0, r2
 2205 00b6 1943     		orrs	r1, r1, r3
 380:..\aes256ctr.c **** 			| (q[3] & (uint64_t)0x8888888888888888);
 2206              		.loc 1 380 0 discriminator 3
 2207 00b8 DDE90423 		ldrd	r2, [sp, #16]
 2208 00bc 02F04432 		and	r2, r2, #1145324612
 2209 00c0 03F04433 		and	r3, r3, #1145324612
 2210 00c4 1043     		orrs	r0, r0, r2
 2211 00c6 1943     		orrs	r1, r1, r3
 381:..\aes256ctr.c **** 		comp_skey[j + 1] =
 2212              		.loc 1 381 0 discriminator 3
 2213 00c8 DDE90689 		ldrd	r8, [sp, #24]
 2214 00cc 08F08838 		and	r8, r8, #-2004318072
 2215 00d0 09F08839 		and	r9, r9, #-2004318072
 2216 00d4 40EA0800 		orr	r0, r0, r8
 2217 00d8 41EA0901 		orr	r1, r1, r9
 377:..\aes256ctr.c **** 			  (q[0] & (uint64_t)0x1111111111111111)
 2218              		.loc 1 377 0 discriminator 3
 2219 00dc C7E90001 		strd	r0, [r7]
 382:..\aes256ctr.c **** 			  (q[4] & (uint64_t)0x1111111111111111)
 2220              		.loc 1 382 0 discriminator 3
 2221 00e0 6F1C     		adds	r7, r5, #1
 2222 00e2 06EBC707 		add	r7, r6, r7, lsl #3
 383:..\aes256ctr.c **** 			| (q[5] & (uint64_t)0x2222222222222222)
 2223              		.loc 1 383 0 discriminator 3
 2224 00e6 DDE90823 		ldrd	r2, [sp, #32]
 2225 00ea 02F01132 		and	r2, r2, #286331153
 2226 00ee 03F01133 		and	r3, r3, #286331153
 384:..\aes256ctr.c **** 			| (q[6] & (uint64_t)0x4444444444444444)
 2227              		.loc 1 384 0 discriminator 3
 2228 00f2 DDE90A89 		ldrd	r8, [sp, #40]
 2229 00f6 08F02238 		and	r8, r8, #572662306
 2230 00fa 09F02239 		and	r9, r9, #572662306
 2231 00fe 42EA0802 		orr	r2, r2, r8
 2232 0102 43EA0903 		orr	r3, r3, r9
 385:..\aes256ctr.c **** 			| (q[7] & (uint64_t)0x8888888888888888);
 2233              		.loc 1 385 0 discriminator 3
 2234 0106 DDE90C01 		ldrd	r0, [sp, #48]
 2235 010a 00F04430 		and	r0, r0, #1145324612
 2236 010e 01F04431 		and	r1, r1, #1145324612
 2237 0112 0243     		orrs	r2, r2, r0
 2238 0114 0B43     		orrs	r3, r3, r1
 386:..\aes256ctr.c **** 	}
 2239              		.loc 1 386 0 discriminator 3
 2240 0116 DDE90E01 		ldrd	r0, [sp, #56]
 2241 011a 00F08830 		and	r0, r0, #-2004318072
 2242 011e 01F08831 		and	r1, r1, #-2004318072
 2243 0122 1043     		orrs	r0, r0, r2
 2244 0124 1943     		orrs	r1, r1, r3
ARM GAS  C:\Users\bogur\AppData\Local\Temp\cca0k2e0.s 			page 50


 382:..\aes256ctr.c **** 			  (q[4] & (uint64_t)0x1111111111111111)
 2245              		.loc 1 382 0 discriminator 3
 2246 0126 C7E90001 		strd	r0, [r7]
 2247              	.LBE64:
 366:..\aes256ctr.c **** 		uint64_t q[8];
 2248              		.loc 1 366 0 discriminator 3
 2249 012a 0434     		adds	r4, r4, #4
 2250              	.LVL414:
 2251 012c 0235     		adds	r5, r5, #2
 2252              	.LVL415:
 2253              	.L30:
 366:..\aes256ctr.c **** 		uint64_t q[8];
 2254              		.loc 1 366 0 is_stmt 0 discriminator 1
 2255 012e 3B2C     		cmp	r4, #59
 2256 0130 98DD     		ble	.L31
 388:..\aes256ctr.c **** 
 2257              		.loc 1 388 0 is_stmt 1
 2258 0132 4DB0     		add	sp, sp, #308
 2259              		.cfi_def_cfa_offset 28
 2260              		@ sp needed
 2261 0134 BDE8F083 		pop	{r4, r5, r6, r7, r8, r9, pc}
 2262              	.LVL416:
 2263              	.L34:
 2264              		.align	2
 2265              	.L33:
 2266 0138 00000000 		.word	.LANCHOR0
 2267              		.cfi_endproc
 2268              	.LFE10:
 2269              		.size	br_aes_ct64_keysched, .-br_aes_ct64_keysched
 2270              		.section	.text.br_aes_ct64_ctr_init,"ax",%progbits
 2271              		.align	2
 2272              		.thumb
 2273              		.thumb_func
 2274              		.type	br_aes_ct64_ctr_init, %function
 2275              	br_aes_ct64_ctr_init:
 2276              	.LFB18:
 484:..\aes256ctr.c **** }
 485:..\aes256ctr.c **** 
 486:..\aes256ctr.c **** static void aes_ctr4x(uint8_t out[64], uint32_t ivw[16], uint64_t sk_exp[64])
 487:..\aes256ctr.c **** {
 488:..\aes256ctr.c ****   uint32_t w[16];
 489:..\aes256ctr.c ****   uint64_t q[8];
 490:..\aes256ctr.c ****   int i;
 491:..\aes256ctr.c **** 
 492:..\aes256ctr.c ****   memcpy(w, ivw, sizeof(w));
 493:..\aes256ctr.c ****   for (i = 0; i < 4; i++) {
 494:..\aes256ctr.c ****     br_aes_ct64_interleave_in(&q[i], &q[i + 4], w + (i << 2));
 495:..\aes256ctr.c ****   }
 496:..\aes256ctr.c ****   br_aes_ct64_ortho(q);
 497:..\aes256ctr.c **** 
 498:..\aes256ctr.c ****   add_round_key(q, sk_exp);
 499:..\aes256ctr.c ****   for (i = 1; i < 14; i++) {
 500:..\aes256ctr.c ****     br_aes_ct64_bitslice_Sbox(q);
 501:..\aes256ctr.c ****     shift_rows(q);
 502:..\aes256ctr.c ****     mix_columns(q);
 503:..\aes256ctr.c ****     add_round_key(q, sk_exp + (i << 3));
 504:..\aes256ctr.c ****   }
ARM GAS  C:\Users\bogur\AppData\Local\Temp\cca0k2e0.s 			page 51


 505:..\aes256ctr.c ****   br_aes_ct64_bitslice_Sbox(q);
 506:..\aes256ctr.c ****   shift_rows(q);
 507:..\aes256ctr.c ****   add_round_key(q, sk_exp + 112);
 508:..\aes256ctr.c **** 
 509:..\aes256ctr.c ****   br_aes_ct64_ortho(q);
 510:..\aes256ctr.c ****   for (i = 0; i < 4; i ++) {
 511:..\aes256ctr.c ****     br_aes_ct64_interleave_out(w + (i << 2), q[i], q[i + 4]);
 512:..\aes256ctr.c ****   }
 513:..\aes256ctr.c ****   br_range_enc32le(out, w, 16);
 514:..\aes256ctr.c **** 
 515:..\aes256ctr.c ****   /* Increase counter for next 4 blocks */
 516:..\aes256ctr.c ****   inc4_be(ivw+3);
 517:..\aes256ctr.c ****   inc4_be(ivw+7);
 518:..\aes256ctr.c ****   inc4_be(ivw+11);
 519:..\aes256ctr.c ****   inc4_be(ivw+15);
 520:..\aes256ctr.c **** }
 521:..\aes256ctr.c **** 
 522:..\aes256ctr.c **** static void br_aes_ct64_ctr_init(uint64_t sk_exp[120], const uint8_t *key)
 523:..\aes256ctr.c **** {
 2277              		.loc 1 523 0
 2278              		.cfi_startproc
 2279              		@ args = 0, pretend = 0, frame = 240
 2280              		@ frame_needed = 0, uses_anonymous_args = 0
 2281              	.LVL417:
 2282 0000 10B5     		push	{r4, lr}
 2283              		.cfi_def_cfa_offset 8
 2284              		.cfi_offset 4, -8
 2285              		.cfi_offset 14, -4
 2286 0002 BCB0     		sub	sp, sp, #240
 2287              		.cfi_def_cfa_offset 248
 2288 0004 0446     		mov	r4, r0
 524:..\aes256ctr.c **** 	uint64_t skey[30];
 525:..\aes256ctr.c **** 
 526:..\aes256ctr.c **** 	br_aes_ct64_keysched(skey, key);
 2289              		.loc 1 526 0
 2290 0006 6846     		mov	r0, sp
 2291              	.LVL418:
 2292 0008 FFF7FEFF 		bl	br_aes_ct64_keysched
 2293              	.LVL419:
 527:..\aes256ctr.c **** 	br_aes_ct64_skey_expand(sk_exp, skey);
 2294              		.loc 1 527 0
 2295 000c 6946     		mov	r1, sp
 2296 000e 2046     		mov	r0, r4
 2297 0010 FFF7FEFF 		bl	br_aes_ct64_skey_expand
 2298              	.LVL420:
 528:..\aes256ctr.c **** }
 2299              		.loc 1 528 0
 2300 0014 3CB0     		add	sp, sp, #240
 2301              		.cfi_def_cfa_offset 8
 2302              		@ sp needed
 2303 0016 10BD     		pop	{r4, pc}
 2304              		.cfi_endproc
 2305              	.LFE18:
 2306              		.size	br_aes_ct64_ctr_init, .-br_aes_ct64_ctr_init
 2307              		.section	.text.aes_ctr4x,"ax",%progbits
 2308              		.align	2
 2309              		.thumb
ARM GAS  C:\Users\bogur\AppData\Local\Temp\cca0k2e0.s 			page 52


 2310              		.thumb_func
 2311              		.type	aes_ctr4x, %function
 2312              	aes_ctr4x:
 2313              	.LFB17:
 487:..\aes256ctr.c ****   uint32_t w[16];
 2314              		.loc 1 487 0
 2315              		.cfi_startproc
 2316              		@ args = 0, pretend = 0, frame = 416
 2317              		@ frame_needed = 0, uses_anonymous_args = 0
 2318              	.LVL421:
 2319 0000 2DE9F04F 		push	{r4, r5, r6, r7, r8, r9, r10, fp, lr}
 2320              		.cfi_def_cfa_offset 36
 2321              		.cfi_offset 4, -36
 2322              		.cfi_offset 5, -32
 2323              		.cfi_offset 6, -28
 2324              		.cfi_offset 7, -24
 2325              		.cfi_offset 8, -20
 2326              		.cfi_offset 9, -16
 2327              		.cfi_offset 10, -12
 2328              		.cfi_offset 11, -8
 2329              		.cfi_offset 14, -4
 2330 0004 EBB0     		sub	sp, sp, #428
 2331              		.cfi_def_cfa_offset 464
 2332 0006 4490     		str	r0, [sp, #272]
 2333 0008 4591     		str	r1, [sp, #276]
 2334 000a 4392     		str	r2, [sp, #268]
 492:..\aes256ctr.c ****   for (i = 0; i < 4; i++) {
 2335              		.loc 1 492 0
 2336 000c 0F46     		mov	r7, r1
 2337 000e 5AAD     		add	r5, sp, #360
 2338 0010 01F14006 		add	r6, r1, #64
 2339              	.LVL422:
 2340              	.L38:
 2341 0014 2C46     		mov	r4, r5
 2342 0016 3868     		ldr	r0, [r7]	@ unaligned
 2343 0018 7968     		ldr	r1, [r7, #4]	@ unaligned
 2344 001a BA68     		ldr	r2, [r7, #8]	@ unaligned
 2345 001c FB68     		ldr	r3, [r7, #12]	@ unaligned
 2346 001e 0FC4     		stmia	r4!, {r0, r1, r2, r3}
 2347 0020 1037     		adds	r7, r7, #16
 2348 0022 2546     		mov	r5, r4
 2349 0024 B742     		cmp	r7, r6
 2350 0026 F5D1     		bne	.L38
 2351              	.LVL423:
 493:..\aes256ctr.c ****     br_aes_ct64_interleave_in(&q[i], &q[i + 4], w + (i << 2));
 2352              		.loc 1 493 0
 2353 0028 0024     		movs	r4, #0
 2354 002a 0BE0     		b	.L39
 2355              	.LVL424:
 2356              	.L40:
 494:..\aes256ctr.c ****   }
 2357              		.loc 1 494 0 discriminator 3
 2358 002c 211D     		adds	r1, r4, #4
 2359 002e 5AAB     		add	r3, sp, #360
 2360 0030 03EB0412 		add	r2, r3, r4, lsl #4
 2361 0034 4AAB     		add	r3, sp, #296
 2362 0036 03EBC101 		add	r1, r3, r1, lsl #3
ARM GAS  C:\Users\bogur\AppData\Local\Temp\cca0k2e0.s 			page 53


 2363 003a 03EBC400 		add	r0, r3, r4, lsl #3
 2364 003e FFF7FEFF 		bl	br_aes_ct64_interleave_in
 2365              	.LVL425:
 493:..\aes256ctr.c ****     br_aes_ct64_interleave_in(&q[i], &q[i + 4], w + (i << 2));
 2366              		.loc 1 493 0 discriminator 3
 2367 0042 0134     		adds	r4, r4, #1
 2368              	.LVL426:
 2369              	.L39:
 493:..\aes256ctr.c ****     br_aes_ct64_interleave_in(&q[i], &q[i + 4], w + (i << 2));
 2370              		.loc 1 493 0 is_stmt 0 discriminator 1
 2371 0044 032C     		cmp	r4, #3
 2372 0046 F1DD     		ble	.L40
 496:..\aes256ctr.c **** 
 2373              		.loc 1 496 0 is_stmt 1
 2374 0048 4AA8     		add	r0, sp, #296
 2375 004a FFF7FEFF 		bl	br_aes_ct64_ortho
 2376              	.LVL427:
 2377              	.LBB95:
 2378              	.LBB96:
 415:..\aes256ctr.c **** 	q[1] ^= sk[1];
 2379              		.loc 1 415 0
 2380 004e 439C     		ldr	r4, [sp, #268]
 2381              	.LVL428:
 2382 0050 D4E90001 		ldrd	r0, [r4]
 2383 0054 4AAB     		add	r3, sp, #296
 2384              	.LVL429:
 2385 0056 D3E90023 		ldrd	r2, [r3]
 2386 005a 4240     		eors	r2, r2, r0
 2387 005c 4B40     		eors	r3, r3, r1
 2388              	.LVL430:
 2389 005e 4AA9     		add	r1, sp, #296
 2390 0060 C1E90023 		strd	r2, [r1]
 416:..\aes256ctr.c **** 	q[2] ^= sk[2];
 2391              		.loc 1 416 0
 2392 0064 D4E90201 		ldrd	r0, [r4, #8]
 2393 0068 4CAB     		add	r3, sp, #304
 2394 006a D3E90023 		ldrd	r2, [r3]
 2395 006e 4240     		eors	r2, r2, r0
 2396 0070 4B40     		eors	r3, r3, r1
 2397 0072 4CA9     		add	r1, sp, #304
 2398 0074 C1E90023 		strd	r2, [r1]
 417:..\aes256ctr.c **** 	q[3] ^= sk[3];
 2399              		.loc 1 417 0
 2400 0078 D4E90401 		ldrd	r0, [r4, #16]
 2401 007c 4EAB     		add	r3, sp, #312
 2402 007e D3E90023 		ldrd	r2, [r3]
 2403 0082 4240     		eors	r2, r2, r0
 2404 0084 4B40     		eors	r3, r3, r1
 2405 0086 4EA9     		add	r1, sp, #312
 2406 0088 C1E90023 		strd	r2, [r1]
 418:..\aes256ctr.c **** 	q[4] ^= sk[4];
 2407              		.loc 1 418 0
 2408 008c D4E90601 		ldrd	r0, [r4, #24]
 2409 0090 50AB     		add	r3, sp, #320
 2410 0092 D3E90023 		ldrd	r2, [r3]
 2411 0096 4240     		eors	r2, r2, r0
 2412 0098 4B40     		eors	r3, r3, r1
ARM GAS  C:\Users\bogur\AppData\Local\Temp\cca0k2e0.s 			page 54


 2413 009a 50A9     		add	r1, sp, #320
 2414 009c C1E90023 		strd	r2, [r1]
 419:..\aes256ctr.c **** 	q[5] ^= sk[5];
 2415              		.loc 1 419 0
 2416 00a0 D4E90801 		ldrd	r0, [r4, #32]
 2417 00a4 52AB     		add	r3, sp, #328
 2418 00a6 D3E90023 		ldrd	r2, [r3]
 2419 00aa 4240     		eors	r2, r2, r0
 2420 00ac 4B40     		eors	r3, r3, r1
 2421 00ae 52A9     		add	r1, sp, #328
 2422 00b0 C1E90023 		strd	r2, [r1]
 420:..\aes256ctr.c **** 	q[6] ^= sk[6];
 2423              		.loc 1 420 0
 2424 00b4 D4E90A01 		ldrd	r0, [r4, #40]
 2425 00b8 54AB     		add	r3, sp, #336
 2426 00ba D3E90023 		ldrd	r2, [r3]
 2427 00be 4240     		eors	r2, r2, r0
 2428 00c0 4B40     		eors	r3, r3, r1
 2429 00c2 54A9     		add	r1, sp, #336
 2430 00c4 C1E90023 		strd	r2, [r1]
 421:..\aes256ctr.c **** 	q[7] ^= sk[7];
 2431              		.loc 1 421 0
 2432 00c8 D4E90C01 		ldrd	r0, [r4, #48]
 2433 00cc 56AB     		add	r3, sp, #344
 2434 00ce D3E90023 		ldrd	r2, [r3]
 2435 00d2 4240     		eors	r2, r2, r0
 2436 00d4 4B40     		eors	r3, r3, r1
 2437 00d6 56A9     		add	r1, sp, #344
 2438 00d8 C1E90023 		strd	r2, [r1]
 422:..\aes256ctr.c **** }
 2439              		.loc 1 422 0
 2440 00dc D4E90E01 		ldrd	r0, [r4, #56]
 2441 00e0 58AB     		add	r3, sp, #352
 2442 00e2 D3E90023 		ldrd	r2, [r3]
 2443 00e6 4240     		eors	r2, r2, r0
 2444 00e8 4B40     		eors	r3, r3, r1
 2445 00ea 58A9     		add	r1, sp, #352
 2446 00ec C1E90023 		strd	r2, [r1]
 2447              	.LBE96:
 2448              	.LBE95:
 499:..\aes256ctr.c ****     br_aes_ct64_bitslice_Sbox(q);
 2449              		.loc 1 499 0
 2450 00f0 0123     		movs	r3, #1
 2451 00f2 4293     		str	r3, [sp, #264]
 2452 00f4 F7E1     		b	.L41
 2453              	.LVL431:
 2454              	.L44:
 500:..\aes256ctr.c ****     shift_rows(q);
 2455              		.loc 1 500 0 discriminator 3
 2456 00f6 4AA8     		add	r0, sp, #296
 2457 00f8 FFF7FEFF 		bl	br_aes_ct64_bitslice_Sbox
 2458              	.LVL432:
 2459              	.LBB97:
 2460              	.LBB98:
 429:..\aes256ctr.c **** 		uint64_t x;
 2461              		.loc 1 429 0 discriminator 3
 2462 00fc 4FF0000C 		mov	ip, #0
ARM GAS  C:\Users\bogur\AppData\Local\Temp\cca0k2e0.s 			page 55


 2463 0100 E646     		mov	lr, ip
 2464 0102 65E0     		b	.L42
 2465              	.LVL433:
 2466              	.L43:
 2467              	.LBB99:
 432:..\aes256ctr.c **** 		q[i] = (x & (uint64_t)0x000000000000FFFF)
 2468              		.loc 1 432 0
 2469 0104 4AAA     		add	r2, sp, #296
 2470 0106 02EBCE06 		add	r6, r2, lr, lsl #3
 2471 010a 3768     		ldr	r7, [r6]
 2472 010c D6F804C0 		ldr	ip, [r6, #4]
 2473              	.LVL434:
 433:..\aes256ctr.c **** 			| ((x & (uint64_t)0x00000000FFF00000) >> 4)
 2474              		.loc 1 433 0
 2475 0110 B8B2     		uxth	r0, r7
 2476 0112 0021     		movs	r1, #0
 434:..\aes256ctr.c **** 			| ((x & (uint64_t)0x00000000000F0000) << 12)
 2477              		.loc 1 434 0
 2478 0114 4FEA171A 		lsr	r10, r7, #4
 2479 0118 4AEA0C7A 		orr	r10, r10, ip, lsl #28
 2480 011c 4FEA1C1B 		lsr	fp, ip, #4
 2481 0120 294A     		ldr	r2, .L50
 2482 0122 0023     		movs	r3, #0
 2483              	.LVL435:
 2484 0124 02EA0A02 		and	r2, r2, r10
 2485 0128 03EA0B03 		and	r3, r3, fp
 2486 012c 0243     		orrs	r2, r2, r0
 2487 012e 0B43     		orrs	r3, r3, r1
 435:..\aes256ctr.c **** 			| ((x & (uint64_t)0x0000FF0000000000) >> 8)
 2488              		.loc 1 435 0
 2489 0130 4FEA0738 		lsl	r8, r7, #12
 2490 0134 08F07040 		and	r0, r8, #-268435456
 2491 0138 0021     		movs	r1, #0
 2492 013a 0243     		orrs	r2, r2, r0
 2493 013c 0B43     		orrs	r3, r3, r1
 436:..\aes256ctr.c **** 			| ((x & (uint64_t)0x000000FF00000000) << 8)
 2494              		.loc 1 436 0
 2495 013e 390A     		lsrs	r1, r7, #8
 2496 0140 41EA0C61 		orr	r1, r1, ip, lsl #24
 2497 0144 0291     		str	r1, [sp, #8]
 2498 0146 4FEA1C21 		lsr	r1, ip, #8
 2499 014a 0391     		str	r1, [sp, #12]
 2500 014c DDE90201 		ldrd	r0, [sp, #8]
 2501 0150 0020     		movs	r0, #0
 2502 0152 01F0FF01 		and	r1, r1, #255
 2503 0156 0243     		orrs	r2, r2, r0
 2504 0158 0B43     		orrs	r3, r3, r1
 437:..\aes256ctr.c **** 			| ((x & (uint64_t)0xF000000000000000) >> 12)
 2505              		.loc 1 437 0
 2506 015a 4FEA0C21 		lsl	r1, ip, #8
 2507 015e 41EA1761 		orr	r1, r1, r7, lsr #24
 2508 0162 0591     		str	r1, [sp, #20]
 2509 0164 3902     		lsls	r1, r7, #8
 2510 0166 0491     		str	r1, [sp, #16]
 2511 0168 DDE90401 		ldrd	r0, [sp, #16]
 2512 016c 0020     		movs	r0, #0
 2513 016e 01F47F41 		and	r1, r1, #65280
ARM GAS  C:\Users\bogur\AppData\Local\Temp\cca0k2e0.s 			page 56


 2514 0172 0243     		orrs	r2, r2, r0
 2515 0174 0B43     		orrs	r3, r3, r1
 438:..\aes256ctr.c **** 			| ((x & (uint64_t)0x0FFF000000000000) << 4);
 2516              		.loc 1 438 0
 2517 0176 390B     		lsrs	r1, r7, #12
 2518 0178 41EA0C51 		orr	r1, r1, ip, lsl #20
 2519 017c 0691     		str	r1, [sp, #24]
 2520 017e 4FEA1C31 		lsr	r1, ip, #12
 2521 0182 0791     		str	r1, [sp, #28]
 2522 0184 DDE90601 		ldrd	r0, [sp, #24]
 2523 0188 0020     		movs	r0, #0
 2524 018a 01F47021 		and	r1, r1, #983040
 2525 018e 42EA0004 		orr	r4, r2, r0
 2526 0192 43EA0105 		orr	r5, r3, r1
 439:..\aes256ctr.c **** 	}
 2527              		.loc 1 439 0
 2528 0196 4FEA0C11 		lsl	r1, ip, #4
 2529 019a 41EA1771 		orr	r1, r1, r7, lsr #28
 2530 019e 0991     		str	r1, [sp, #36]
 2531 01a0 3901     		lsls	r1, r7, #4
 2532 01a2 0891     		str	r1, [sp, #32]
 2533 01a4 0020     		movs	r0, #0
 2534 01a6 0949     		ldr	r1, .L50+4
 2535 01a8 DDE90823 		ldrd	r2, [sp, #32]
 2536 01ac 0240     		ands	r2, r2, r0
 2537 01ae 0B40     		ands	r3, r3, r1
 2538 01b0 1046     		mov	r0, r2
 2539 01b2 1946     		mov	r1, r3
 2540 01b4 2246     		mov	r2, r4
 2541 01b6 2B46     		mov	r3, r5
 2542 01b8 0243     		orrs	r2, r2, r0
 2543 01ba 0B43     		orrs	r3, r3, r1
 433:..\aes256ctr.c **** 			| ((x & (uint64_t)0x00000000FFF00000) >> 4)
 2544              		.loc 1 433 0
 2545 01bc C6E90023 		strd	r2, [r6]
 2546              	.LBE99:
 429:..\aes256ctr.c **** 		uint64_t x;
 2547              		.loc 1 429 0
 2548 01c0 7346     		mov	r3, lr
 2549 01c2 0133     		adds	r3, r3, #1
 2550 01c4 9E46     		mov	lr, r3
 2551 01c6 03E0     		b	.L51
 2552              	.L52:
 2553              		.align	2
 2554              	.L50:
 2555 01c8 0000FF0F 		.word	268369920
 2556 01cc 0000F0FF 		.word	-1048576
 2557              	.L51:
 2558              	.LVL436:
 2559              	.L42:
 2560 01d0 7346     		mov	r3, lr
 2561 01d2 072B     		cmp	r3, #7
 2562 01d4 96DD     		ble	.L43
 2563              	.LVL437:
 2564              	.LBE98:
 2565              	.LBE97:
 2566              	.LBB100:
ARM GAS  C:\Users\bogur\AppData\Local\Temp\cca0k2e0.s 			page 57


 2567              	.LBB101:
 453:..\aes256ctr.c **** 	q1 = q[1];
 2568              		.loc 1 453 0
 2569 01d6 4AAB     		add	r3, sp, #296
 2570 01d8 D3E90023 		ldrd	r2, [r3]
 2571              	.LVL438:
 461:..\aes256ctr.c **** 	r1 = (q1 >> 16) | (q1 << 48);
 2572              		.loc 1 461 0
 2573 01dc 110C     		lsrs	r1, r2, #16
 2574 01de 41EA0341 		orr	r1, r1, r3, lsl #16
 2575 01e2 0C91     		str	r1, [sp, #48]
 2576 01e4 190C     		lsrs	r1, r3, #16
 2577 01e6 41EA0241 		orr	r1, r1, r2, lsl #16
 2578 01ea 0D91     		str	r1, [sp, #52]
 2579              	.LVL439:
 462:..\aes256ctr.c **** 	r2 = (q2 >> 16) | (q2 << 48);
 2580              		.loc 1 462 0
 2581 01ec 4C99     		ldr	r1, [sp, #304]
 2582 01ee 090C     		lsrs	r1, r1, #16
 2583 01f0 4D98     		ldr	r0, [sp, #308]
 2584 01f2 41EA0041 		orr	r1, r1, r0, lsl #16
 2585 01f6 0E91     		str	r1, [sp, #56]
 2586 01f8 010C     		lsrs	r1, r0, #16
 2587 01fa 4C98     		ldr	r0, [sp, #304]
 2588 01fc 41EA0041 		orr	r1, r1, r0, lsl #16
 2589 0200 0F91     		str	r1, [sp, #60]
 2590              	.LVL440:
 463:..\aes256ctr.c **** 	r3 = (q3 >> 16) | (q3 << 48);
 2591              		.loc 1 463 0
 2592 0202 4E99     		ldr	r1, [sp, #312]
 2593 0204 090C     		lsrs	r1, r1, #16
 2594 0206 4F98     		ldr	r0, [sp, #316]
 2595 0208 41EA0041 		orr	r1, r1, r0, lsl #16
 2596 020c 1091     		str	r1, [sp, #64]
 2597 020e 010C     		lsrs	r1, r0, #16
 2598 0210 4E98     		ldr	r0, [sp, #312]
 2599 0212 41EA0041 		orr	r1, r1, r0, lsl #16
 2600 0216 1191     		str	r1, [sp, #68]
 2601              	.LVL441:
 464:..\aes256ctr.c **** 	r4 = (q4 >> 16) | (q4 << 48);
 2602              		.loc 1 464 0
 2603 0218 5099     		ldr	r1, [sp, #320]
 2604 021a 090C     		lsrs	r1, r1, #16
 2605 021c 5198     		ldr	r0, [sp, #324]
 2606 021e 41EA0041 		orr	r1, r1, r0, lsl #16
 2607 0222 1291     		str	r1, [sp, #72]
 2608 0224 010C     		lsrs	r1, r0, #16
 2609 0226 5098     		ldr	r0, [sp, #320]
 2610 0228 41EA0041 		orr	r1, r1, r0, lsl #16
 2611 022c 1391     		str	r1, [sp, #76]
 2612              	.LVL442:
 465:..\aes256ctr.c **** 	r5 = (q5 >> 16) | (q5 << 48);
 2613              		.loc 1 465 0
 2614 022e 5299     		ldr	r1, [sp, #328]
 2615 0230 090C     		lsrs	r1, r1, #16
 2616 0232 5398     		ldr	r0, [sp, #332]
 2617 0234 41EA0041 		orr	r1, r1, r0, lsl #16
ARM GAS  C:\Users\bogur\AppData\Local\Temp\cca0k2e0.s 			page 58


 2618 0238 2091     		str	r1, [sp, #128]
 2619 023a 010C     		lsrs	r1, r0, #16
 2620 023c 5298     		ldr	r0, [sp, #328]
 2621 023e 41EA0041 		orr	r1, r1, r0, lsl #16
 2622 0242 2191     		str	r1, [sp, #132]
 2623              	.LVL443:
 466:..\aes256ctr.c **** 	r6 = (q6 >> 16) | (q6 << 48);
 2624              		.loc 1 466 0
 2625 0244 5499     		ldr	r1, [sp, #336]
 2626 0246 090C     		lsrs	r1, r1, #16
 2627 0248 5598     		ldr	r0, [sp, #340]
 2628 024a 41EA0041 		orr	r1, r1, r0, lsl #16
 2629 024e 1491     		str	r1, [sp, #80]
 2630 0250 010C     		lsrs	r1, r0, #16
 2631 0252 5498     		ldr	r0, [sp, #336]
 2632 0254 41EA0041 		orr	r1, r1, r0, lsl #16
 2633 0258 1591     		str	r1, [sp, #84]
 2634              	.LVL444:
 467:..\aes256ctr.c **** 	r7 = (q7 >> 16) | (q7 << 48);
 2635              		.loc 1 467 0
 2636 025a 5699     		ldr	r1, [sp, #344]
 2637 025c 090C     		lsrs	r1, r1, #16
 2638 025e 5798     		ldr	r0, [sp, #348]
 2639 0260 41EA0041 		orr	r1, r1, r0, lsl #16
 2640 0264 1691     		str	r1, [sp, #88]
 2641 0266 010C     		lsrs	r1, r0, #16
 2642 0268 5698     		ldr	r0, [sp, #344]
 2643 026a 41EA0041 		orr	r1, r1, r0, lsl #16
 2644 026e 1791     		str	r1, [sp, #92]
 2645              	.LVL445:
 468:..\aes256ctr.c **** 
 2646              		.loc 1 468 0
 2647 0270 5899     		ldr	r1, [sp, #352]
 2648 0272 090C     		lsrs	r1, r1, #16
 2649 0274 5998     		ldr	r0, [sp, #356]
 2650 0276 41EA0041 		orr	r1, r1, r0, lsl #16
 2651 027a 0A91     		str	r1, [sp, #40]
 2652 027c 010C     		lsrs	r1, r0, #16
 2653 027e 5898     		ldr	r0, [sp, #352]
 2654 0280 41EA0041 		orr	r1, r1, r0, lsl #16
 2655 0284 0B91     		str	r1, [sp, #44]
 2656              	.LVL446:
 470:..\aes256ctr.c **** 	q[1] = q0 ^ r0 ^ q7 ^ r7 ^ r1 ^ rotr32(q1 ^ r1);
 2657              		.loc 1 470 0
 2658 0286 DDE90A01 		ldrd	r0, [sp, #40]
 2659 028a 58AC     		add	r4, sp, #352
 2660 028c D4E90045 		ldrd	r4, [r4]
 2661 0290 4440     		eors	r4, r4, r0
 2662 0292 4D40     		eors	r5, r5, r1
 2663 0294 2046     		mov	r0, r4
 2664 0296 2946     		mov	r1, r5
 2665 0298 2646     		mov	r6, r4
 2666 029a 2F46     		mov	r7, r5
 2667 029c DDE90C45 		ldrd	r4, [sp, #48]
 2668 02a0 CDE93267 		strd	r6, [sp, #200]
 2669 02a4 4440     		eors	r4, r4, r0
 2670 02a6 4D40     		eors	r5, r5, r1
ARM GAS  C:\Users\bogur\AppData\Local\Temp\cca0k2e0.s 			page 59


 2671 02a8 2046     		mov	r0, r4
 2672 02aa 2946     		mov	r1, r5
 2673 02ac DDE90C45 		ldrd	r4, [sp, #48]
 2674 02b0 5440     		eors	r4, r4, r2
 2675 02b2 5D40     		eors	r5, r5, r3
 2676 02b4 2246     		mov	r2, r4
 2677              	.LVL447:
 2678 02b6 2B46     		mov	r3, r5
 2679              	.LVL448:
 2680              	.LBB102:
 2681              	.LBB103:
 445:..\aes256ctr.c **** }
 2682              		.loc 1 445 0
 2683 02b8 2295     		str	r5, [sp, #136]
 2684 02ba 2394     		str	r4, [sp, #140]
 2685              	.LVL449:
 2686              	.LBE103:
 2687              	.LBE102:
 470:..\aes256ctr.c **** 	q[1] = q0 ^ r0 ^ q7 ^ r7 ^ r1 ^ rotr32(q1 ^ r1);
 2688              		.loc 1 470 0
 2689 02bc DDE92245 		ldrd	r4, [sp, #136]
 2690 02c0 4440     		eors	r4, r4, r0
 2691 02c2 4D40     		eors	r5, r5, r1
 2692 02c4 CDE93445 		strd	r4, [sp, #208]
 471:..\aes256ctr.c **** 	q[2] = q1 ^ r1 ^ r2 ^ rotr32(q2 ^ r2);
 2693              		.loc 1 471 0
 2694 02c8 58A9     		add	r1, sp, #352
 2695 02ca D1E90001 		ldrd	r0, [r1]
 2696 02ce 5040     		eors	r0, r0, r2
 2697 02d0 5940     		eors	r1, r1, r3
 2698 02d2 0246     		mov	r2, r0
 2699 02d4 0B46     		mov	r3, r1
 2700 02d6 DDE90A01 		ldrd	r0, [sp, #40]
 2701 02da 5040     		eors	r0, r0, r2
 2702 02dc 5940     		eors	r1, r1, r3
 2703 02de DDE90E56 		ldrd	r5, [sp, #56]
 2704 02e2 4540     		eors	r5, r5, r0
 2705 02e4 4E40     		eors	r6, r6, r1
 2706 02e6 2A46     		mov	r2, r5
 2707 02e8 3346     		mov	r3, r6
 2708 02ea 4CA9     		add	r1, sp, #304
 2709 02ec D1E90001 		ldrd	r0, [r1]
 2710 02f0 DDE90E56 		ldrd	r5, [sp, #56]
 2711 02f4 6840     		eors	r0, r0, r5
 2712 02f6 7140     		eors	r1, r1, r6
 2713              	.LVL450:
 2714              	.LBB104:
 2715              	.LBB105:
 445:..\aes256ctr.c **** }
 2716              		.loc 1 445 0
 2717 02f8 2491     		str	r1, [sp, #144]
 2718 02fa 2590     		str	r0, [sp, #148]
 2719              	.LVL451:
 2720              	.LBE105:
 2721              	.LBE104:
 471:..\aes256ctr.c **** 	q[2] = q1 ^ r1 ^ r2 ^ rotr32(q2 ^ r2);
 2722              		.loc 1 471 0
ARM GAS  C:\Users\bogur\AppData\Local\Temp\cca0k2e0.s 			page 60


 2723 02fc DDE92456 		ldrd	r5, [sp, #144]
 2724 0300 5540     		eors	r5, r5, r2
 2725 0302 5E40     		eors	r6, r6, r3
 2726 0304 CDE93656 		strd	r5, [sp, #216]
 472:..\aes256ctr.c **** 	q[3] = q2 ^ r2 ^ q7 ^ r7 ^ r3 ^ rotr32(q3 ^ r3);
 2727              		.loc 1 472 0
 2728 0308 DDE91034 		ldrd	r3, [sp, #64]
 2729 030c 4340     		eors	r3, r3, r0
 2730 030e 4C40     		eors	r4, r4, r1
 2731 0310 1846     		mov	r0, r3
 2732 0312 2146     		mov	r1, r4
 2733 0314 4EAB     		add	r3, sp, #312
 2734 0316 D3E90067 		ldrd	r6, [r3]
 2735 031a DDE91034 		ldrd	r3, [sp, #64]
 2736 031e 5E40     		eors	r6, r6, r3
 2737 0320 6740     		eors	r7, r7, r4
 2738 0322 3246     		mov	r2, r6
 2739 0324 3B46     		mov	r3, r7
 2740              	.LVL452:
 2741              	.LBB106:
 2742              	.LBB107:
 445:..\aes256ctr.c **** }
 2743              		.loc 1 445 0
 2744 0326 2697     		str	r7, [sp, #152]
 2745 0328 2796     		str	r6, [sp, #156]
 2746              	.LVL453:
 2747              	.LBE107:
 2748              	.LBE106:
 472:..\aes256ctr.c **** 	q[3] = q2 ^ r2 ^ q7 ^ r7 ^ r3 ^ rotr32(q3 ^ r3);
 2749              		.loc 1 472 0
 2750 032a DDE92667 		ldrd	r6, [sp, #152]
 2751 032e 4640     		eors	r6, r6, r0
 2752 0330 4F40     		eors	r7, r7, r1
 2753 0332 CDE93867 		strd	r6, [sp, #224]
 473:..\aes256ctr.c **** 	q[4] = q3 ^ r3 ^ q7 ^ r7 ^ r4 ^ rotr32(q4 ^ r4);
 2754              		.loc 1 473 0
 2755 0336 58A9     		add	r1, sp, #352
 2756 0338 D1E90001 		ldrd	r0, [r1]
 2757 033c 5040     		eors	r0, r0, r2
 2758 033e 5940     		eors	r1, r1, r3
 2759 0340 0246     		mov	r2, r0
 2760 0342 0B46     		mov	r3, r1
 2761 0344 DDE90A01 		ldrd	r0, [sp, #40]
 2762 0348 5040     		eors	r0, r0, r2
 2763 034a 5940     		eors	r1, r1, r3
 2764 034c DDE91256 		ldrd	r5, [sp, #72]
 2765 0350 4540     		eors	r5, r5, r0
 2766 0352 4E40     		eors	r6, r6, r1
 2767 0354 2A46     		mov	r2, r5
 2768 0356 3346     		mov	r3, r6
 2769 0358 50A9     		add	r1, sp, #320
 2770 035a D1E90001 		ldrd	r0, [r1]
 2771 035e DDE91256 		ldrd	r5, [sp, #72]
 2772 0362 6840     		eors	r0, r0, r5
 2773 0364 7140     		eors	r1, r1, r6
 2774              	.LVL454:
 2775              	.LBB108:
ARM GAS  C:\Users\bogur\AppData\Local\Temp\cca0k2e0.s 			page 61


 2776              	.LBB109:
 445:..\aes256ctr.c **** }
 2777              		.loc 1 445 0
 2778 0366 2891     		str	r1, [sp, #160]
 2779 0368 2990     		str	r0, [sp, #164]
 2780              	.LVL455:
 2781              	.LBE109:
 2782              	.LBE108:
 473:..\aes256ctr.c **** 	q[4] = q3 ^ r3 ^ q7 ^ r7 ^ r4 ^ rotr32(q4 ^ r4);
 2783              		.loc 1 473 0
 2784 036a DDE92856 		ldrd	r5, [sp, #160]
 2785 036e 5540     		eors	r5, r5, r2
 2786 0370 5E40     		eors	r6, r6, r3
 2787 0372 CDE93A56 		strd	r5, [sp, #232]
 474:..\aes256ctr.c **** 	q[5] = q4 ^ r4 ^ r5 ^ rotr32(q5 ^ r5);
 2788              		.loc 1 474 0
 2789 0376 58AB     		add	r3, sp, #352
 2790 0378 D3E90023 		ldrd	r2, [r3]
 2791 037c 4240     		eors	r2, r2, r0
 2792 037e 4B40     		eors	r3, r3, r1
 2793 0380 DDE90A67 		ldrd	r6, [sp, #40]
 2794 0384 5640     		eors	r6, r6, r2
 2795 0386 5F40     		eors	r7, r7, r3
 2796 0388 DDE92001 		ldrd	r0, [sp, #128]
 2797 038c 0446     		mov	r4, r0
 2798 038e 0D46     		mov	r5, r1
 2799 0390 7440     		eors	r4, r4, r6
 2800 0392 7D40     		eors	r5, r5, r7
 2801 0394 2246     		mov	r2, r4
 2802 0396 2B46     		mov	r3, r5
 2803 0398 52AC     		add	r4, sp, #328
 2804 039a D4E90067 		ldrd	r6, [r4]
 2805 039e 4640     		eors	r6, r6, r0
 2806 03a0 4F40     		eors	r7, r7, r1
 2807              	.LBB110:
 2808              	.LBB111:
 445:..\aes256ctr.c **** }
 2809              		.loc 1 445 0
 2810 03a2 2A97     		str	r7, [sp, #168]
 2811 03a4 2B96     		str	r6, [sp, #172]
 2812              	.LBE111:
 2813              	.LBE110:
 474:..\aes256ctr.c **** 	q[5] = q4 ^ r4 ^ r5 ^ rotr32(q5 ^ r5);
 2814              		.loc 1 474 0
 2815 03a6 DDE92A45 		ldrd	r4, [sp, #168]
 2816 03aa 5440     		eors	r4, r4, r2
 2817 03ac 5D40     		eors	r5, r5, r3
 2818 03ae CDE93C45 		strd	r4, [sp, #240]
 475:..\aes256ctr.c **** 	q[6] = q5 ^ r5 ^ r6 ^ rotr32(q6 ^ r6);
 2819              		.loc 1 475 0
 2820 03b2 DDE91434 		ldrd	r3, [sp, #80]
 2821 03b6 7340     		eors	r3, r3, r6
 2822 03b8 7C40     		eors	r4, r4, r7
 2823 03ba 1846     		mov	r0, r3
 2824 03bc 2146     		mov	r1, r4
 2825 03be 54AB     		add	r3, sp, #336
 2826 03c0 D3E90056 		ldrd	r5, [r3]
ARM GAS  C:\Users\bogur\AppData\Local\Temp\cca0k2e0.s 			page 62


 2827 03c4 DDE91434 		ldrd	r3, [sp, #80]
 2828 03c8 5D40     		eors	r5, r5, r3
 2829 03ca 6640     		eors	r6, r6, r4
 2830 03cc 2A46     		mov	r2, r5
 2831 03ce 3346     		mov	r3, r6
 2832              	.LVL456:
 2833              	.LBB112:
 2834              	.LBB113:
 445:..\aes256ctr.c **** }
 2835              		.loc 1 445 0
 2836 03d0 2C96     		str	r6, [sp, #176]
 2837 03d2 2D95     		str	r5, [sp, #180]
 2838              	.LVL457:
 2839              	.LBE113:
 2840              	.LBE112:
 475:..\aes256ctr.c **** 	q[6] = q5 ^ r5 ^ r6 ^ rotr32(q6 ^ r6);
 2841              		.loc 1 475 0
 2842 03d4 DDE92C56 		ldrd	r5, [sp, #176]
 2843 03d8 4540     		eors	r5, r5, r0
 2844 03da 4E40     		eors	r6, r6, r1
 2845 03dc CDE93E56 		strd	r5, [sp, #248]
 476:..\aes256ctr.c **** 	q[7] = q6 ^ r6 ^ r7 ^ rotr32(q7 ^ r7);
 2846              		.loc 1 476 0
 2847 03e0 DDE91656 		ldrd	r5, [sp, #88]
 2848 03e4 5540     		eors	r5, r5, r2
 2849 03e6 5E40     		eors	r6, r6, r3
 2850 03e8 2846     		mov	r0, r5
 2851 03ea 3146     		mov	r1, r6
 2852 03ec 56AB     		add	r3, sp, #344
 2853 03ee D3E90067 		ldrd	r6, [r3]
 2854 03f2 DDE91634 		ldrd	r3, [sp, #88]
 2855 03f6 5E40     		eors	r6, r6, r3
 2856 03f8 6740     		eors	r7, r7, r4
 2857 03fa 3246     		mov	r2, r6
 2858 03fc 3B46     		mov	r3, r7
 2859              	.LVL458:
 2860              	.LBB114:
 2861              	.LBB115:
 445:..\aes256ctr.c **** }
 2862              		.loc 1 445 0
 2863 03fe 2E97     		str	r7, [sp, #184]
 2864 0400 2F96     		str	r6, [sp, #188]
 2865              	.LVL459:
 2866              	.LBE115:
 2867              	.LBE114:
 476:..\aes256ctr.c **** 	q[7] = q6 ^ r6 ^ r7 ^ rotr32(q7 ^ r7);
 2868              		.loc 1 476 0
 2869 0402 DDE92E56 		ldrd	r5, [sp, #184]
 2870 0406 4540     		eors	r5, r5, r0
 2871 0408 4E40     		eors	r6, r6, r1
 2872 040a 40A9     		add	r1, sp, #256
 2873 040c C1E90056 		strd	r5, [r1]
 477:..\aes256ctr.c **** }
 2874              		.loc 1 477 0
 2875 0410 DDE90A67 		ldrd	r6, [sp, #40]
 2876 0414 5640     		eors	r6, r6, r2
 2877 0416 5F40     		eors	r7, r7, r3
ARM GAS  C:\Users\bogur\AppData\Local\Temp\cca0k2e0.s 			page 63


 2878 0418 3246     		mov	r2, r6
 2879 041a 3B46     		mov	r3, r7
 2880              	.LVL460:
 2881              	.LBB116:
 2882              	.LBB117:
 445:..\aes256ctr.c **** }
 2883              		.loc 1 445 0
 2884 041c DDE93267 		ldrd	r6, [sp, #200]
 2885 0420 3097     		str	r7, [sp, #192]
 2886 0422 3196     		str	r6, [sp, #196]
 2887              	.LVL461:
 2888              	.LBE117:
 2889              	.LBE116:
 477:..\aes256ctr.c **** }
 2890              		.loc 1 477 0
 2891 0424 DDE93067 		ldrd	r6, [sp, #192]
 2892 0428 5640     		eors	r6, r6, r2
 2893 042a 5F40     		eors	r7, r7, r3
 2894              	.LVL462:
 2895              	.LBE101:
 2896              	.LBE100:
 503:..\aes256ctr.c ****   }
 2897              		.loc 1 503 0
 2898 042c 439B     		ldr	r3, [sp, #268]
 2899 042e 1946     		mov	r1, r3
 2900 0430 429B     		ldr	r3, [sp, #264]
 2901 0432 01EB831E 		add	lr, r1, r3, lsl #6
 2902              	.LVL463:
 2903              	.LBB118:
 2904              	.LBB119:
 415:..\aes256ctr.c **** 	q[1] ^= sk[1];
 2905              		.loc 1 415 0
 2906 0436 DEE90001 		ldrd	r0, [lr]
 2907 043a DDE93445 		ldrd	r4, [sp, #208]
 2908 043e 4440     		eors	r4, r4, r0
 2909 0440 4D40     		eors	r5, r5, r1
 2910 0442 2046     		mov	r0, r4
 2911 0444 2946     		mov	r1, r5
 2912 0446 4AAB     		add	r3, sp, #296
 2913 0448 C3E90001 		strd	r0, [r3]
 416:..\aes256ctr.c **** 	q[2] ^= sk[2];
 2914              		.loc 1 416 0
 2915 044c DEE90223 		ldrd	r2, [lr, #8]
 2916 0450 DDE93601 		ldrd	r0, [sp, #216]
 2917 0454 5040     		eors	r0, r0, r2
 2918 0456 5940     		eors	r1, r1, r3
 2919 0458 0246     		mov	r2, r0
 2920 045a 0B46     		mov	r3, r1
 2921 045c 4CA9     		add	r1, sp, #304
 2922 045e C1E90023 		strd	r2, [r1]
 417:..\aes256ctr.c **** 	q[3] ^= sk[3];
 2923              		.loc 1 417 0
 2924 0462 DEE90401 		ldrd	r0, [lr, #16]
 2925 0466 DDE93823 		ldrd	r2, [sp, #224]
 2926 046a 4240     		eors	r2, r2, r0
 2927 046c 4B40     		eors	r3, r3, r1
 2928 046e 1046     		mov	r0, r2
ARM GAS  C:\Users\bogur\AppData\Local\Temp\cca0k2e0.s 			page 64


 2929 0470 1946     		mov	r1, r3
 2930 0472 4EAB     		add	r3, sp, #312
 2931 0474 C3E90001 		strd	r0, [r3]
 418:..\aes256ctr.c **** 	q[4] ^= sk[4];
 2932              		.loc 1 418 0
 2933 0478 DEE90623 		ldrd	r2, [lr, #24]
 2934 047c DDE93A01 		ldrd	r0, [sp, #232]
 2935 0480 5040     		eors	r0, r0, r2
 2936 0482 5940     		eors	r1, r1, r3
 2937 0484 0246     		mov	r2, r0
 2938 0486 0B46     		mov	r3, r1
 2939 0488 50A9     		add	r1, sp, #320
 2940 048a C1E90023 		strd	r2, [r1]
 419:..\aes256ctr.c **** 	q[5] ^= sk[5];
 2941              		.loc 1 419 0
 2942 048e DEE90823 		ldrd	r2, [lr, #32]
 2943 0492 DDE93C45 		ldrd	r4, [sp, #240]
 2944 0496 5440     		eors	r4, r4, r2
 2945 0498 5D40     		eors	r5, r5, r3
 2946 049a 2246     		mov	r2, r4
 2947 049c 2B46     		mov	r3, r5
 2948 049e 52A9     		add	r1, sp, #328
 2949 04a0 C1E90023 		strd	r2, [r1]
 420:..\aes256ctr.c **** 	q[6] ^= sk[6];
 2950              		.loc 1 420 0
 2951 04a4 DEE90A01 		ldrd	r0, [lr, #40]
 2952 04a8 DDE93E23 		ldrd	r2, [sp, #248]
 2953 04ac 4240     		eors	r2, r2, r0
 2954 04ae 4B40     		eors	r3, r3, r1
 2955 04b0 1046     		mov	r0, r2
 2956 04b2 1946     		mov	r1, r3
 2957 04b4 54AB     		add	r3, sp, #336
 2958 04b6 C3E90001 		strd	r0, [r3]
 421:..\aes256ctr.c **** 	q[7] ^= sk[7];
 2959              		.loc 1 421 0
 2960 04ba DEE90C23 		ldrd	r2, [lr, #48]
 2961 04be 40A9     		add	r1, sp, #256
 2962 04c0 D1E90001 		ldrd	r0, [r1]
 2963 04c4 5040     		eors	r0, r0, r2
 2964 04c6 5940     		eors	r1, r1, r3
 2965 04c8 0246     		mov	r2, r0
 2966 04ca 0B46     		mov	r3, r1
 2967 04cc 56A9     		add	r1, sp, #344
 2968 04ce C1E90023 		strd	r2, [r1]
 422:..\aes256ctr.c **** }
 2969              		.loc 1 422 0
 2970 04d2 DEE90E23 		ldrd	r2, [lr, #56]
 2971 04d6 7240     		eors	r2, r2, r6
 2972 04d8 7B40     		eors	r3, r3, r7
 2973 04da 58A9     		add	r1, sp, #352
 2974 04dc C1E90023 		strd	r2, [r1]
 2975              	.LVL464:
 2976              	.LBE119:
 2977              	.LBE118:
 499:..\aes256ctr.c ****     br_aes_ct64_bitslice_Sbox(q);
 2978              		.loc 1 499 0
 2979 04e0 429B     		ldr	r3, [sp, #264]
ARM GAS  C:\Users\bogur\AppData\Local\Temp\cca0k2e0.s 			page 65


 2980 04e2 0133     		adds	r3, r3, #1
 2981 04e4 4293     		str	r3, [sp, #264]
 2982              	.LVL465:
 2983              	.L41:
 499:..\aes256ctr.c ****     br_aes_ct64_bitslice_Sbox(q);
 2984              		.loc 1 499 0 is_stmt 0 discriminator 1
 2985 04e6 429B     		ldr	r3, [sp, #264]
 2986 04e8 0D2B     		cmp	r3, #13
 2987 04ea 7FF704AE 		ble	.L44
 505:..\aes256ctr.c ****   shift_rows(q);
 2988              		.loc 1 505 0 is_stmt 1
 2989 04ee 4AA8     		add	r0, sp, #296
 2990 04f0 FFF7FEFF 		bl	br_aes_ct64_bitslice_Sbox
 2991              	.LVL466:
 2992              	.LBB120:
 2993              	.LBB121:
 429:..\aes256ctr.c **** 		uint64_t x;
 2994              		.loc 1 429 0
 2995 04f4 0027     		movs	r7, #0
 2996 04f6 3846     		mov	r0, r7
 2997 04f8 5BE0     		b	.L45
 2998              	.LVL467:
 2999              	.L46:
 3000              	.LBB122:
 432:..\aes256ctr.c **** 		q[i] = (x & (uint64_t)0x000000000000FFFF)
 3001              		.loc 1 432 0
 3002 04fa 4AAB     		add	r3, sp, #296
 3003 04fc 03EBC001 		add	r1, r3, r0, lsl #3
 3004 0500 0B68     		ldr	r3, [r1]
 3005 0502 4A68     		ldr	r2, [r1, #4]
 3006              	.LVL468:
 433:..\aes256ctr.c **** 			| ((x & (uint64_t)0x00000000FFF00000) >> 4)
 3007              		.loc 1 433 0
 3008 0504 9EB2     		uxth	r6, r3
 3009 0506 0027     		movs	r7, #0
 3010 0508 CDE90267 		strd	r6, [sp, #8]
 434:..\aes256ctr.c **** 			| ((x & (uint64_t)0x00000000000F0000) << 12)
 3011              		.loc 1 434 0
 3012 050c 1C09     		lsrs	r4, r3, #4
 3013 050e 44EA0274 		orr	r4, r4, r2, lsl #28
 3014 0512 1894     		str	r4, [sp, #96]
 3015 0514 1409     		lsrs	r4, r2, #4
 3016 0516 1994     		str	r4, [sp, #100]
 3017 0518 6A4C     		ldr	r4, .L53
 3018 051a 0025     		movs	r5, #0
 3019 051c DDE91867 		ldrd	r6, [sp, #96]
 3020 0520 2640     		ands	r6, r6, r4
 3021 0522 2F40     		ands	r7, r7, r5
 3022 0524 3446     		mov	r4, r6
 3023 0526 3D46     		mov	r5, r7
 3024 0528 DDE90267 		ldrd	r6, [sp, #8]
 3025 052c 2643     		orrs	r6, r6, r4
 3026 052e 2F43     		orrs	r7, r7, r5
 3027 0530 3446     		mov	r4, r6
 3028 0532 3D46     		mov	r5, r7
 435:..\aes256ctr.c **** 			| ((x & (uint64_t)0x0000FF0000000000) >> 8)
 3029              		.loc 1 435 0
ARM GAS  C:\Users\bogur\AppData\Local\Temp\cca0k2e0.s 			page 66


 3030 0534 1603     		lsls	r6, r2, #12
 3031 0536 46EA1356 		orr	r6, r6, r3, lsr #20
 3032 053a 1B96     		str	r6, [sp, #108]
 3033 053c 1E03     		lsls	r6, r3, #12
 3034 053e 1A96     		str	r6, [sp, #104]
 3035 0540 DDE91A67 		ldrd	r6, [sp, #104]
 3036 0544 06F07046 		and	r6, r6, #-268435456
 3037 0548 0027     		movs	r7, #0
 3038 054a 3443     		orrs	r4, r4, r6
 3039 054c 3D43     		orrs	r5, r5, r7
 436:..\aes256ctr.c **** 			| ((x & (uint64_t)0x000000FF00000000) << 8)
 3040              		.loc 1 436 0
 3041 054e 1E0A     		lsrs	r6, r3, #8
 3042 0550 46EA0266 		orr	r6, r6, r2, lsl #24
 3043 0554 1C96     		str	r6, [sp, #112]
 3044 0556 160A     		lsrs	r6, r2, #8
 3045 0558 1D96     		str	r6, [sp, #116]
 3046 055a DDE91C67 		ldrd	r6, [sp, #112]
 3047 055e 0026     		movs	r6, #0
 3048 0560 07F0FF07 		and	r7, r7, #255
 3049 0564 3443     		orrs	r4, r4, r6
 3050 0566 3D43     		orrs	r5, r5, r7
 437:..\aes256ctr.c **** 			| ((x & (uint64_t)0xF000000000000000) >> 12)
 3051              		.loc 1 437 0
 3052 0568 1602     		lsls	r6, r2, #8
 3053 056a 46EA1366 		orr	r6, r6, r3, lsr #24
 3054 056e 1F96     		str	r6, [sp, #124]
 3055 0570 1E02     		lsls	r6, r3, #8
 3056 0572 1E96     		str	r6, [sp, #120]
 3057 0574 DDE91E67 		ldrd	r6, [sp, #120]
 3058 0578 0026     		movs	r6, #0
 3059 057a 07F47F47 		and	r7, r7, #65280
 3060 057e 2643     		orrs	r6, r6, r4
 3061 0580 2F43     		orrs	r7, r7, r5
 438:..\aes256ctr.c **** 			| ((x & (uint64_t)0x0FFF000000000000) << 4);
 3062              		.loc 1 438 0
 3063 0582 4FEA123B 		lsr	fp, r2, #12
 3064 0586 0024     		movs	r4, #0
 3065 0588 0BF47025 		and	r5, fp, #983040
 3066 058c 3443     		orrs	r4, r4, r6
 3067 058e 3D43     		orrs	r5, r5, r7
 439:..\aes256ctr.c **** 	}
 3068              		.loc 1 439 0
 3069 0590 4FEA0219 		lsl	r9, r2, #4
 3070 0594 49EA1379 		orr	r9, r9, r3, lsr #28
 3071 0598 4FEA0318 		lsl	r8, r3, #4
 3072 059c 0026     		movs	r6, #0
 3073 059e 4A4F     		ldr	r7, .L53+4
 3074 05a0 06EA0806 		and	r6, r6, r8
 3075 05a4 07EA0907 		and	r7, r7, r9
 3076 05a8 3443     		orrs	r4, r4, r6
 3077 05aa 3D43     		orrs	r5, r5, r7
 433:..\aes256ctr.c **** 			| ((x & (uint64_t)0x00000000FFF00000) >> 4)
 3078              		.loc 1 433 0
 3079 05ac C1E90045 		strd	r4, [r1]
 3080              	.LBE122:
 429:..\aes256ctr.c **** 		uint64_t x;
ARM GAS  C:\Users\bogur\AppData\Local\Temp\cca0k2e0.s 			page 67


 3081              		.loc 1 429 0
 3082 05b0 0130     		adds	r0, r0, #1
 3083              	.LVL469:
 3084              	.L45:
 3085 05b2 0728     		cmp	r0, #7
 3086 05b4 A1DD     		ble	.L46
 3087              	.LVL470:
 3088              	.LBE121:
 3089              	.LBE120:
 507:..\aes256ctr.c **** 
 3090              		.loc 1 507 0
 3091 05b6 439C     		ldr	r4, [sp, #268]
 3092              	.LVL471:
 3093              	.LBB123:
 3094              	.LBB124:
 415:..\aes256ctr.c **** 	q[1] ^= sk[1];
 3095              		.loc 1 415 0
 3096 05b8 F4E9E001 		ldrd	r0, [r4, #896]!
 3097              	.LVL472:
 3098 05bc 4AAB     		add	r3, sp, #296
 3099 05be D3E90023 		ldrd	r2, [r3]
 3100 05c2 4240     		eors	r2, r2, r0
 3101 05c4 4B40     		eors	r3, r3, r1
 3102 05c6 4AA9     		add	r1, sp, #296
 3103 05c8 C1E90023 		strd	r2, [r1]
 416:..\aes256ctr.c **** 	q[2] ^= sk[2];
 3104              		.loc 1 416 0
 3105 05cc D4E90201 		ldrd	r0, [r4, #8]
 3106 05d0 4CAB     		add	r3, sp, #304
 3107 05d2 D3E90023 		ldrd	r2, [r3]
 3108 05d6 4240     		eors	r2, r2, r0
 3109 05d8 4B40     		eors	r3, r3, r1
 3110 05da 4CA9     		add	r1, sp, #304
 3111 05dc C1E90023 		strd	r2, [r1]
 417:..\aes256ctr.c **** 	q[3] ^= sk[3];
 3112              		.loc 1 417 0
 3113 05e0 D4E90401 		ldrd	r0, [r4, #16]
 3114 05e4 4EAB     		add	r3, sp, #312
 3115 05e6 D3E90023 		ldrd	r2, [r3]
 3116 05ea 4240     		eors	r2, r2, r0
 3117 05ec 4B40     		eors	r3, r3, r1
 3118 05ee 4EA9     		add	r1, sp, #312
 3119 05f0 C1E90023 		strd	r2, [r1]
 418:..\aes256ctr.c **** 	q[4] ^= sk[4];
 3120              		.loc 1 418 0
 3121 05f4 D4E90601 		ldrd	r0, [r4, #24]
 3122 05f8 50AB     		add	r3, sp, #320
 3123 05fa D3E90023 		ldrd	r2, [r3]
 3124 05fe 4240     		eors	r2, r2, r0
 3125 0600 4B40     		eors	r3, r3, r1
 3126 0602 50A9     		add	r1, sp, #320
 3127 0604 C1E90023 		strd	r2, [r1]
 419:..\aes256ctr.c **** 	q[5] ^= sk[5];
 3128              		.loc 1 419 0
 3129 0608 D4E90801 		ldrd	r0, [r4, #32]
 3130 060c 52AB     		add	r3, sp, #328
 3131 060e D3E90023 		ldrd	r2, [r3]
ARM GAS  C:\Users\bogur\AppData\Local\Temp\cca0k2e0.s 			page 68


 3132 0612 4240     		eors	r2, r2, r0
 3133 0614 4B40     		eors	r3, r3, r1
 3134 0616 52A9     		add	r1, sp, #328
 3135 0618 C1E90023 		strd	r2, [r1]
 420:..\aes256ctr.c **** 	q[6] ^= sk[6];
 3136              		.loc 1 420 0
 3137 061c D4E90A01 		ldrd	r0, [r4, #40]
 3138 0620 54AB     		add	r3, sp, #336
 3139 0622 D3E90023 		ldrd	r2, [r3]
 3140 0626 4240     		eors	r2, r2, r0
 3141 0628 4B40     		eors	r3, r3, r1
 3142 062a 54A9     		add	r1, sp, #336
 3143 062c C1E90023 		strd	r2, [r1]
 421:..\aes256ctr.c **** 	q[7] ^= sk[7];
 3144              		.loc 1 421 0
 3145 0630 D4E90C01 		ldrd	r0, [r4, #48]
 3146 0634 56AB     		add	r3, sp, #344
 3147 0636 D3E90023 		ldrd	r2, [r3]
 3148 063a 4240     		eors	r2, r2, r0
 3149 063c 4B40     		eors	r3, r3, r1
 3150 063e 56A9     		add	r1, sp, #344
 3151 0640 C1E90023 		strd	r2, [r1]
 422:..\aes256ctr.c **** }
 3152              		.loc 1 422 0
 3153 0644 D4E90E01 		ldrd	r0, [r4, #56]
 3154 0648 58AB     		add	r3, sp, #352
 3155 064a D3E90023 		ldrd	r2, [r3]
 3156 064e 4240     		eors	r2, r2, r0
 3157 0650 4B40     		eors	r3, r3, r1
 3158 0652 58A9     		add	r1, sp, #352
 3159 0654 C1E90023 		strd	r2, [r1]
 3160              	.LVL473:
 3161              	.LBE124:
 3162              	.LBE123:
 509:..\aes256ctr.c ****   for (i = 0; i < 4; i ++) {
 3163              		.loc 1 509 0
 3164 0658 4AA8     		add	r0, sp, #296
 3165 065a FFF7FEFF 		bl	br_aes_ct64_ortho
 3166              	.LVL474:
 510:..\aes256ctr.c ****     br_aes_ct64_interleave_out(w + (i << 2), q[i], q[i + 4]);
 3167              		.loc 1 510 0
 3168 065e 0024     		movs	r4, #0
 3169 0660 14E0     		b	.L47
 3170              	.LVL475:
 3171              	.L48:
 511:..\aes256ctr.c ****   }
 3172              		.loc 1 511 0 discriminator 3
 3173 0662 231D     		adds	r3, r4, #4
 3174 0664 6AAA     		add	r2, sp, #424
 3175 0666 02EBC402 		add	r2, r2, r4, lsl #3
 3176 066a 52E92001 		ldrd	r0, [r2, #-128]
 3177 066e 6AAA     		add	r2, sp, #424
 3178 0670 02EBC303 		add	r3, r2, r3, lsl #3
 3179 0674 53E92023 		ldrd	r2, [r3, #-128]
 3180 0678 CDE90023 		strd	r2, [sp]
 3181 067c 0246     		mov	r2, r0
 3182 067e 0B46     		mov	r3, r1
ARM GAS  C:\Users\bogur\AppData\Local\Temp\cca0k2e0.s 			page 69


 3183 0680 5AA9     		add	r1, sp, #360
 3184 0682 01EB0410 		add	r0, r1, r4, lsl #4
 3185 0686 FFF7FEFF 		bl	br_aes_ct64_interleave_out
 3186              	.LVL476:
 510:..\aes256ctr.c ****     br_aes_ct64_interleave_out(w + (i << 2), q[i], q[i + 4]);
 3187              		.loc 1 510 0 discriminator 3
 3188 068a 0134     		adds	r4, r4, #1
 3189              	.LVL477:
 3190              	.L47:
 510:..\aes256ctr.c ****     br_aes_ct64_interleave_out(w + (i << 2), q[i], q[i + 4]);
 3191              		.loc 1 510 0 is_stmt 0 discriminator 1
 3192 068c 032C     		cmp	r4, #3
 3193 068e E8DD     		ble	.L48
 513:..\aes256ctr.c **** 
 3194              		.loc 1 513 0 is_stmt 1
 3195 0690 1022     		movs	r2, #16
 3196 0692 5AA9     		add	r1, sp, #360
 3197 0694 4498     		ldr	r0, [sp, #272]
 3198 0696 FFF7FEFF 		bl	br_range_enc32le
 3199              	.LVL478:
 516:..\aes256ctr.c ****   inc4_be(ivw+7);
 3200              		.loc 1 516 0
 3201 069a 459C     		ldr	r4, [sp, #276]
 3202              	.LVL479:
 3203 069c 04F10C00 		add	r0, r4, #12
 3204 06a0 FFF7FEFF 		bl	inc4_be
 3205              	.LVL480:
 517:..\aes256ctr.c ****   inc4_be(ivw+11);
 3206              		.loc 1 517 0
 3207 06a4 04F11C00 		add	r0, r4, #28
 3208 06a8 FFF7FEFF 		bl	inc4_be
 3209              	.LVL481:
 518:..\aes256ctr.c ****   inc4_be(ivw+15);
 3210              		.loc 1 518 0
 3211 06ac 04F12C00 		add	r0, r4, #44
 3212 06b0 FFF7FEFF 		bl	inc4_be
 3213              	.LVL482:
 519:..\aes256ctr.c **** }
 3214              		.loc 1 519 0
 3215 06b4 04F13C00 		add	r0, r4, #60
 3216 06b8 FFF7FEFF 		bl	inc4_be
 3217              	.LVL483:
 520:..\aes256ctr.c **** 
 3218              		.loc 1 520 0
 3219 06bc 6BB0     		add	sp, sp, #428
 3220              		.cfi_def_cfa_offset 36
 3221              		@ sp needed
 3222 06be BDE8F08F 		pop	{r4, r5, r6, r7, r8, r9, r10, fp, pc}
 3223              	.LVL484:
 3224              	.L54:
 3225 06c2 00BF     		.align	2
 3226              	.L53:
 3227 06c4 0000FF0F 		.word	268369920
 3228 06c8 0000F0FF 		.word	-1048576
 3229              		.cfi_endproc
 3230              	.LFE17:
 3231              		.size	aes_ctr4x, .-aes_ctr4x
ARM GAS  C:\Users\bogur\AppData\Local\Temp\cca0k2e0.s 			page 70


 3232              		.section	.text.br_aes_ct64_ctr_run,"ax",%progbits
 3233              		.align	2
 3234              		.thumb
 3235              		.thumb_func
 3236              		.type	br_aes_ct64_ctr_run, %function
 3237              	br_aes_ct64_ctr_run:
 3238              	.LFB19:
 529:..\aes256ctr.c **** 
 530:..\aes256ctr.c **** static void br_aes_ct64_ctr_run(uint64_t sk_exp[120], const uint8_t *iv, uint32_t cc, uint8_t *data
 531:..\aes256ctr.c **** {
 3239              		.loc 1 531 0
 3240              		.cfi_startproc
 3241              		@ args = 4, pretend = 0, frame = 128
 3242              		@ frame_needed = 0, uses_anonymous_args = 0
 3243              	.LVL485:
 3244 0000 2DE9F041 		push	{r4, r5, r6, r7, r8, lr}
 3245              		.cfi_def_cfa_offset 24
 3246              		.cfi_offset 4, -24
 3247              		.cfi_offset 5, -20
 3248              		.cfi_offset 6, -16
 3249              		.cfi_offset 7, -12
 3250              		.cfi_offset 8, -8
 3251              		.cfi_offset 14, -4
 3252 0004 A0B0     		sub	sp, sp, #128
 3253              		.cfi_def_cfa_offset 152
 3254 0006 0746     		mov	r7, r0
 3255 0008 1646     		mov	r6, r2
 3256 000a 1D46     		mov	r5, r3
 3257 000c 269C     		ldr	r4, [sp, #152]
 532:..\aes256ctr.c **** 	uint32_t ivw[16];
 533:..\aes256ctr.c **** 	size_t i;
 534:..\aes256ctr.c **** 
 535:..\aes256ctr.c **** 	br_range_dec32le(ivw, 3, iv);
 3258              		.loc 1 535 0
 3259 000e 0DF14008 		add	r8, sp, #64
 3260 0012 0A46     		mov	r2, r1
 3261              	.LVL486:
 3262 0014 0321     		movs	r1, #3
 3263              	.LVL487:
 3264 0016 4046     		mov	r0, r8
 3265              	.LVL488:
 3266 0018 FFF7FEFF 		bl	br_range_dec32le
 3267              	.LVL489:
 536:..\aes256ctr.c **** 	memcpy(ivw +  4, ivw, 3 * sizeof(uint32_t));
 3268              		.loc 1 536 0
 3269 001c 14AB     		add	r3, sp, #80
 3270 001e 98E80700 		ldmia	r8, {r0, r1, r2}
 3271 0022 83E80700 		stmia	r3, {r0, r1, r2}
 537:..\aes256ctr.c **** 	memcpy(ivw +  8, ivw, 3 * sizeof(uint32_t));
 3272              		.loc 1 537 0
 3273 0026 18AB     		add	r3, sp, #96
 3274 0028 98E80700 		ldmia	r8, {r0, r1, r2}
 3275 002c 83E80700 		stmia	r3, {r0, r1, r2}
 538:..\aes256ctr.c **** 	memcpy(ivw + 12, ivw, 3 * sizeof(uint32_t));
 3276              		.loc 1 538 0
 3277 0030 1CAB     		add	r3, sp, #112
 3278 0032 83E80700 		stmia	r3, {r0, r1, r2}
ARM GAS  C:\Users\bogur\AppData\Local\Temp\cca0k2e0.s 			page 71


 3279              	.LVL490:
 3280              	.LBB125:
 3281              	.LBB126:
  47:..\aes256ctr.c **** 		| ((x >> 8) & (uint32_t)0x00FF00FF);
 3282              		.loc 1 47 0
 3283 0036 3302     		lsls	r3, r6, #8
 3284 0038 03F0FF22 		and	r2, r3, #-16711936
  48:..\aes256ctr.c **** 	return (x << 16) | (x >> 16);
 3285              		.loc 1 48 0
 3286 003c 330A     		lsrs	r3, r6, #8
 3287 003e 03F0FF13 		and	r3, r3, #16711935
  47:..\aes256ctr.c **** 		| ((x >> 8) & (uint32_t)0x00FF00FF);
 3288              		.loc 1 47 0
 3289 0042 1343     		orrs	r3, r3, r2
 3290              	.LVL491:
  49:..\aes256ctr.c **** }
 3291              		.loc 1 49 0
 3292 0044 4FEA3343 		ror	r3, r3, #16
 3293              	.LVL492:
 3294              	.LBE126:
 3295              	.LBE125:
 539:..\aes256ctr.c **** 	ivw[ 3] = br_swap32(cc);
 3296              		.loc 1 539 0
 3297 0048 1393     		str	r3, [sp, #76]
 540:..\aes256ctr.c **** 	ivw[ 7] = br_swap32(cc + 1);
 3298              		.loc 1 540 0
 3299 004a 731C     		adds	r3, r6, #1
 3300              	.LVL493:
 3301              	.LBB127:
 3302              	.LBB128:
  47:..\aes256ctr.c **** 		| ((x >> 8) & (uint32_t)0x00FF00FF);
 3303              		.loc 1 47 0
 3304 004c 1A02     		lsls	r2, r3, #8
 3305 004e 02F0FF22 		and	r2, r2, #-16711936
  48:..\aes256ctr.c **** 	return (x << 16) | (x >> 16);
 3306              		.loc 1 48 0
 3307 0052 1B0A     		lsrs	r3, r3, #8
 3308              	.LVL494:
 3309 0054 03F0FF13 		and	r3, r3, #16711935
  47:..\aes256ctr.c **** 		| ((x >> 8) & (uint32_t)0x00FF00FF);
 3310              		.loc 1 47 0
 3311 0058 1343     		orrs	r3, r3, r2
 3312              	.LVL495:
  49:..\aes256ctr.c **** }
 3313              		.loc 1 49 0
 3314 005a 4FEA3343 		ror	r3, r3, #16
 3315              	.LVL496:
 3316              	.LBE128:
 3317              	.LBE127:
 3318              		.loc 1 540 0
 3319 005e 1793     		str	r3, [sp, #92]
 541:..\aes256ctr.c **** 	ivw[11] = br_swap32(cc + 2);
 3320              		.loc 1 541 0
 3321 0060 B31C     		adds	r3, r6, #2
 3322              	.LVL497:
 3323              	.LBB129:
 3324              	.LBB130:
ARM GAS  C:\Users\bogur\AppData\Local\Temp\cca0k2e0.s 			page 72


  47:..\aes256ctr.c **** 		| ((x >> 8) & (uint32_t)0x00FF00FF);
 3325              		.loc 1 47 0
 3326 0062 1A02     		lsls	r2, r3, #8
 3327 0064 02F0FF22 		and	r2, r2, #-16711936
  48:..\aes256ctr.c **** 	return (x << 16) | (x >> 16);
 3328              		.loc 1 48 0
 3329 0068 1B0A     		lsrs	r3, r3, #8
 3330              	.LVL498:
 3331 006a 03F0FF13 		and	r3, r3, #16711935
  47:..\aes256ctr.c **** 		| ((x >> 8) & (uint32_t)0x00FF00FF);
 3332              		.loc 1 47 0
 3333 006e 1343     		orrs	r3, r3, r2
 3334              	.LVL499:
  49:..\aes256ctr.c **** }
 3335              		.loc 1 49 0
 3336 0070 4FEA3343 		ror	r3, r3, #16
 3337              	.LVL500:
 3338              	.LBE130:
 3339              	.LBE129:
 3340              		.loc 1 541 0
 3341 0074 1B93     		str	r3, [sp, #108]
 542:..\aes256ctr.c **** 	ivw[15] = br_swap32(cc + 3);
 3342              		.loc 1 542 0
 3343 0076 0336     		adds	r6, r6, #3
 3344              	.LVL501:
 3345              	.LBB131:
 3346              	.LBB132:
  47:..\aes256ctr.c **** 		| ((x >> 8) & (uint32_t)0x00FF00FF);
 3347              		.loc 1 47 0
 3348 0078 3302     		lsls	r3, r6, #8
 3349 007a 03F0FF23 		and	r3, r3, #-16711936
  48:..\aes256ctr.c **** 	return (x << 16) | (x >> 16);
 3350              		.loc 1 48 0
 3351 007e 360A     		lsrs	r6, r6, #8
 3352              	.LVL502:
 3353 0080 06F0FF16 		and	r6, r6, #16711935
  47:..\aes256ctr.c **** 		| ((x >> 8) & (uint32_t)0x00FF00FF);
 3354              		.loc 1 47 0
 3355 0084 1E43     		orrs	r6, r6, r3
 3356              	.LVL503:
  49:..\aes256ctr.c **** }
 3357              		.loc 1 49 0
 3358 0086 4FEA3646 		ror	r6, r6, #16
 3359              	.LVL504:
 3360              	.LBE132:
 3361              	.LBE131:
 3362              		.loc 1 542 0
 3363 008a 1F96     		str	r6, [sp, #124]
 543:..\aes256ctr.c **** 
 544:..\aes256ctr.c **** 	while (len > 64) {
 3364              		.loc 1 544 0
 3365 008c 06E0     		b	.L56
 3366              	.LVL505:
 3367              	.L57:
 545:..\aes256ctr.c **** 		aes_ctr4x(data, ivw, sk_exp);
 3368              		.loc 1 545 0
 3369 008e 3A46     		mov	r2, r7
ARM GAS  C:\Users\bogur\AppData\Local\Temp\cca0k2e0.s 			page 73


 3370 0090 10A9     		add	r1, sp, #64
 3371 0092 2846     		mov	r0, r5
 3372 0094 FFF7FEFF 		bl	aes_ctr4x
 3373              	.LVL506:
 546:..\aes256ctr.c **** 		data += 64;
 3374              		.loc 1 546 0
 3375 0098 4035     		adds	r5, r5, #64
 3376              	.LVL507:
 547:..\aes256ctr.c **** 		len -= 64;
 3377              		.loc 1 547 0
 3378 009a 403C     		subs	r4, r4, #64
 3379              	.LVL508:
 3380              	.L56:
 544:..\aes256ctr.c **** 		aes_ctr4x(data, ivw, sk_exp);
 3381              		.loc 1 544 0
 3382 009c 402C     		cmp	r4, #64
 3383 009e F6D8     		bhi	.L57
 548:..\aes256ctr.c **** 	}
 549:..\aes256ctr.c **** 	if(len > 0) {
 3384              		.loc 1 549 0
 3385 00a0 74B1     		cbz	r4, .L55
 3386              	.LBB133:
 550:..\aes256ctr.c **** 		uint8_t tmp[64];
 551:..\aes256ctr.c **** 		aes_ctr4x(tmp, ivw, sk_exp);
 3387              		.loc 1 551 0
 3388 00a2 3A46     		mov	r2, r7
 3389 00a4 10A9     		add	r1, sp, #64
 3390 00a6 6846     		mov	r0, sp
 3391 00a8 FFF7FEFF 		bl	aes_ctr4x
 3392              	.LVL509:
 552:..\aes256ctr.c **** 		for(i=0;i<len;i++)
 3393              		.loc 1 552 0
 3394 00ac 0023     		movs	r3, #0
 3395 00ae 05E0     		b	.L59
 3396              	.LVL510:
 3397              	.L60:
 553:..\aes256ctr.c **** 			data[i] = tmp[i];
 3398              		.loc 1 553 0 discriminator 3
 3399 00b0 20AA     		add	r2, sp, #128
 3400 00b2 1A44     		add	r2, r2, r3
 3401 00b4 12F8802C 		ldrb	r2, [r2, #-128]	@ zero_extendqisi2
 3402 00b8 EA54     		strb	r2, [r5, r3]
 552:..\aes256ctr.c **** 		for(i=0;i<len;i++)
 3403              		.loc 1 552 0 discriminator 3
 3404 00ba 0133     		adds	r3, r3, #1
 3405              	.LVL511:
 3406              	.L59:
 552:..\aes256ctr.c **** 		for(i=0;i<len;i++)
 3407              		.loc 1 552 0 is_stmt 0 discriminator 1
 3408 00bc 9C42     		cmp	r4, r3
 3409 00be F7D8     		bhi	.L60
 3410              	.LVL512:
 3411              	.L55:
 3412              	.LBE133:
 554:..\aes256ctr.c **** 	}
 555:..\aes256ctr.c **** }
 3413              		.loc 1 555 0 is_stmt 1
ARM GAS  C:\Users\bogur\AppData\Local\Temp\cca0k2e0.s 			page 74


 3414 00c0 20B0     		add	sp, sp, #128
 3415              		.cfi_def_cfa_offset 24
 3416              		@ sp needed
 3417 00c2 BDE8F081 		pop	{r4, r5, r6, r7, r8, pc}
 3418              		.cfi_endproc
 3419              	.LFE19:
 3420              		.size	br_aes_ct64_ctr_run, .-br_aes_ct64_ctr_run
 3421 00c6 00BF     		.section	.text.pqcrystals_aes256ctr_ref_prf,"ax",%progbits
 3422              		.align	2
 3423              		.global	pqcrystals_aes256ctr_ref_prf
 3424              		.thumb
 3425              		.thumb_func
 3426              		.type	pqcrystals_aes256ctr_ref_prf, %function
 3427              	pqcrystals_aes256ctr_ref_prf:
 3428              	.LFB20:
 556:..\aes256ctr.c **** 
 557:..\aes256ctr.c **** void aes256ctr_prf(uint8_t *out, size_t outlen, const uint8_t *key, const uint8_t *nonce)
 558:..\aes256ctr.c **** {
 3429              		.loc 1 558 0
 3430              		.cfi_startproc
 3431              		@ args = 0, pretend = 0, frame = 960
 3432              		@ frame_needed = 0, uses_anonymous_args = 0
 3433              	.LVL513:
 3434 0000 70B5     		push	{r4, r5, r6, lr}
 3435              		.cfi_def_cfa_offset 16
 3436              		.cfi_offset 4, -16
 3437              		.cfi_offset 5, -12
 3438              		.cfi_offset 6, -8
 3439              		.cfi_offset 14, -4
 3440 0002 ADF5727D 		sub	sp, sp, #968
 3441              		.cfi_def_cfa_offset 984
 3442 0006 0546     		mov	r5, r0
 3443 0008 0E46     		mov	r6, r1
 3444 000a 1C46     		mov	r4, r3
 559:..\aes256ctr.c ****   uint64_t sk_exp[120];
 560:..\aes256ctr.c **** 
 561:..\aes256ctr.c ****   br_aes_ct64_ctr_init(sk_exp, key);
 3445              		.loc 1 561 0
 3446 000c 1146     		mov	r1, r2
 3447              	.LVL514:
 3448 000e 02A8     		add	r0, sp, #8
 3449              	.LVL515:
 3450 0010 FFF7FEFF 		bl	br_aes_ct64_ctr_init
 3451              	.LVL516:
 562:..\aes256ctr.c ****   br_aes_ct64_ctr_run(sk_exp, nonce, 0, out, outlen);
 3452              		.loc 1 562 0
 3453 0014 0096     		str	r6, [sp]
 3454 0016 2B46     		mov	r3, r5
 3455 0018 0022     		movs	r2, #0
 3456 001a 2146     		mov	r1, r4
 3457 001c 02A8     		add	r0, sp, #8
 3458 001e FFF7FEFF 		bl	br_aes_ct64_ctr_run
 3459              	.LVL517:
 563:..\aes256ctr.c **** }
 3460              		.loc 1 563 0
 3461 0022 0DF5727D 		add	sp, sp, #968
 3462              		.cfi_def_cfa_offset 16
ARM GAS  C:\Users\bogur\AppData\Local\Temp\cca0k2e0.s 			page 75


 3463              		@ sp needed
 3464 0026 70BD     		pop	{r4, r5, r6, pc}
 3465              		.cfi_endproc
 3466              	.LFE20:
 3467              		.size	pqcrystals_aes256ctr_ref_prf, .-pqcrystals_aes256ctr_ref_prf
 3468              		.section	.text.pqcrystals_aes256ctr_ref_init,"ax",%progbits
 3469              		.align	2
 3470              		.global	pqcrystals_aes256ctr_ref_init
 3471              		.thumb
 3472              		.thumb_func
 3473              		.type	pqcrystals_aes256ctr_ref_init, %function
 3474              	pqcrystals_aes256ctr_ref_init:
 3475              	.LFB21:
 564:..\aes256ctr.c **** 
 565:..\aes256ctr.c **** void aes256ctr_init(aes256ctr_ctx *s, const uint8_t *key, const uint8_t *nonce)
 566:..\aes256ctr.c **** {
 3476              		.loc 1 566 0
 3477              		.cfi_startproc
 3478              		@ args = 0, pretend = 0, frame = 0
 3479              		@ frame_needed = 0, uses_anonymous_args = 0
 3480              	.LVL518:
 3481 0000 70B5     		push	{r4, r5, r6, lr}
 3482              		.cfi_def_cfa_offset 16
 3483              		.cfi_offset 4, -16
 3484              		.cfi_offset 5, -12
 3485              		.cfi_offset 6, -8
 3486              		.cfi_offset 14, -4
 3487 0002 0446     		mov	r4, r0
 3488 0004 1646     		mov	r6, r2
 567:..\aes256ctr.c ****   br_aes_ct64_ctr_init(s->sk_exp, key);
 3489              		.loc 1 567 0
 3490 0006 FFF7FEFF 		bl	br_aes_ct64_ctr_init
 3491              	.LVL519:
 568:..\aes256ctr.c **** 
 569:..\aes256ctr.c ****   br_range_dec32le(s->ivw, 3, nonce);
 3492              		.loc 1 569 0
 3493 000a 04F57075 		add	r5, r4, #960
 3494 000e 3246     		mov	r2, r6
 3495 0010 0321     		movs	r1, #3
 3496 0012 2846     		mov	r0, r5
 3497 0014 FFF7FEFF 		bl	br_range_dec32le
 3498              	.LVL520:
 570:..\aes256ctr.c ****   memcpy(s->ivw +  4, s->ivw, 3 * sizeof(uint32_t));
 3499              		.loc 1 570 0
 3500 0018 D4F8C003 		ldr	r0, [r4, #960]	@ unaligned
 3501 001c D4F8C413 		ldr	r1, [r4, #964]	@ unaligned
 3502 0020 D4F8C823 		ldr	r2, [r4, #968]	@ unaligned
 3503 0024 C4F8D003 		str	r0, [r4, #976]	@ unaligned
 3504 0028 C4F8D413 		str	r1, [r4, #980]	@ unaligned
 3505 002c C4F8D823 		str	r2, [r4, #984]	@ unaligned
 571:..\aes256ctr.c ****   memcpy(s->ivw +  8, s->ivw, 3 * sizeof(uint32_t));
 3506              		.loc 1 571 0
 3507 0030 D4F8C003 		ldr	r0, [r4, #960]	@ unaligned
 3508 0034 D4F8C413 		ldr	r1, [r4, #964]	@ unaligned
 3509 0038 D4F8C823 		ldr	r2, [r4, #968]	@ unaligned
 3510 003c C4F8E003 		str	r0, [r4, #992]	@ unaligned
 3511 0040 C4F8E413 		str	r1, [r4, #996]	@ unaligned
ARM GAS  C:\Users\bogur\AppData\Local\Temp\cca0k2e0.s 			page 76


 3512 0044 C4F8E823 		str	r2, [r4, #1000]	@ unaligned
 572:..\aes256ctr.c ****   memcpy(s->ivw + 12, s->ivw, 3 * sizeof(uint32_t));
 3513              		.loc 1 572 0
 3514 0048 D4F8C003 		ldr	r0, [r4, #960]	@ unaligned
 3515 004c D4F8C413 		ldr	r1, [r4, #964]	@ unaligned
 3516 0050 D4F8C823 		ldr	r2, [r4, #968]	@ unaligned
 3517 0054 C4F8F003 		str	r0, [r4, #1008]	@ unaligned
 3518 0058 C4F8F413 		str	r1, [r4, #1012]	@ unaligned
 3519 005c C4F8F823 		str	r2, [r4, #1016]	@ unaligned
 573:..\aes256ctr.c ****   s->ivw[ 3] = br_swap32(0);
 3520              		.loc 1 573 0
 3521 0060 0023     		movs	r3, #0
 3522 0062 C4F8CC33 		str	r3, [r4, #972]
 574:..\aes256ctr.c ****   s->ivw[ 7] = br_swap32(1);
 3523              		.loc 1 574 0
 3524 0066 4FF08073 		mov	r3, #16777216
 3525 006a C4F8DC33 		str	r3, [r4, #988]
 575:..\aes256ctr.c ****   s->ivw[11] = br_swap32(2);
 3526              		.loc 1 575 0
 3527 006e 4FF00073 		mov	r3, #33554432
 3528 0072 C4F8EC33 		str	r3, [r4, #1004]
 576:..\aes256ctr.c ****   s->ivw[15] = br_swap32(3);
 3529              		.loc 1 576 0
 3530 0076 4FF04073 		mov	r3, #50331648
 3531 007a C4F8FC33 		str	r3, [r4, #1020]
 3532 007e 70BD     		pop	{r4, r5, r6, pc}
 3533              		.cfi_endproc
 3534              	.LFE21:
 3535              		.size	pqcrystals_aes256ctr_ref_init, .-pqcrystals_aes256ctr_ref_init
 3536              		.section	.text.pqcrystals_aes256ctr_ref_squeezeblocks,"ax",%progbits
 3537              		.align	2
 3538              		.global	pqcrystals_aes256ctr_ref_squeezeblocks
 3539              		.thumb
 3540              		.thumb_func
 3541              		.type	pqcrystals_aes256ctr_ref_squeezeblocks, %function
 3542              	pqcrystals_aes256ctr_ref_squeezeblocks:
 3543              	.LFB22:
 577:..\aes256ctr.c **** }
 578:..\aes256ctr.c **** 
 579:..\aes256ctr.c **** void aes256ctr_squeezeblocks(uint8_t *out, size_t nblocks, aes256ctr_ctx *s)
 580:..\aes256ctr.c **** {
 3544              		.loc 1 580 0
 3545              		.cfi_startproc
 3546              		@ args = 0, pretend = 0, frame = 0
 3547              		@ frame_needed = 0, uses_anonymous_args = 0
 3548              	.LVL521:
 3549 0000 70B5     		push	{r4, r5, r6, lr}
 3550              		.cfi_def_cfa_offset 16
 3551              		.cfi_offset 4, -16
 3552              		.cfi_offset 5, -12
 3553              		.cfi_offset 6, -8
 3554              		.cfi_offset 14, -4
 3555 0002 0546     		mov	r5, r0
 3556 0004 0C46     		mov	r4, r1
 3557 0006 1646     		mov	r6, r2
 581:..\aes256ctr.c ****   while (nblocks > 0) {
 3558              		.loc 1 581 0
ARM GAS  C:\Users\bogur\AppData\Local\Temp\cca0k2e0.s 			page 77


 3559 0008 07E0     		b	.L67
 3560              	.LVL522:
 3561              	.L68:
 582:..\aes256ctr.c ****     aes_ctr4x(out, s->ivw, s->sk_exp);
 3562              		.loc 1 582 0
 3563 000a 3246     		mov	r2, r6
 3564 000c 06F57071 		add	r1, r6, #960
 3565 0010 2846     		mov	r0, r5
 3566 0012 FFF7FEFF 		bl	aes_ctr4x
 3567              	.LVL523:
 583:..\aes256ctr.c ****     out += 64;
 3568              		.loc 1 583 0
 3569 0016 4035     		adds	r5, r5, #64
 3570              	.LVL524:
 584:..\aes256ctr.c ****     nblocks--;
 3571              		.loc 1 584 0
 3572 0018 013C     		subs	r4, r4, #1
 3573              	.LVL525:
 3574              	.L67:
 581:..\aes256ctr.c ****     aes_ctr4x(out, s->ivw, s->sk_exp);
 3575              		.loc 1 581 0
 3576 001a 002C     		cmp	r4, #0
 3577 001c F5D1     		bne	.L68
 585:..\aes256ctr.c ****   }
 586:..\aes256ctr.c **** }
 3578              		.loc 1 586 0
 3579 001e 70BD     		pop	{r4, r5, r6, pc}
 3580              		.cfi_endproc
 3581              	.LFE22:
 3582              		.size	pqcrystals_aes256ctr_ref_squeezeblocks, .-pqcrystals_aes256ctr_ref_squeezeblocks
 3583              		.section	.rodata
 3584              		.align	2
 3585              		.set	.LANCHOR0,. + 0
 3586              		.type	Rcon, %object
 3587              		.size	Rcon, 10
 3588              	Rcon:
 3589 0000 01       		.byte	1
 3590 0001 02       		.byte	2
 3591 0002 04       		.byte	4
 3592 0003 08       		.byte	8
 3593 0004 10       		.byte	16
 3594 0005 20       		.byte	32
 3595 0006 40       		.byte	64
 3596 0007 80       		.byte	-128
 3597 0008 1B       		.byte	27
 3598 0009 36       		.byte	54
 3599              		.text
 3600              	.Letext0:
 3601              		.file 2 "c:\\program files (x86)\\cypress\\psoc creator\\4.4\\psoc creator\\import\\gnu\\arm\\5.4.
 3602              		.file 3 "c:\\program files (x86)\\cypress\\psoc creator\\4.4\\psoc creator\\import\\gnu\\arm\\5.4.
 3603              		.file 4 "c:\\program files (x86)\\cypress\\psoc creator\\4.4\\psoc creator\\import\\gnu\\arm\\5.4.
 3604              		.file 5 "..\\aes256ctr.h"