ARM GAS  C:\Users\bogur\AppData\Local\Temp\cca0k2e0.s 			page 1


   1              		.syntax unified
   2              		.cpu cortex-m4
   3              		.eabi_attribute 27, 1
   4              		.fpu fpv4-sp-d16
   5              		.eabi_attribute 20, 1
   6              		.eabi_attribute 21, 1
   7              		.eabi_attribute 23, 3
   8              		.eabi_attribute 24, 1
   9              		.eabi_attribute 25, 1
  10              		.eabi_attribute 26, 1
  11              		.eabi_attribute 30, 1
  12              		.eabi_attribute 34, 1
  13              		.eabi_attribute 18, 4
  14              		.thumb
  15              		.syntax unified
  16              		.file	"aes256ctr.c"
  17              		.text
  18              	.Ltext0:
  19              		.cfi_sections	.debug_frame
  20              		.section	.text.br_range_dec32le,"ax",%progbits
  21              		.align	2
  22              		.thumb
  23              		.thumb_func
  24              		.type	br_range_dec32le, %function
  25              	br_range_dec32le:
  26              	.LFB1:
  27              		.file 1 "..\\aes256ctr.c"
   1:..\aes256ctr.c **** /*
   2:..\aes256ctr.c ****  * Copyright (c) 2016 Thomas Pornin <pornin@bolet.org>
   3:..\aes256ctr.c ****  *
   4:..\aes256ctr.c ****  * Permission is hereby granted, free of charge, to any person obtaining
   5:..\aes256ctr.c ****  * a copy of this software and associated documentation files (the
   6:..\aes256ctr.c ****  * "Software"), to deal in the Software without restriction, including
   7:..\aes256ctr.c ****  * without limitation the rights to use, copy, modify, merge, publish,
   8:..\aes256ctr.c ****  * distribute, sublicense, and/or sell copies of the Software, and to
   9:..\aes256ctr.c ****  * permit persons to whom the Software is furnished to do so, subject to
  10:..\aes256ctr.c ****  * the following conditions:
  11:..\aes256ctr.c ****  *
  12:..\aes256ctr.c ****  * The above copyright notice and this permission notice shall be
  13:..\aes256ctr.c ****  * included in all copies or substantial portions of the Software.
  14:..\aes256ctr.c ****  *
  15:..\aes256ctr.c ****  * THE SOFTWARE IS PROVIDED "AS IS", WITHOUT WARRANTY OF ANY KIND,
  16:..\aes256ctr.c ****  * EXPRESS OR IMPLIED, INCLUDING BUT NOT LIMITED TO THE WARRANTIES OF
  17:..\aes256ctr.c ****  * MERCHANTABILITY, FITNESS FOR A PARTICULAR PURPOSE AND
  18:..\aes256ctr.c ****  * NONINFRINGEMENT. IN NO EVENT SHALL THE AUTHORS OR COPYRIGHT HOLDERS
  19:..\aes256ctr.c ****  * BE LIABLE FOR ANY CLAIM, DAMAGES OR OTHER LIABILITY, WHETHER IN AN
  20:..\aes256ctr.c ****  * ACTION OF CONTRACT, TORT OR OTHERWISE, ARISING FROM, OUT OF OR IN
  21:..\aes256ctr.c ****  * CONNECTION WITH THE SOFTWARE OR THE USE OR OTHER DEALINGS IN THE
  22:..\aes256ctr.c ****  * SOFTWARE.
  23:..\aes256ctr.c ****  */
  24:..\aes256ctr.c **** 
  25:..\aes256ctr.c **** #include <stdint.h>
  26:..\aes256ctr.c **** #include <string.h>
  27:..\aes256ctr.c **** #include "aes256ctr.h"
  28:..\aes256ctr.c **** 
  29:..\aes256ctr.c **** static inline uint32_t br_dec32le(const uint8_t *src)
  30:..\aes256ctr.c **** {
ARM GAS  C:\Users\bogur\AppData\Local\Temp\cca0k2e0.s 			page 2


  31:..\aes256ctr.c **** 	return (uint32_t)src[0]
  32:..\aes256ctr.c **** 		| ((uint32_t)src[1] << 8)
  33:..\aes256ctr.c **** 		| ((uint32_t)src[2] << 16)
  34:..\aes256ctr.c **** 		| ((uint32_t)src[3] << 24);
  35:..\aes256ctr.c **** }
  36:..\aes256ctr.c **** 
  37:..\aes256ctr.c **** static void br_range_dec32le(uint32_t *v, size_t num, const uint8_t *src)
  38:..\aes256ctr.c **** {
  28              		.loc 1 38 0
  29              		.cfi_startproc
  30              		@ args = 0, pretend = 0, frame = 0
  31              		@ frame_needed = 0, uses_anonymous_args = 0
  32              		@ link register save eliminated.
  33              	.LVL0:
  34 0000 10B4     		push	{r4}
  35              		.cfi_def_cfa_offset 4
  36              		.cfi_offset 4, -4
  39:..\aes256ctr.c **** 	while (num-- > 0) {
  37              		.loc 1 39 0
  38 0002 0DE0     		b	.L2
  39              	.LVL1:
  40              	.L3:
  41              	.LBB43:
  42              	.LBB44:
  31:..\aes256ctr.c **** 		| ((uint32_t)src[1] << 8)
  43              		.loc 1 31 0
  44 0004 1378     		ldrb	r3, [r2]	@ zero_extendqisi2
  32:..\aes256ctr.c **** 		| ((uint32_t)src[2] << 16)
  45              		.loc 1 32 0
  46 0006 5178     		ldrb	r1, [r2, #1]	@ zero_extendqisi2
  47 0008 43EA0123 		orr	r3, r3, r1, lsl #8
  33:..\aes256ctr.c **** 		| ((uint32_t)src[3] << 24);
  48              		.loc 1 33 0
  49 000c 9178     		ldrb	r1, [r2, #2]	@ zero_extendqisi2
  50 000e 43EA0143 		orr	r3, r3, r1, lsl #16
  34:..\aes256ctr.c **** }
  51              		.loc 1 34 0
  52 0012 D178     		ldrb	r1, [r2, #3]	@ zero_extendqisi2
  31:..\aes256ctr.c **** 		| ((uint32_t)src[1] << 8)
  53              		.loc 1 31 0
  54 0014 43EA0163 		orr	r3, r3, r1, lsl #24
  55              	.LVL2:
  56              	.LBE44:
  57              	.LBE43:
  40:..\aes256ctr.c **** 		*v ++ = br_dec32le(src);
  58              		.loc 1 40 0
  59 0018 0360     		str	r3, [r0]
  41:..\aes256ctr.c **** 		src += 4;
  60              		.loc 1 41 0
  61 001a 0432     		adds	r2, r2, #4
  62              	.LVL3:
  39:..\aes256ctr.c **** 		*v ++ = br_dec32le(src);
  63              		.loc 1 39 0
  64 001c 2146     		mov	r1, r4
  40:..\aes256ctr.c **** 		*v ++ = br_dec32le(src);
  65              		.loc 1 40 0
  66 001e 0430     		adds	r0, r0, #4
ARM GAS  C:\Users\bogur\AppData\Local\Temp\cca0k2e0.s 			page 3


  67              	.LVL4:
  68              	.L2:
  39:..\aes256ctr.c **** 		*v ++ = br_dec32le(src);
  69              		.loc 1 39 0
  70 0020 4C1E     		subs	r4, r1, #1
  71              	.LVL5:
  72 0022 0029     		cmp	r1, #0
  73 0024 EED1     		bne	.L3
  42:..\aes256ctr.c **** 	}
  43:..\aes256ctr.c **** }
  74              		.loc 1 43 0
  75 0026 5DF8044B 		ldr	r4, [sp], #4
  76              		.cfi_restore 4
  77              		.cfi_def_cfa_offset 0
  78              	.LVL6:
  79 002a 7047     		bx	lr
  80              		.cfi_endproc
  81              	.LFE1:
  82              		.size	br_range_dec32le, .-br_range_dec32le
  83              		.section	.text.br_range_enc32le,"ax",%progbits
  84              		.align	2
  85              		.thumb
  86              		.thumb_func
  87              		.type	br_range_enc32le, %function
  88              	br_range_enc32le:
  89              	.LFB4:
  44:..\aes256ctr.c **** 
  45:..\aes256ctr.c **** static inline uint32_t br_swap32(uint32_t x)
  46:..\aes256ctr.c **** {
  47:..\aes256ctr.c **** 	x = ((x & (uint32_t)0x00FF00FF) << 8)
  48:..\aes256ctr.c **** 		| ((x >> 8) & (uint32_t)0x00FF00FF);
  49:..\aes256ctr.c **** 	return (x << 16) | (x >> 16);
  50:..\aes256ctr.c **** }
  51:..\aes256ctr.c **** 
  52:..\aes256ctr.c **** static inline void br_enc32le(uint8_t *dst, uint32_t x)
  53:..\aes256ctr.c **** {
  54:..\aes256ctr.c **** 	dst[0] = (uint8_t)x;
  55:..\aes256ctr.c **** 	dst[1] = (uint8_t)(x >> 8);
  56:..\aes256ctr.c **** 	dst[2] = (uint8_t)(x >> 16);
  57:..\aes256ctr.c **** 	dst[3] = (uint8_t)(x >> 24);
  58:..\aes256ctr.c **** }
  59:..\aes256ctr.c **** 
  60:..\aes256ctr.c **** static void br_range_enc32le(uint8_t *dst, const uint32_t *v, size_t num)
  61:..\aes256ctr.c **** {
  90              		.loc 1 61 0
  91              		.cfi_startproc
  92              		@ args = 0, pretend = 0, frame = 0
  93              		@ frame_needed = 0, uses_anonymous_args = 0
  94              		@ link register save eliminated.
  95              	.LVL7:
  96 0000 10B4     		push	{r4}
  97              		.cfi_def_cfa_offset 4
  98              		.cfi_offset 4, -4
  62:..\aes256ctr.c **** 	while (num-- > 0) {
  99              		.loc 1 62 0
 100 0002 0CE0     		b	.L6
 101              	.LVL8:
ARM GAS  C:\Users\bogur\AppData\Local\Temp\cca0k2e0.s 			page 4


 102              	.L7:
  63:..\aes256ctr.c **** 		br_enc32le(dst, *v ++);
 103              		.loc 1 63 0
 104 0004 0B68     		ldr	r3, [r1]
 105              	.LVL9:
 106              	.LBB45:
 107              	.LBB46:
  54:..\aes256ctr.c **** 	dst[1] = (uint8_t)(x >> 8);
 108              		.loc 1 54 0
 109 0006 0370     		strb	r3, [r0]
  55:..\aes256ctr.c **** 	dst[2] = (uint8_t)(x >> 16);
 110              		.loc 1 55 0
 111 0008 C3F30722 		ubfx	r2, r3, #8, #8
 112 000c 4270     		strb	r2, [r0, #1]
  56:..\aes256ctr.c **** 	dst[3] = (uint8_t)(x >> 24);
 113              		.loc 1 56 0
 114 000e C3F30742 		ubfx	r2, r3, #16, #8
 115 0012 8270     		strb	r2, [r0, #2]
  57:..\aes256ctr.c **** }
 116              		.loc 1 57 0
 117 0014 1B0E     		lsrs	r3, r3, #24
 118              	.LVL10:
 119 0016 C370     		strb	r3, [r0, #3]
 120              	.LVL11:
 121              	.LBE46:
 122              	.LBE45:
  64:..\aes256ctr.c **** 		dst += 4;
 123              		.loc 1 64 0
 124 0018 0430     		adds	r0, r0, #4
 125              	.LVL12:
  62:..\aes256ctr.c **** 		br_enc32le(dst, *v ++);
 126              		.loc 1 62 0
 127 001a 2246     		mov	r2, r4
  63:..\aes256ctr.c **** 		dst += 4;
 128              		.loc 1 63 0
 129 001c 0431     		adds	r1, r1, #4
 130              	.LVL13:
 131              	.L6:
  62:..\aes256ctr.c **** 		br_enc32le(dst, *v ++);
 132              		.loc 1 62 0
 133 001e 541E     		subs	r4, r2, #1
 134              	.LVL14:
 135 0020 002A     		cmp	r2, #0
 136 0022 EFD1     		bne	.L7
  65:..\aes256ctr.c **** 	}
  66:..\aes256ctr.c **** }
 137              		.loc 1 66 0
 138 0024 5DF8044B 		ldr	r4, [sp], #4
 139              		.cfi_restore 4
 140              		.cfi_def_cfa_offset 0
 141              	.LVL15:
 142 0028 7047     		bx	lr
 143              		.cfi_endproc
 144              	.LFE4:
 145              		.size	br_range_enc32le, .-br_range_enc32le
 146 002a 00BF     		.section	.text.br_aes_ct64_bitslice_Sbox,"ax",%progbits
 147              		.align	2
ARM GAS  C:\Users\bogur\AppData\Local\Temp\cca0k2e0.s 			page 5


 148              		.thumb
 149              		.thumb_func
 150              		.type	br_aes_ct64_bitslice_Sbox, %function
 151              	br_aes_ct64_bitslice_Sbox:
 152              	.LFB5:
  67:..\aes256ctr.c **** 
  68:..\aes256ctr.c **** static void br_aes_ct64_bitslice_Sbox(uint64_t *q)
  69:..\aes256ctr.c **** {
 153              		.loc 1 69 0
 154              		.cfi_startproc
 155              		@ args = 0, pretend = 0, frame = 216
 156              		@ frame_needed = 0, uses_anonymous_args = 0
 157              	.LVL16:
 158 0000 2DE9F04F 		push	{r4, r5, r6, r7, r8, r9, r10, fp, lr}
 159              		.cfi_def_cfa_offset 36
 160              		.cfi_offset 4, -36
 161              		.cfi_offset 5, -32
 162              		.cfi_offset 6, -28
 163              		.cfi_offset 7, -24
 164              		.cfi_offset 8, -20
 165              		.cfi_offset 9, -16
 166              		.cfi_offset 10, -12
 167              		.cfi_offset 11, -8
 168              		.cfi_offset 14, -4
 169 0004 B7B0     		sub	sp, sp, #220
 170              		.cfi_def_cfa_offset 256
 171 0006 8646     		mov	lr, r0
  70:..\aes256ctr.c **** 	/*
  71:..\aes256ctr.c **** 	 * This S-box implementation is a straightforward translation of
  72:..\aes256ctr.c **** 	 * the circuit described by Boyar and Peralta in "A new
  73:..\aes256ctr.c **** 	 * combinational logic minimization technique with applications
  74:..\aes256ctr.c **** 	 * to cryptology" (https://eprint.iacr.org/2009/191.pdf).
  75:..\aes256ctr.c **** 	 *
  76:..\aes256ctr.c **** 	 * Note that variables x* (input) and s* (output) are numbered
  77:..\aes256ctr.c **** 	 * in "reverse" order (x0 is the high bit, x7 is the low bit).
  78:..\aes256ctr.c **** 	 */
  79:..\aes256ctr.c **** 
  80:..\aes256ctr.c **** 	uint64_t x0, x1, x2, x3, x4, x5, x6, x7;
  81:..\aes256ctr.c **** 	uint64_t y1, y2, y3, y4, y5, y6, y7, y8, y9;
  82:..\aes256ctr.c **** 	uint64_t y10, y11, y12, y13, y14, y15, y16, y17, y18, y19;
  83:..\aes256ctr.c **** 	uint64_t y20, y21;
  84:..\aes256ctr.c **** 	uint64_t z0, z1, z2, z3, z4, z5, z6, z7, z8, z9;
  85:..\aes256ctr.c **** 	uint64_t z10, z11, z12, z13, z14, z15, z16, z17;
  86:..\aes256ctr.c **** 	uint64_t t0, t1, t2, t3, t4, t5, t6, t7, t8, t9;
  87:..\aes256ctr.c **** 	uint64_t t10, t11, t12, t13, t14, t15, t16, t17, t18, t19;
  88:..\aes256ctr.c **** 	uint64_t t20, t21, t22, t23, t24, t25, t26, t27, t28, t29;
  89:..\aes256ctr.c **** 	uint64_t t30, t31, t32, t33, t34, t35, t36, t37, t38, t39;
  90:..\aes256ctr.c **** 	uint64_t t40, t41, t42, t43, t44, t45, t46, t47, t48, t49;
  91:..\aes256ctr.c **** 	uint64_t t50, t51, t52, t53, t54, t55, t56, t57, t58, t59;
  92:..\aes256ctr.c **** 	uint64_t t60, t61, t62, t63, t64, t65, t66, t67;
  93:..\aes256ctr.c **** 	uint64_t s0, s1, s2, s3, s4, s5, s6, s7;
  94:..\aes256ctr.c **** 
  95:..\aes256ctr.c **** 	x0 = q[7];
 172              		.loc 1 95 0
 173 0008 D0E90E34 		ldrd	r3, [r0, #56]
 174 000c CDE90034 		strd	r3, [sp]
 175              	.LVL17:
ARM GAS  C:\Users\bogur\AppData\Local\Temp\cca0k2e0.s 			page 6


  96:..\aes256ctr.c **** 	x1 = q[6];
 176              		.loc 1 96 0
 177 0010 D0E90C23 		ldrd	r2, [r0, #48]
 178              	.LVL18:
  97:..\aes256ctr.c **** 	x2 = q[5];
 179              		.loc 1 97 0
 180 0014 D0E90A45 		ldrd	r4, [r0, #40]
 181              	.LVL19:
  98:..\aes256ctr.c **** 	x3 = q[4];
 182              		.loc 1 98 0
 183 0018 D0E90889 		ldrd	r8, [r0, #32]
 184              	.LVL20:
  99:..\aes256ctr.c **** 	x4 = q[3];
 100:..\aes256ctr.c **** 	x5 = q[2];
 185              		.loc 1 100 0
 186 001c D0E90401 		ldrd	r0, [r0, #16]
 187              	.LVL21:
 188 0020 CDE90601 		strd	r0, [sp, #24]
 189              	.LVL22:
 101:..\aes256ctr.c **** 	x6 = q[1];
 190              		.loc 1 101 0
 191 0024 DEE90201 		ldrd	r0, [lr, #8]
 192              	.LVL23:
 193 0028 CDE90C01 		strd	r0, [sp, #48]
 194              	.LVL24:
 102:..\aes256ctr.c **** 	x7 = q[0];
 103:..\aes256ctr.c **** 
 104:..\aes256ctr.c **** 	/*
 105:..\aes256ctr.c **** 	 * Top linear transformation.
 106:..\aes256ctr.c **** 	 */
 107:..\aes256ctr.c **** 	y14 = x3 ^ x5;
 195              		.loc 1 107 0
 196 002c DDE90601 		ldrd	r0, [sp, #24]
 197              	.LVL25:
 198 0030 80EA0800 		eor	r0, r0, r8
 199 0034 81EA0901 		eor	r1, r1, r9
 200 0038 8246     		mov	r10, r0
 201 003a 8B46     		mov	fp, r1
 202 003c CDE908AB 		strd	r10, [sp, #32]
 203              	.LVL26:
 108:..\aes256ctr.c **** 	y13 = x0 ^ x6;
 204              		.loc 1 108 0
 205 0040 DDE90001 		ldrd	r0, [sp]
 206 0044 DDE90C67 		ldrd	r6, [sp, #48]
 207 0048 4640     		eors	r6, r6, r0
 208 004a 4F40     		eors	r7, r7, r1
 209 004c B346     		mov	fp, r6
 210 004e BC46     		mov	ip, r7
 211 0050 CDE902BC 		strd	fp, [sp, #8]
 212              	.LVL27:
 109:..\aes256ctr.c **** 	y9 = x0 ^ x3;
 213              		.loc 1 109 0
 214 0054 DDE90001 		ldrd	r0, [sp]
 215 0058 80EA0800 		eor	r0, r0, r8
 216 005c 81EA0901 		eor	r1, r1, r9
 217 0060 8246     		mov	r10, r0
 218              	.LVL28:
ARM GAS  C:\Users\bogur\AppData\Local\Temp\cca0k2e0.s 			page 7


 219 0062 8B46     		mov	fp, r1
 220              	.LVL29:
 221 0064 CDE90AAB 		strd	r10, [sp, #40]
 222              	.LVL30:
 110:..\aes256ctr.c **** 	y8 = x0 ^ x5;
 223              		.loc 1 110 0
 224 0068 DDE90001 		ldrd	r0, [sp]
 225 006c DDE90667 		ldrd	r6, [sp, #24]
 226 0070 7040     		eors	r0, r0, r6
 227 0072 7940     		eors	r1, r1, r7
 228 0074 8346     		mov	fp, r0
 229 0076 8C46     		mov	ip, r1
 230              	.LVL31:
 111:..\aes256ctr.c **** 	t0 = x1 ^ x2;
 231              		.loc 1 111 0
 232 0078 CDE90E23 		strd	r2, [sp, #56]
 233 007c 6240     		eors	r2, r2, r4
 234              	.LVL32:
 235 007e 6B40     		eors	r3, r3, r5
 236              	.LVL33:
 237 0080 1046     		mov	r0, r2
 238 0082 1946     		mov	r1, r3
 239              	.LVL34:
 112:..\aes256ctr.c **** 	y1 = t0 ^ x7;
 240              		.loc 1 112 0
 241 0084 DEE90045 		ldrd	r4, [lr]
 242              	.LVL35:
 243 0088 6240     		eors	r2, r2, r4
 244 008a 6B40     		eors	r3, r3, r5
 245 008c 1446     		mov	r4, r2
 246 008e 1D46     		mov	r5, r3
 247              	.LVL36:
 113:..\aes256ctr.c **** 	y4 = y1 ^ x3;
 248              		.loc 1 113 0
 249 0090 CDE90445 		strd	r4, [sp, #16]
 250 0094 82EA0804 		eor	r4, r2, r8
 251              	.LVL37:
 252 0098 83EA0905 		eor	r5, r3, r9
 253 009c CDE91245 		strd	r4, [sp, #72]
 254              	.LVL38:
 114:..\aes256ctr.c **** 	y12 = y13 ^ y14;
 255              		.loc 1 114 0
 256 00a0 DDE9089A 		ldrd	r9, [sp, #32]
 257 00a4 DDE90245 		ldrd	r4, [sp, #8]
 258              	.LVL39:
 259 00a8 89EA0409 		eor	r9, r9, r4
 260 00ac 8AEA050A 		eor	r10, r10, r5
 261              	.LVL40:
 262 00b0 4A46     		mov	r2, r9
 263 00b2 5346     		mov	r3, r10
 264              	.LVL41:
 115:..\aes256ctr.c **** 	y2 = y1 ^ x0;
 265              		.loc 1 115 0
 266 00b4 DDE90445 		ldrd	r4, [sp, #16]
 267 00b8 DDE90067 		ldrd	r6, [sp]
 268 00bc 6640     		eors	r6, r6, r4
 269 00be 6F40     		eors	r7, r7, r5
ARM GAS  C:\Users\bogur\AppData\Local\Temp\cca0k2e0.s 			page 8


 270 00c0 B046     		mov	r8, r6
 271              	.LVL42:
 272 00c2 B946     		mov	r9, r7
 273 00c4 CDE91689 		strd	r8, [sp, #88]
 274              	.LVL43:
 116:..\aes256ctr.c **** 	y5 = y1 ^ x6;
 275              		.loc 1 116 0
 276 00c8 A046     		mov	r8, r4
 277              	.LVL44:
 278 00ca A946     		mov	r9, r5
 279 00cc DDE90C45 		ldrd	r4, [sp, #48]
 280 00d0 84EA0804 		eor	r4, r4, r8
 281 00d4 85EA0905 		eor	r5, r5, r9
 282 00d8 A046     		mov	r8, r4
 283 00da A946     		mov	r9, r5
 284              	.LVL45:
 117:..\aes256ctr.c **** 	y3 = y5 ^ y8;
 285              		.loc 1 117 0
 286 00dc CDE90CBC 		strd	fp, [sp, #48]
 287 00e0 8BEA040B 		eor	fp, fp, r4
 288              	.LVL46:
 289 00e4 8CEA090C 		eor	ip, ip, r9
 290 00e8 CDE918BC 		strd	fp, [sp, #96]
 291              	.LVL47:
 118:..\aes256ctr.c **** 	t1 = x4 ^ y12;
 292              		.loc 1 118 0
 293 00ec DEE906AB 		ldrd	r10, [lr, #24]
 294 00f0 CDE91423 		strd	r2, [sp, #80]
 295 00f4 8AEA020A 		eor	r10, r10, r2
 296 00f8 8BEA030B 		eor	fp, fp, r3
 297              	.LVL48:
 298 00fc 5646     		mov	r6, r10
 299 00fe 5F46     		mov	r7, fp
 300              	.LVL49:
 119:..\aes256ctr.c **** 	y15 = t1 ^ x5;
 301              		.loc 1 119 0
 302 0100 DDE90634 		ldrd	r3, [sp, #24]
 303 0104 7340     		eors	r3, r3, r6
 304 0106 7C40     		eors	r4, r4, r7
 305 0108 2546     		mov	r5, r4
 306 010a 2C46     		mov	r4, r5
 307              	.LVL50:
 120:..\aes256ctr.c **** 	y20 = t1 ^ x1;
 308              		.loc 1 120 0
 309 010c DDE90EAB 		ldrd	r10, [sp, #56]
 310 0110 8AEA060A 		eor	r10, r10, r6
 311 0114 8BEA070B 		eor	fp, fp, r7
 312              	.LVL51:
 121:..\aes256ctr.c **** 	y6 = y15 ^ x7;
 313              		.loc 1 121 0
 314 0118 DEE90067 		ldrd	r6, [lr]
 315              	.LVL52:
 316 011c 5E40     		eors	r6, r6, r3
 317 011e 6F40     		eors	r7, r7, r5
 318 0120 CDE91C67 		strd	r6, [sp, #112]
 319              	.LVL53:
 122:..\aes256ctr.c **** 	y10 = y15 ^ t0;
ARM GAS  C:\Users\bogur\AppData\Local\Temp\cca0k2e0.s 			page 9


 320              		.loc 1 122 0
 321 0124 CDE91A34 		strd	r3, [sp, #104]
 322 0128 1A46     		mov	r2, r3
 323              	.LVL54:
 324 012a 2B46     		mov	r3, r5
 325              	.LVL55:
 326 012c 0446     		mov	r4, r0
 327 012e 0D46     		mov	r5, r1
 328 0130 5440     		eors	r4, r4, r2
 329 0132 5D40     		eors	r5, r5, r3
 330 0134 2B46     		mov	r3, r5
 331 0136 2546     		mov	r5, r4
 332 0138 1E46     		mov	r6, r3
 333              	.LVL56:
 123:..\aes256ctr.c **** 	y11 = y20 ^ y9;
 334              		.loc 1 123 0
 335 013a DDE90A34 		ldrd	r3, [sp, #40]
 336 013e CDE906AB 		strd	r10, [sp, #24]
 337 0142 83EA0A03 		eor	r3, r3, r10
 338 0146 84EA0B04 		eor	r4, r4, fp
 339 014a 1A46     		mov	r2, r3
 340 014c 2346     		mov	r3, r4
 341              	.LVL57:
 124:..\aes256ctr.c **** 	y7 = x7 ^ y11;
 342              		.loc 1 124 0
 343 014e DEE900AB 		ldrd	r10, [lr]
 344              	.LVL58:
 345 0152 8AEA020A 		eor	r10, r10, r2
 346 0156 8BEA040B 		eor	fp, fp, r4
 347 015a CDE922AB 		strd	r10, [sp, #136]
 348              	.LVL59:
 125:..\aes256ctr.c **** 	y17 = y10 ^ y11;
 349              		.loc 1 125 0
 350 015e AB46     		mov	fp, r5
 351 0160 B446     		mov	ip, r6
 352 0162 5540     		eors	r5, r5, r2
 353              	.LVL60:
 354 0164 6640     		eors	r6, r6, r4
 355 0166 CDE92456 		strd	r5, [sp, #144]
 356              	.LVL61:
 126:..\aes256ctr.c **** 	y19 = y10 ^ y8;
 357              		.loc 1 126 0
 358 016a DDE90C45 		ldrd	r4, [sp, #48]
 359 016e CDE91EBC 		strd	fp, [sp, #120]
 360 0172 5E46     		mov	r6, fp
 361 0174 6746     		mov	r7, ip
 362 0176 7440     		eors	r4, r4, r6
 363 0178 7D40     		eors	r5, r5, r7
 364              	.LVL62:
 365 017a CDE90E45 		strd	r4, [sp, #56]
 366              	.LVL63:
 127:..\aes256ctr.c **** 	y16 = t0 ^ y11;
 367              		.loc 1 127 0
 368 017e CDE92023 		strd	r2, [sp, #128]
 369 0182 1E46     		mov	r6, r3
 370 0184 0346     		mov	r3, r0
 371 0186 0C46     		mov	r4, r1
ARM GAS  C:\Users\bogur\AppData\Local\Temp\cca0k2e0.s 			page 10


 372              	.LVL64:
 373 0188 5340     		eors	r3, r3, r2
 374 018a 7440     		eors	r4, r4, r6
 375 018c 1D46     		mov	r5, r3
 376 018e 2746     		mov	r7, r4
 377 0190 1E46     		mov	r6, r3
 378              	.LVL65:
 128:..\aes256ctr.c **** 	y21 = y13 ^ y16;
 379              		.loc 1 128 0
 380 0192 DDE90234 		ldrd	r3, [sp, #8]
 381 0196 6B40     		eors	r3, r3, r5
 382 0198 7C40     		eors	r4, r4, r7
 383 019a CDE91034 		strd	r3, [sp, #64]
 384              	.LVL66:
 129:..\aes256ctr.c **** 	y18 = x0 ^ y16;
 385              		.loc 1 129 0
 386 019e CDE92667 		strd	r6, [sp, #152]
 387 01a2 DDE90034 		ldrd	r3, [sp]
 388              	.LVL67:
 389 01a6 6B40     		eors	r3, r3, r5
 390 01a8 7C40     		eors	r4, r4, r7
 391 01aa 9B46     		mov	fp, r3
 392 01ac A446     		mov	ip, r4
 393 01ae CDE900BC 		strd	fp, [sp]
 394              	.LVL68:
 130:..\aes256ctr.c **** 
 131:..\aes256ctr.c **** 	/*
 132:..\aes256ctr.c **** 	 * Non-linear section.
 133:..\aes256ctr.c **** 	 */
 134:..\aes256ctr.c **** 	t2 = y12 & y15;
 395              		.loc 1 134 0
 396 01b2 DDE91456 		ldrd	r5, [sp, #80]
 397 01b6 DDE91A12 		ldrd	r1, [sp, #104]
 398 01ba 0D40     		ands	r5, r5, r1
 399 01bc 1640     		ands	r6, r6, r2
 400              	.LVL69:
 401 01be 2A46     		mov	r2, r5
 402              	.LVL70:
 403 01c0 3346     		mov	r3, r6
 404              	.LVL71:
 135:..\aes256ctr.c **** 	t3 = y3 & y6;
 405              		.loc 1 135 0
 406 01c2 DDE91801 		ldrd	r0, [sp, #96]
 407              	.LVL72:
 408 01c6 DDE91C56 		ldrd	r5, [sp, #112]
 409 01ca 2840     		ands	r0, r0, r5
 410 01cc 3140     		ands	r1, r1, r6
 136:..\aes256ctr.c **** 	t4 = t3 ^ t2;
 411              		.loc 1 136 0
 412 01ce 5040     		eors	r0, r0, r2
 413 01d0 5940     		eors	r1, r1, r3
 414 01d2 CDE92801 		strd	r0, [sp, #160]
 415              	.LVL73:
 137:..\aes256ctr.c **** 	t5 = y4 & x7;
 416              		.loc 1 137 0
 417 01d6 DEE90045 		ldrd	r4, [lr]
 418 01da DDE91201 		ldrd	r0, [sp, #72]
ARM GAS  C:\Users\bogur\AppData\Local\Temp\cca0k2e0.s 			page 11


 419              	.LVL74:
 420 01de 0440     		ands	r4, r4, r0
 421 01e0 0D40     		ands	r5, r5, r1
 422              	.LVL75:
 138:..\aes256ctr.c **** 	t6 = t5 ^ t2;
 423              		.loc 1 138 0
 424 01e2 82EA0400 		eor	r0, r2, r4
 425 01e6 83EA0501 		eor	r1, r3, r5
 426 01ea CDE92A01 		strd	r0, [sp, #168]
 427              	.LVL76:
 139:..\aes256ctr.c **** 	t7 = y13 & y16;
 428              		.loc 1 139 0
 429 01ee DDE90234 		ldrd	r3, [sp, #8]
 430 01f2 DDE92612 		ldrd	r1, [sp, #152]
 431 01f6 0B40     		ands	r3, r3, r1
 432 01f8 1440     		ands	r4, r4, r2
 433              	.LVL77:
 434 01fa 2546     		mov	r5, r4
 435 01fc 1C46     		mov	r4, r3
 436              	.LVL78:
 140:..\aes256ctr.c **** 	t8 = y5 & y1;
 437              		.loc 1 140 0
 438 01fe DDE90423 		ldrd	r2, [sp, #16]
 439              	.LVL79:
 440 0202 CDE92C89 		strd	r8, [sp, #176]
 441 0206 4646     		mov	r6, r8
 442 0208 4F46     		mov	r7, r9
 443 020a 3240     		ands	r2, r2, r6
 444 020c 3B40     		ands	r3, r3, r7
 445              	.LVL80:
 141:..\aes256ctr.c **** 	t9 = t8 ^ t7;
 446              		.loc 1 141 0
 447 020e 84EA0200 		eor	r0, r4, r2
 448              	.LVL81:
 449 0212 85EA0301 		eor	r1, r5, r3
 450              	.LVL82:
 142:..\aes256ctr.c **** 	t10 = y2 & y7;
 451              		.loc 1 142 0
 452 0216 DDE916AB 		ldrd	r10, [sp, #88]
 453              	.LVL83:
 454 021a DDE92278 		ldrd	r7, [sp, #136]
 455 021e 0AEA070A 		and	r10, r10, r7
 456 0222 0BEA080B 		and	fp, fp, r8
 457              	.LVL84:
 143:..\aes256ctr.c **** 	t11 = t10 ^ t7;
 458              		.loc 1 143 0
 459 0226 8AEA040A 		eor	r10, r10, r4
 460 022a 8BEA050B 		eor	fp, fp, r5
 461              	.LVL85:
 144:..\aes256ctr.c **** 	t12 = y9 & y11;
 462              		.loc 1 144 0
 463 022e DDE90A45 		ldrd	r4, [sp, #40]
 464              	.LVL86:
 465 0232 DDE92078 		ldrd	r7, [sp, #128]
 466 0236 3C40     		ands	r4, r4, r7
 467 0238 05EA0805 		and	r5, r5, r8
 468              	.LVL87:
ARM GAS  C:\Users\bogur\AppData\Local\Temp\cca0k2e0.s 			page 12


 145:..\aes256ctr.c **** 	t13 = y14 & y17;
 469              		.loc 1 145 0
 470 023c DDE90823 		ldrd	r2, [sp, #32]
 471              	.LVL88:
 472 0240 DDE92478 		ldrd	r7, [sp, #144]
 473 0244 3A40     		ands	r2, r2, r7
 474 0246 03EA0803 		and	r3, r3, r8
 475              	.LVL89:
 146:..\aes256ctr.c **** 	t14 = t13 ^ t12;
 476              		.loc 1 146 0
 477 024a 82EA0406 		eor	r6, r2, r4
 478 024e 83EA0507 		eor	r7, r3, r5
 479              	.LVL90:
 147:..\aes256ctr.c **** 	t15 = y8 & y10;
 480              		.loc 1 147 0
 481 0252 DDE90C89 		ldrd	r8, [sp, #48]
 482              	.LVL91:
 483 0256 DDE91E23 		ldrd	r2, [sp, #120]
 484              	.LVL92:
 485 025a 08EA0208 		and	r8, r8, r2
 486 025e 09EA0309 		and	r9, r9, r3
 487              	.LVL93:
 148:..\aes256ctr.c **** 	t16 = t15 ^ t12;
 488              		.loc 1 148 0
 489 0262 88EA0402 		eor	r2, r8, r4
 490 0266 89EA0503 		eor	r3, r9, r5
 491              	.LVL94:
 149:..\aes256ctr.c **** 	t17 = t4 ^ t14;
 492              		.loc 1 149 0
 493 026a DDE92889 		ldrd	r8, [sp, #160]
 494              	.LVL95:
 495 026e CDE92867 		strd	r6, [sp, #160]
 496              	.LVL96:
 497 0272 88EA0608 		eor	r8, r8, r6
 498              	.LVL97:
 499 0276 89EA0709 		eor	r9, r9, r7
 500 027a 4646     		mov	r6, r8
 501              	.LVL98:
 502 027c 4F46     		mov	r7, r9
 503              	.LVL99:
 150:..\aes256ctr.c **** 	t18 = t6 ^ t16;
 504              		.loc 1 150 0
 505 027e DDE92A45 		ldrd	r4, [sp, #168]
 506              	.LVL100:
 507 0282 9046     		mov	r8, r2
 508 0284 9946     		mov	r9, r3
 509 0286 6240     		eors	r2, r2, r4
 510              	.LVL101:
 511 0288 6B40     		eors	r3, r3, r5
 512 028a 1446     		mov	r4, r2
 513 028c 1D46     		mov	r5, r3
 514              	.LVL102:
 151:..\aes256ctr.c **** 	t19 = t9 ^ t14;
 515              		.loc 1 151 0
 516 028e DDE92823 		ldrd	r2, [sp, #160]
 517 0292 4240     		eors	r2, r2, r0
 518 0294 4B40     		eors	r3, r3, r1
ARM GAS  C:\Users\bogur\AppData\Local\Temp\cca0k2e0.s 			page 13


 519              	.LVL103:
 152:..\aes256ctr.c **** 	t20 = t11 ^ t16;
 520              		.loc 1 152 0
 521 0296 88EA0A08 		eor	r8, r8, r10
 522 029a 89EA0B09 		eor	r9, r9, fp
 523              	.LVL104:
 153:..\aes256ctr.c **** 	t21 = t17 ^ y20;
 524              		.loc 1 153 0
 525 029e DDE906AB 		ldrd	r10, [sp, #24]
 526              	.LVL105:
 527 02a2 8AEA060A 		eor	r10, r10, r6
 528 02a6 8BEA070B 		eor	fp, fp, r7
 529 02aa 5046     		mov	r0, r10
 530              	.LVL106:
 531 02ac 5946     		mov	r1, fp
 532              	.LVL107:
 154:..\aes256ctr.c **** 	t22 = t18 ^ y19;
 533              		.loc 1 154 0
 534 02ae DDE90EBC 		ldrd	fp, [sp, #56]
 535 02b2 8BEA040B 		eor	fp, fp, r4
 536 02b6 8CEA050C 		eor	ip, ip, r5
 537 02ba 5C46     		mov	r4, fp
 538              	.LVL108:
 539 02bc 6546     		mov	r5, ip
 540              	.LVL109:
 155:..\aes256ctr.c **** 	t23 = t19 ^ y21;
 541              		.loc 1 155 0
 542 02be DDE910BC 		ldrd	fp, [sp, #64]
 543 02c2 8BEA020B 		eor	fp, fp, r2
 544 02c6 8CEA030C 		eor	ip, ip, r3
 545 02ca 5E46     		mov	r6, fp
 546              	.LVL110:
 547 02cc 6746     		mov	r7, ip
 548              	.LVL111:
 156:..\aes256ctr.c **** 	t24 = t20 ^ y18;
 549              		.loc 1 156 0
 550 02ce DDE900AB 		ldrd	r10, [sp]
 551 02d2 8AEA080A 		eor	r10, r10, r8
 552 02d6 8BEA090B 		eor	fp, fp, r9
 553              	.LVL112:
 157:..\aes256ctr.c **** 
 158:..\aes256ctr.c **** 	t25 = t21 ^ t22;
 554              		.loc 1 158 0
 555 02da CDE90001 		strd	r0, [sp]
 556              	.LVL113:
 557 02de 0246     		mov	r2, r0
 558              	.LVL114:
 559 02e0 0B46     		mov	r3, r1
 560 02e2 6240     		eors	r2, r2, r4
 561 02e4 6B40     		eors	r3, r3, r5
 562 02e6 1146     		mov	r1, r2
 563 02e8 8846     		mov	r8, r1
 564              	.LVL115:
 565 02ea 9946     		mov	r9, r3
 566              	.LVL116:
 159:..\aes256ctr.c **** 	t26 = t21 & t23;
 567              		.loc 1 159 0
ARM GAS  C:\Users\bogur\AppData\Local\Temp\cca0k2e0.s 			page 14


 568 02ec DDE90001 		ldrd	r0, [sp]
 569 02f0 CDE90667 		strd	r6, [sp, #24]
 570              	.LVL117:
 571 02f4 3040     		ands	r0, r0, r6
 572              	.LVL118:
 573 02f6 3940     		ands	r1, r1, r7
 574 02f8 0646     		mov	r6, r0
 575              	.LVL119:
 576 02fa 0F46     		mov	r7, r1
 577              	.LVL120:
 160:..\aes256ctr.c **** 	t27 = t24 ^ t26;
 578              		.loc 1 160 0
 579 02fc 8AEA0000 		eor	r0, r10, r0
 580 0300 8BEA0101 		eor	r1, fp, r1
 581              	.LVL121:
 161:..\aes256ctr.c **** 	t28 = t25 & t27;
 582              		.loc 1 161 0
 583 0304 CDE90E89 		strd	r8, [sp, #56]
 584              	.LVL122:
 585 0308 08EA0008 		and	r8, r8, r0
 586              	.LVL123:
 587 030c 09EA0109 		and	r9, r9, r1
 588              	.LVL124:
 162:..\aes256ctr.c **** 	t29 = t28 ^ t22;
 589              		.loc 1 162 0
 590 0310 84EA0802 		eor	r2, r4, r8
 591 0314 85EA0903 		eor	r3, r5, r9
 592 0318 CDE90023 		strd	r2, [sp]
 593              	.LVL125:
 163:..\aes256ctr.c **** 	t30 = t23 ^ t24;
 594              		.loc 1 163 0
 595 031c DDE90689 		ldrd	r8, [sp, #24]
 596              	.LVL126:
 597 0320 88EA0A08 		eor	r8, r8, r10
 598 0324 89EA0B09 		eor	r9, r9, fp
 599              	.LVL127:
 164:..\aes256ctr.c **** 	t31 = t22 ^ t26;
 600              		.loc 1 164 0
 601 0328 86EA0402 		eor	r2, r6, r4
 602              	.LVL128:
 603 032c 87EA0503 		eor	r3, r7, r5
 604              	.LVL129:
 165:..\aes256ctr.c **** 	t32 = t31 & t30;
 605              		.loc 1 165 0
 606 0330 02EA0806 		and	r6, r2, r8
 607              	.LVL130:
 608 0334 03EA0907 		and	r7, r3, r9
 609              	.LVL131:
 166:..\aes256ctr.c **** 	t33 = t32 ^ t24;
 610              		.loc 1 166 0
 611 0338 86EA0A08 		eor	r8, r6, r10
 612              	.LVL132:
 613 033c 87EA0B09 		eor	r9, r7, fp
 614 0340 4646     		mov	r6, r8
 615              	.LVL133:
 616 0342 4F46     		mov	r7, r9
 617              	.LVL134:
ARM GAS  C:\Users\bogur\AppData\Local\Temp\cca0k2e0.s 			page 15


 167:..\aes256ctr.c **** 	t34 = t23 ^ t33;
 618              		.loc 1 167 0
 619 0344 DDE90623 		ldrd	r2, [sp, #24]
 620              	.LVL135:
 621 0348 82EA0802 		eor	r2, r2, r8
 622 034c 83EA0903 		eor	r3, r3, r9
 623              	.LVL136:
 168:..\aes256ctr.c **** 	t35 = t27 ^ t33;
 624              		.loc 1 168 0
 625 0350 88EA0008 		eor	r8, r8, r0
 626 0354 89EA0109 		eor	r9, r9, r1
 627              	.LVL137:
 169:..\aes256ctr.c **** 	t36 = t24 & t35;
 628              		.loc 1 169 0
 629 0358 08EA0A04 		and	r4, r8, r10
 630              	.LVL138:
 631 035c 09EA0B05 		and	r5, r9, fp
 632              	.LVL139:
 170:..\aes256ctr.c **** 	t37 = t36 ^ t34;
 633              		.loc 1 170 0
 634 0360 82EA0408 		eor	r8, r2, r4
 635              	.LVL140:
 636 0364 83EA0509 		eor	r9, r3, r5
 637 0368 4246     		mov	r2, r8
 638              	.LVL141:
 639 036a 4B46     		mov	r3, r9
 640              	.LVL142:
 171:..\aes256ctr.c **** 	t38 = t27 ^ t36;
 641              		.loc 1 171 0
 642 036c 84EA0008 		eor	r8, r4, r0
 643 0370 85EA0109 		eor	r9, r5, r1
 644              	.LVL143:
 172:..\aes256ctr.c **** 	t39 = t29 & t38;
 645              		.loc 1 172 0
 646 0374 DDE900BC 		ldrd	fp, [sp]
 647 0378 0BEA0804 		and	r4, fp, r8
 648              	.LVL144:
 649 037c 0CEA0905 		and	r5, ip, r9
 650              	.LVL145:
 173:..\aes256ctr.c **** 	t40 = t25 ^ t39;
 651              		.loc 1 173 0
 652 0380 DDE90E9A 		ldrd	r9, [sp, #56]
 653 0384 89EA0409 		eor	r9, r9, r4
 654 0388 8AEA050A 		eor	r10, r10, r5
 655              	.LVL146:
 656 038c 4C46     		mov	r4, r9
 657              	.LVL147:
 658 038e 5546     		mov	r5, r10
 659              	.LVL148:
 174:..\aes256ctr.c **** 
 175:..\aes256ctr.c **** 	t41 = t40 ^ t37;
 660              		.loc 1 175 0
 661 0390 CDE90E23 		strd	r2, [sp, #56]
 662              	.LVL149:
 663 0394 82EA0408 		eor	r8, r2, r4
 664              	.LVL150:
 665 0398 83EA0A09 		eor	r9, r3, r10
ARM GAS  C:\Users\bogur\AppData\Local\Temp\cca0k2e0.s 			page 16


 666              	.LVL151:
 176:..\aes256ctr.c **** 	t42 = t29 ^ t33;
 667              		.loc 1 176 0
 668 039c 5846     		mov	r0, fp
 669              	.LVL152:
 670 039e 6146     		mov	r1, ip
 671 03a0 CDE90667 		strd	r6, [sp, #24]
 672              	.LVL153:
 673 03a4 4640     		eors	r6, r6, r0
 674              	.LVL154:
 675 03a6 4F40     		eors	r7, r7, r1
 676 03a8 3046     		mov	r0, r6
 677 03aa 3946     		mov	r1, r7
 678 03ac CDE91001 		strd	r0, [sp, #64]
 679              	.LVL155:
 177:..\aes256ctr.c **** 	t43 = t29 ^ t40;
 680              		.loc 1 177 0
 681 03b0 5A46     		mov	r2, fp
 682              	.LVL156:
 683 03b2 6346     		mov	r3, ip
 684 03b4 6240     		eors	r2, r2, r4
 685 03b6 6B40     		eors	r3, r3, r5
 686 03b8 CDE92823 		strd	r2, [sp, #160]
 687              	.LVL157:
 178:..\aes256ctr.c **** 	t44 = t33 ^ t37;
 688              		.loc 1 178 0
 689 03bc DDE90623 		ldrd	r2, [sp, #24]
 690              	.LVL158:
 691 03c0 DDE90EAB 		ldrd	r10, [sp, #56]
 692 03c4 82EA0A00 		eor	r0, r2, r10
 693              	.LVL159:
 694 03c8 83EA0B01 		eor	r1, r3, fp
 695 03cc 8346     		mov	fp, r0
 696 03ce 8C46     		mov	ip, r1
 697              	.LVL160:
 179:..\aes256ctr.c **** 	t45 = t42 ^ t41;
 698              		.loc 1 179 0
 699 03d0 DDE91001 		ldrd	r0, [sp, #64]
 700 03d4 80EA0800 		eor	r0, r0, r8
 701 03d8 81EA0901 		eor	r1, r1, r9
 702 03dc 0646     		mov	r6, r0
 703 03de 0F46     		mov	r7, r1
 704 03e0 CDE92A67 		strd	r6, [sp, #168]
 705              	.LVL161:
 180:..\aes256ctr.c **** 	z0 = t44 & y15;
 706              		.loc 1 180 0
 707 03e4 DDE91A67 		ldrd	r6, [sp, #104]
 708              	.LVL162:
 709 03e8 CDE92EBC 		strd	fp, [sp, #184]
 710 03ec 06EA0B06 		and	r6, r6, fp
 711 03f0 07EA0C07 		and	r7, r7, ip
 712 03f4 CDE93067 		strd	r6, [sp, #192]
 713              	.LVL163:
 181:..\aes256ctr.c **** 	z1 = t37 & y6;
 714              		.loc 1 181 0
 715 03f8 DDE91C67 		ldrd	r6, [sp, #112]
 716              	.LVL164:
ARM GAS  C:\Users\bogur\AppData\Local\Temp\cca0k2e0.s 			page 17


 717 03fc DDE90EAB 		ldrd	r10, [sp, #56]
 718 0400 0AEA060A 		and	r10, r10, r6
 719 0404 0BEA070B 		and	fp, fp, r7
 720              	.LVL165:
 721 0408 5646     		mov	r6, r10
 722 040a 5F46     		mov	r7, fp
 723 040c CDE93267 		strd	r6, [sp, #200]
 724              	.LVL166:
 182:..\aes256ctr.c **** 	z2 = t33 & x7;
 725              		.loc 1 182 0
 726 0410 DEE90067 		ldrd	r6, [lr]
 727              	.LVL167:
 728 0414 1146     		mov	r1, r2
 729 0416 1A46     		mov	r2, r3
 730 0418 3140     		ands	r1, r1, r6
 731 041a 3A40     		ands	r2, r2, r7
 732 041c 0E46     		mov	r6, r1
 733 041e 1746     		mov	r7, r2
 734 0420 CDE93467 		strd	r6, [sp, #208]
 735              	.LVL168:
 183:..\aes256ctr.c **** 	z3 = t43 & y16;
 736              		.loc 1 183 0
 737 0424 DDE92667 		ldrd	r6, [sp, #152]
 738              	.LVL169:
 739 0428 DDE92823 		ldrd	r2, [sp, #160]
 740 042c 3240     		ands	r2, r2, r6
 741 042e 3B40     		ands	r3, r3, r7
 742 0430 1646     		mov	r6, r2
 743 0432 1F46     		mov	r7, r3
 744 0434 CDE91A67 		strd	r6, [sp, #104]
 745              	.LVL170:
 184:..\aes256ctr.c **** 	z4 = t40 & y1;
 746              		.loc 1 184 0
 747 0438 DDE90467 		ldrd	r6, [sp, #16]
 748              	.LVL171:
 749 043c 2640     		ands	r6, r6, r4
 750 043e 2F40     		ands	r7, r7, r5
 751 0440 CDE90467 		strd	r6, [sp, #16]
 752              	.LVL172:
 185:..\aes256ctr.c **** 	z5 = t29 & y7;
 753              		.loc 1 185 0
 754 0444 DDE92267 		ldrd	r6, [sp, #136]
 755              	.LVL173:
 756 0448 DDE900BC 		ldrd	fp, [sp]
 757 044c 06EA0B06 		and	r6, r6, fp
 758 0450 07EA0C07 		and	r7, r7, ip
 759 0454 CDE92267 		strd	r6, [sp, #136]
 760              	.LVL174:
 186:..\aes256ctr.c **** 	z6 = t42 & y11;
 761              		.loc 1 186 0
 762 0458 DDE92067 		ldrd	r6, [sp, #128]
 763              	.LVL175:
 764 045c DDE91023 		ldrd	r2, [sp, #64]
 765 0460 3240     		ands	r2, r2, r6
 766 0462 3B40     		ands	r3, r3, r7
 767 0464 1646     		mov	r6, r2
 768 0466 1F46     		mov	r7, r3
ARM GAS  C:\Users\bogur\AppData\Local\Temp\cca0k2e0.s 			page 18


 769 0468 CDE92067 		strd	r6, [sp, #128]
 770              	.LVL176:
 187:..\aes256ctr.c **** 	z7 = t45 & y17;
 771              		.loc 1 187 0
 772 046c DDE92467 		ldrd	r6, [sp, #144]
 773              	.LVL177:
 774 0470 DDE92AAB 		ldrd	r10, [sp, #168]
 775 0474 06EA0A06 		and	r6, r6, r10
 776 0478 07EA0B07 		and	r7, r7, fp
 777 047c CDE91C67 		strd	r6, [sp, #112]
 778              	.LVL178:
 188:..\aes256ctr.c **** 	z8 = t41 & y10;
 779              		.loc 1 188 0
 780 0480 DDE91E67 		ldrd	r6, [sp, #120]
 781              	.LVL179:
 782 0484 06EA0806 		and	r6, r6, r8
 783 0488 07EA0907 		and	r7, r7, r9
 784 048c CDE91E67 		strd	r6, [sp, #120]
 785              	.LVL180:
 189:..\aes256ctr.c **** 	z9 = t44 & y12;
 786              		.loc 1 189 0
 787 0490 DDE91467 		ldrd	r6, [sp, #80]
 788              	.LVL181:
 789 0494 DDE92EAB 		ldrd	r10, [sp, #184]
 790 0498 06EA0A06 		and	r6, r6, r10
 791 049c 07EA0B07 		and	r7, r7, fp
 792 04a0 CDE91467 		strd	r6, [sp, #80]
 793              	.LVL182:
 190:..\aes256ctr.c **** 	z10 = t37 & y3;
 794              		.loc 1 190 0
 795 04a4 DDE91867 		ldrd	r6, [sp, #96]
 796              	.LVL183:
 797 04a8 DDE90E01 		ldrd	r0, [sp, #56]
 798 04ac 3040     		ands	r0, r0, r6
 799 04ae 3940     		ands	r1, r1, r7
 800 04b0 8246     		mov	r10, r0
 801 04b2 8B46     		mov	fp, r1
 802              	.LVL184:
 191:..\aes256ctr.c **** 	z11 = t33 & y4;
 803              		.loc 1 191 0
 804 04b4 DDE91267 		ldrd	r6, [sp, #72]
 805 04b8 DDE90623 		ldrd	r2, [sp, #24]
 806 04bc 3240     		ands	r2, r2, r6
 807 04be 3B40     		ands	r3, r3, r7
 808 04c0 1646     		mov	r6, r2
 809 04c2 1F46     		mov	r7, r3
 810 04c4 CDE90667 		strd	r6, [sp, #24]
 811              	.LVL185:
 192:..\aes256ctr.c **** 	z12 = t43 & y13;
 812              		.loc 1 192 0
 813 04c8 DDE90267 		ldrd	r6, [sp, #8]
 814              	.LVL186:
 815 04cc DDE92823 		ldrd	r2, [sp, #160]
 816 04d0 3240     		ands	r2, r2, r6
 817 04d2 3B40     		ands	r3, r3, r7
 818 04d4 1646     		mov	r6, r2
 819 04d6 1F46     		mov	r7, r3
ARM GAS  C:\Users\bogur\AppData\Local\Temp\cca0k2e0.s 			page 19


 820 04d8 CDE90267 		strd	r6, [sp, #8]
 821              	.LVL187:
 193:..\aes256ctr.c **** 	z13 = t40 & y5;
 822              		.loc 1 193 0
 823 04dc DDE92C67 		ldrd	r6, [sp, #176]
 824              	.LVL188:
 825 04e0 2640     		ands	r6, r6, r4
 826 04e2 2F40     		ands	r7, r7, r5
 827 04e4 3446     		mov	r4, r6
 828              	.LVL189:
 829 04e6 3D46     		mov	r5, r7
 830              	.LVL190:
 194:..\aes256ctr.c **** 	z14 = t29 & y2;
 831              		.loc 1 194 0
 832 04e8 DDE91667 		ldrd	r6, [sp, #88]
 833 04ec DDE90023 		ldrd	r2, [sp]
 834 04f0 1640     		ands	r6, r6, r2
 835 04f2 1F40     		ands	r7, r7, r3
 836 04f4 CDE90E67 		strd	r6, [sp, #56]
 837              	.LVL191:
 195:..\aes256ctr.c **** 	z15 = t42 & y9;
 838              		.loc 1 195 0
 839 04f8 DDE90A67 		ldrd	r6, [sp, #40]
 840              	.LVL192:
 841 04fc DDE91023 		ldrd	r2, [sp, #64]
 842 0500 3240     		ands	r2, r2, r6
 843 0502 3B40     		ands	r3, r3, r7
 844 0504 1046     		mov	r0, r2
 845 0506 1946     		mov	r1, r3
 846              	.LVL193:
 196:..\aes256ctr.c **** 	z16 = t45 & y14;
 847              		.loc 1 196 0
 848 0508 DDE90823 		ldrd	r2, [sp, #32]
 849 050c DDE92A67 		ldrd	r6, [sp, #168]
 850 0510 3240     		ands	r2, r2, r6
 851 0512 3B40     		ands	r3, r3, r7
 852 0514 1646     		mov	r6, r2
 853 0516 1F46     		mov	r7, r3
 854              	.LVL194:
 197:..\aes256ctr.c **** 	z17 = t41 & y8;
 855              		.loc 1 197 0
 856 0518 DDE90C23 		ldrd	r2, [sp, #48]
 857 051c 02EA0802 		and	r2, r2, r8
 858 0520 03EA0903 		and	r3, r3, r9
 859              	.LVL195:
 198:..\aes256ctr.c **** 
 199:..\aes256ctr.c **** 	/*
 200:..\aes256ctr.c **** 	 * Bottom linear transformation.
 201:..\aes256ctr.c **** 	 */
 202:..\aes256ctr.c **** 	t46 = z15 ^ z16;
 860              		.loc 1 202 0
 861 0524 80EA0608 		eor	r8, r0, r6
 862              	.LVL196:
 863 0528 81EA0709 		eor	r9, r1, r7
 864 052c CDE90089 		strd	r8, [sp]
 865              	.LVL197:
 203:..\aes256ctr.c **** 	t47 = z10 ^ z11;
ARM GAS  C:\Users\bogur\AppData\Local\Temp\cca0k2e0.s 			page 20


 866              		.loc 1 203 0
 867 0530 DDE90601 		ldrd	r0, [sp, #24]
 868              	.LVL198:
 869 0534 80EA0A00 		eor	r0, r0, r10
 870 0538 81EA0B01 		eor	r1, r1, fp
 871 053c CDE90A01 		strd	r0, [sp, #40]
 872              	.LVL199:
 204:..\aes256ctr.c **** 	t48 = z5 ^ z13;
 873              		.loc 1 204 0
 874 0540 DDE92201 		ldrd	r0, [sp, #136]
 875              	.LVL200:
 876 0544 80EA0408 		eor	r8, r0, r4
 877              	.LVL201:
 878 0548 81EA0509 		eor	r9, r1, r5
 879 054c CDE90689 		strd	r8, [sp, #24]
 880              	.LVL202:
 205:..\aes256ctr.c **** 	t49 = z9 ^ z10;
 881              		.loc 1 205 0
 882 0550 DDE91489 		ldrd	r8, [sp, #80]
 883              	.LVL203:
 884 0554 88EA0A08 		eor	r8, r8, r10
 885 0558 89EA0B09 		eor	r9, r9, fp
 886 055c CDE90C89 		strd	r8, [sp, #48]
 887              	.LVL204:
 206:..\aes256ctr.c **** 	t50 = z2 ^ z12;
 888              		.loc 1 206 0
 889 0560 DDE934BC 		ldrd	fp, [sp, #208]
 890 0564 DDE90245 		ldrd	r4, [sp, #8]
 891              	.LVL205:
 892 0568 84EA0B04 		eor	r4, r4, fp
 893 056c 85EA0C05 		eor	r5, r5, ip
 894 0570 A046     		mov	r8, r4
 895              	.LVL206:
 896 0572 A946     		mov	r9, r5
 897              	.LVL207:
 207:..\aes256ctr.c **** 	t51 = z2 ^ z5;
 898              		.loc 1 207 0
 899 0574 5C46     		mov	r4, fp
 900 0576 6546     		mov	r5, ip
 901 0578 4440     		eors	r4, r4, r0
 902 057a 4D40     		eors	r5, r5, r1
 903 057c CDE91045 		strd	r4, [sp, #64]
 904              	.LVL208:
 208:..\aes256ctr.c **** 	t52 = z7 ^ z8;
 905              		.loc 1 208 0
 906 0580 DDE91CAB 		ldrd	r10, [sp, #112]
 907              	.LVL209:
 908 0584 DDE91E01 		ldrd	r0, [sp, #120]
 909 0588 8AEA000A 		eor	r10, r10, r0
 910 058c 8BEA010B 		eor	fp, fp, r1
 911              	.LVL210:
 209:..\aes256ctr.c **** 	t53 = z0 ^ z3;
 912              		.loc 1 209 0
 913 0590 DDE93001 		ldrd	r0, [sp, #192]
 914 0594 DDE91A45 		ldrd	r4, [sp, #104]
 915              	.LVL211:
 916 0598 6040     		eors	r0, r0, r4
ARM GAS  C:\Users\bogur\AppData\Local\Temp\cca0k2e0.s 			page 21


 917 059a 6940     		eors	r1, r1, r5
 918 059c CDE90801 		strd	r0, [sp, #32]
 919              	.LVL212:
 210:..\aes256ctr.c **** 	t54 = z6 ^ z7;
 920              		.loc 1 210 0
 921 05a0 DDE92045 		ldrd	r4, [sp, #128]
 922 05a4 DDE91C01 		ldrd	r0, [sp, #112]
 923              	.LVL213:
 924 05a8 4440     		eors	r4, r4, r0
 925 05aa 4D40     		eors	r5, r5, r1
 926              	.LVL214:
 211:..\aes256ctr.c **** 	t55 = z16 ^ z17;
 927              		.loc 1 211 0
 928 05ac 7240     		eors	r2, r2, r6
 929              	.LVL215:
 930 05ae 7B40     		eors	r3, r3, r7
 931 05b0 CDE91223 		strd	r2, [sp, #72]
 932              	.LVL216:
 212:..\aes256ctr.c **** 	t56 = z12 ^ t48;
 933              		.loc 1 212 0
 934 05b4 DDE90612 		ldrd	r1, [sp, #24]
 935 05b8 DDE90267 		ldrd	r6, [sp, #8]
 936              	.LVL217:
 937 05bc 4E40     		eors	r6, r6, r1
 938 05be 5740     		eors	r7, r7, r2
 939 05c0 3146     		mov	r1, r6
 940 05c2 3A46     		mov	r2, r7
 941              	.LVL218:
 942 05c4 CDE90212 		strd	r1, [sp, #8]
 943              	.LVL219:
 213:..\aes256ctr.c **** 	t57 = t50 ^ t53;
 944              		.loc 1 213 0
 945 05c8 DDE90823 		ldrd	r2, [sp, #32]
 946 05cc 82EA0802 		eor	r2, r2, r8
 947 05d0 83EA0903 		eor	r3, r3, r9
 948 05d4 9046     		mov	r8, r2
 949              	.LVL220:
 950 05d6 9946     		mov	r9, r3
 951              	.LVL221:
 214:..\aes256ctr.c **** 	t58 = z4 ^ t46;
 952              		.loc 1 214 0
 953 05d8 DDE90412 		ldrd	r1, [sp, #16]
 954              	.LVL222:
 955 05dc DDE90067 		ldrd	r6, [sp]
 956 05e0 4E40     		eors	r6, r6, r1
 957 05e2 5740     		eors	r7, r7, r2
 958              	.LVL223:
 215:..\aes256ctr.c **** 	t59 = z3 ^ t54;
 959              		.loc 1 215 0
 960 05e4 DDE91A12 		ldrd	r1, [sp, #104]
 961 05e8 6140     		eors	r1, r1, r4
 962 05ea 6A40     		eors	r2, r2, r5
 963 05ec 0C46     		mov	r4, r1
 964              	.LVL224:
 965 05ee 1546     		mov	r5, r2
 966              	.LVL225:
 216:..\aes256ctr.c **** 	t60 = t46 ^ t57;
ARM GAS  C:\Users\bogur\AppData\Local\Temp\cca0k2e0.s 			page 22


 967              		.loc 1 216 0
 968 05f0 DDE90001 		ldrd	r0, [sp]
 969 05f4 80EA0800 		eor	r0, r0, r8
 970 05f8 5940     		eors	r1, r1, r3
 971              	.LVL226:
 217:..\aes256ctr.c **** 	t61 = z14 ^ t57;
 972              		.loc 1 217 0
 973 05fa DDE90E23 		ldrd	r2, [sp, #56]
 974 05fe 82EA0802 		eor	r2, r2, r8
 975 0602 83EA0903 		eor	r3, r3, r9
 976 0606 9046     		mov	r8, r2
 977              	.LVL227:
 978 0608 9946     		mov	r9, r3
 979              	.LVL228:
 218:..\aes256ctr.c **** 	t62 = t52 ^ t58;
 980              		.loc 1 218 0
 981 060a 8AEA0602 		eor	r2, r10, r6
 982 060e 8BEA0703 		eor	r3, fp, r7
 983 0612 CDE90023 		strd	r2, [sp]
 984              	.LVL229:
 219:..\aes256ctr.c **** 	t63 = t49 ^ t58;
 985              		.loc 1 219 0
 986 0616 DDE90CAB 		ldrd	r10, [sp, #48]
 987              	.LVL230:
 988 061a 8AEA060A 		eor	r10, r10, r6
 989 061e 8BEA070B 		eor	fp, fp, r7
 990 0622 5646     		mov	r6, r10
 991              	.LVL231:
 992 0624 5F46     		mov	r7, fp
 993              	.LVL232:
 220:..\aes256ctr.c **** 	t64 = z4 ^ t59;
 994              		.loc 1 220 0
 995 0626 DDE90423 		ldrd	r2, [sp, #16]
 996              	.LVL233:
 997 062a 6240     		eors	r2, r2, r4
 998 062c 6B40     		eors	r3, r3, r5
 999 062e CDE90423 		strd	r2, [sp, #16]
 1000              	.LVL234:
 221:..\aes256ctr.c **** 	t65 = t61 ^ t62;
 1001              		.loc 1 221 0
 1002 0632 DDE90023 		ldrd	r2, [sp]
 1003              	.LVL235:
 1004 0636 82EA080A 		eor	r10, r2, r8
 1005 063a 83EA090B 		eor	fp, r3, r9
 1006 063e CDE900AB 		strd	r10, [sp]
 1007              	.LVL236:
 222:..\aes256ctr.c **** 	t66 = z1 ^ t63;
 1008              		.loc 1 222 0
 1009 0642 DDE932AB 		ldrd	r10, [sp, #200]
 1010              	.LVL237:
 1011 0646 8AEA060A 		eor	r10, r10, r6
 1012 064a 8BEA070B 		eor	fp, fp, r7
 1013              	.LVL238:
 223:..\aes256ctr.c **** 	s0 = t59 ^ t63;
 1014              		.loc 1 223 0
 1015 064e 84EA0608 		eor	r8, r4, r6
 1016              	.LVL239:
ARM GAS  C:\Users\bogur\AppData\Local\Temp\cca0k2e0.s 			page 23


 1017 0652 85EA0709 		eor	r9, r5, r7
 1018 0656 CEE90E89 		strd	r8, [lr, #56]
 1019              	.LVL240:
 224:..\aes256ctr.c **** 	s6 = t56 ^ ~t62;
 1020              		.loc 1 224 0
 1021 065a D243     		mvns	r2, r2
 1022              	.LVL241:
 1023 065c DB43     		mvns	r3, r3
 1024 065e DDE90245 		ldrd	r4, [sp, #8]
 1025              	.LVL242:
 1026 0662 5440     		eors	r4, r4, r2
 1027 0664 5D40     		eors	r5, r5, r3
 1028 0666 CEE90245 		strd	r4, [lr, #8]
 1029              	.LVL243:
 225:..\aes256ctr.c **** 	s7 = t48 ^ ~t60;
 1030              		.loc 1 225 0
 1031 066a C243     		mvns	r2, r0
 1032 066c CB43     		mvns	r3, r1
 1033 066e DDE90645 		ldrd	r4, [sp, #24]
 1034              	.LVL244:
 1035 0672 5440     		eors	r4, r4, r2
 1036 0674 5D40     		eors	r5, r5, r3
 1037 0676 CDE90245 		strd	r4, [sp, #8]
 1038              	.LVL245:
 226:..\aes256ctr.c **** 	t67 = t64 ^ t65;
 1039              		.loc 1 226 0
 1040 067a DDE90401 		ldrd	r0, [sp, #16]
 1041              	.LVL246:
 1042 067e DDE90045 		ldrd	r4, [sp]
 1043              	.LVL247:
 1044 0682 4440     		eors	r4, r4, r0
 1045 0684 4D40     		eors	r5, r5, r1
 1046 0686 2246     		mov	r2, r4
 1047 0688 2B46     		mov	r3, r5
 1048 068a CDE90423 		strd	r2, [sp, #16]
 1049              	.LVL248:
 227:..\aes256ctr.c **** 	s3 = t53 ^ t66;
 1050              		.loc 1 227 0
 1051 068e DDE90867 		ldrd	r6, [sp, #32]
 1052              	.LVL249:
 1053 0692 86EA0A06 		eor	r6, r6, r10
 1054 0696 87EA0B07 		eor	r7, r7, fp
 1055              	.LVL250:
 228:..\aes256ctr.c **** 	s4 = t51 ^ t66;
 1056              		.loc 1 228 0
 1057 069a DDE91045 		ldrd	r4, [sp, #64]
 1058 069e 84EA0A04 		eor	r4, r4, r10
 1059 06a2 85EA0B05 		eor	r5, r5, fp
 1060 06a6 A246     		mov	r10, r4
 1061              	.LVL251:
 1062 06a8 AB46     		mov	fp, r5
 1063              	.LVL252:
 229:..\aes256ctr.c **** 	s5 = t47 ^ t65;
 1064              		.loc 1 229 0
 1065 06aa DDE90A89 		ldrd	r8, [sp, #40]
 1066              	.LVL253:
 1067 06ae DDE90034 		ldrd	r3, [sp]
ARM GAS  C:\Users\bogur\AppData\Local\Temp\cca0k2e0.s 			page 24


 1068 06b2 83EA0803 		eor	r3, r3, r8
 1069 06b6 84EA0904 		eor	r4, r4, r9
 1070 06ba 9846     		mov	r8, r3
 1071 06bc A146     		mov	r9, r4
 1072              	.LVL254:
 230:..\aes256ctr.c **** 	s1 = t64 ^ ~s3;
 1073              		.loc 1 230 0
 1074 06be F443     		mvns	r4, r6
 1075 06c0 FD43     		mvns	r5, r7
 1076 06c2 0246     		mov	r2, r0
 1077              	.LVL255:
 1078 06c4 0B46     		mov	r3, r1
 1079 06c6 6240     		eors	r2, r2, r4
 1080 06c8 6B40     		eors	r3, r3, r5
 1081 06ca 1446     		mov	r4, r2
 1082 06cc 1D46     		mov	r5, r3
 1083              	.LVL256:
 231:..\aes256ctr.c **** 	s2 = t55 ^ ~t67;
 1084              		.loc 1 231 0
 1085 06ce DDE90423 		ldrd	r2, [sp, #16]
 1086 06d2 D243     		mvns	r2, r2
 1087 06d4 DB43     		mvns	r3, r3
 1088 06d6 DDE91201 		ldrd	r0, [sp, #72]
 1089              	.LVL257:
 1090 06da 5040     		eors	r0, r0, r2
 1091 06dc 5940     		eors	r1, r1, r3
 1092 06de 0246     		mov	r2, r0
 1093 06e0 0B46     		mov	r3, r1
 1094              	.LVL258:
 232:..\aes256ctr.c **** 
 233:..\aes256ctr.c **** 	q[7] = s0;
 234:..\aes256ctr.c **** 	q[6] = s1;
 1095              		.loc 1 234 0
 1096 06e2 CEE90C45 		strd	r4, [lr, #48]
 1097              	.LVL259:
 235:..\aes256ctr.c **** 	q[5] = s2;
 1098              		.loc 1 235 0
 1099 06e6 CEE90A23 		strd	r2, [lr, #40]
 1100              	.LVL260:
 236:..\aes256ctr.c **** 	q[4] = s3;
 1101              		.loc 1 236 0
 1102 06ea CEE90867 		strd	r6, [lr, #32]
 1103              	.LVL261:
 237:..\aes256ctr.c **** 	q[3] = s4;
 1104              		.loc 1 237 0
 1105 06ee CEE906AB 		strd	r10, [lr, #24]
 1106              	.LVL262:
 238:..\aes256ctr.c **** 	q[2] = s5;
 1107              		.loc 1 238 0
 1108 06f2 CEE90489 		strd	r8, [lr, #16]
 1109              	.LVL263:
 239:..\aes256ctr.c **** 	q[1] = s6;
 240:..\aes256ctr.c **** 	q[0] = s7;
 1110              		.loc 1 240 0
 1111 06f6 DDE90234 		ldrd	r3, [sp, #8]
 1112 06fa CEE90034 		strd	r3, [lr]
 1113              	.LVL264:
ARM GAS  C:\Users\bogur\AppData\Local\Temp\cca0k2e0.s 			page 25


 241:..\aes256ctr.c **** }
 1114              		.loc 1 241 0
 1115 06fe 37B0     		add	sp, sp, #220
 1116              		.cfi_def_cfa_offset 36
 1117              	.LVL265:
 1118              		@ sp needed
 1119 0700 BDE8F08F 		pop	{r4, r5, r6, r7, r8, r9, r10, fp, pc}
 1120              		.cfi_endproc
 1121              	.LFE5:
 1122              		.size	br_aes_ct64_bitslice_Sbox, .-br_aes_ct64_bitslice_Sbox
 1123              		.section	.text.br_aes_ct64_ortho,"ax",%progbits
 1124              		.align	2
 1125              		.thumb
 1126              		.thumb_func
 1127              		.type	br_aes_ct64_ortho, %function
 1128              	br_aes_ct64_ortho:
 1129              	.LFB6:
 242:..\aes256ctr.c **** 
 243:..\aes256ctr.c **** static void br_aes_ct64_ortho(uint64_t *q)
 244:..\aes256ctr.c **** {
 1130              		.loc 1 244 0
 1131              		.cfi_startproc
 1132              		@ args = 0, pretend = 0, frame = 72
 1133              		@ frame_needed = 0, uses_anonymous_args = 0
 1134              	.LVL266:
 1135 0000 2DE9F04F 		push	{r4, r5, r6, r7, r8, r9, r10, fp, lr}
 1136              		.cfi_def_cfa_offset 36
 1137              		.cfi_offset 4, -36
 1138              		.cfi_offset 5, -32
 1139              		.cfi_offset 6, -28
 1140              		.cfi_offset 7, -24
 1141              		.cfi_offset 8, -20
 1142              		.cfi_offset 9, -16
 1143              		.cfi_offset 10, -12
 1144              		.cfi_offset 11, -8
 1145              		.cfi_offset 14, -4
 1146 0004 93B0     		sub	sp, sp, #76
 1147              		.cfi_def_cfa_offset 112
 1148 0006 8646     		mov	lr, r0
 1149              	.LBB47:
 245:..\aes256ctr.c **** #define SWAPN(cl, ch, s, x, y)   do { \
 246:..\aes256ctr.c **** 		uint64_t a, b; \
 247:..\aes256ctr.c **** 		a = (x); \
 248:..\aes256ctr.c **** 		b = (y); \
 249:..\aes256ctr.c **** 		(x) = (a & (uint64_t)cl) | ((b & (uint64_t)cl) << (s)); \
 250:..\aes256ctr.c **** 		(y) = ((a & (uint64_t)ch) >> (s)) | (b & (uint64_t)ch); \
 251:..\aes256ctr.c **** 	} while (0)
 252:..\aes256ctr.c **** 
 253:..\aes256ctr.c **** #define SWAP2(x, y)    SWAPN(0x5555555555555555, 0xAAAAAAAAAAAAAAAA,  1, x, y)
 254:..\aes256ctr.c **** #define SWAP4(x, y)    SWAPN(0x3333333333333333, 0xCCCCCCCCCCCCCCCC,  2, x, y)
 255:..\aes256ctr.c **** #define SWAP8(x, y)    SWAPN(0x0F0F0F0F0F0F0F0F, 0xF0F0F0F0F0F0F0F0,  4, x, y)
 256:..\aes256ctr.c **** 
 257:..\aes256ctr.c **** 	SWAP2(q[0], q[1]);
 1150              		.loc 1 257 0
 1151 0008 D0E90045 		ldrd	r4, [r0]
 1152              	.LVL267:
 1153 000c D0E90289 		ldrd	r8, [r0, #8]
ARM GAS  C:\Users\bogur\AppData\Local\Temp\cca0k2e0.s 			page 26


 1154              	.LVL268:
 1155 0010 04F05536 		and	r6, r4, #1431655765
 1156 0014 05F05537 		and	r7, r5, #1431655765
 1157 0018 18EB0800 		adds	r0, r8, r8
 1158              	.LVL269:
 1159 001c 49EB0901 		adc	r1, r9, r9
 1160 0020 00F0AA32 		and	r2, r0, #-1431655766
 1161 0024 01F0AA33 		and	r3, r1, #-1431655766
 1162 0028 42EA0600 		orr	r0, r2, r6
 1163 002c 43EA0701 		orr	r1, r3, r7
 1164 0030 6B08     		movs	r3, r5, lsr #1
 1165 0032 4FEA3402 		mov	r2, r4, rrx
 1166 0036 02F05536 		and	r6, r2, #1431655765
 1167 003a 03F05537 		and	r7, r3, #1431655765
 1168 003e 08F0AA34 		and	r4, r8, #-1431655766
 1169              	.LVL270:
 1170 0042 09F0AA35 		and	r5, r9, #-1431655766
 1171 0046 46EA0402 		orr	r2, r6, r4
 1172 004a 47EA0503 		orr	r3, r7, r5
 1173 004e CDE90223 		strd	r2, [sp, #8]
 1174              	.LBE47:
 1175              	.LBB48:
 258:..\aes256ctr.c **** 	SWAP2(q[2], q[3]);
 1176              		.loc 1 258 0
 1177 0052 DEE90467 		ldrd	r6, [lr, #16]
 1178              	.LVL271:
 1179 0056 DEE906AB 		ldrd	r10, [lr, #24]
 1180              	.LVL272:
 1181 005a 06F05538 		and	r8, r6, #1431655765
 1182              	.LVL273:
 1183 005e 07F05539 		and	r9, r7, #1431655765
 1184 0062 1AEB0A04 		adds	r4, r10, r10
 1185 0066 4BEB0B05 		adc	r5, fp, fp
 1186 006a 04F0AA32 		and	r2, r4, #-1431655766
 1187 006e 05F0AA33 		and	r3, r5, #-1431655766
 1188 0072 42EA0804 		orr	r4, r2, r8
 1189 0076 43EA0905 		orr	r5, r3, r9
 1190 007a CDE90445 		strd	r4, [sp, #16]
 1191 007e 7B08     		movs	r3, r7, lsr #1
 1192 0080 4FEA3602 		mov	r2, r6, rrx
 1193 0084 02F05538 		and	r8, r2, #1431655765
 1194 0088 03F05539 		and	r9, r3, #1431655765
 1195 008c 0AF0AA36 		and	r6, r10, #-1431655766
 1196              	.LVL274:
 1197 0090 0BF0AA37 		and	r7, fp, #-1431655766
 1198 0094 48EA0603 		orr	r3, r8, r6
 1199 0098 49EA0704 		orr	r4, r9, r7
 1200 009c CDE90634 		strd	r3, [sp, #24]
 1201              	.LBE48:
 1202              	.LBB49:
 259:..\aes256ctr.c **** 	SWAP2(q[4], q[5]);
 1203              		.loc 1 259 0
 1204 00a0 DEE90834 		ldrd	r3, [lr, #32]
 1205              	.LVL275:
 1206 00a4 DEE90A67 		ldrd	r6, [lr, #40]
 1207 00a8 B246     		mov	r10, r6
 1208              	.LVL276:
ARM GAS  C:\Users\bogur\AppData\Local\Temp\cca0k2e0.s 			page 27


 1209 00aa BB46     		mov	fp, r7
 1210              	.LVL277:
 1211 00ac 03F05538 		and	r8, r3, #1431655765
 1212 00b0 04F05539 		and	r9, r4, #1431655765
 1213 00b4 CDE900AB 		strd	r10, [sp]
 1214 00b8 B619     		adds	r6, r6, r6
 1215 00ba 7F41     		adcs	r7, r7, r7
 1216 00bc 06F0AA3A 		and	r10, r6, #-1431655766
 1217              	.LVL278:
 1218 00c0 07F0AA3B 		and	fp, r7, #-1431655766
 1219 00c4 48EA0A05 		orr	r5, r8, r10
 1220 00c8 49EA0B06 		orr	r6, r9, fp
 1221 00cc CDE90856 		strd	r5, [sp, #32]
 1222 00d0 5FEA540B 		movs	fp, r4, lsr #1
 1223 00d4 4FEA330A 		mov	r10, r3, rrx
 1224 00d8 0AF05535 		and	r5, r10, #1431655765
 1225 00dc 0BF05536 		and	r6, fp, #1431655765
 1226 00e0 DDE90023 		ldrd	r2, [sp]
 1227 00e4 02F0AA32 		and	r2, r2, #-1431655766
 1228 00e8 03F0AA33 		and	r3, r3, #-1431655766
 1229              	.LVL279:
 1230 00ec 45EA0207 		orr	r7, r5, r2
 1231 00f0 46EA0308 		orr	r8, r6, r3
 1232 00f4 CDE90A78 		strd	r7, [sp, #40]
 1233              	.LVL280:
 1234              	.LBE49:
 1235              	.LBB50:
 260:..\aes256ctr.c **** 	SWAP2(q[6], q[7]);
 1236              		.loc 1 260 0
 1237 00f8 DEE90EAB 		ldrd	r10, [lr, #56]
 1238              	.LVL281:
 1239 00fc DEE90C89 		ldrd	r8, [lr, #48]
 1240 0100 08F05538 		and	r8, r8, #1431655765
 1241 0104 09F05539 		and	r9, r9, #1431655765
 1242 0108 4646     		mov	r6, r8
 1243 010a 4F46     		mov	r7, r9
 1244 010c 1AEB0A08 		adds	r8, r10, r10
 1245 0110 4BEB0B09 		adc	r9, fp, fp
 1246 0114 08F0AA32 		and	r2, r8, #-1431655766
 1247 0118 09F0AA33 		and	r3, r9, #-1431655766
 1248 011c 46EA0208 		orr	r8, r6, r2
 1249 0120 47EA0309 		orr	r9, r7, r3
 1250 0124 CDE90089 		strd	r8, [sp]
 1251              	.LVL282:
 1252 0128 DEE90C23 		ldrd	r2, [lr, #48]
 1253 012c 5B08     		movs	r3, r3, lsr #1
 1254 012e 4FEA3202 		mov	r2, r2, rrx
 1255 0132 02F05534 		and	r4, r2, #1431655765
 1256 0136 03F05535 		and	r5, r3, #1431655765
 1257 013a 0AF0AA36 		and	r6, r10, #-1431655766
 1258 013e 0BF0AA37 		and	r7, fp, #-1431655766
 1259 0142 44EA0608 		orr	r8, r4, r6
 1260 0146 45EA0709 		orr	r9, r5, r7
 1261 014a CDE90C89 		strd	r8, [sp, #48]
 1262              	.LVL283:
 1263              	.LBE50:
 1264              	.LBB51:
ARM GAS  C:\Users\bogur\AppData\Local\Temp\cca0k2e0.s 			page 28


 261:..\aes256ctr.c **** 
 262:..\aes256ctr.c **** 	SWAP4(q[0], q[2]);
 1265              		.loc 1 262 0
 1266 014e 00F03336 		and	r6, r0, #858993459
 1267 0152 01F03337 		and	r7, r1, #858993459
 1268 0156 DDE90445 		ldrd	r4, [sp, #16]
 1269 015a 4FEA850A 		lsl	r10, r5, #2
 1270              	.LVL284:
 1271 015e 4AEA947A 		orr	r10, r10, r4, lsr #30
 1272 0162 4FEA8409 		lsl	r9, r4, #2
 1273 0166 09F0CC32 		and	r2, r9, #-858993460
 1274 016a 0AF0CC33 		and	r3, r10, #-858993460
 1275 016e 46EA0209 		orr	r9, r6, r2
 1276 0172 47EA030A 		orr	r10, r7, r3
 1277 0176 CDE9049A 		strd	r9, [sp, #16]
 1278              	.LVL285:
 1279 017a 4FEA900B 		lsr	fp, r0, #2
 1280 017e 4BEA817B 		orr	fp, fp, r1, lsl #30
 1281 0182 4FEA910C 		lsr	ip, r1, #2
 1282 0186 0BF03332 		and	r2, fp, #858993459
 1283 018a 0CF03333 		and	r3, ip, #858993459
 1284 018e 04F0CC34 		and	r4, r4, #-858993460
 1285              	.LVL286:
 1286 0192 05F0CC35 		and	r5, r5, #-858993460
 1287 0196 42EA0400 		orr	r0, r2, r4
 1288              	.LVL287:
 1289 019a 43EA0501 		orr	r1, r3, r5
 1290 019e CDE90E01 		strd	r0, [sp, #56]
 1291              	.LVL288:
 1292              	.LBE51:
 1293              	.LBB52:
 263:..\aes256ctr.c **** 	SWAP4(q[1], q[3]);
 1294              		.loc 1 263 0
 1295 01a2 DDE90201 		ldrd	r0, [sp, #8]
 1296 01a6 00F03334 		and	r4, r0, #858993459
 1297 01aa 01F03335 		and	r5, r1, #858993459
 1298 01ae DDE90667 		ldrd	r6, [sp, #24]
 1299 01b2 4FEA870C 		lsl	ip, r7, #2
 1300 01b6 4CEA967C 		orr	ip, ip, r6, lsr #30
 1301 01ba 4FEA860B 		lsl	fp, r6, #2
 1302 01be 0BF0CC32 		and	r2, fp, #-858993460
 1303 01c2 0CF0CC33 		and	r3, ip, #-858993460
 1304 01c6 44EA020B 		orr	fp, r4, r2
 1305 01ca 45EA030C 		orr	ip, r5, r3
 1306 01ce CDE906BC 		strd	fp, [sp, #24]
 1307              	.LVL289:
 1308 01d2 4FEA9009 		lsr	r9, r0, #2
 1309 01d6 49EA8179 		orr	r9, r9, r1, lsl #30
 1310 01da 4FEA910A 		lsr	r10, r1, #2
 1311 01de 09F03332 		and	r2, r9, #858993459
 1312 01e2 0AF03333 		and	r3, r10, #858993459
 1313 01e6 06F0CC36 		and	r6, r6, #-858993460
 1314              	.LVL290:
 1315 01ea 07F0CC37 		and	r7, r7, #-858993460
 1316 01ee 42EA0609 		orr	r9, r2, r6
 1317 01f2 43EA070A 		orr	r10, r3, r7
 1318 01f6 CDE9109A 		strd	r9, [sp, #64]
ARM GAS  C:\Users\bogur\AppData\Local\Temp\cca0k2e0.s 			page 29


 1319              	.LVL291:
 1320              	.LBE52:
 1321              	.LBB53:
 264:..\aes256ctr.c **** 	SWAP4(q[4], q[6]);
 1322              		.loc 1 264 0
 1323 01fa DDE90801 		ldrd	r0, [sp, #32]
 1324 01fe 00F03334 		and	r4, r0, #858993459
 1325 0202 01F03335 		and	r5, r1, #858993459
 1326 0206 DDE90089 		ldrd	r8, [sp]
 1327 020a 4E46     		mov	r6, r9
 1328 020c B300     		lsls	r3, r6, #2
 1329 020e 4646     		mov	r6, r8
 1330 0210 43EA9873 		orr	r3, r3, r8, lsr #30
 1331 0214 B200     		lsls	r2, r6, #2
 1332 0216 02F0CC3A 		and	r10, r2, #-858993460
 1333 021a 03F0CC3B 		and	fp, r3, #-858993460
 1334 021e 4AEA0402 		orr	r2, r10, r4
 1335 0222 4BEA0503 		orr	r3, fp, r5
 1336 0226 CDE90223 		strd	r2, [sp, #8]
 1337              	.LVL292:
 1338 022a 8708     		lsrs	r7, r0, #2
 1339 022c 47EA8177 		orr	r7, r7, r1, lsl #30
 1340 0230 4FEA9108 		lsr	r8, r1, #2
 1341 0234 07F03332 		and	r2, r7, #858993459
 1342 0238 08F03333 		and	r3, r8, #858993459
 1343 023c DDE90089 		ldrd	r8, [sp]
 1344 0240 08F0CC38 		and	r8, r8, #-858993460
 1345 0244 09F0CC39 		and	r9, r9, #-858993460
 1346 0248 42EA0800 		orr	r0, r2, r8
 1347 024c 43EA0901 		orr	r1, r3, r9
 1348 0250 CDE90001 		strd	r0, [sp]
 1349              	.LVL293:
 1350              	.LBE53:
 1351              	.LBB54:
 265:..\aes256ctr.c **** 	SWAP4(q[5], q[7]);
 1352              		.loc 1 265 0
 1353 0254 DDE90A89 		ldrd	r8, [sp, #40]
 1354 0258 08F03336 		and	r6, r8, #858993459
 1355 025c 09F03337 		and	r7, r9, #858993459
 1356 0260 DDE90CAB 		ldrd	r10, [sp, #48]
 1357 0264 5946     		mov	r1, fp
 1358 0266 8B00     		lsls	r3, r1, #2
 1359 0268 5146     		mov	r1, r10
 1360 026a 43EA9A73 		orr	r3, r3, r10, lsr #30
 1361 026e 8A00     		lsls	r2, r1, #2
 1362 0270 02F0CC34 		and	r4, r2, #-858993460
 1363 0274 03F0CC35 		and	r5, r3, #-858993460
 1364 0278 44EA0600 		orr	r0, r4, r6
 1365 027c 45EA0701 		orr	r1, r5, r7
 1366 0280 4346     		mov	r3, r8
 1367 0282 9C08     		lsrs	r4, r3, #2
 1368 0284 4F46     		mov	r7, r9
 1369 0286 44EA8974 		orr	r4, r4, r9, lsl #30
 1370 028a BD08     		lsrs	r5, r7, #2
 1371 028c 04F03332 		and	r2, r4, #858993459
 1372 0290 05F03333 		and	r3, r5, #858993459
 1373 0294 0AF0CC36 		and	r6, r10, #-858993460
ARM GAS  C:\Users\bogur\AppData\Local\Temp\cca0k2e0.s 			page 30


 1374 0298 0BF0CC37 		and	r7, fp, #-858993460
 1375 029c 42EA0604 		orr	r4, r2, r6
 1376 02a0 43EA0705 		orr	r5, r3, r7
 1377 02a4 CDE90845 		strd	r4, [sp, #32]
 1378              	.LVL294:
 1379              	.LBE54:
 1380              	.LBB55:
 266:..\aes256ctr.c **** 
 267:..\aes256ctr.c **** 	SWAP8(q[0], q[4]);
 1381              		.loc 1 267 0
 1382 02a8 DDE90434 		ldrd	r3, [sp, #16]
 1383 02ac 03F00F38 		and	r8, r3, #252645135
 1384 02b0 04F00F39 		and	r9, r4, #252645135
 1385 02b4 DDE902AB 		ldrd	r10, [sp, #8]
 1386 02b8 5A46     		mov	r2, fp
 1387 02ba 1701     		lsls	r7, r2, #4
 1388 02bc 5246     		mov	r2, r10
 1389 02be 47EA1A77 		orr	r7, r7, r10, lsr #28
 1390 02c2 1601     		lsls	r6, r2, #4
 1391 02c4 06F0F03A 		and	r10, r6, #-252645136
 1392 02c8 07F0F03B 		and	fp, r7, #-252645136
 1393 02cc 4AEA0806 		orr	r6, r10, r8
 1394 02d0 4BEA0907 		orr	r7, fp, r9
 1395 02d4 CEE90067 		strd	r6, [lr]
 1396              	.LVL295:
 1397 02d8 4FEA131A 		lsr	r10, r3, #4
 1398 02dc 4AEA047A 		orr	r10, r10, r4, lsl #28
 1399 02e0 4FEA141B 		lsr	fp, r4, #4
 1400 02e4 0AF00F36 		and	r6, r10, #252645135
 1401 02e8 0BF00F37 		and	r7, fp, #252645135
 1402 02ec DDE90234 		ldrd	r3, [sp, #8]
 1403 02f0 03F0F033 		and	r3, r3, #-252645136
 1404 02f4 04F0F034 		and	r4, r4, #-252645136
 1405 02f8 43EA060A 		orr	r10, r3, r6
 1406 02fc 44EA070B 		orr	fp, r4, r7
 1407 0300 CEE908AB 		strd	r10, [lr, #32]
 1408              	.LVL296:
 1409              	.LBE55:
 1410              	.LBB56:
 268:..\aes256ctr.c **** 	SWAP8(q[1], q[5]);
 1411              		.loc 1 268 0
 1412 0304 DDE906BC 		ldrd	fp, [sp, #24]
 1413 0308 0BF00F38 		and	r8, fp, #252645135
 1414 030c 0CF00F39 		and	r9, ip, #252645135
 1415 0310 0F01     		lsls	r7, r1, #4
 1416 0312 47EA1077 		orr	r7, r7, r0, lsr #28
 1417 0316 0601     		lsls	r6, r0, #4
 1418 0318 06F0F033 		and	r3, r6, #-252645136
 1419 031c 07F0F034 		and	r4, r7, #-252645136
 1420 0320 43EA0806 		orr	r6, r3, r8
 1421 0324 44EA0907 		orr	r7, r4, r9
 1422 0328 CEE90267 		strd	r6, [lr, #8]
 1423              	.LVL297:
 1424 032c 5B46     		mov	r3, fp
 1425 032e 1C09     		lsrs	r4, r3, #4
 1426 0330 6346     		mov	r3, ip
 1427 0332 44EA0C74 		orr	r4, r4, ip, lsl #28
ARM GAS  C:\Users\bogur\AppData\Local\Temp\cca0k2e0.s 			page 31


 1428 0336 1D09     		lsrs	r5, r3, #4
 1429 0338 04F00F36 		and	r6, r4, #252645135
 1430 033c 05F00F37 		and	r7, r5, #252645135
 1431 0340 00F0F032 		and	r2, r0, #-252645136
 1432 0344 01F0F033 		and	r3, r1, #-252645136
 1433 0348 42EA0604 		orr	r4, r2, r6
 1434 034c 43EA0705 		orr	r5, r3, r7
 1435 0350 CEE90A45 		strd	r4, [lr, #40]
 1436              	.LVL298:
 1437              	.LBE56:
 1438              	.LBB57:
 269:..\aes256ctr.c **** 	SWAP8(q[2], q[6]);
 1439              		.loc 1 269 0
 1440 0354 DDE90E01 		ldrd	r0, [sp, #56]
 1441              	.LVL299:
 1442 0358 00F00F36 		and	r6, r0, #252645135
 1443 035c 01F00F37 		and	r7, r1, #252645135
 1444 0360 DDE90089 		ldrd	r8, [sp]
 1445 0364 4B46     		mov	r3, r9
 1446 0366 1D01     		lsls	r5, r3, #4
 1447 0368 4346     		mov	r3, r8
 1448 036a 45EA1875 		orr	r5, r5, r8, lsr #28
 1449 036e 1C01     		lsls	r4, r3, #4
 1450 0370 04F0F032 		and	r2, r4, #-252645136
 1451 0374 05F0F033 		and	r3, r5, #-252645136
 1452 0378 42EA0604 		orr	r4, r2, r6
 1453 037c 43EA0705 		orr	r5, r3, r7
 1454 0380 CEE90445 		strd	r4, [lr, #16]
 1455              	.LVL300:
 1456 0384 0409     		lsrs	r4, r0, #4
 1457 0386 44EA0174 		orr	r4, r4, r1, lsl #28
 1458 038a 0D09     		lsrs	r5, r1, #4
 1459 038c 04F00F32 		and	r2, r4, #252645135
 1460 0390 05F00F33 		and	r3, r5, #252645135
 1461 0394 08F0F030 		and	r0, r8, #-252645136
 1462 0398 09F0F031 		and	r1, r9, #-252645136
 1463 039c 42EA0004 		orr	r4, r2, r0
 1464 03a0 43EA0105 		orr	r5, r3, r1
 1465 03a4 CEE90C45 		strd	r4, [lr, #48]
 1466              	.LVL301:
 1467              	.LBE57:
 1468              	.LBB58:
 270:..\aes256ctr.c **** 	SWAP8(q[3], q[7]);
 1469              		.loc 1 270 0
 1470 03a8 DDE9109A 		ldrd	r9, [sp, #64]
 1471 03ac 09F00F34 		and	r4, r9, #252645135
 1472 03b0 0AF00F35 		and	r5, r10, #252645135
 1473 03b4 DDE908BC 		ldrd	fp, [sp, #32]
 1474 03b8 6346     		mov	r3, ip
 1475 03ba 1901     		lsls	r1, r3, #4
 1476 03bc 5B46     		mov	r3, fp
 1477 03be 41EA1B71 		orr	r1, r1, fp, lsr #28
 1478 03c2 1801     		lsls	r0, r3, #4
 1479 03c4 00F0F032 		and	r2, r0, #-252645136
 1480 03c8 01F0F033 		and	r3, r1, #-252645136
 1481 03cc 42EA0400 		orr	r0, r2, r4
 1482 03d0 43EA0501 		orr	r1, r3, r5
ARM GAS  C:\Users\bogur\AppData\Local\Temp\cca0k2e0.s 			page 32


 1483 03d4 CEE90601 		strd	r0, [lr, #24]
 1484              	.LVL302:
 1485 03d8 4B46     		mov	r3, r9
 1486 03da 1E09     		lsrs	r6, r3, #4
 1487 03dc 5546     		mov	r5, r10
 1488 03de 46EA0A76 		orr	r6, r6, r10, lsl #28
 1489 03e2 2F09     		lsrs	r7, r5, #4
 1490 03e4 06F00F30 		and	r0, r6, #252645135
 1491 03e8 07F00F31 		and	r1, r7, #252645135
 1492 03ec 0BF0F034 		and	r4, fp, #-252645136
 1493 03f0 0CF0F035 		and	r5, ip, #-252645136
 1494 03f4 44EA0002 		orr	r2, r4, r0
 1495 03f8 45EA0103 		orr	r3, r5, r1
 1496 03fc CEE90E23 		strd	r2, [lr, #56]
 1497              	.LVL303:
 1498              	.LBE58:
 271:..\aes256ctr.c **** }
 1499              		.loc 1 271 0
 1500 0400 13B0     		add	sp, sp, #76
 1501              		.cfi_def_cfa_offset 36
 1502              	.LVL304:
 1503              		@ sp needed
 1504 0402 BDE8F08F 		pop	{r4, r5, r6, r7, r8, r9, r10, fp, pc}
 1505              		.cfi_endproc
 1506              	.LFE6:
 1507              		.size	br_aes_ct64_ortho, .-br_aes_ct64_ortho
 1508 0406 00BF     		.section	.text.br_aes_ct64_interleave_in,"ax",%progbits
 1509              		.align	2
 1510              		.thumb
 1511              		.thumb_func
 1512              		.type	br_aes_ct64_interleave_in, %function
 1513              	br_aes_ct64_interleave_in:
 1514              	.LFB7:
 272:..\aes256ctr.c **** 
 273:..\aes256ctr.c **** static void br_aes_ct64_interleave_in(uint64_t *q0, uint64_t *q1, const uint32_t *w)
 274:..\aes256ctr.c **** {
 1515              		.loc 1 274 0
 1516              		.cfi_startproc
 1517              		@ args = 0, pretend = 0, frame = 24
 1518              		@ frame_needed = 0, uses_anonymous_args = 0
 1519              		@ link register save eliminated.
 1520              	.LVL305:
 1521 0000 2DE9F00F 		push	{r4, r5, r6, r7, r8, r9, r10, fp}
 1522              		.cfi_def_cfa_offset 32
 1523              		.cfi_offset 4, -32
 1524              		.cfi_offset 5, -28
 1525              		.cfi_offset 6, -24
 1526              		.cfi_offset 7, -20
 1527              		.cfi_offset 8, -16
 1528              		.cfi_offset 9, -12
 1529              		.cfi_offset 10, -8
 1530              		.cfi_offset 11, -4
 1531 0004 86B0     		sub	sp, sp, #24
 1532              		.cfi_def_cfa_offset 56
 275:..\aes256ctr.c **** 	uint64_t x0, x1, x2, x3;
 276:..\aes256ctr.c **** 
 277:..\aes256ctr.c **** 	x0 = w[0];
ARM GAS  C:\Users\bogur\AppData\Local\Temp\cca0k2e0.s 			page 33


 1533              		.loc 1 277 0
 1534 0006 1668     		ldr	r6, [r2]
 1535 0008 0027     		movs	r7, #0
 1536              	.LVL306:
 278:..\aes256ctr.c **** 	x1 = w[1];
 1537              		.loc 1 278 0
 1538 000a 5468     		ldr	r4, [r2, #4]
 1539 000c A046     		mov	r8, r4
 1540 000e 4FF00009 		mov	r9, #0
 1541 0012 CDE90089 		strd	r8, [sp]
 1542              	.LVL307:
 279:..\aes256ctr.c **** 	x2 = w[2];
 1543              		.loc 1 279 0
 1544 0016 9368     		ldr	r3, [r2, #8]
 1545 0018 9846     		mov	r8, r3
 1546              	.LVL308:
 1547 001a 4FF00009 		mov	r9, #0
 1548              	.LVL309:
 280:..\aes256ctr.c **** 	x3 = w[3];
 1549              		.loc 1 280 0
 1550 001e D368     		ldr	r3, [r2, #12]
 1551 0020 9A46     		mov	r10, r3
 1552 0022 4FF0000B 		mov	fp, #0
 1553              	.LVL310:
 281:..\aes256ctr.c **** 	x0 |= (x0 << 16);
 1554              		.loc 1 281 0
 1555 0026 0023     		movs	r3, #0
 1556 0028 43EA1643 		orr	r3, r3, r6, lsr #16
 1557 002c 3204     		lsls	r2, r6, #16
 1558              	.LVL311:
 1559 002e 46EA0204 		orr	r4, r6, r2
 1560 0032 47EA0305 		orr	r5, r7, r3
 1561 0036 CDE90245 		strd	r4, [sp, #8]
 1562              	.LVL312:
 282:..\aes256ctr.c **** 	x1 |= (x1 << 16);
 1563              		.loc 1 282 0
 1564 003a 0023     		movs	r3, #0
 1565 003c 009C     		ldr	r4, [sp]
 1566              	.LVL313:
 1567 003e 43EA1443 		orr	r3, r3, r4, lsr #16
 1568 0042 2204     		lsls	r2, r4, #16
 1569 0044 DDE90045 		ldrd	r4, [sp]
 1570 0048 1443     		orrs	r4, r4, r2
 1571 004a 1D43     		orrs	r5, r5, r3
 1572 004c 2646     		mov	r6, r4
 1573 004e 2F46     		mov	r7, r5
 1574 0050 CDE90067 		strd	r6, [sp]
 1575              	.LVL314:
 283:..\aes256ctr.c **** 	x2 |= (x2 << 16);
 1576              		.loc 1 283 0
 1577 0054 0023     		movs	r3, #0
 1578 0056 43EA1843 		orr	r3, r3, r8, lsr #16
 1579 005a 4FEA0842 		lsl	r2, r8, #16
 1580 005e 48EA0208 		orr	r8, r8, r2
 1581              	.LVL315:
 1582 0062 49EA0309 		orr	r9, r9, r3
 1583              	.LVL316:
ARM GAS  C:\Users\bogur\AppData\Local\Temp\cca0k2e0.s 			page 34


 284:..\aes256ctr.c **** 	x3 |= (x3 << 16);
 1584              		.loc 1 284 0
 1585 0066 0023     		movs	r3, #0
 1586 0068 43EA1A43 		orr	r3, r3, r10, lsr #16
 1587 006c 4FEA0A42 		lsl	r2, r10, #16
 1588 0070 4AEA0204 		orr	r4, r10, r2
 1589 0074 4BEA0305 		orr	r5, fp, r3
 1590 0078 CDE90445 		strd	r4, [sp, #16]
 1591              	.LVL317:
 285:..\aes256ctr.c **** 	x0 &= (uint64_t)0x0000FFFF0000FFFF;
 1592              		.loc 1 285 0
 1593 007c 4FF6FF7A 		movw	r10, #65535
 1594 0080 4FF6FF7B 		movw	fp, #65535
 1595 0084 DDE90267 		ldrd	r6, [sp, #8]
 1596              	.LVL318:
 1597 0088 06EA0A06 		and	r6, r6, r10
 1598 008c 07EA0B07 		and	r7, r7, fp
 1599              	.LVL319:
 286:..\aes256ctr.c **** 	x1 &= (uint64_t)0x0000FFFF0000FFFF;
 1600              		.loc 1 286 0
 1601 0090 DDE90045 		ldrd	r4, [sp]
 1602              	.LVL320:
 1603 0094 04EA0A04 		and	r4, r4, r10
 1604 0098 05EA0B05 		and	r5, r5, fp
 1605              	.LVL321:
 287:..\aes256ctr.c **** 	x2 &= (uint64_t)0x0000FFFF0000FFFF;
 1606              		.loc 1 287 0
 1607 009c 08EA0A02 		and	r2, r8, r10
 1608 00a0 09EA0B03 		and	r3, r9, fp
 1609              	.LVL322:
 288:..\aes256ctr.c **** 	x3 &= (uint64_t)0x0000FFFF0000FFFF;
 1610              		.loc 1 288 0
 1611 00a4 DDE90489 		ldrd	r8, [sp, #16]
 1612 00a8 08EA0A08 		and	r8, r8, r10
 1613 00ac 09EA0B09 		and	r9, r9, fp
 1614 00b0 C246     		mov	r10, r8
 1615 00b2 CB46     		mov	fp, r9
 1616              	.LVL323:
 289:..\aes256ctr.c **** 	x0 |= (x0 << 8);
 1617              		.loc 1 289 0
 1618 00b4 4FEA0729 		lsl	r9, r7, #8
 1619 00b8 49EA1669 		orr	r9, r9, r6, lsr #24
 1620 00bc 4FEA0628 		lsl	r8, r6, #8
 1621 00c0 48EA0608 		orr	r8, r8, r6
 1622 00c4 49EA0709 		orr	r9, r9, r7
 1623              	.LVL324:
 290:..\aes256ctr.c **** 	x1 |= (x1 << 8);
 1624              		.loc 1 290 0
 1625 00c8 2F02     		lsls	r7, r5, #8
 1626 00ca 47EA1467 		orr	r7, r7, r4, lsr #24
 1627 00ce 2602     		lsls	r6, r4, #8
 1628 00d0 2643     		orrs	r6, r6, r4
 1629 00d2 2F43     		orrs	r7, r7, r5
 1630              	.LVL325:
 291:..\aes256ctr.c **** 	x2 |= (x2 << 8);
 1631              		.loc 1 291 0
 1632 00d4 1D02     		lsls	r5, r3, #8
ARM GAS  C:\Users\bogur\AppData\Local\Temp\cca0k2e0.s 			page 35


 1633 00d6 45EA1265 		orr	r5, r5, r2, lsr #24
 1634 00da 1402     		lsls	r4, r2, #8
 1635 00dc 2243     		orrs	r2, r2, r4
 1636              	.LVL326:
 1637 00de 2B43     		orrs	r3, r3, r5
 1638              	.LVL327:
 292:..\aes256ctr.c **** 	x3 |= (x3 << 8);
 1639              		.loc 1 292 0
 1640 00e0 4FEA0B25 		lsl	r5, fp, #8
 1641 00e4 45EA1A65 		orr	r5, r5, r10, lsr #24
 1642 00e8 4FEA0A24 		lsl	r4, r10, #8
 1643 00ec 4AEA040A 		orr	r10, r10, r4
 1644              	.LVL328:
 1645 00f0 4BEA050B 		orr	fp, fp, r5
 1646              	.LVL329:
 293:..\aes256ctr.c **** 	x0 &= (uint64_t)0x00FF00FF00FF00FF;
 1647              		.loc 1 293 0
 1648 00f4 08F0FF18 		and	r8, r8, #16711935
 1649              	.LVL330:
 1650 00f8 09F0FF19 		and	r9, r9, #16711935
 1651              	.LVL331:
 294:..\aes256ctr.c **** 	x1 &= (uint64_t)0x00FF00FF00FF00FF;
 1652              		.loc 1 294 0
 1653 00fc 06F0FF16 		and	r6, r6, #16711935
 1654              	.LVL332:
 1655 0100 07F0FF17 		and	r7, r7, #16711935
 1656              	.LVL333:
 295:..\aes256ctr.c **** 	x2 &= (uint64_t)0x00FF00FF00FF00FF;
 296:..\aes256ctr.c **** 	x3 &= (uint64_t)0x00FF00FF00FF00FF;
 297:..\aes256ctr.c **** 	*q0 = x0 | (x2 << 8);
 1657              		.loc 1 297 0
 1658 0104 1D02     		lsls	r5, r3, #8
 1659 0106 45EA1265 		orr	r5, r5, r2, lsr #24
 1660 010a 1402     		lsls	r4, r2, #8
 1661 010c 04F0FF24 		and	r4, r4, #-16711936
 1662 0110 05F0FF25 		and	r5, r5, #-16711936
 1663 0114 48EA0408 		orr	r8, r8, r4
 1664              	.LVL334:
 1665 0118 49EA0509 		orr	r9, r9, r5
 1666 011c C0E90089 		strd	r8, [r0]
 298:..\aes256ctr.c **** 	*q1 = x1 | (x3 << 8);
 1667              		.loc 1 298 0
 1668 0120 4FEA0B23 		lsl	r3, fp, #8
 1669 0124 43EA1A63 		orr	r3, r3, r10, lsr #24
 1670 0128 4FEA0A22 		lsl	r2, r10, #8
 1671              	.LVL335:
 1672 012c 02F0FF22 		and	r2, r2, #-16711936
 1673 0130 03F0FF23 		and	r3, r3, #-16711936
 1674 0134 1643     		orrs	r6, r6, r2
 1675              	.LVL336:
 1676 0136 1F43     		orrs	r7, r7, r3
 1677 0138 C1E90067 		strd	r6, [r1]
 299:..\aes256ctr.c **** }
 1678              		.loc 1 299 0
 1679 013c 06B0     		add	sp, sp, #24
 1680              		.cfi_def_cfa_offset 32
 1681              		@ sp needed
ARM GAS  C:\Users\bogur\AppData\Local\Temp\cca0k2e0.s 			page 36


 1682 013e BDE8F00F 		pop	{r4, r5, r6, r7, r8, r9, r10, fp}
 1683              		.cfi_restore 11
 1684              		.cfi_restore 10
 1685              		.cfi_restore 9
 1686              		.cfi_restore 8
 1687              		.cfi_restore 7
 1688              		.cfi_restore 6
 1689              		.cfi_restore 5
 1690              		.cfi_restore 4
 1691              		.cfi_def_cfa_offset 0
 1692              	.LVL337:
 1693 0142 7047     		bx	lr
 1694              		.cfi_endproc
 1695              	.LFE7:
 1696              		.size	br_aes_ct64_interleave_in, .-br_aes_ct64_interleave_in
 1697              		.section	.text.br_aes_ct64_interleave_out,"ax",%progbits
 1698              		.align	2
 1699              		.thumb
 1700              		.thumb_func
 1701              		.type	br_aes_ct64_interleave_out, %function
 1702              	br_aes_ct64_interleave_out:
 1703              	.LFB8:
 300:..\aes256ctr.c **** 
 301:..\aes256ctr.c **** static void br_aes_ct64_interleave_out(uint32_t *w, uint64_t q0, uint64_t q1)
 302:..\aes256ctr.c **** {
 1704              		.loc 1 302 0
 1705              		.cfi_startproc
 1706              		@ args = 8, pretend = 0, frame = 0
 1707              		@ frame_needed = 0, uses_anonymous_args = 0
 1708              	.LVL338:
 1709 0000 2DE9F04F 		push	{r4, r5, r6, r7, r8, r9, r10, fp, lr}
 1710              		.cfi_def_cfa_offset 36
 1711              		.cfi_offset 4, -36
 1712              		.cfi_offset 5, -32
 1713              		.cfi_offset 6, -28
 1714              		.cfi_offset 7, -24
 1715              		.cfi_offset 8, -20
 1716              		.cfi_offset 9, -16
 1717              		.cfi_offset 10, -12
 1718              		.cfi_offset 11, -8
 1719              		.cfi_offset 14, -4
 1720 0004 8646     		mov	lr, r0
 1721 0006 DDE90901 		ldrd	r0, [sp, #36]
 1722              	.LVL339:
 303:..\aes256ctr.c **** 	uint64_t x0, x1, x2, x3;
 304:..\aes256ctr.c **** 
 305:..\aes256ctr.c **** 	x0 = q0 & (uint64_t)0x00FF00FF00FF00FF;
 1723              		.loc 1 305 0
 1724 000a 02F0FF18 		and	r8, r2, #16711935
 1725 000e 03F0FF19 		and	r9, r3, #16711935
 1726              	.LVL340:
 306:..\aes256ctr.c **** 	x1 = q1 & (uint64_t)0x00FF00FF00FF00FF;
 1727              		.loc 1 306 0
 1728 0012 00F0FF16 		and	r6, r0, #16711935
 1729 0016 01F0FF17 		and	r7, r1, #16711935
 1730              	.LVL341:
 307:..\aes256ctr.c **** 	x2 = (q0 >> 8) & (uint64_t)0x00FF00FF00FF00FF;
ARM GAS  C:\Users\bogur\AppData\Local\Temp\cca0k2e0.s 			page 37


 1731              		.loc 1 307 0
 1732 001a 140A     		lsrs	r4, r2, #8
 1733 001c 44EA0364 		orr	r4, r4, r3, lsl #24
 1734 0020 1D0A     		lsrs	r5, r3, #8
 1735 0022 04F0FF12 		and	r2, r4, #16711935
 1736              	.LVL342:
 1737 0026 05F0FF13 		and	r3, r5, #16711935
 1738              	.LVL343:
 308:..\aes256ctr.c **** 	x3 = (q1 >> 8) & (uint64_t)0x00FF00FF00FF00FF;
 1739              		.loc 1 308 0
 1740 002a 4FEA102A 		lsr	r10, r0, #8
 1741 002e 4AEA016A 		orr	r10, r10, r1, lsl #24
 1742 0032 4FEA112B 		lsr	fp, r1, #8
 1743 0036 0AF0FF1A 		and	r10, r10, #16711935
 1744 003a 0BF0FF1B 		and	fp, fp, #16711935
 1745              	.LVL344:
 309:..\aes256ctr.c **** 	x0 |= (x0 >> 8);
 1746              		.loc 1 309 0
 1747 003e 4FEA1824 		lsr	r4, r8, #8
 1748 0042 44EA0964 		orr	r4, r4, r9, lsl #24
 1749 0046 4FEA1925 		lsr	r5, r9, #8
 1750 004a 48EA0408 		orr	r8, r8, r4
 1751              	.LVL345:
 1752 004e 49EA0509 		orr	r9, r9, r5
 1753              	.LVL346:
 310:..\aes256ctr.c **** 	x1 |= (x1 >> 8);
 1754              		.loc 1 310 0
 1755 0052 340A     		lsrs	r4, r6, #8
 1756 0054 44EA0764 		orr	r4, r4, r7, lsl #24
 1757 0058 3D0A     		lsrs	r5, r7, #8
 1758 005a 2643     		orrs	r6, r6, r4
 1759              	.LVL347:
 1760 005c 2F43     		orrs	r7, r7, r5
 1761              	.LVL348:
 311:..\aes256ctr.c **** 	x2 |= (x2 >> 8);
 1762              		.loc 1 311 0
 1763 005e 140A     		lsrs	r4, r2, #8
 1764 0060 44EA0364 		orr	r4, r4, r3, lsl #24
 1765 0064 1D0A     		lsrs	r5, r3, #8
 1766 0066 1443     		orrs	r4, r4, r2
 1767 0068 1D43     		orrs	r5, r5, r3
 1768              	.LVL349:
 312:..\aes256ctr.c **** 	x3 |= (x3 >> 8);
 1769              		.loc 1 312 0
 1770 006a 4FEA1A22 		lsr	r2, r10, #8
 1771 006e 42EA0B62 		orr	r2, r2, fp, lsl #24
 1772 0072 4FEA1B23 		lsr	r3, fp, #8
 1773 0076 42EA0A02 		orr	r2, r2, r10
 1774 007a 43EA0B03 		orr	r3, r3, fp
 1775              	.LVL350:
 313:..\aes256ctr.c **** 	x0 &= (uint64_t)0x0000FFFF0000FFFF;
 1776              		.loc 1 313 0
 1777 007e 4FF6FF7A 		movw	r10, #65535
 1778 0082 4FF6FF7B 		movw	fp, #65535
 1779 0086 08EA0A08 		and	r8, r8, r10
 1780              	.LVL351:
 1781 008a 09EA0B09 		and	r9, r9, fp
ARM GAS  C:\Users\bogur\AppData\Local\Temp\cca0k2e0.s 			page 38


 1782              	.LVL352:
 314:..\aes256ctr.c **** 	x1 &= (uint64_t)0x0000FFFF0000FFFF;
 1783              		.loc 1 314 0
 1784 008e 06EA0A06 		and	r6, r6, r10
 1785              	.LVL353:
 1786 0092 07EA0B07 		and	r7, r7, fp
 1787              	.LVL354:
 315:..\aes256ctr.c **** 	x2 &= (uint64_t)0x0000FFFF0000FFFF;
 1788              		.loc 1 315 0
 1789 0096 04EA0A04 		and	r4, r4, r10
 1790              	.LVL355:
 1791 009a 05EA0B05 		and	r5, r5, fp
 1792              	.LVL356:
 316:..\aes256ctr.c **** 	x3 &= (uint64_t)0x0000FFFF0000FFFF;
 1793              		.loc 1 316 0
 1794 009e 0AEA020A 		and	r10, r10, r2
 1795 00a2 0BEA030B 		and	fp, fp, r3
 1796              	.LVL357:
 317:..\aes256ctr.c **** 	w[0] = (uint32_t)x0 | (uint32_t)(x0 >> 16);
 1797              		.loc 1 317 0
 1798 00a6 48EA0943 		orr	r3, r8, r9, lsl #16
 1799 00aa CEF80030 		str	r3, [lr]
 318:..\aes256ctr.c **** 	w[1] = (uint32_t)x1 | (uint32_t)(x1 >> 16);
 1800              		.loc 1 318 0
 1801 00ae 46EA0746 		orr	r6, r6, r7, lsl #16
 1802              	.LVL358:
 1803 00b2 CEF80460 		str	r6, [lr, #4]
 319:..\aes256ctr.c **** 	w[2] = (uint32_t)x2 | (uint32_t)(x2 >> 16);
 1804              		.loc 1 319 0
 1805 00b6 44EA0544 		orr	r4, r4, r5, lsl #16
 1806              	.LVL359:
 1807 00ba CEF80840 		str	r4, [lr, #8]
 320:..\aes256ctr.c **** 	w[3] = (uint32_t)x3 | (uint32_t)(x3 >> 16);
 1808              		.loc 1 320 0
 1809 00be 4AEA0B42 		orr	r2, r10, fp, lsl #16
 1810 00c2 CEF80C20 		str	r2, [lr, #12]
 1811 00c6 BDE8F08F 		pop	{r4, r5, r6, r7, r8, r9, r10, fp, pc}
 1812              		.cfi_endproc
 1813              	.LFE8:
 1814              		.size	br_aes_ct64_interleave_out, .-br_aes_ct64_interleave_out
 1815 00ca 00BF     		.section	.text.br_aes_ct64_skey_expand,"ax",%progbits
 1816              		.align	2
 1817              		.thumb
 1818              		.thumb_func
 1819              		.type	br_aes_ct64_skey_expand, %function
 1820              	br_aes_ct64_skey_expand:
 1821              	.LFB11:
 321:..\aes256ctr.c **** }
 322:..\aes256ctr.c **** 
 323:..\aes256ctr.c **** static const uint8_t Rcon[] = {
 324:..\aes256ctr.c **** 	0x01, 0x02, 0x04, 0x08, 0x10, 0x20, 0x40, 0x80, 0x1B, 0x36
 325:..\aes256ctr.c **** };
 326:..\aes256ctr.c **** 
 327:..\aes256ctr.c **** static uint32_t sub_word(uint32_t x)
 328:..\aes256ctr.c **** {
 329:..\aes256ctr.c **** 	uint64_t q[8];
 330:..\aes256ctr.c **** 
ARM GAS  C:\Users\bogur\AppData\Local\Temp\cca0k2e0.s 			page 39


 331:..\aes256ctr.c **** 	memset(q, 0, sizeof q);
 332:..\aes256ctr.c **** 	q[0] = x;
 333:..\aes256ctr.c **** 	br_aes_ct64_ortho(q);
 334:..\aes256ctr.c **** 	br_aes_ct64_bitslice_Sbox(q);
 335:..\aes256ctr.c **** 	br_aes_ct64_ortho(q);
 336:..\aes256ctr.c **** 	return (uint32_t)q[0];
 337:..\aes256ctr.c **** }
 338:..\aes256ctr.c **** 
 339:..\aes256ctr.c **** static void br_aes_ct64_keysched(uint64_t *comp_skey, const uint8_t *key)
 340:..\aes256ctr.c **** {
 341:..\aes256ctr.c **** 	int i, j, k, nk, nkf;
 342:..\aes256ctr.c **** 	uint32_t tmp;
 343:..\aes256ctr.c **** 	uint32_t skey[60];
 344:..\aes256ctr.c **** 
 345:..\aes256ctr.c **** 	int key_len = 32;
 346:..\aes256ctr.c **** 
 347:..\aes256ctr.c **** 	nk = (int)(key_len >> 2);
 348:..\aes256ctr.c **** 	nkf = (int)((14 + 1) << 2);
 349:..\aes256ctr.c **** 	br_range_dec32le(skey, (key_len >> 2), key);
 350:..\aes256ctr.c **** 	tmp = skey[(key_len >> 2) - 1];
 351:..\aes256ctr.c **** 	for (i = nk, j = 0, k = 0; i < nkf; i ++) {
 352:..\aes256ctr.c **** 		if (j == 0) {
 353:..\aes256ctr.c **** 			tmp = (tmp << 24) | (tmp >> 8);
 354:..\aes256ctr.c **** 			tmp = sub_word(tmp) ^ Rcon[k];
 355:..\aes256ctr.c **** 		} else if (nk > 6 && j == 4) {
 356:..\aes256ctr.c **** 			tmp = sub_word(tmp);
 357:..\aes256ctr.c **** 		}
 358:..\aes256ctr.c **** 		tmp ^= skey[i - nk];
 359:..\aes256ctr.c **** 		skey[i] = tmp;
 360:..\aes256ctr.c **** 		if (++ j == nk) {
 361:..\aes256ctr.c **** 			j = 0;
 362:..\aes256ctr.c **** 			k ++;
 363:..\aes256ctr.c **** 		}
 364:..\aes256ctr.c **** 	}
 365:..\aes256ctr.c **** 
 366:..\aes256ctr.c **** 	for (i = 0, j = 0; i < nkf; i += 4, j += 2) {
 367:..\aes256ctr.c **** 		uint64_t q[8];
 368:..\aes256ctr.c **** 
 369:..\aes256ctr.c **** 		br_aes_ct64_interleave_in(&q[0], &q[4], skey + i);
 370:..\aes256ctr.c **** 		q[1] = q[0];
 371:..\aes256ctr.c **** 		q[2] = q[0];
 372:..\aes256ctr.c **** 		q[3] = q[0];
 373:..\aes256ctr.c **** 		q[5] = q[4];
 374:..\aes256ctr.c **** 		q[6] = q[4];
 375:..\aes256ctr.c **** 		q[7] = q[4];
 376:..\aes256ctr.c **** 		br_aes_ct64_ortho(q);
 377:..\aes256ctr.c **** 		comp_skey[j + 0] =
 378:..\aes256ctr.c **** 			  (q[0] & (uint64_t)0x1111111111111111)
 379:..\aes256ctr.c **** 			| (q[1] & (uint64_t)0x2222222222222222)
 380:..\aes256ctr.c **** 			| (q[2] & (uint64_t)0x4444444444444444)
 381:..\aes256ctr.c **** 			| (q[3] & (uint64_t)0x8888888888888888);
 382:..\aes256ctr.c **** 		comp_skey[j + 1] =
 383:..\aes256ctr.c **** 			  (q[4] & (uint64_t)0x1111111111111111)
 384:..\aes256ctr.c **** 			| (q[5] & (uint64_t)0x2222222222222222)
 385:..\aes256ctr.c **** 			| (q[6] & (uint64_t)0x4444444444444444)
 386:..\aes256ctr.c **** 			| (q[7] & (uint64_t)0x8888888888888888);
 387:..\aes256ctr.c **** 	}
ARM GAS  C:\Users\bogur\AppData\Local\Temp\cca0k2e0.s 			page 40


 388:..\aes256ctr.c **** }
 389:..\aes256ctr.c **** 
 390:..\aes256ctr.c **** static void br_aes_ct64_skey_expand(uint64_t *skey, const uint64_t *comp_skey)
 391:..\aes256ctr.c **** {
 1822              		.loc 1 391 0
 1823              		.cfi_startproc
 1824              		@ args = 0, pretend = 0, frame = 56
 1825              		@ frame_needed = 0, uses_anonymous_args = 0
 1826              	.LVL360:
 1827 0000 2DE9F04F 		push	{r4, r5, r6, r7, r8, r9, r10, fp, lr}
 1828              		.cfi_def_cfa_offset 36
 1829              		.cfi_offset 4, -36
 1830              		.cfi_offset 5, -32
 1831              		.cfi_offset 6, -28
 1832              		.cfi_offset 7, -24
 1833              		.cfi_offset 8, -20
 1834              		.cfi_offset 9, -16
 1835              		.cfi_offset 10, -12
 1836              		.cfi_offset 11, -8
 1837              		.cfi_offset 14, -4
 1838 0004 8FB0     		sub	sp, sp, #60
 1839              		.cfi_def_cfa_offset 96
 1840 0006 8C46     		mov	ip, r1
 1841              	.LVL361:
 392:..\aes256ctr.c **** 	unsigned u, v, n;
 393:..\aes256ctr.c **** 
 394:..\aes256ctr.c **** 	n = (14 + 1) << 1;
 395:..\aes256ctr.c **** 	for (u = 0, v = 0; u < n; u ++, v += 4) {
 1842              		.loc 1 395 0
 1843 0008 0021     		movs	r1, #0
 1844              	.LVL362:
 1845 000a 8E46     		mov	lr, r1
 1846 000c 0D90     		str	r0, [sp, #52]
 1847 000e 73E0     		b	.L18
 1848              	.LVL363:
 1849              	.L19:
 1850              	.LBB59:
 396:..\aes256ctr.c **** 		uint64_t x0, x1, x2, x3;
 397:..\aes256ctr.c **** 
 398:..\aes256ctr.c **** 		x0 = x1 = x2 = x3 = comp_skey[u];
 1851              		.loc 1 398 0 discriminator 3
 1852 0010 0CEBCE03 		add	r3, ip, lr, lsl #3
 1853 0014 D3E90045 		ldrd	r4, [r3]
 1854              	.LVL364:
 399:..\aes256ctr.c **** 		x0 &= (uint64_t)0x1111111111111111;
 1855              		.loc 1 399 0 discriminator 3
 1856 0018 04F01136 		and	r6, r4, #286331153
 1857 001c 05F01137 		and	r7, r5, #286331153
 1858              	.LVL365:
 400:..\aes256ctr.c **** 		x1 &= (uint64_t)0x2222222222222222;
 401:..\aes256ctr.c **** 		x2 &= (uint64_t)0x4444444444444444;
 402:..\aes256ctr.c **** 		x3 &= (uint64_t)0x8888888888888888;
 403:..\aes256ctr.c **** 		x1 >>= 1;
 1859              		.loc 1 403 0 discriminator 3
 1860 0020 6B08     		movs	r3, r5, lsr #1
 1861 0022 4FEA3402 		mov	r2, r4, rrx
 1862 0026 02F01132 		and	r2, r2, #286331153
ARM GAS  C:\Users\bogur\AppData\Local\Temp\cca0k2e0.s 			page 41


 1863 002a 03F01133 		and	r3, r3, #286331153
 1864              	.LVL366:
 404:..\aes256ctr.c **** 		x2 >>= 2;
 1865              		.loc 1 404 0 discriminator 3
 1866 002e A008     		lsrs	r0, r4, #2
 1867 0030 40EA8570 		orr	r0, r0, r5, lsl #30
 1868 0034 0690     		str	r0, [sp, #24]
 1869 0036 A808     		lsrs	r0, r5, #2
 1870 0038 0790     		str	r0, [sp, #28]
 1871 003a DDE90689 		ldrd	r8, [sp, #24]
 1872 003e 08F01138 		and	r8, r8, #286331153
 1873 0042 09F01139 		and	r9, r9, #286331153
 1874              	.LVL367:
 405:..\aes256ctr.c **** 		x3 >>= 3;
 1875              		.loc 1 405 0 discriminator 3
 1876 0046 E008     		lsrs	r0, r4, #3
 1877 0048 40EA4570 		orr	r0, r0, r5, lsl #29
 1878 004c 0890     		str	r0, [sp, #32]
 1879 004e E808     		lsrs	r0, r5, #3
 1880 0050 0990     		str	r0, [sp, #36]
 1881 0052 DDE90845 		ldrd	r4, [sp, #32]
 1882              	.LVL368:
 1883 0056 04F01134 		and	r4, r4, #286331153
 1884 005a 05F01135 		and	r5, r5, #286331153
 1885 005e CDE90A45 		strd	r4, [sp, #40]
 1886              	.LVL369:
 406:..\aes256ctr.c **** 		skey[v + 0] = (x0 << 4) - x0;
 1887              		.loc 1 406 0 discriminator 3
 1888 0062 0D9D     		ldr	r5, [sp, #52]
 1889 0064 05EBC104 		add	r4, r5, r1, lsl #3
 1890              	.LVL370:
 1891 0068 4FEA071B 		lsl	fp, r7, #4
 1892 006c 4BEA167B 		orr	fp, fp, r6, lsr #28
 1893 0070 4FEA061A 		lsl	r10, r6, #4
 1894 0074 BAEB0606 		subs	r6, r10, r6
 1895              	.LVL371:
 1896 0078 6BEB0707 		sbc	r7, fp, r7
 1897 007c C4E90067 		strd	r6, [r4]
 407:..\aes256ctr.c **** 		skey[v + 1] = (x1 << 4) - x1;
 1898              		.loc 1 407 0 discriminator 3
 1899 0080 4C1C     		adds	r4, r1, #1
 1900 0082 05EBC404 		add	r4, r5, r4, lsl #3
 1901 0086 1801     		lsls	r0, r3, #4
 1902 0088 40EA1270 		orr	r0, r0, r2, lsr #28
 1903 008c 0190     		str	r0, [sp, #4]
 1904 008e 1001     		lsls	r0, r2, #4
 1905 0090 0090     		str	r0, [sp]
 1906 0092 DDE90067 		ldrd	r6, [sp]
 1907 0096 B61A     		subs	r6, r6, r2
 1908 0098 67EB0307 		sbc	r7, r7, r3
 1909 009c 3246     		mov	r2, r6
 1910              	.LVL372:
 1911 009e 3B46     		mov	r3, r7
 1912 00a0 C4E90023 		strd	r2, [r4]
 408:..\aes256ctr.c **** 		skey[v + 2] = (x2 << 4) - x2;
 1913              		.loc 1 408 0 discriminator 3
 1914 00a4 8B1C     		adds	r3, r1, #2
ARM GAS  C:\Users\bogur\AppData\Local\Temp\cca0k2e0.s 			page 42


 1915 00a6 05EBC303 		add	r3, r5, r3, lsl #3
 1916 00aa 4FEA0912 		lsl	r2, r9, #4
 1917 00ae 42EA1872 		orr	r2, r2, r8, lsr #28
 1918 00b2 0392     		str	r2, [sp, #12]
 1919 00b4 4FEA0812 		lsl	r2, r8, #4
 1920 00b8 0292     		str	r2, [sp, #8]
 1921 00ba DDE90267 		ldrd	r6, [sp, #8]
 1922 00be B6EB0806 		subs	r6, r6, r8
 1923 00c2 67EB0907 		sbc	r7, r7, r9
 1924 00c6 B046     		mov	r8, r6
 1925              	.LVL373:
 1926 00c8 B946     		mov	r9, r7
 1927 00ca C3E90089 		strd	r8, [r3]
 409:..\aes256ctr.c **** 		skey[v + 3] = (x3 << 4) - x3;
 1928              		.loc 1 409 0 discriminator 3
 1929 00ce CC1C     		adds	r4, r1, #3
 1930 00d0 05EBC404 		add	r4, r5, r4, lsl #3
 1931 00d4 DDE90A56 		ldrd	r5, [sp, #40]
 1932 00d8 3301     		lsls	r3, r6, #4
 1933 00da 43EA1573 		orr	r3, r3, r5, lsr #28
 1934 00de 0593     		str	r3, [sp, #20]
 1935 00e0 2B01     		lsls	r3, r5, #4
 1936 00e2 0493     		str	r3, [sp, #16]
 1937 00e4 DDE90423 		ldrd	r2, [sp, #16]
 1938 00e8 521B     		subs	r2, r2, r5
 1939 00ea 63EB0603 		sbc	r3, r3, r6
 1940 00ee C4E90023 		strd	r2, [r4]
 1941              	.LBE59:
 395:..\aes256ctr.c **** 		uint64_t x0, x1, x2, x3;
 1942              		.loc 1 395 0 discriminator 3
 1943 00f2 0EF1010E 		add	lr, lr, #1
 1944              	.LVL374:
 1945 00f6 0431     		adds	r1, r1, #4
 1946              	.LVL375:
 1947              	.L18:
 395:..\aes256ctr.c **** 		uint64_t x0, x1, x2, x3;
 1948              		.loc 1 395 0 is_stmt 0 discriminator 1
 1949 00f8 BEF11D0F 		cmp	lr, #29
 1950 00fc 88D9     		bls	.L19
 410:..\aes256ctr.c **** 	}
 411:..\aes256ctr.c **** }
 1951              		.loc 1 411 0 is_stmt 1
 1952 00fe 0FB0     		add	sp, sp, #60
 1953              		.cfi_def_cfa_offset 36
 1954              		@ sp needed
 1955 0100 BDE8F08F 		pop	{r4, r5, r6, r7, r8, r9, r10, fp, pc}
 1956              		.cfi_endproc
 1957              	.LFE11:
 1958              		.size	br_aes_ct64_skey_expand, .-br_aes_ct64_skey_expand
 1959              		.section	.text.inc4_be,"ax",%progbits
 1960              		.align	2
 1961              		.thumb
 1962              		.thumb_func
 1963              		.type	inc4_be, %function
 1964              	inc4_be:
 1965              	.LFB16:
 412:..\aes256ctr.c **** 
ARM GAS  C:\Users\bogur\AppData\Local\Temp\cca0k2e0.s 			page 43


 413:..\aes256ctr.c **** static inline void add_round_key(uint64_t *q, const uint64_t *sk)
 414:..\aes256ctr.c **** {
 415:..\aes256ctr.c **** 	q[0] ^= sk[0];
 416:..\aes256ctr.c **** 	q[1] ^= sk[1];
 417:..\aes256ctr.c **** 	q[2] ^= sk[2];
 418:..\aes256ctr.c **** 	q[3] ^= sk[3];
 419:..\aes256ctr.c **** 	q[4] ^= sk[4];
 420:..\aes256ctr.c **** 	q[5] ^= sk[5];
 421:..\aes256ctr.c **** 	q[6] ^= sk[6];
 422:..\aes256ctr.c **** 	q[7] ^= sk[7];
 423:..\aes256ctr.c **** }
 424:..\aes256ctr.c **** 
 425:..\aes256ctr.c **** static inline void shift_rows(uint64_t *q)
 426:..\aes256ctr.c **** {
 427:..\aes256ctr.c **** 	int i;
 428:..\aes256ctr.c **** 
 429:..\aes256ctr.c **** 	for (i = 0; i < 8; i ++) {
 430:..\aes256ctr.c **** 		uint64_t x;
 431:..\aes256ctr.c **** 
 432:..\aes256ctr.c **** 		x = q[i];
 433:..\aes256ctr.c **** 		q[i] = (x & (uint64_t)0x000000000000FFFF)
 434:..\aes256ctr.c **** 			| ((x & (uint64_t)0x00000000FFF00000) >> 4)
 435:..\aes256ctr.c **** 			| ((x & (uint64_t)0x00000000000F0000) << 12)
 436:..\aes256ctr.c **** 			| ((x & (uint64_t)0x0000FF0000000000) >> 8)
 437:..\aes256ctr.c **** 			| ((x & (uint64_t)0x000000FF00000000) << 8)
 438:..\aes256ctr.c **** 			| ((x & (uint64_t)0xF000000000000000) >> 12)
 439:..\aes256ctr.c **** 			| ((x & (uint64_t)0x0FFF000000000000) << 4);
 440:..\aes256ctr.c **** 	}
 441:..\aes256ctr.c **** }
 442:..\aes256ctr.c **** 
 443:..\aes256ctr.c **** static inline uint64_t rotr32(uint64_t x)
 444:..\aes256ctr.c **** {
 445:..\aes256ctr.c **** 	return (x << 32) | (x >> 32);
 446:..\aes256ctr.c **** }
 447:..\aes256ctr.c **** 
 448:..\aes256ctr.c **** static inline void mix_columns(uint64_t *q)
 449:..\aes256ctr.c **** {
 450:..\aes256ctr.c **** 	uint64_t q0, q1, q2, q3, q4, q5, q6, q7;
 451:..\aes256ctr.c **** 	uint64_t r0, r1, r2, r3, r4, r5, r6, r7;
 452:..\aes256ctr.c **** 
 453:..\aes256ctr.c **** 	q0 = q[0];
 454:..\aes256ctr.c **** 	q1 = q[1];
 455:..\aes256ctr.c **** 	q2 = q[2];
 456:..\aes256ctr.c **** 	q3 = q[3];
 457:..\aes256ctr.c **** 	q4 = q[4];
 458:..\aes256ctr.c **** 	q5 = q[5];
 459:..\aes256ctr.c **** 	q6 = q[6];
 460:..\aes256ctr.c **** 	q7 = q[7];
 461:..\aes256ctr.c **** 	r0 = (q0 >> 16) | (q0 << 48);
 462:..\aes256ctr.c **** 	r1 = (q1 >> 16) | (q1 << 48);
 463:..\aes256ctr.c **** 	r2 = (q2 >> 16) | (q2 << 48);
 464:..\aes256ctr.c **** 	r3 = (q3 >> 16) | (q3 << 48);
 465:..\aes256ctr.c **** 	r4 = (q4 >> 16) | (q4 << 48);
 466:..\aes256ctr.c **** 	r5 = (q5 >> 16) | (q5 << 48);
 467:..\aes256ctr.c **** 	r6 = (q6 >> 16) | (q6 << 48);
 468:..\aes256ctr.c **** 	r7 = (q7 >> 16) | (q7 << 48);
 469:..\aes256ctr.c **** 
ARM GAS  C:\Users\bogur\AppData\Local\Temp\cca0k2e0.s 			page 44


 470:..\aes256ctr.c **** 	q[0] = q7 ^ r7 ^ r0 ^ rotr32(q0 ^ r0);
 471:..\aes256ctr.c **** 	q[1] = q0 ^ r0 ^ q7 ^ r7 ^ r1 ^ rotr32(q1 ^ r1);
 472:..\aes256ctr.c **** 	q[2] = q1 ^ r1 ^ r2 ^ rotr32(q2 ^ r2);
 473:..\aes256ctr.c **** 	q[3] = q2 ^ r2 ^ q7 ^ r7 ^ r3 ^ rotr32(q3 ^ r3);
 474:..\aes256ctr.c **** 	q[4] = q3 ^ r3 ^ q7 ^ r7 ^ r4 ^ rotr32(q4 ^ r4);
 475:..\aes256ctr.c **** 	q[5] = q4 ^ r4 ^ r5 ^ rotr32(q5 ^ r5);
 476:..\aes256ctr.c **** 	q[6] = q5 ^ r5 ^ r6 ^ rotr32(q6 ^ r6);
 477:..\aes256ctr.c **** 	q[7] = q6 ^ r6 ^ r7 ^ rotr32(q7 ^ r7);
 478:..\aes256ctr.c **** }
 479:..\aes256ctr.c **** 
 480:..\aes256ctr.c **** static void inc4_be(uint32_t *x)
 481:..\aes256ctr.c **** {
 1966              		.loc 1 481 0
 1967              		.cfi_startproc
 1968              		@ args = 0, pretend = 0, frame = 0
 1969              		@ frame_needed = 0, uses_anonymous_args = 0
 1970              		@ link register save eliminated.
 1971              	.LVL376:
 482:..\aes256ctr.c ****   *x = br_swap32(*x)+4;
 1972              		.loc 1 482 0
 1973 0000 0268     		ldr	r2, [r0]
 1974              	.LVL377:
 1975              	.LBB60:
 1976              	.LBB61:
  47:..\aes256ctr.c **** 		| ((x >> 8) & (uint32_t)0x00FF00FF);
 1977              		.loc 1 47 0
 1978 0002 1302     		lsls	r3, r2, #8
 1979 0004 03F0FF23 		and	r3, r3, #-16711936
  48:..\aes256ctr.c **** 	return (x << 16) | (x >> 16);
 1980              		.loc 1 48 0
 1981 0008 120A     		lsrs	r2, r2, #8
 1982              	.LVL378:
 1983 000a 02F0FF12 		and	r2, r2, #16711935
  47:..\aes256ctr.c **** 		| ((x >> 8) & (uint32_t)0x00FF00FF);
 1984              		.loc 1 47 0
 1985 000e 1343     		orrs	r3, r3, r2
 1986              	.LVL379:
  49:..\aes256ctr.c **** }
 1987              		.loc 1 49 0
 1988 0010 4FEA3343 		ror	r3, r3, #16
 1989              	.LVL380:
 1990              	.LBE61:
 1991              	.LBE60:
 1992              		.loc 1 482 0
 1993 0014 0433     		adds	r3, r3, #4
 1994              	.LVL381:
 1995              	.LBB62:
 1996              	.LBB63:
  47:..\aes256ctr.c **** 		| ((x >> 8) & (uint32_t)0x00FF00FF);
 1997              		.loc 1 47 0
 1998 0016 1A02     		lsls	r2, r3, #8
 1999 0018 02F0FF22 		and	r2, r2, #-16711936
  48:..\aes256ctr.c **** 	return (x << 16) | (x >> 16);
 2000              		.loc 1 48 0
 2001 001c 1B0A     		lsrs	r3, r3, #8
 2002              	.LVL382:
 2003 001e 03F0FF13 		and	r3, r3, #16711935
ARM GAS  C:\Users\bogur\AppData\Local\Temp\cca0k2e0.s 			page 45


  47:..\aes256ctr.c **** 		| ((x >> 8) & (uint32_t)0x00FF00FF);
 2004              		.loc 1 47 0
 2005 0022 1343     		orrs	r3, r3, r2
 2006              	.LVL383:
  49:..\aes256ctr.c **** }
 2007              		.loc 1 49 0
 2008 0024 4FEA3343 		ror	r3, r3, #16
 2009              	.LVL384:
 2010              	.LBE63:
 2011              	.LBE62:
 483:..\aes256ctr.c ****   *x = br_swap32(*x);
 2012              		.loc 1 483 0
 2013 0028 0360     		str	r3, [r0]
 2014 002a 7047     		bx	lr
 2015              		.cfi_endproc
 2016              	.LFE16:
 2017              		.size	inc4_be, .-inc4_be
 2018              		.section	.text.sub_word,"ax",%progbits
 2019              		.align	2
 2020              		.thumb
 2021              		.thumb_func
 2022              		.type	sub_word, %function
 2023              	sub_word:
 2024              	.LFB9:
 328:..\aes256ctr.c **** 	uint64_t q[8];
 2025              		.loc 1 328 0
 2026              		.cfi_startproc
 2027              		@ args = 0, pretend = 0, frame = 64
 2028              		@ frame_needed = 0, uses_anonymous_args = 0
 2029              	.LVL385:
 2030 0000 10B5     		push	{r4, lr}
 2031              		.cfi_def_cfa_offset 8
 2032              		.cfi_offset 4, -8
 2033              		.cfi_offset 14, -4
 2034 0002 90B0     		sub	sp, sp, #64
 2035              		.cfi_def_cfa_offset 72
 2036 0004 0446     		mov	r4, r0
 331:..\aes256ctr.c **** 	q[0] = x;
 2037              		.loc 1 331 0
 2038 0006 4022     		movs	r2, #64
 2039 0008 0021     		movs	r1, #0
 2040 000a 6846     		mov	r0, sp
 2041              	.LVL386:
 2042 000c FFF7FEFF 		bl	memset
 2043              	.LVL387:
 332:..\aes256ctr.c **** 	br_aes_ct64_ortho(q);
 2044              		.loc 1 332 0
 2045 0010 0094     		str	r4, [sp]
 333:..\aes256ctr.c **** 	br_aes_ct64_bitslice_Sbox(q);
 2046              		.loc 1 333 0
 2047 0012 6846     		mov	r0, sp
 2048 0014 FFF7FEFF 		bl	br_aes_ct64_ortho
 2049              	.LVL388:
 334:..\aes256ctr.c **** 	br_aes_ct64_ortho(q);
 2050              		.loc 1 334 0
 2051 0018 6846     		mov	r0, sp
 2052 001a FFF7FEFF 		bl	br_aes_ct64_bitslice_Sbox
ARM GAS  C:\Users\bogur\AppData\Local\Temp\cca0k2e0.s 			page 46


 2053              	.LVL389:
 335:..\aes256ctr.c **** 	return (uint32_t)q[0];
 2054              		.loc 1 335 0
 2055 001e 6846     		mov	r0, sp
 2056 0020 FFF7FEFF 		bl	br_aes_ct64_ortho
 2057              	.LVL390:
 337:..\aes256ctr.c **** 
 2058              		.loc 1 337 0
 2059 0024 0098     		ldr	r0, [sp]
 2060 0026 10B0     		add	sp, sp, #64
 2061              		.cfi_def_cfa_offset 8
 2062              		@ sp needed
 2063 0028 10BD     		pop	{r4, pc}
 2064              		.cfi_endproc
 2065              	.LFE9:
 2066              		.size	sub_word, .-sub_word
 2067 002a 00BF     		.section	.text.br_aes_ct64_keysched,"ax",%progbits
 2068              		.align	2
 2069              		.thumb
 2070              		.thumb_func
 2071              		.type	br_aes_ct64_keysched, %function
 2072              	br_aes_ct64_keysched:
 2073              	.LFB10:
 340:..\aes256ctr.c **** 	int i, j, k, nk, nkf;
 2074              		.loc 1 340 0
 2075              		.cfi_startproc
 2076              		@ args = 0, pretend = 0, frame = 304
 2077              		@ frame_needed = 0, uses_anonymous_args = 0
 2078              	.LVL391:
 2079 0000 2DE9F043 		push	{r4, r5, r6, r7, r8, r9, lr}
 2080              		.cfi_def_cfa_offset 28
 2081              		.cfi_offset 4, -28
 2082              		.cfi_offset 5, -24
 2083              		.cfi_offset 6, -20
 2084              		.cfi_offset 7, -16
 2085              		.cfi_offset 8, -12
 2086              		.cfi_offset 9, -8
 2087              		.cfi_offset 14, -4
 2088 0004 CDB0     		sub	sp, sp, #308
 2089              		.cfi_def_cfa_offset 336
 2090 0006 0646     		mov	r6, r0
 2091              	.LVL392:
 349:..\aes256ctr.c **** 	tmp = skey[(key_len >> 2) - 1];
 2092              		.loc 1 349 0
 2093 0008 0A46     		mov	r2, r1
 2094 000a 0821     		movs	r1, #8
 2095              	.LVL393:
 2096 000c 10A8     		add	r0, sp, #64
 2097              	.LVL394:
 2098 000e FFF7FEFF 		bl	br_range_dec32le
 2099              	.LVL395:
 350:..\aes256ctr.c **** 	for (i = nk, j = 0, k = 0; i < nkf; i ++) {
 2100              		.loc 1 350 0
 2101 0012 1798     		ldr	r0, [sp, #92]
 2102              	.LVL396:
 351:..\aes256ctr.c **** 		if (j == 0) {
 2103              		.loc 1 351 0
ARM GAS  C:\Users\bogur\AppData\Local\Temp\cca0k2e0.s 			page 47


 2104 0014 0027     		movs	r7, #0
 2105 0016 3D46     		mov	r5, r7
 2106 0018 0824     		movs	r4, #8
 2107 001a 1EE0     		b	.L25
 2108              	.LVL397:
 2109              	.L29:
 352:..\aes256ctr.c **** 			tmp = (tmp << 24) | (tmp >> 8);
 2110              		.loc 1 352 0
 2111 001c 3DB9     		cbnz	r5, .L26
 2112              	.LVL398:
 354:..\aes256ctr.c **** 		} else if (nk > 6 && j == 4) {
 2113              		.loc 1 354 0
 2114 001e 4FEA3020 		ror	r0, r0, #8
 2115              	.LVL399:
 2116 0022 FFF7FEFF 		bl	sub_word
 2117              	.LVL400:
 2118 0026 444B     		ldr	r3, .L33
 2119 0028 DB5D     		ldrb	r3, [r3, r7]	@ zero_extendqisi2
 2120 002a 5840     		eors	r0, r0, r3
 2121              	.LVL401:
 2122 002c 03E0     		b	.L27
 2123              	.L26:
 355:..\aes256ctr.c **** 			tmp = sub_word(tmp);
 2124              		.loc 1 355 0 discriminator 1
 2125 002e 042D     		cmp	r5, #4
 2126 0030 01D1     		bne	.L27
 356:..\aes256ctr.c **** 		}
 2127              		.loc 1 356 0
 2128 0032 FFF7FEFF 		bl	sub_word
 2129              	.LVL402:
 2130              	.L27:
 358:..\aes256ctr.c **** 		skey[i] = tmp;
 2131              		.loc 1 358 0
 2132 0036 A4F10803 		sub	r3, r4, #8
 2133 003a 4CAA     		add	r2, sp, #304
 2134 003c 02EB8303 		add	r3, r2, r3, lsl #2
 2135 0040 53F8F03C 		ldr	r3, [r3, #-240]
 2136 0044 5840     		eors	r0, r0, r3
 2137              	.LVL403:
 359:..\aes256ctr.c **** 		if (++ j == nk) {
 2138              		.loc 1 359 0
 2139 0046 02EB8403 		add	r3, r2, r4, lsl #2
 2140 004a 43F8F00C 		str	r0, [r3, #-240]
 360:..\aes256ctr.c **** 			j = 0;
 2141              		.loc 1 360 0
 2142 004e 0135     		adds	r5, r5, #1
 2143              	.LVL404:
 2144 0050 082D     		cmp	r5, #8
 2145 0052 01D1     		bne	.L28
 2146              	.LVL405:
 362:..\aes256ctr.c **** 		}
 2147              		.loc 1 362 0
 2148 0054 0137     		adds	r7, r7, #1
 2149              	.LVL406:
 361:..\aes256ctr.c **** 			k ++;
 2150              		.loc 1 361 0
 2151 0056 0025     		movs	r5, #0
ARM GAS  C:\Users\bogur\AppData\Local\Temp\cca0k2e0.s 			page 48


 2152              	.LVL407:
 2153              	.L28:
 351:..\aes256ctr.c **** 		if (j == 0) {
 2154              		.loc 1 351 0 discriminator 2
 2155 0058 0134     		adds	r4, r4, #1
 2156              	.LVL408:
 2157              	.L25:
 351:..\aes256ctr.c **** 		if (j == 0) {
 2158              		.loc 1 351 0 is_stmt 0 discriminator 1
 2159 005a 3B2C     		cmp	r4, #59
 2160 005c DEDD     		ble	.L29
 2161 005e 0025     		movs	r5, #0
 2162              	.LVL409:
 2163 0060 2C46     		mov	r4, r5
 2164              	.LVL410:
 2165 0062 64E0     		b	.L30
 2166              	.LVL411:
 2167              	.L31:
 2168              	.LBB64:
 369:..\aes256ctr.c **** 		q[1] = q[0];
 2169              		.loc 1 369 0 is_stmt 1 discriminator 3
 2170 0064 10AB     		add	r3, sp, #64
 2171 0066 03EB8402 		add	r2, r3, r4, lsl #2
 2172 006a 08A9     		add	r1, sp, #32
 2173 006c 6846     		mov	r0, sp
 2174 006e FFF7FEFF 		bl	br_aes_ct64_interleave_in
 2175              	.LVL412:
 370:..\aes256ctr.c **** 		q[2] = q[0];
 2176              		.loc 1 370 0 discriminator 3
 2177 0072 DDE90023 		ldrd	r2, [sp]
 2178 0076 CDE90223 		strd	r2, [sp, #8]
 371:..\aes256ctr.c **** 		q[3] = q[0];
 2179              		.loc 1 371 0 discriminator 3
 2180 007a CDE90423 		strd	r2, [sp, #16]
 372:..\aes256ctr.c **** 		q[5] = q[4];
 2181              		.loc 1 372 0 discriminator 3
 2182 007e CDE90623 		strd	r2, [sp, #24]
 373:..\aes256ctr.c **** 		q[6] = q[4];
 2183              		.loc 1 373 0 discriminator 3
 2184 0082 DDE90823 		ldrd	r2, [sp, #32]
 2185 0086 CDE90A23 		strd	r2, [sp, #40]
 374:..\aes256ctr.c **** 		q[7] = q[4];
 2186              		.loc 1 374 0 discriminator 3
 2187 008a CDE90C23 		strd	r2, [sp, #48]
 375:..\aes256ctr.c **** 		br_aes_ct64_ortho(q);
 2188              		.loc 1 375 0 discriminator 3
 2189 008e CDE90E23 		strd	r2, [sp, #56]
 376:..\aes256ctr.c **** 		comp_skey[j + 0] =
 2190              		.loc 1 376 0 discriminator 3
 2191 0092 6846     		mov	r0, sp
 2192 0094 FFF7FEFF 		bl	br_aes_ct64_ortho
 2193              	.LVL413:
 377:..\aes256ctr.c **** 			  (q[0] & (uint64_t)0x1111111111111111)
 2194              		.loc 1 377 0 discriminator 3
 2195 0098 06EBC507 		add	r7, r6, r5, lsl #3
 378:..\aes256ctr.c **** 			| (q[1] & (uint64_t)0x2222222222222222)
 2196              		.loc 1 378 0 discriminator 3
ARM GAS  C:\Users\bogur\AppData\Local\Temp\cca0k2e0.s 			page 49


 2197 009c DDE90001 		ldrd	r0, [sp]
 2198 00a0 00F01132 		and	r2, r0, #286331153
 2199 00a4 01F01133 		and	r3, r1, #286331153
 379:..\aes256ctr.c **** 			| (q[2] & (uint64_t)0x4444444444444444)
 2200              		.loc 1 379 0 discriminator 3
 2201 00a8 DDE90289 		ldrd	r8, [sp, #8]
 2202 00ac 08F02230 		and	r0, r8, #572662306
 2203 00b0 09F02231 		and	r1, r9, #572662306
 2204 00b4 1043     		orrs	r0, r0, r2
 2205 00b6 1943     		orrs	r1, r1, r3
 380:..\aes256ctr.c **** 			| (q[3] & (uint64_t)0x8888888888888888);
 2206              		.loc 1 380 0 discriminator 3
 2207 00b8 DDE90423 		ldrd	r2, [sp, #16]
 2208 00bc 02F04432 		and	r2, r2, #1145324612
 2209 00c0 03F04433 		and	r3, r3, #1145324612
 2210 00c4 1043     		orrs	r0, r0, r2
 2211 00c6 1943     		orrs	r1, r1, r3
 381:..\aes256ctr.c **** 		comp_skey[j + 1] =
 2212              		.loc 1 381 0 discriminator 3
 2213 00c8 DDE90689 		ldrd	r8, [sp, #24]
 2214 00cc 08F08838 		and	r8, r8, #-2004318072
 2215 00d0 09F08839 		and	r9, r9, #-2004318072
 2216 00d4 40EA0800 		orr	r0, r0, r8
 2217 00d8 41EA0901 		orr	r1, r1, r9
 377:..\aes256ctr.c **** 			  (q[0] & (uint64_t)0x1111111111111111)
 2218              		.loc 1 377 0 discriminator 3
 2219 00dc C7E90001 		strd	r0, [r7]
 382:..\aes256ctr.c **** 			  (q[4] & (uint64_t)0x1111111111111111)
 2220              		.loc 1 382 0 discriminator 3
 2221 00e0 6F1C     		adds	r7, r5, #1
 2222 00e2 06EBC707 		add	r7, r6, r7, lsl #3
 383:..\aes256ctr.c **** 			| (q[5] & (uint64_t)0x2222222222222222)
 2223              		.loc 1 383 0 discriminator 3
 2224 00e6 DDE90823 		ldrd	r2, [sp, #32]
 2225 00ea 02F01132 		and	r2, r2, #286331153
 2226 00ee 03F01133 		and	r3, r3, #286331153
 384:..\aes256ctr.c **** 			| (q[6] & (uint64_t)0x4444444444444444)
 2227              		.loc 1 384 0 discriminator 3
 2228 00f2 DDE90A89 		ldrd	r8, [sp, #40]
 2229 00f6 08F02238 		and	r8, r8, #572662306
 2230 00fa 09F02239 		and	r9, r9, #572662306
 2231 00fe 42EA0802 		orr	r2, r2, r8
 2232 0102 43EA0903 		orr	r3, r3, r9
 385:..\aes256ctr.c **** 			| (q[7] & (uint64_t)0x8888888888888888);
 2233              		.loc 1 385 0 discriminator 3
 2234 0106 DDE90C01 		ldrd	r0, [sp, #48]
 2235 010a 00F04430 		and	r0, r0, #1145324612
 2236 010e 01F04431 		and	r1, r1, #1145324612
 2237 0112 0243     		orrs	r2, r2, r0
 2238 0114 0B43     		orrs	r3, r3, r1
 386:..\aes256ctr.c **** 	}
 2239              		.loc 1 386 0 discriminator 3
 2240 0116 DDE90E01 		ldrd	r0, [sp, #56]
 2241 011a 00F08830 		and	r0, r0, #-2004318072
 2242 011e 01F08831 		and	r1, r1, #-2004318072
 2243 0122 1043     		orrs	r0, r0, r2
 2244 0124 1943     		orrs	r1, r1, r3
ARM GAS  C:\Users\bogur\AppData\Local\Temp\cca0k2e0.s 			page 50


 382:..\aes256ctr.c **** 			  (q[4] & (uint64_t)0x1111111111111111)
 2245              		.loc 1 382 0 discriminator 3
 2246 0126 C7E90001 		strd	r0, [r7]
 2247              	.LBE64:
 366:..\aes256ctr.c **** 		uint64_t q[8];
 2248              		.loc 1 366 0 discriminator 3
 2249 012a 0434     		adds	r4, r4, #4
 2250              	.LVL414:
 2251 012c 0235     		adds	r5, r5, #2
 2252              	.LVL415:
 2253              	.L30:
 366:..\aes256ctr.c **** 		uint64_t q[8];
 2254              		.loc 1 366 0 is_stmt 0 discriminator 1
 2255 012e 3B2C     		cmp	r4, #59
 2256 0130 98DD     		ble	.L31
 388:..\aes256ctr.c **** 
 2257              		.loc 1 388 0 is_stmt 1
 2258 0132 4DB0     		add	sp, sp, #308
 2259              		.cfi_def_cfa_offset 28
 2260              		@ sp needed
 2261 0134 BDE8F083 		pop	{r4, r5, r6, r7, r8, r9, pc}
 2262              	.LVL416:
 2263              	.L34:
 2264              		.align	2
 2265              	.L33:
 2266 0138 00000000 		.word	.LANCHOR0
 2267              		.cfi_endproc
 2268              	.LFE10:
 2269              		.size	br_aes_ct64_keysched, .-br_aes_ct64_keysched
 2270              		.section	.text.br_aes_ct64_ctr_init,"ax",%progbits
 2271              		.align	2
 2272              		.thumb
 2273              		.thumb_func
 2274              		.type	br_aes_ct64_ctr_init, %function
 2275              	br_aes_ct64_ctr_init:
 2276              	.LFB18:
 484:..\aes256ctr.c **** }
 485:..\aes256ctr.c **** 
 486:..\aes256ctr.c **** static void aes_ctr4x(uint8_t out[64], uint32_t ivw[16], uint64_t sk_exp[64])
 487:..\aes256ctr.c **** {
 488:..\aes256ctr.c ****   uint32_t w[16];
 489:..\aes256ctr.c ****   uint64_t q[8];
 490:..\aes256ctr.c ****   int i;
 491:..\aes256ctr.c **** 
 492:..\aes256ctr.c ****   memcpy(w, ivw, sizeof(w));
 493:..\aes256ctr.c ****   for (i = 0; i < 4; i++) {
 494:..\aes256ctr.c ****     br_aes_ct64_interleave_in(&q[i], &q[i + 4], w + (i << 2));
 495:..\aes256ctr.c ****   }
 496:..\aes256ctr.c ****   br_aes_ct64_ortho(q);
 497:..\aes256ctr.c **** 
 498:..\aes256ctr.c ****   add_round_key(q, sk_exp);
 499:..\aes256ctr.c ****   for (i = 1; i < 14; i++) {
 500:..\aes256ctr.c ****     br_aes_ct64_bitslice_Sbox(q);
 501:..\aes256ctr.c ****     shift_rows(q);
 502:..\aes256ctr.c ****     mix_columns(q);
 503:..\aes256ctr.c ****     add_round_key(q, sk_exp + (i << 3));
 504:..\aes256ctr.c ****   }
ARM GAS  C:\Users\bogur\AppData\Local\Temp\cca0k2e0.s 			page 51


 505:..\aes256ctr.c ****   br_aes_ct64_bitslice_Sbox(q);
 506:..\aes256ctr.c ****   shift_rows(q);
 507:..\aes256ctr.c ****   add_round_key(q, sk_exp + 112);
 508:..\aes256ctr.c **** 
 509:..\aes256ctr.c ****   br_aes_ct64_ortho(q);
 510:..\aes256ctr.c ****   for (i = 0; i < 4; i ++) {
 511:..\aes256ctr.c ****     br_aes_ct64_interleave_out(w + (i << 2), q[i], q[i + 4]);
 512:..\aes256ctr.c ****   }
 513:..\aes256ctr.c ****   br_range_enc32le(out, w, 16);
 514:..\aes256ctr.c **** 
 515:..\aes256ctr.c ****   /* Increase counter for next 4 blocks */
 516:..\aes256ctr.c ****   inc4_be(ivw+3);
 517:..\aes256ctr.c ****   inc4_be(ivw+7);
 518:..\aes256ctr.c ****   inc4_be(ivw+11);
 519:..\aes256ctr.c ****   inc4_be(ivw+15);
 520:..\aes256ctr.c **** }
 521:..\aes256ctr.c **** 
 522:..\aes256ctr.c **** static void br_aes_ct64_ctr_init(uint64_t sk_exp[120], const uint8_t *key)
 523:..\aes256ctr.c **** {
 2277              		.loc 1 523 0
 2278              		.cfi_startproc
 2279              		@ args = 0, pretend = 0, frame = 240
 2280              		@ frame_needed = 0, uses_anonymous_args = 0
 2281              	.LVL417:
 2282 0000 10B5     		push	{r4, lr}
 2283              		.cfi_def_cfa_offset 8
 2284              		.cfi_offset 4, -8
 2285              		.cfi_offset 14, -4
 2286 0002 BCB0     		sub	sp, sp, #240
 2287              		.cfi_def_cfa_offset 248
 2288 0004 0446     		mov	r4, r0
 524:..\aes256ctr.c **** 	uint64_t skey[30];
 525:..\aes256ctr.c **** 
 526:..\aes256ctr.c **** 	br_aes_ct64_keysched(skey, key);
 2289              		.loc 1 526 0
 2290 0006 6846     		mov	r0, sp
 2291              	.LVL418:
 2292 0008 FFF7FEFF 		bl	br_aes_ct64_keysched
 2293              	.LVL419:
 527:..\aes256ctr.c **** 	br_aes_ct64_skey_expand(sk_exp, skey);
 2294              		.loc 1 527 0
 2295 000c 6946     		mov	r1, sp
 2296 000e 2046     		mov	r0, r4
 2297 0010 FFF7FEFF 		bl	br_aes_ct64_skey_expand
 2298              	.LVL420:
 528:..\aes256ctr.c **** }
 2299              		.loc 1 528 0
 2300 0014 3CB0     		add	sp, sp, #240
 2301              		.cfi_def_cfa_offset 8
 2302              		@ sp needed
 2303 0016 10BD     		pop	{r4, pc}
 2304              		.cfi_endproc
 2305              	.LFE18:
 2306              		.size	br_aes_ct64_ctr_init, .-br_aes_ct64_ctr_init
 2307              		.section	.text.aes_ctr4x,"ax",%progbits
 2308              		.align	2
 2309              		.thumb
ARM GAS  C:\Users\bogur\AppData\Local\Temp\cca0k2e0.s 			page 52


 2310              		.thumb_func
 2311              		.type	aes_ctr4x, %function
 2312              	aes_ctr4x:
 2313              	.LFB17:
 487:..\aes256ctr.c ****   uint32_t w[16];
 2314              		.loc 1 487 0
 2315              		.cfi_startproc
 2316              		@ args = 0, pretend = 0, frame = 416
 2317              		@ frame_needed = 0, uses_anonymous_args = 0
 2318              	.LVL421:
 2319 0000 2DE9F04F 		push	{r4, r5, r6, r7, r8, r9, r10, fp, lr}
 2320              		.cfi_def_cfa_offset 36
 2321              		.cfi_offset 4, -36
 2322              		.cfi_offset 5, -32
 2323              		.cfi_offset 6, -28
 2324              		.cfi_offset 7, -24
 2325              		.cfi_offset 8, -20
 2326              		.cfi_offset 9, -16
 2327              		.cfi_offset 10, -12
 2328              		.cfi_offset 11, -8
 2329              		.cfi_offset 14, -4
 2330 0004 EBB0     		sub	sp, sp, #428
 2331              		.cfi_def_cfa_offset 464
 2332 0006 4490     		str	r0, [sp, #272]
 2333 0008 4591     		str	r1, [sp, #276]
 2334 000a 4392     		str	r2, [sp, #268]
 492:..\aes256ctr.c ****   for (i = 0; i < 4; i++) {
 2335              		.loc 1 492 0
 2336 000c 0F46     		mov	r7, r1
 2337 000e 5AAD     		add	r5, sp, #360
 2338 0010 01F14006 		add	r6, r1, #64
 2339              	.LVL422:
 2340              	.L38:
 2341 0014 2C46     		mov	r4, r5
 2342 0016 3868     		ldr	r0, [r7]	@ unaligned
 2343 0018 7968     		ldr	r1, [r7, #4]	@ unaligned
 2344 001a BA68     		ldr	r2, [r7, #8]	@ unaligned
 2345 001c FB68     		ldr	r3, [r7, #12]	@ unaligned
 2346 001e 0FC4     		stmia	r4!, {r0, r1, r2, r3}
 2347 0020 1037     		adds	r7, r7, #16
 2348 0022 2546     		mov	r5, r4
 2349 0024 B742     		cmp	r7, r6
 2350 0026 F5D1     		bne	.L38
 2351              	.LVL423:
 493:..\aes256ctr.c ****     br_aes_ct64_interleave_in(&q[i], &q[i + 4], w + (i << 2));
 2352              		.loc 1 493 0
 2353 0028 0024     		movs	r4, #0
 2354 002a 0BE0     		b	.L39
 2355              	.LVL424:
 2356              	.L40:
 494:..\aes256ctr.c ****   }
 2357              		.loc 1 494 0 discriminator 3
 2358 002c 211D     		adds	r1, r4, #4
 2359 002e 5AAB     		add	r3, sp, #360
 2360 0030 03EB0412 		add	r2, r3, r4, lsl #4
 2361 0034 4AAB     		add	r3, sp, #296
 2362 0036 03EBC101 		add	r1, r3, r1, lsl #3
ARM GAS  C:\Users\bogur\AppData\Local\Temp\cca0k2e0.s 			page 53


 2363 003a 03EBC400 		add	r0, r3, r4, lsl #3
 2364 003e FFF7FEFF 		bl	br_aes_ct64_interleave_in
 2365              	.LVL425:
 493:..\aes256ctr.c ****     br_aes_ct64_interleave_in(&q[i], &q[i + 4], w + (i << 2));
 2366              		.loc 1 493 0 discriminator 3
 2367 0042 0134     		adds	r4, r4, #1
 2368              	.LVL426:
 2369              	.L39:
 493:..\aes256ctr.c ****     br_aes_ct64_interleave_in(&q[i], &q[i + 4], w + (i << 2));
 2370              		.loc 1 493 0 is_stmt 0 discriminator 1
 2371 0044 032C     		cmp	r4, #3
 2372 0046 F1DD     		ble	.L40
 496:..\aes256ctr.c **** 
 2373              		.loc 1 496 0 is_stmt 1
 2374 0048 4AA8     		add	r0, sp, #296
 2375 004a FFF7FEFF 		bl	br_aes_ct64_ortho
 2376              	.LVL427:
 2377              	.LBB95:
 2378              	.LBB96:
 415:..\aes256ctr.c **** 	q[1] ^= sk[1];
 2379              		.loc 1 415 0
 2380 004e 439C     		ldr	r4, [sp, #268]
 2381              	.LVL428:
 2382 0050 D4E90001 		ldrd	r0, [r4]
 2383 0054 4AAB     		add	r3, sp, #296
 2384              	.LVL429:
 2385 0056 D3E90023 		ldrd	r2, [r3]
 2386 005a 4240     		eors	r2, r2, r0
 2387 005c 4B40     		eors	r3, r3, r1
 2388              	.LVL430:
 2389 005e 4AA9     		add	r1, sp, #296
 2390 0060 C1E90023 		strd	r2, [r1]
 416:..\aes256ctr.c **** 	q[2] ^= sk[2];
 2391              		.loc 1 416 0
 2392 0064 D4E90201 		ldrd	r0, [r4, #8]
 2393 0068 4CAB     		add	r3, sp, #304
 2394 006a D3E90023 		ldrd	r2, [r3]
 2395 006e 4240     		eors	r2, r2, r0
 2396 0070 4B40     		eors	r3, r3, r1
 2397 0072 4CA9     		add	r1, sp, #304
 2398 0074 C1E90023 		strd	r2, [r1]
 417:..\aes256ctr.c **** 	q[3] ^= sk[3];
 2399              		.loc 1 417 0
 2400 0078 D4E90401 		ldrd	r0, [r4, #16]
 2401 007c 4EAB     		add	r3, sp, #312
 2402 007e D3E90023 		ldrd	r2, [r3]
 2403 0082 4240     		eors	r2, r2, r0
 2404 0084 4B40     		eors	r3, r3, r1
 2405 0086 4EA9     		add	r1, sp, #312
 2406 0088 C1E90023 		strd	r2, [r1]
 418:..\aes256ctr.c **** 	q[4] ^= sk[4];
 2407              		.loc 1 418 0
 2408 008c D4E90601 		ldrd	r0, [r4, #24]
 2409 0090 50AB     		add	r3, sp, #320
 2410 0092 D3E90023 		ldrd	r2, [r3]
 2411 0096 4240     		eors	r2, r2, r0
 2412 0098 4B40     		eors	r3, r3, r1
ARM GAS  C:\Users\bogur\AppData\Local\Temp\cca0k2e0.s 			page 54


 2413 009a 50A9     		add	r1, sp, #320
 2414 009c C1E90023 		strd	r2, [r1]
 419:..\aes256ctr.c **** 	q[5] ^= sk[5];
 2415              		.loc 1 419 0
 2416 00a0 D4E90801 		ldrd	r0, [r4, #32]
 2417 00a4 52AB     		add	r3, sp, #328
 2418 00a6 D3E90023 		ldrd	r2, [r3]
 2419 00aa 4240     		eors	r2, r2, r0
 2420 00ac 4B40     		eors	r3, r3, r1
 2421 00ae 52A9     		add	r1, sp, #328
 2422 00b0 C1E90023 		strd	r2, [r1]
 420:..\aes256ctr.c **** 	q[6] ^= sk[6];
 2423              		.loc 1 420 0
 2424 00b4 D4E90A01 		ldrd	r0, [r4, #40]
 2425 00b8 54AB     		add	r3, sp, #336
 2426 00ba D3E90023 		ldrd	r2, [r3]
 2427 00be 4240     		eors	r2, r2, r0
 2428 00c0 4B40     		eors	r3, r3, r1
 2429 00c2 54A9     		add	r1, sp, #336
 2430 00c4 C1E90023 		strd	r2, [r1]
 421:..\aes256ctr.c **** 	q[7] ^= sk[7];
 2431              		.loc 1 421 0
 2432 00c8 D4E90C01 		ldrd	r0, [r4, #48]
 2433 00cc 56AB     		add	r3, sp, #344
 2434 00ce D3E90023 		ldrd	r2, [r3]
 2435 00d2 4240     		eors	r2, r2, r0
 2436 00d4 4B40     		eors	r3, r3, r1
 2437 00d6 56A9     		add	r1, sp, #344
 2438 00d8 C1E90023 		strd	r2, [r1]
 422:..\aes256ctr.c **** }
 2439              		.loc 1 422 0
 2440 00dc D4E90E01 		ldrd	r0, [r4, #56]
 2441 00e0 58AB     		add	r3, sp, #352
 2442 00e2 D3E90023 		ldrd	r2, [r3]
 2443 00e6 4240     		eors	r2, r2, r0
 2444 00e8 4B40     		eors	r3, r3, r1
 2445 00ea 58A9     		add	r1, sp, #352
 2446 00ec C1E90023 		strd	r2, [r1]
 2447              	.LBE96:
 2448              	.LBE95:
 499:..\aes256ctr.c ****     br_aes_ct64_bitslice_Sbox(q);
 2449              		.loc 1 499 0
 2450 00f0 0123     		movs	r3, #1
 2451 00f2 4293     		str	r3, [sp, #264]
 2452 00f4 F7E1     		b	.L41
 2453              	.LVL431:
 2454              	.L44:
 500:..\aes256ctr.c ****     shift_rows(q);
 2455              		.loc 1 500 0 discriminator 3
 2456 00f6 4AA8     		add	r0, sp, #296
 2457 00f8 FFF7FEFF 		bl	br_aes_ct64_bitslice_Sbox
 2458              	.LVL432:
 2459              	.LBB97:
 2460              	.LBB98:
 429:..\aes256ctr.c **** 		uint64_t x;
 2461              		.loc 1 429 0 discriminator 3
 2462 00fc 4FF0000C 		mov	ip, #0
ARM GAS  C:\Users\bogur\AppData\Local\Temp\cca0k2e0.s 			page 55


 2463 0100 E646     		mov	lr, ip
 2464 0102 65E0     		b	.L42
 2465              	.LVL433:
 2466              	.L43:
 2467              	.LBB99:
 432:..\aes256ctr.c **** 		q[i] = (x & (uint64_t)0x000000000000FFFF)
 2468              		.loc 1 432 0
 2469 0104 4AAA     		add	r2, sp, #296
 2470 0106 02EBCE06 		add	r6, r2, lr, lsl #3
 2471 010a 3768     		ldr	r7, [r6]
 2472 010c D6F804C0 		ldr	ip, [r6, #4]
 2473              	.LVL434:
 433:..\aes256ctr.c **** 			| ((x & (uint64_t)0x00000000FFF00000) >> 4)
 2474              		.loc 1 433 0
 2475 0110 B8B2     		uxth	r0, r7
 2476 0112 0021     		movs	r1, #0
 434:..\aes256ctr.c **** 			| ((x & (uint64_t)0x00000000000F0000) << 12)
 2477              		.loc 1 434 0
 2478 0114 4FEA171A 		lsr	r10, r7, #4
 2479 0118 4AEA0C7A 		orr	r10, r10, ip, lsl #28
 2480 011c 4FEA1C1B 		lsr	fp, ip, #4
 2481 0120 294A     		ldr	r2, .L50
 2482 0122 0023     		movs	r3, #0
 2483              	.LVL435:
 2484 0124 02EA0A02 		and	r2, r2, r10
 2485 0128 03EA0B03 		and	r3, r3, fp
 2486 012c 0243     		orrs	r2, r2, r0
 2487 012e 0B43     		orrs	r3, r3, r1
 435:..\aes256ctr.c **** 			| ((x & (uint64_t)0x0000FF0000000000) >> 8)
 2488              		.loc 1 435 0
 2489 0130 4FEA0738 		lsl	r8, r7, #12
 2490 0134 08F07040 		and	r0, r8, #-268435456
 2491 0138 0021     		movs	r1, #0
 2492 013a 0243     		orrs	r2, r2, r0
 2493 013c 0B43     		orrs	r3, r3, r1
 436:..\aes256ctr.c **** 			| ((x & (uint64_t)0x000000FF00000000) << 8)
 2494              		.loc 1 436 0
 2495 013e 390A     		lsrs	r1, r7, #8
 2496 0140 41EA0C61 		orr	r1, r1, ip, lsl #24
 2497 0144 0291     		str	r1, [sp, #8]
 2498 0146 4FEA1C21 		lsr	r1, ip, #8
 2499 014a 0391     		str	r1, [sp, #12]
 2500 014c DDE90201 		ldrd	r0, [sp, #8]
 2501 0150 0020     		movs	r0, #0
 2502 0152 01F0FF01 		and	r1, r1, #255
 2503 0156 0243     		orrs	r2, r2, r0
 2504 0158 0B43     		orrs	r3, r3, r1
 437:..\aes256ctr.c **** 			| ((x & (uint64_t)0xF000000000000000) >> 12)
 2505              		.loc 1 437 0
 2506 015a 4FEA0C21 		lsl	r1, ip, #8
 2507 015e 41EA1761 		orr	r1, r1, r7, lsr #24
 2508 0162 0591     		str	r1, [sp, #20]
 2509 0164 3902     		lsls	r1, r7, #8
 2510 0166 0491     		str	r1, [sp, #16]
 2511 0168 DDE90401 		ldrd	r0, [sp, #16]
 2512 016c 0020     		movs	r0, #0
 2513 016e 01F47F41 		and	r1, r1, #65280
ARM GAS  C:\Users\bogur\AppData\Local\Temp\cca0k2e0.s 			page 56


 2514 0172 0243     		orrs	r2, r2, r0
 2515 0174 0B43     		orrs	r3, r3, r1
 438:..\aes256ctr.c **** 			| ((x & (uint64_t)0x0FFF000000000000) << 4);
 2516              		.loc 1 438 0
 2517 0176 390B     		lsrs	r1, r7, #12
 2518 0178 41EA0C51 		orr	r1, r1, ip, lsl #20
 2519 017c 0691     		str	r1, [sp, #24]
 2520 017e 4FEA1C31 		lsr	r1, ip, #12
 2521 0182 0791     		str	r1, [sp, #28]
 2522 0184 DDE90601 		ldrd	r0, [sp, #24]
 2523 0188 0020     		movs	r0, #0
 2524 018a 01F47021 		and	r1, r1, #983040
 2525 018e 42EA0004 		orr	r4, r2, r0
 2526 0192 43EA0105 		orr	r5, r3, r1
 439:..\aes256ctr.c **** 	}
 2527              		.loc 1 439 0
 2528 0196 4FEA0C11 		lsl	r1, ip, #4
 2529 019a 41EA1771 		orr	r1, r1, r7, lsr #28
 2530 019e 0991     		str	r1, [sp, #36]
 2531 01a0 3901     		lsls	r1, r7, #4
 2532 01a2 0891     		str	r1, [sp, #32]
 2533 01a4 0020     		movs	r0, #0
 2534 01a6 0949     		ldr	r1, .L50+4
 2535 01a8 DDE90823 		ldrd	r2, [sp, #32]
 2536 01ac 0240     		ands	r2, r2, r0
 2537 01ae 0B40     		ands	r3, r3, r1
 2538 01b0 1046     		mov	r0, r2
 2539 01b2 1946     		mov	r1, r3
 2540 01b4 2246     		mov	r2, r4
 2541 01b6 2B46     		mov	r3, r5
 2542 01b8 0243     		orrs	r2, r2, r0
 2543 01ba 0B43     		orrs	r3, r3, r1
 433:..\aes256ctr.c **** 			| ((x & (uint64_t)0x00000000FFF00000) >> 4)
 2544              		.loc 1 433 0
 2545 01bc C6E90023 		strd	r2, [r6]
 2546              	.LBE99:
 429:..\aes256ctr.c **** 		uint64_t x;
 2547              		.loc 1 429 0
 2548 01c0 7346     		mov	r3, lr
 2549 01c2 0133     		adds	r3, r3, #1
 2550 01c4 9E46     		mov	lr, r3
 2551 01c6 03E0     		b	.L51
 2552              	.L52:
 2553              		.align	2
 2554              	.L50:
 2555 01c8 0000FF0F 		.word	268369920
 2556 01cc 0000F0FF 		.word	-1048576
 2557              	.L51:
 2558              	.LVL436:
 2559              	.L42:
 2560 01d0 7346     		mov	r3, lr
 2561 01d2 072B     		cmp	r3, #7
 2562 01d4 96DD     		ble	.L43
 2563              	.LVL437:
 2564              	.LBE98:
 2565              	.LBE97:
 2566              	.LBB100:
ARM GAS  C:\Users\bogur\AppData\Local\Temp\cca0k2e0.s 			page 57


 2567              	.LBB101:
 453:..\aes256ctr.c **** 	q1 = q[1];
 2568              		.loc 1 453 0
 2569 01d6 4AAB     		add	r3, sp, #296
 2570 01d8 D3E90023 		ldrd	r2, [r3]
 2571              	.LVL438:
 461:..\aes256ctr.c **** 	r1 = (q1 >> 16) | (q1 << 48);
 2572              		.loc 1 461 0
 2573 01dc 110C     		lsrs	r1, r2, #16
 2574 01de 41EA0341 		orr	r1, r1, r3, lsl #16
 2575 01e2 0C91     		str	r1, [sp, #48]
 2576 01e4 190C     		lsrs	r1, r3, #16
 2577 01e6 41EA0241 		orr	r1, r1, r2, lsl #16
 2578 01ea 0D91     		str	r1, [sp, #52]
 2579              	.LVL439:
 462:..\aes256ctr.c **** 	r2 = (q2 >> 16) | (q2 << 48);
 2580              		.loc 1 462 0
 2581 01ec 4C99     		ldr	r1, [sp, #304]
 2582 01ee 090C     		lsrs	r1, r1, #16
 2583 01f0 4D98     		ldr	r0, [sp, #308]
 2584 01f2 41EA0041 		orr	r1, r1, r0, lsl #16
 2585 01f6 0E91     		str	r1, [sp, #56]
 2586 01f8 010C     		lsrs	r1, r0, #16
 2587 01fa 4C98     		ldr	r0, [sp, #304]
 2588 01fc 41EA0041 		orr	r1, r1, r0, lsl #16
 2589 0200 0F91     		str	r1, [sp, #60]
 2590              	.LVL440:
 463:..\aes256ctr.c **** 	r3 = (q3 >> 16) | (q3 << 48);
 2591              		.loc 1 463 0
 2592 0202 4E99     		ldr	r1, [sp, #312]
 2593 0204 090C     		lsrs	r1, r1, #16
 2594 0206 4F98     		ldr	r0, [sp, #316]
 2595 0208 41EA0041 		orr	r1, r1, r0, lsl #16
 2596 020c 1091     		str	r1, [sp, #64]
 2597 020e 010C     		lsrs	r1, r0, #16
 2598 0210 4E98     		ldr	r0, [sp, #312]
 2599 0212 41EA0041 		orr	r1, r1, r0, lsl #16
 2600 0216 1191     		str	r1, [sp, #68]
 2601              	.LVL441:
 464:..\aes256ctr.c **** 	r4 = (q4 >> 16) | (q4 << 48);
 2602              		.loc 1 464 0
 2603 0218 5099     		ldr	r1, [sp, #320]
 2604 021a 090C     		lsrs	r1, r1, #16
 2605 021c 5198     		ldr	r0, [sp, #324]
 2606 021e 41EA0041 		orr	r1, r1, r0, lsl #16
 2607 0222 1291     		str	r1, [sp, #72]
 2608 0224 010C     		lsrs	r1, r0, #16
 2609 0226 5098     		ldr	r0, [sp, #320]
 2610 0228 41EA0041 		orr	r1, r1, r0, lsl #16
 2611 022c 1391     		str	r1, [sp, #76]
 2612              	.LVL442:
 465:..\aes256ctr.c **** 	r5 = (q5 >> 16) | (q5 << 48);
 2613              		.loc 1 465 0
 2614 022e 5299     		ldr	r1, [sp, #328]
 2615 0230 090C     		lsrs	r1, r1, #16
 2616 0232 5398     		ldr	r0, [sp, #332]
 2617 0234 41EA0041 		orr	r1, r1, r0, lsl #16
ARM GAS  C:\Users\bogur\AppData\Local\Temp\cca0k2e0.s 			page 58


 2618 0238 2091     		str	r1, [sp, #128]
 2619 023a 010C     		lsrs	r1, r0, #16
 2620 023c 5298     		ldr	r0, [sp, #328]
 2621 023e 41EA0041 		orr	r1, r1, r0, lsl #16
 2622 0242 2191     		str	r1, [sp, #132]
 2623              	.LVL443:
 466:..\aes256ctr.c **** 	r6 = (q6 >> 16) | (q6 << 48);
 2624              		.loc 1 466 0
 2625 0244 5499     		ldr	r1, [sp, #336]
 2626 0246 090C     		lsrs	r1, r1, #16
 2627 0248 5598     		ldr	r0, [sp, #340]
 2628 024a 41EA0041 		orr	r1, r1, r0, lsl #16
 2629 024e 1491     		str	r1, [sp, #80]
 2630 0250 010C     		lsrs	r1, r0, #16
 2631 0252 5498     		ldr	r0, [sp, #336]
 2632 0254 41EA0041 		orr	r1, r1, r0, lsl #16
 2633 0258 1591     		str	r1, [sp, #84]
 2634              	.LVL444:
 467:..\aes256ctr.c **** 	r7 = (q7 >> 16) | (q7 << 48);
 2635              		.loc 1 467 0
 2636 025a 5699     		ldr	r1, [sp, #344]
 2637 025c 090C     		lsrs	r1, r1, #16
 2638 025e 5798     		ldr	r0, [sp, #348]
 2639 0260 41EA0041 		orr	r1, r1, r0, lsl #16
 2640 0264 1691     		str	r1, [sp, #88]
 2641 0266 010C     		lsrs	r1, r0, #16
 2642 0268 5698     		ldr	r0, [sp, #344]
 2643 026a 41EA0041 		orr	r1, r1, r0, lsl #16
 2644 026e 1791     		str	r1, [sp, #92]
 2645              	.LVL445:
 468:..\aes256ctr.c **** 
 2646              		.loc 1 468 0
 2647 0270 5899     		ldr	r1, [sp, #352]
 2648 0272 090C     		lsrs	r1, r1, #16
 2649 0274 5998     		ldr	r0, [sp, #356]
 2650 0276 41EA0041 		orr	r1, r1, r0, lsl #16
 2651 027a 0A91     		str	r1, [sp, #40]
 2652 027c 010C     		lsrs	r1, r0, #16
 2653 027e 5898     		ldr	r0, [sp, #352]
 2654 0280 41EA0041 		orr	r1, r1, r0, lsl #16
 2655 0284 0B91     		str	r1, [sp, #44]
 2656              	.LVL446:
 470:..\aes256ctr.c **** 	q[1] = q0 ^ r0 ^ q7 ^ r7 ^ r1 ^ rotr32(q1 ^ r1);
 2657              		.loc 1 470 0
 2658 0286 DDE90A01 		ldrd	r0, [sp, #40]
 2659 028a 58AC     		add	r4, sp, #352
 2660 028c D4E90045 		ldrd	r4, [r4]
 2661 0290 4440     		eors	r4, r4, r0
 2662 0292 4D40     		eors	r5, r5, r1
 2663 0294 2046     		mov	r0, r4
 2664 0296 2946     		mov	r1, r5
 2665 0298 2646     		mov	r6, r4
 2666 029a 2F46     		mov	r7, r5
 2667 029c DDE90C45 		ldrd	r4, [sp, #48]
 2668 02a0 CDE93267 		strd	r6, [sp, #200]
 2669 02a4 4440     		eors	r4, r4, r0
 2670 02a6 4D40     		eors	r5, r5, r1
ARM GAS  C:\Users\bogur\AppData\Local\Temp\cca0k2e0.s 			page 59


 2671 02a8 2046     		mov	r0, r4
 2672 02aa 2946     		mov	r1, r5
 2673 02ac DDE90C45 		ldrd	r4, [sp, #48]
 2674 02b0 5440     		eors	r4, r4, r2
 2675 02b2 5D40     		eors	r5, r5, r3
 2676 02b4 2246     		mov	r2, r4
 2677              	.LVL447:
 2678 02b6 2B46     		mov	r3, r5
 2679              	.LVL448:
 2680              	.LBB102:
 2681              	.LBB103:
 445:..\aes256ctr.c **** }
 2682              		.loc 1 445 0
 2683 02b8 2295     		str	r5, [sp, #136]
 2684 02ba 2394     		str	r4, [sp, #140]
 2685              	.LVL449:
 2686              	.LBE103:
 2687              	.LBE102:
 470:..\aes256ctr.c **** 	q[1] = q0 ^ r0 ^ q7 ^ r7 ^ r1 ^ rotr32(q1 ^ r1);
 2688              		.loc 1 470 0
 2689 02bc DDE92245 		ldrd	r4, [sp, #136]
 2690 02c0 4440     		eors	r4, r4, r0
 2691 02c2 4D40     		eors	r5, r5, r1
 2692 02c4 CDE93445 		strd	r4, [sp, #208]
 471:..\aes256ctr.c **** 	q[2] = q1 ^ r1 ^ r2 ^ rotr32(q2 ^ r2);
 2693              		.loc 1 471 0
 2694 02c8 58A9     		add	r1, sp, #352
 2695 02ca D1E90001 		ldrd	r0, [r1]
 2696 02ce 5040     		eors	r0, r0, r2
 2697 02d0 5940     		eors	r1, r1, r3
 2698 02d2 0246     		mov	r2, r0
 2699 02d4 0B46     		mov	r3, r1
 2700 02d6 DDE90A01 		ldrd	r0, [sp, #40]
 2701 02da 5040     		eors	r0, r0, r2
 2702 02dc 5940     		eors	r1, r1, r3
 2703 02de DDE90E56 		ldrd	r5, [sp, #56]
 2704 02e2 4540     		eors	r5, r5, r0
 2705 02e4 4E40     		eors	r6, r6, r1
 2706 02e6 2A46     		mov	r2, r5
 2707 02e8 3346     		mov	r3, r6
 2708 02ea 4CA9     		add	r1, sp, #304
 2709 02ec D1E90001 		ldrd	r0, [r1]
 2710 02f0 DDE90E56 		ldrd	r5, [sp, #56]
 2711 02f4 6840     		eors	r0, r0, r5
 2712 02f6 7140     		eors	r1, r1, r6
 2713              	.LVL450:
 2714              	.LBB104:
 2715              	.LBB105:
 445:..\aes256ctr.c **** }
 2716              		.loc 1 445 0
 2717 02f8 2491     		str	r1, [sp, #144]
 2718 02fa 2590     		str	r0, [sp, #148]
 2719              	.LVL451:
 2720              	.LBE105:
 2721              	.LBE104:
 471:..\aes256ctr.c **** 	q[2] = q1 ^ r1 ^ r2 ^ rotr32(q2 ^ r2);
 2722              		.loc 1 471 0
ARM GAS  C:\Users\bogur\AppData\Local\Temp\cca0k2e0.s 			page 60


 2723 02fc DDE92456 		ldrd	r5, [sp, #144]
 2724 0300 5540     		eors	r5, r5, r2
 2725 0302 5E40     		eors	r6, r6, r3
 2726 0304 CDE93656 		strd	r5, [sp, #216]
 472:..\aes256ctr.c **** 	q[3] = q2 ^ r2 ^ q7 ^ r7 ^ r3 ^ rotr32(q3 ^ r3);
 2727              		.loc 1 472 0
 2728 0308 DDE91034 		ldrd	r3, [sp, #64]
 2729 030c 4340     		eors	r3, r3, r0
 2730 030e 4C40     		eors	r4, r4, r1
 2731 0310 1846     		mov	r0, r3
 2732 0312 2146     		mov	r1, r4
 2733 0314 4EAB     		add	r3, sp, #312
 2734 0316 D3E90067 		ldrd	r6, [r3]
 2735 031a DDE91034 		ldrd	r3, [sp, #64]
 2736 031e 5E40     		eors	r6, r6, r3
 2737 0320 6740     		eors	r7, r7, r4
 2738 0322 3246     		mov	r2, r6
 2739 0324 3B46     		mov	r3, r7
 2740              	.LVL452:
 2741              	.LBB106:
 2742              	.LBB107:
 445:..\aes256ctr.c **** }
 2743              		.loc 1 445 0
 2744 0326 2697     		str	r7, [sp, #152]
 2745 0328 2796     		str	r6, [sp, #156]
 2746              	.LVL453:
 2747              	.LBE107:
 2748              	.LBE106:
 472:..\aes256ctr.c **** 	q[3] = q2 ^ r2 ^ q7 ^ r7 ^ r3 ^ rotr32(q3 ^ r3);
 2749              		.loc 1 472 0
 2750 032a DDE92667 		ldrd	r6, [sp, #152]
 2751 032e 4640     		eors	r6, r6, r0
 2752 0330 4F40     		eors	r7, r7, r1
 2753 0332 CDE93867 		strd	r6, [sp, #224]
 473:..\aes256ctr.c **** 	q[4] = q3 ^ r3 ^ q7 ^ r7 ^ r4 ^ rotr32(q4 ^ r4);
 2754              		.loc 1 473 0
 2755 0336 58A9     		add	r1, sp, #352
 2756 0338 D1E90001 		ldrd	r0, [r1]
 2757 033c 5040     		eors	r0, r0, r2
 2758 033e 5940     		eors	r1, r1, r3
 2759 0340 0246     		mov	r2, r0
 2760 0342 0B46     		mov	r3, r1
 2761 0344 DDE90A01 		ldrd	r0, [sp, #40]
 2762 0348 5040     		eors	r0, r0, r2
 2763 034a 5940     		eors	r1, r1, r3
 2764 034c DDE91256 		ldrd	r5, [sp, #72]
 2765 0350 4540     		eors	r5, r5, r0
 2766 0352 4E40     		eors	r6, r6, r1
 2767 0354 2A46     		mov	r2, r5
 2768 0356 3346     		mov	r3, r6
 2769 0358 50A9     		add	r1, sp, #320
 2770 035a D1E90001 		ldrd	r0, [r1]
 2771 035e DDE91256 		ldrd	r5, [sp, #72]
 2772 0362 6840     		eors	r0, r0, r5
 2773 0364 7140     		eors	r1, r1, r6
 2774              	.LVL454:
 2775              	.LBB108:
ARM GAS  C:\Users\bogur\AppData\Local\Temp\cca0k2e0.s 			page 61


 2776              	.LBB109:
 445:..\aes256ctr.c **** }
 2777              		.loc 1 445 0
 2778 0366 2891     		str	r1, [sp, #160]
 2779 0368 2990     		str	r0, [sp, #164]
 2780              	.LVL455:
 2781              	.LBE109:
 2782              	.LBE108:
 473:..\aes256ctr.c **** 	q[4] = q3 ^ r3 ^ q7 ^ r7 ^ r4 ^ rotr32(q4 ^ r4);
 2783              		.loc 1 473 0
 2784 036a DDE92856 		ldrd	r5, [sp, #160]
 2785 036e 5540     		eors	r5, r5, r2
 2786 0370 5E40     		eors	r6, r6, r3
 2787 0372 CDE93A56 		strd	r5, [sp, #232]
 474:..\aes256ctr.c **** 	q[5] = q4 ^ r4 ^ r5 ^ rotr32(q5 ^ r5);
 2788              		.loc 1 474 0
 2789 0376 58AB     		add	r3, sp, #352
 2790 0378 D3E90023 		ldrd	r2, [r3]
 2791 037c 4240     		eors	r2, r2, r0
 2792 037e 4B40     		eors	r3, r3, r1
 2793 0380 DDE90A67 		ldrd	r6, [sp, #40]
 2794 0384 5640     		eors	r6, r6, r2
 2795 0386 5F40     		eors	r7, r7, r3
 2796 0388 DDE92001 		ldrd	r0, [sp, #128]
 2797 038c 0446     		mov	r4, r0
 2798 038e 0D46     		mov	r5, r1
 2799 0390 7440     		eors	r4, r4, r6
 2800 0392 7D40     		eors	r5, r5, r7
 2801 0394 2246     		mov	r2, r4
 2802 0396 2B46     		mov	r3, r5
 2803 0398 52AC     		add	r4, sp, #328
 2804 039a D4E90067 		ldrd	r6, [r4]
 2805 039e 4640     		eors	r6, r6, r0
 2806 03a0 4F40     		eors	r7, r7, r1
 2807              	.LBB110:
 2808              	.LBB111:
 445:..\aes256ctr.c **** }
 2809              		.loc 1 445 0
 2810 03a2 2A97     		str	r7, [sp, #168]
 2811 03a4 2B96     		str	r6, [sp, #172]
 2812              	.LBE111:
 2813              	.LBE110:
 474:..\aes256ctr.c **** 	q[5] = q4 ^ r4 ^ r5 ^ rotr32(q5 ^ r5);
 2814              		.loc 1 474 0
 2815 03a6 DDE92A45 		ldrd	r4, [sp, #168]
 2816 03aa 5440     		eors	r4, r4, r2
 2817 03ac 5D40     		eors	r5, r5, r3
 2818 03ae CDE93C45 		strd	r4, [sp, #240]
 475:..\aes256ctr.c **** 	q[6] = q5 ^ r5 ^ r6 ^ rotr32(q6 ^ r6);
 2819              		.loc 1 475 0
 2820 03b2 DDE91434 		ldrd	r3, [sp, #80]
 2821 03b6 7340     		eors	r3, r3, r6
 2822 03b8 7C40     		eors	r4, r4, r7
 2823 03ba 1846     		mov	r0, r3
 2824 03bc 2146     		mov	r1, r4
 2825 03be 54AB     		add	r3, sp, #336
 2826 03c0 D3E90056 		ldrd	r5, [r3]
ARM GAS  C:\Users\bogur\AppData\Local\Temp\cca0k2e0.s 			page 62


 2827 03c4 DDE91434 		ldrd	r3, [sp, #80]
 2828 03c8 5D40     		eors	r5, r5, r3
 2829 03ca 6640     		eors	r6, r6, r4
 2830 03cc 2A46     		mov	r2, r5
 2831 03ce 3346     		mov	r3, r6
 2832              	.LVL456:
 2833              	.LBB112:
 2834              	.LBB113:
 445:..\aes256ctr.c **** }
 2835              		.loc 1 445 0
 2836 03d0 2C96     		str	r6, [sp, #176]
 2837 03d2 2D95     		str	r5, [sp, #180]
 2838              	.LVL457:
 2839              	.LBE113:
 2840              	.LBE112:
 475:..\aes256ctr.c **** 	q[6] = q5 ^ r5 ^ r6 ^ rotr32(q6 ^ r6);
 2841              		.loc 1 475 0
 2842 03d4 DDE92C56 		ldrd	r5, [sp, #176]
 2843 03d8 4540     		eors	r5, r5, r0
 2844 03da 4E40     		eors	r6, r6, r1
 2845 03dc CDE93E56 		strd	r5, [sp, #248]
 476:..\aes256ctr.c **** 	q[7] = q6 ^ r6 ^ r7 ^ rotr32(q7 ^ r7);
 2846              		.loc 1 476 0
 2847 03e0 DDE91656 		ldrd	r5, [sp, #88]
 2848 03e4 5540     		eors	r5, r5, r2
 2849 03e6 5E40     		eors	r6, r6, r3
 2850 03e8 2846     		mov	r0, r5
 2851 03ea 3146     		mov	r1, r6
 2852 03ec 56AB     		add	r3, sp, #344
 2853 03ee D3E90067 		ldrd	r6, [r3]
 2854 03f2 DDE91634 		ldrd	r3, [sp, #88]
 2855 03f6 5E40     		eors	r6, r6, r3
 2856 03f8 6740     		eors	r7, r7, r4
 2857 03fa 3246     		mov	r2, r6
 2858 03fc 3B46     		mov	r3, r7
 2859              	.LVL458:
 2860              	.LBB114:
 2861              	.LBB115:
 445:..\aes256ctr.c **** }
 2862              		.loc 1 445 0
 2863 03fe 2E97     		str	r7, [sp, #184]
 2864 0400 2F96     		str	r6, [sp, #188]
 2865              	.LVL459:
 2866              	.LBE115:
 2867              	.LBE114:
 476:..\aes256ctr.c **** 	q[7] = q6 ^ r6 ^ r7 ^ rotr32(q7 ^ r7);
 2868              		.loc 1 476 0
 2869 0402 DDE92E56 		ldrd	r5, [sp, #184]
 2870 0406 4540     		eors	r5, r5, r0
 2871 0408 4E40     		eors	r6, r6, r1
 2872 040a 40A9     		add	r1, sp, #256
 2873 040c C1E90056 		strd	r5, [r1]
 477:..\aes256ctr.c **** }
 2874              		.loc 1 477 0
 2875 0410 DDE90A67 		ldrd	r6, [sp, #40]
 2876 0414 5640     		eors	r6, r6, r2
 2877 0416 5F40     		eors	r7, r7, r3
ARM GAS  C:\Users\bogur\AppData\Local\Temp\cca0k2e0.s 			page 63


 2878 0418 3246     		mov	r2, r6
 2879 041a 3B46     		mov	r3, r7
 2880              	.LVL460:
 2881              	.LBB116:
 2882              	.LBB117:
 445:..\aes256ctr.c **** }
 2883              		.loc 1 445 0
 2884 041c DDE93267 		ldrd	r6, [sp, #200]
 2885 0420 3097     		str	r7, [sp, #192]
 2886 0422 3196     		str	r6, [sp, #196]
 2887              	.LVL461:
 2888              	.LBE117:
 2889              	.LBE116:
 477:..\aes256ctr.c **** }
 2890              		.loc 1 477 0
 2891 0424 DDE93067 		ldrd	r6, [sp, #192]
 2892 0428 5640     		eors	r6, r6, r2
 2893 042a 5F40     		eors	r7, r7, r3
 2894              	.LVL462:
 2895              	.LBE101:
 2896              	.LBE100:
 503:..\aes256ctr.c ****   }
 2897              		.loc 1 503 0
 2898 042c 439B     		ldr	r3, [sp, #268]
 2899 042e 1946     		mov	r1, r3
 2900 0430 429B     		ldr	r3, [sp, #264]
 2901 0432 01EB831E 		add	lr, r1, r3, lsl #6
 2902              	.LVL463:
 2903              	.LBB118:
 2904              	.LBB119:
 415:..\aes256ctr.c **** 	q[1] ^= sk[1];
 2905              		.loc 1 415 0
 2906 0436 DEE90001 		ldrd	r0, [lr]
 2907 043a DDE93445 		ldrd	r4, [sp, #208]
 2908 043e 4440     		eors	r4, r4, r0
 2909 0440 4D40     		eors	r5, r5, r1
 2910 0442 2046     		mov	r0, r4
 2911 0444 2946     		mov	r1, r5
 2912 0446 4AAB     		add	r3, sp, #296
 2913 0448 C3E90001 		strd	r0, [r3]
 416:..\aes256ctr.c **** 	q[2] ^= sk[2];
 2914              		.loc 1 416 0
 2915 044c DEE90223 		ldrd	r2, [lr, #8]
 2916 0450 DDE93601 		ldrd	r0, [sp, #216]
 2917 0454 5040     		eors	r0, r0, r2
 2918 0456 5940     		eors	r1, r1, r3
 2919 0458 0246     		mov	r2, r0
 2920 045a 0B46     		mov	r3, r1
 2921 045c 4CA9     		add	r1, sp, #304
 2922 045e C1E90023 		strd	r2, [r1]
 417:..\aes256ctr.c **** 	q[3] ^= sk[3];
 2923              		.loc 1 417 0
 2924 0462 DEE90401 		ldrd	r0, [lr, #16]
 2925 0466 DDE93823 		ldrd	r2, [sp, #224]
 2926 046a 4240     		eors	r2, r2, r0
 2927 046c 4B40     		eors	r3, r3, r1
 2928 046e 1046     		mov	r0, r2
ARM GAS  C:\Users\bogur\AppData\Local\Temp\cca0k2e0.s 			page 64


 2929 0470 1946     		mov	r1, r3
 2930 0472 4EAB     		add	r3, sp, #312
 2931 0474 C3E90001 		strd	r0, [r3]
 418:..\aes256ctr.c **** 	q[4] ^= sk[4];
 2932              		.loc 1 418 0
 2933 0478 DEE90623 		ldrd	r2, [lr, #24]
 2934 047c DDE93A01 		ldrd	r0, [sp, #232]
 2935 0480 5040     		eors	r0, r0, r2
 2936 0482 5940     		eors	r1, r1, r3
 2937 0484 0246     		mov	r2, r0
 2938 0486 0B46     		mov	r3, r1
 2939 0488 50A9     		add	r1, sp, #320
 2940 048a C1E90023 		strd	r2, [r1]
 419:..\aes256ctr.c **** 	q[5] ^= sk[5];
 2941              		.loc 1 419 0
 2942 048e DEE90823 		ldrd	r2, [lr, #32]
 2943 0492 DDE93C45 		ldrd	r4, [sp, #240]
 2944 0496 5440     		eors	r4, r4, r2
 2945 0498 5D40     		eors	r5, r5, r3
 2946 049a 2246     		mov	r2, r4
 2947 049c 2B46     		mov	r3, r5
 2948 049e 52A9     		add	r1, sp, #328
 2949 04a0 C1E90023 		strd	r2, [r1]
 420:..\aes256ctr.c **** 	q[6] ^= sk[6];
 2950              		.loc 1 420 0
 2951 04a4 DEE90A01 		ldrd	r0, [lr, #40]
 2952 04a8 DDE93E23 		ldrd	r2, [sp, #248]
 2953 04ac 4240     		eors	r2, r2, r0
 2954 04ae 4B40     		eors	r3, r3, r1
 2955 04b0 1046     		mov	r0, r2
 2956 04b2 1946     		mov	r1, r3
 2957 04b4 54AB     		add	r3, sp, #336
 2958 04b6 C3E90001 		strd	r0, [r3]
 421:..\aes256ctr.c **** 	q[7] ^= sk[7];
 2959              		.loc 1 421 0
 2960 04ba DEE90C23 		ldrd	r2, [lr, #48]
 2961 04be 40A9     		add	r1, sp, #256
 2962 04c0 D1E90001 		ldrd	r0, [r1]
 2963 04c4 5040     		eors	r0, r0, r2
 2964 04c6 5940     		eors	r1, r1, r3
 2965 04c8 0246     		mov	r2, r0
 2966 04ca 0B46     		mov	r3, r1
 2967 04cc 56A9     		add	r1, sp, #344
 2968 04ce C1E90023 		strd	r2, [r1]
 422:..\aes256ctr.c **** }
 2969              		.loc 1 422 0
 2970 04d2 DEE90E23 		ldrd	r2, [lr, #56]
 2971 04d6 7240     		eors	r2, r2, r6
 2972 04d8 7B40     		eors	r3, r3, r7
 2973 04da 58A9     		add	r1, sp, #352
 2974 04dc C1E90023 		strd	r2, [r1]
 2975              	.LVL464:
 2976              	.LBE119:
 2977              	.LBE118:
 499:..\aes256ctr.c ****     br_aes_ct64_bitslice_Sbox(q);
 2978              		.loc 1 499 0
 2979 04e0 429B     		ldr	r3, [sp, #264]
ARM GAS  C:\Users\bogur\AppData\Local\Temp\cca0k2e0.s 			page 65


 2980 04e2 0133     		adds	r3, r3, #1
 2981 04e4 4293     		str	r3, [sp, #264]
 2982              	.LVL465:
 2983              	.L41:
 499:..\aes256ctr.c ****     br_aes_ct64_bitslice_Sbox(q);
 2984              		.loc 1 499 0 is_stmt 0 discriminator 1
 2985 04e6 429B     		ldr	r3, [sp, #264]
 2986 04e8 0D2B     		cmp	r3, #13
 2987 04ea 7FF704AE 		ble	.L44
 505:..\aes256ctr.c ****   shift_rows(q);
 2988              		.loc 1 505 0 is_stmt 1
 2989 04ee 4AA8     		add	r0, sp, #296
 2990 04f0 FFF7FEFF 		bl	br_aes_ct64_bitslice_Sbox
 2991              	.LVL466:
 2992              	.LBB120:
 2993              	.LBB121:
 429:..\aes256ctr.c **** 		uint64_t x;
 2994              		.loc 1 429 0
 2995 04f4 0027     		movs	r7, #0
 2996 04f6 3846     		mov	r0, r7
 2997 04f8 5BE0     		b	.L45
 2998              	.LVL467:
 2999              	.L46:
 3000              	.LBB122:
 432:..\aes256ctr.c **** 		q[i] = (x & (uint64_t)0x000000000000FFFF)
 3001              		.loc 1 432 0
 3002 04fa 4AAB     		add	r3, sp, #296
 3003 04fc 03EBC001 		add	r1, r3, r0, lsl #3
 3004 0500 0B68     		ldr	r3, [r1]
 3005 0502 4A68     		ldr	r2, [r1, #4]
 3006              	.LVL468:
 433:..\aes256ctr.c **** 			| ((x & (uint64_t)0x00000000FFF00000) >> 4)
 3007              		.loc 1 433 0
 3008 0504 9EB2     		uxth	r6, r3
 3009 0506 0027     		movs	r7, #0
 3010 0508 CDE90267 		strd	r6, [sp, #8]
 434:..\aes256ctr.c **** 			| ((x & (uint64_t)0x00000000000F0000) << 12)
 3011              		.loc 1 434 0
 3012 050c 1C09     		lsrs	r4, r3, #4
 3013 050e 44EA0274 		orr	r4, r4, r2, lsl #28
 3014 0512 1894     		str	r4, [sp, #96]
 3015 0514 1409     		lsrs	r4, r2, #4
 3016 0516 1994     		str	r4, [sp, #100]
 3017 0518 6A4C     		ldr	r4, .L53
 3018 051a 0025     		movs	r5, #0
 3019 051c DDE91867 		ldrd	r6, [sp, #96]
 3020 0520 2640     		ands	r6, r6, r4
 3021 0522 2F40     		ands	r7, r7, r5
 3022 0524 3446     		mov	r4, r6
 3023 0526 3D46     		mov	r5, r7
 3024 0528 DDE90267 		ldrd	r6, [sp, #8]
 3025 052c 2643     		orrs	r6, r6, r4
 3026 052e 2F43     		orrs	r7, r7, r5
 3027 0530 3446     		mov	r4, r6
 3028 0532 3D46     		mov	r5, r7
 435:..\aes256ctr.c **** 			| ((x & (uint64_t)0x0000FF0000000000) >> 8)
 3029              		.loc 1 435 0
ARM GAS  C:\Users\bogur\AppData\Local\Temp\cca0k2e0.s 			page 66


 3030 0534 1603     		lsls	r6, r2, #12
 3031 0536 46EA1356 		orr	r6, r6, r3, lsr #20
 3032 053a 1B96     		str	r6, [sp, #108]
 3033 053c 1E03     		lsls	r6, r3, #12
 3034 053e 1A96     		str	r6, [sp, #104]
 3035 0540 DDE91A67 		ldrd	r6, [sp, #104]
 3036 0544 06F07046 		and	r6, r6, #-268435456
 3037 0548 0027     		movs	r7, #0
 3038 054a 3443     		orrs	r4, r4, r6
 3039 054c 3D43     		orrs	r5, r5, r7
 436:..\aes256ctr.c **** 			| ((x & (uint64_t)0x000000FF00000000) << 8)
 3040              		.loc 1 436 0
 3041 054e 1E0A     		lsrs	r6, r3, #8
 3042 0550 46EA0266 		orr	r6, r6, r2, lsl #24
 3043 0554 1C96     		str	r6, [sp, #112]
 3044 0556 160A     		lsrs	r6, r2, #8
 3045 0558 1D96     		str	r6, [sp, #116]
 3046 055a DDE91C67 		ldrd	r6, [sp, #112]
 3047 055e 0026     		movs	r6, #0
 3048 0560 07F0FF07 		and	r7, r7, #255
 3049 0564 3443     		orrs	r4, r4, r6
 3050 0566 3D43     		orrs	r5, r5, r7
 437:..\aes256ctr.c **** 			| ((x & (uint64_t)0xF000000000000000) >> 12)
 3051              		.loc 1 437 0
 3052 0568 1602     		lsls	r6, r2, #8
 3053 056a 46EA1366 		orr	r6, r6, r3, lsr #24
 3054 056e 1F96     		str	r6, [sp, #124]
 3055 0570 1E02     		lsls	r6, r3, #8
 3056 0572 1E96     		str	r6, [sp, #120]
 3057 0574 DDE91E67 		ldrd	r6, [sp, #120]
 3058 0578 0026     		movs	r6, #0
 3059 057a 07F47F47 		and	r7, r7, #65280
 3060 057e 2643     		orrs	r6, r6, r4
 3061 0580 2F43     		orrs	r7, r7, r5
 438:..\aes256ctr.c **** 			| ((x & (uint64_t)0x0FFF000000000000) << 4);
 3062              		.loc 1 438 0
 3063 0582 4FEA123B 		lsr	fp, r2, #12
 3064 0586 0024     		movs	r4, #0
 3065 0588 0BF47025 		and	r5, fp, #983040
 3066 058c 3443     		orrs	r4, r4, r6
 3067 058e 3D43     		orrs	r5, r5, r7
 439:..\aes256ctr.c **** 	}
 3068              		.loc 1 439 0
 3069 0590 4FEA0219 		lsl	r9, r2, #4
 3070 0594 49EA1379 		orr	r9, r9, r3, lsr #28
 3071 0598 4FEA0318 		lsl	r8, r3, #4
 3072 059c 0026     		movs	r6, #0
 3073 059e 4A4F     		ldr	r7, .L53+4
 3074 05a0 06EA0806 		and	r6, r6, r8
 3075 05a4 07EA0907 		and	r7, r7, r9
 3076 05a8 3443     		orrs	r4, r4, r6
 3077 05aa 3D43     		orrs	r5, r5, r7
 433:..\aes256ctr.c **** 			| ((x & (uint64_t)0x00000000FFF00000) >> 4)
 3078              		.loc 1 433 0
 3079 05ac C1E90045 		strd	r4, [r1]
 3080              	.LBE122:
 429:..\aes256ctr.c **** 		uint64_t x;
ARM GAS  C:\Users\bogur\AppData\Local\Temp\cca0k2e0.s 			page 67


 3081              		.loc 1 429 0
 3082 05b0 0130     		adds	r0, r0, #1
 3083              	.LVL469:
 3084              	.L45:
 3085 05b2 0728     		cmp	r0, #7
 3086 05b4 A1DD     		ble	.L46
 3087              	.LVL470:
 3088              	.LBE121:
 3089              	.LBE120:
 507:..\aes256ctr.c **** 
 3090              		.loc 1 507 0
 3091 05b6 439C     		ldr	r4, [sp, #268]
 3092              	.LVL471:
 3093              	.LBB123:
 3094              	.LBB124:
 415:..\aes256ctr.c **** 	q[1] ^= sk[1];
 3095              		.loc 1 415 0
 3096 05b8 F4E9E001 		ldrd	r0, [r4, #896]!
 3097              	.LVL472:
 3098 05bc 4AAB     		add	r3, sp, #296
 3099 05be D3E90023 		ldrd	r2, [r3]
 3100 05c2 4240     		eors	r2, r2, r0
 3101 05c4 4B40     		eors	r3, r3, r1
 3102 05c6 4AA9     		add	r1, sp, #296
 3103 05c8 C1E90023 		strd	r2, [r1]
 416:..\aes256ctr.c **** 	q[2] ^= sk[2];
 3104              		.loc 1 416 0
 3105 05cc D4E90201 		ldrd	r0, [r4, #8]
 3106 05d0 4CAB     		add	r3, sp, #304
 3107 05d2 D3E90023 		ldrd	r2, [r3]
 3108 05d6 4240     		eors	r2, r2, r0
 3109 05d8 4B40     		eors	r3, r3, r1
 3110 05da 4CA9     		add	r1, sp, #304
 3111 05dc C1E90023 		strd	r2, [r1]
 417:..\aes256ctr.c **** 	q[3] ^= sk[3];
 3112              		.loc 1 417 0
 3113 05e0 D4E90401 		ldrd	r0, [r4, #16]
 3114 05e4 4EAB     		add	r3, sp, #312
 3115 05e6 D3E90023 		ldrd	r2, [r3]
 3116 05ea 4240     		eors	r2, r2, r0
 3117 05ec 4B40     		eors	r3, r3, r1
 3118 05ee 4EA9     		add	r1, sp, #312
 3119 05f0 C1E90023 		strd	r2, [r1]
 418:..\aes256ctr.c **** 	q[4] ^= sk[4];
 3120              		.loc 1 418 0
 3121 05f4 D4E90601 		ldrd	r0, [r4, #24]
 3122 05f8 50AB     		add	r3, sp, #320
 3123 05fa D3E90023 		ldrd	r2, [r3]
 3124 05fe 4240     		eors	r2, r2, r0
 3125 0600 4B40     		eors	r3, r3, r1
 3126 0602 50A9     		add	r1, sp, #320
 3127 0604 C1E90023 		strd	r2, [r1]
 419:..\aes256ctr.c **** 	q[5] ^= sk[5];
 3128              		.loc 1 419 0
 3129 0608 D4E90801 		ldrd	r0, [r4, #32]
 3130 060c 52AB     		add	r3, sp, #328
 3131 060e D3E90023 		ldrd	r2, [r3]
ARM GAS  C:\Users\bogur\AppData\Local\Temp\cca0k2e0.s 			page 68


 3132 0612 4240     		eors	r2, r2, r0
 3133 0614 4B40     		eors	r3, r3, r1
 3134 0616 52A9     		add	r1, sp, #328
 3135 0618 C1E90023 		strd	r2, [r1]
 420:..\aes256ctr.c **** 	q[6] ^= sk[6];
 3136              		.loc 1 420 0
 3137 061c D4E90A01 		ldrd	r0, [r4, #40]
 3138 0620 54AB     		add	r3, sp, #336
 3139 0622 D3E90023 		ldrd	r2, [r3]
 3140 0626 4240     		eors	r2, r2, r0
 3141 0628 4B40     		eors	r3, r3, r1
 3142 062a 54A9     		add	r1, sp, #336
 3143 062c C1E90023 		strd	r2, [r1]
 421:..\aes256ctr.c **** 	q[7] ^= sk[7];
 3144              		.loc 1 421 0
 3145 0630 D4E90C01 		ldrd	r0, [r4, #48]
 3146 0634 56AB     		add	r3, sp, #344
 3147 0636 D3E90023 		ldrd	r2, [r3]
 3148 063a 4240     		eors	r2, r2, r0
 3149 063c 4B40     		eors	r3, r3, r1
 3150 063e 56A9     		add	r1, sp, #344
 3151 0640 C1E90023 		strd	r2, [r1]
 422:..\aes256ctr.c **** }
 3152              		.loc 1 422 0
 3153 0644 D4E90E01 		ldrd	r0, [r4, #56]
 3154 0648 58AB     		add	r3, sp, #352
 3155 064a D3E90023 		ldrd	r2, [r3]
 3156 064e 4240     		eors	r2, r2, r0
 3157 0650 4B40     		eors	r3, r3, r1
 3158 0652 58A9     		add	r1, sp, #352
 3159 0654 C1E90023 		strd	r2, [r1]
 3160              	.LVL473:
 3161              	.LBE124:
 3162              	.LBE123:
 509:..\aes256ctr.c ****   for (i = 0; i < 4; i ++) {
 3163              		.loc 1 509 0
 3164 0658 4AA8     		add	r0, sp, #296
 3165 065a FFF7FEFF 		bl	br_aes_ct64_ortho
 3166              	.LVL474:
 510:..\aes256ctr.c ****     br_aes_ct64_interleave_out(w + (i << 2), q[i], q[i + 4]);
 3167              		.loc 1 510 0
 3168 065e 0024     		movs	r4, #0
 3169 0660 14E0     		b	.L47
 3170              	.LVL475:
 3171              	.L48:
 511:..\aes256ctr.c ****   }
 3172              		.loc 1 511 0 discriminator 3
 3173 0662 231D     		adds	r3, r4, #4
 3174 0664 6AAA     		add	r2, sp, #424
 3175 0666 02EBC402 		add	r2, r2, r4, lsl #3
 3176 066a 52E92001 		ldrd	r0, [r2, #-128]
 3177 066e 6AAA     		add	r2, sp, #424
 3178 0670 02EBC303 		add	r3, r2, r3, lsl #3
 3179 0674 53E92023 		ldrd	r2, [r3, #-128]
 3180 0678 CDE90023 		strd	r2, [sp]
 3181 067c 0246     		mov	r2, r0
 3182 067e 0B46     		mov	r3, r1
ARM GAS  C:\Users\bogur\AppData\Local\Temp\cca0k2e0.s 			page 69


 3183 0680 5AA9     		add	r1, sp, #360
 3184 0682 01EB0410 		add	r0, r1, r4, lsl #4
 3185 0686 FFF7FEFF 		bl	br_aes_ct64_interleave_out
 3186              	.LVL476:
 510:..\aes256ctr.c ****     br_aes_ct64_interleave_out(w + (i << 2), q[i], q[i + 4]);
 3187              		.loc 1 510 0 discriminator 3
 3188 068a 0134     		adds	r4, r4, #1
 3189              	.LVL477:
 3190              	.L47:
 510:..\aes256ctr.c ****     br_aes_ct64_interleave_out(w + (i << 2), q[i], q[i + 4]);
 3191              		.loc 1 510 0 is_stmt 0 discriminator 1
 3192 068c 032C     		cmp	r4, #3
 3193 068e E8DD     		ble	.L48
 513:..\aes256ctr.c **** 
 3194              		.loc 1 513 0 is_stmt 1
 3195 0690 1022     		movs	r2, #16
 3196 0692 5AA9     		add	r1, sp, #360
 3197 0694 4498     		ldr	r0, [sp, #272]
 3198 0696 FFF7FEFF 		bl	br_range_enc32le
 3199              	.LVL478:
 516:..\aes256ctr.c ****   inc4_be(ivw+7);
 3200              		.loc 1 516 0
 3201 069a 459C     		ldr	r4, [sp, #276]
 3202              	.LVL479:
 3203 069c 04F10C00 		add	r0, r4, #12
 3204 06a0 FFF7FEFF 		bl	inc4_be
 3205              	.LVL480:
 517:..\aes256ctr.c ****   inc4_be(ivw+11);
 3206              		.loc 1 517 0
 3207 06a4 04F11C00 		add	r0, r4, #28
 3208 06a8 FFF7FEFF 		bl	inc4_be
 3209              	.LVL481:
 518:..\aes256ctr.c ****   inc4_be(ivw+15);
 3210              		.loc 1 518 0
 3211 06ac 04F12C00 		add	r0, r4, #44
 3212 06b0 FFF7FEFF 		bl	inc4_be
 3213              	.LVL482:
 519:..\aes256ctr.c **** }
 3214              		.loc 1 519 0
 3215 06b4 04F13C00 		add	r0, r4, #60
 3216 06b8 FFF7FEFF 		bl	inc4_be
 3217              	.LVL483:
 520:..\aes256ctr.c **** 
 3218              		.loc 1 520 0
 3219 06bc 6BB0     		add	sp, sp, #428
 3220              		.cfi_def_cfa_offset 36
 3221              		@ sp needed
 3222 06be BDE8F08F 		pop	{r4, r5, r6, r7, r8, r9, r10, fp, pc}
 3223              	.LVL484:
 3224              	.L54:
 3225 06c2 00BF     		.align	2
 3226              	.L53:
 3227 06c4 0000FF0F 		.word	268369920
 3228 06c8 0000F0FF 		.word	-1048576
 3229              		.cfi_endproc
 3230              	.LFE17:
 3231              		.size	aes_ctr4x, .-aes_ctr4x
ARM GAS  C:\Users\bogur\AppData\Local\Temp\cca0k2e0.s 			page 70


 3232              		.section	.text.br_aes_ct64_ctr_run,"ax",%progbits
 3233              		.align	2
 3234              		.thumb
 3235              		.thumb_func
 3236              		.type	br_aes_ct64_ctr_run, %function
 3237              	br_aes_ct64_ctr_run:
 3238              	.LFB19:
 529:..\aes256ctr.c **** 
 530:..\aes256ctr.c **** static void br_aes_ct64_ctr_run(uint64_t sk_exp[120], const uint8_t *iv, uint32_t cc, uint8_t *data
 531:..\aes256ctr.c **** {
 3239              		.loc 1 531 0
 3240              		.cfi_startproc
 3241              		@ args = 4, pretend = 0, frame = 128
 3242              		@ frame_needed = 0, uses_anonymous_args = 0
 3243              	.LVL485:
 3244 0000 2DE9F041 		push	{r4, r5, r6, r7, r8, lr}
 3245              		.cfi_def_cfa_offset 24
 3246              		.cfi_offset 4, -24
 3247              		.cfi_offset 5, -20
 3248              		.cfi_offset 6, -16
 3249              		.cfi_offset 7, -12
 3250              		.cfi_offset 8, -8
 3251              		.cfi_offset 14, -4
 3252 0004 A0B0     		sub	sp, sp, #128
 3253              		.cfi_def_cfa_offset 152
 3254 0006 0746     		mov	r7, r0
 3255 0008 1646     		mov	r6, r2
 3256 000a 1D46     		mov	r5, r3
 3257 000c 269C     		ldr	r4, [sp, #152]
 532:..\aes256ctr.c **** 	uint32_t ivw[16];
 533:..\aes256ctr.c **** 	size_t i;
 534:..\aes256ctr.c **** 
 535:..\aes256ctr.c **** 	br_range_dec32le(ivw, 3, iv);
 3258              		.loc 1 535 0
 3259 000e 0DF14008 		add	r8, sp, #64
 3260 0012 0A46     		mov	r2, r1
 3261              	.LVL486:
 3262 0014 0321     		movs	r1, #3
 3263              	.LVL487:
 3264 0016 4046     		mov	r0, r8
 3265              	.LVL488:
 3266 0018 FFF7FEFF 		bl	br_range_dec32le
 3267              	.LVL489:
 536:..\aes256ctr.c **** 	memcpy(ivw +  4, ivw, 3 * sizeof(uint32_t));
 3268              		.loc 1 536 0
 3269 001c 14AB     		add	r3, sp, #80
 3270 001e 98E80700 		ldmia	r8, {r0, r1, r2}
 3271 0022 83E80700 		stmia	r3, {r0, r1, r2}
 537:..\aes256ctr.c **** 	memcpy(ivw +  8, ivw, 3 * sizeof(uint32_t));
 3272              		.loc 1 537 0
 3273 0026 18AB     		add	r3, sp, #96
 3274 0028 98E80700 		ldmia	r8, {r0, r1, r2}
 3275 002c 83E80700 		stmia	r3, {r0, r1, r2}
 538:..\aes256ctr.c **** 	memcpy(ivw + 12, ivw, 3 * sizeof(uint32_t));
 3276              		.loc 1 538 0
 3277 0030 1CAB     		add	r3, sp, #112
 3278 0032 83E80700 		stmia	r3, {r0, r1, r2}
ARM GAS  C:\Users\bogur\AppData\Local\Temp\cca0k2e0.s 			page 71


 3279              	.LVL490:
 3280              	.LBB125:
 3281              	.LBB126:
  47:..\aes256ctr.c **** 		| ((x >> 8) & (uint32_t)0x00FF00FF);
 3282              		.loc 1 47 0
 3283 0036 3302     		lsls	r3, r6, #8
 3284 0038 03F0FF22 		and	r2, r3, #-16711936
  48:..\aes256ctr.c **** 	return (x << 16) | (x >> 16);
 3285              		.loc 1 48 0
 3286 003c 330A     		lsrs	r3, r6, #8
 3287 003e 03F0FF13 		and	r3, r3, #16711935
  47:..\aes256ctr.c **** 		| ((x >> 8) & (uint32_t)0x00FF00FF);
 3288              		.loc 1 47 0
 3289 0042 1343     		orrs	r3, r3, r2
 3290              	.LVL491:
  49:..\aes256ctr.c **** }
 3291              		.loc 1 49 0
 3292 0044 4FEA3343 		ror	r3, r3, #16
 3293              	.LVL492:
 3294              	.LBE126:
 3295              	.LBE125:
 539:..\aes256ctr.c **** 	ivw[ 3] = br_swap32(cc);
 3296              		.loc 1 539 0
 3297 0048 1393     		str	r3, [sp, #76]
 540:..\aes256ctr.c **** 	ivw[ 7] = br_swap32(cc + 1);
 3298              		.loc 1 540 0
 3299 004a 731C     		adds	r3, r6, #1
 3300              	.LVL493:
 3301              	.LBB127:
 3302              	.LBB128:
  47:..\aes256ctr.c **** 		| ((x >> 8) & (uint32_t)0x00FF00FF);
 3303              		.loc 1 47 0
 3304 004c 1A02     		lsls	r2, r3, #8
 3305 004e 02F0FF22 		and	r2, r2, #-16711936
  48:..\aes256ctr.c **** 	return (x << 16) | (x >> 16);
 3306              		.loc 1 48 0
 3307 0052 1B0A     		lsrs	r3, r3, #8
 3308              	.LVL494:
 3309 0054 03F0FF13 		and	r3, r3, #16711935
  47:..\aes256ctr.c **** 		| ((x >> 8) & (uint32_t)0x00FF00FF);
 3310              		.loc 1 47 0
 3311 0058 1343     		orrs	r3, r3, r2
 3312              	.LVL495:
  49:..\aes256ctr.c **** }
 3313              		.loc 1 49 0
 3314 005a 4FEA3343 		ror	r3, r3, #16
 3315              	.LVL496:
 3316              	.LBE128:
 3317              	.LBE127:
 3318              		.loc 1 540 0
 3319 005e 1793     		str	r3, [sp, #92]
 541:..\aes256ctr.c **** 	ivw[11] = br_swap32(cc + 2);
 3320              		.loc 1 541 0
 3321 0060 B31C     		adds	r3, r6, #2
 3322              	.LVL497:
 3323              	.LBB129:
 3324              	.LBB130:
ARM GAS  C:\Users\bogur\AppData\Local\Temp\cca0k2e0.s 			page 72


  47:..\aes256ctr.c **** 		| ((x >> 8) & (uint32_t)0x00FF00FF);
 3325              		.loc 1 47 0
 3326 0062 1A02     		lsls	r2, r3, #8
 3327 0064 02F0FF22 		and	r2, r2, #-16711936
  48:..\aes256ctr.c **** 	return (x << 16) | (x >> 16);
 3328              		.loc 1 48 0
 3329 0068 1B0A     		lsrs	r3, r3, #8
 3330              	.LVL498:
 3331 006a 03F0FF13 		and	r3, r3, #16711935
  47:..\aes256ctr.c **** 		| ((x >> 8) & (uint32_t)0x00FF00FF);
 3332              		.loc 1 47 0
 3333 006e 1343     		orrs	r3, r3, r2
 3334              	.LVL499:
  49:..\aes256ctr.c **** }
 3335              		.loc 1 49 0
 3336 0070 4FEA3343 		ror	r3, r3, #16
 3337              	.LVL500:
 3338              	.LBE130:
 3339              	.LBE129:
 3340              		.loc 1 541 0
 3341 0074 1B93     		str	r3, [sp, #108]
 542:..\aes256ctr.c **** 	ivw[15] = br_swap32(cc + 3);
 3342              		.loc 1 542 0
 3343 0076 0336     		adds	r6, r6, #3
 3344              	.LVL501:
 3345              	.LBB131:
 3346              	.LBB132:
  47:..\aes256ctr.c **** 		| ((x >> 8) & (uint32_t)0x00FF00FF);
 3347              		.loc 1 47 0
 3348 0078 3302     		lsls	r3, r6, #8
 3349 007a 03F0FF23 		and	r3, r3, #-16711936
  48:..\aes256ctr.c **** 	return (x << 16) | (x >> 16);
 3350              		.loc 1 48 0
 3351 007e 360A     		lsrs	r6, r6, #8
 3352              	.LVL502:
 3353 0080 06F0FF16 		and	r6, r6, #16711935
  47:..\aes256ctr.c **** 		| ((x >> 8) & (uint32_t)0x00FF00FF);
 3354              		.loc 1 47 0
 3355 0084 1E43     		orrs	r6, r6, r3
 3356              	.LVL503:
  49:..\aes256ctr.c **** }
 3357              		.loc 1 49 0
 3358 0086 4FEA3646 		ror	r6, r6, #16
 3359              	.LVL504:
 3360              	.LBE132:
 3361              	.LBE131:
 3362              		.loc 1 542 0
 3363 008a 1F96     		str	r6, [sp, #124]
 543:..\aes256ctr.c **** 
 544:..\aes256ctr.c **** 	while (len > 64) {
 3364              		.loc 1 544 0
 3365 008c 06E0     		b	.L56
 3366              	.LVL505:
 3367              	.L57:
 545:..\aes256ctr.c **** 		aes_ctr4x(data, ivw, sk_exp);
 3368              		.loc 1 545 0
 3369 008e 3A46     		mov	r2, r7
ARM GAS  C:\Users\bogur\AppData\Local\Temp\cca0k2e0.s 			page 73


 3370 0090 10A9     		add	r1, sp, #64
 3371 0092 2846     		mov	r0, r5
 3372 0094 FFF7FEFF 		bl	aes_ctr4x
 3373              	.LVL506:
 546:..\aes256ctr.c **** 		data += 64;
 3374              		.loc 1 546 0
 3375 0098 4035     		adds	r5, r5, #64
 3376              	.LVL507:
 547:..\aes256ctr.c **** 		len -= 64;
 3377              		.loc 1 547 0
 3378 009a 403C     		subs	r4, r4, #64
 3379              	.LVL508:
 3380              	.L56:
 544:..\aes256ctr.c **** 		aes_ctr4x(data, ivw, sk_exp);
 3381              		.loc 1 544 0
 3382 009c 402C     		cmp	r4, #64
 3383 009e F6D8     		bhi	.L57
 548:..\aes256ctr.c **** 	}
 549:..\aes256ctr.c **** 	if(len > 0) {
 3384              		.loc 1 549 0
 3385 00a0 74B1     		cbz	r4, .L55
 3386              	.LBB133:
 550:..\aes256ctr.c **** 		uint8_t tmp[64];
 551:..\aes256ctr.c **** 		aes_ctr4x(tmp, ivw, sk_exp);
 3387              		.loc 1 551 0
 3388 00a2 3A46     		mov	r2, r7
 3389 00a4 10A9     		add	r1, sp, #64
 3390 00a6 6846     		mov	r0, sp
 3391 00a8 FFF7FEFF 		bl	aes_ctr4x
 3392              	.LVL509:
 552:..\aes256ctr.c **** 		for(i=0;i<len;i++)
 3393              		.loc 1 552 0
 3394 00ac 0023     		movs	r3, #0
 3395 00ae 05E0     		b	.L59
 3396              	.LVL510:
 3397              	.L60:
 553:..\aes256ctr.c **** 			data[i] = tmp[i];
 3398              		.loc 1 553 0 discriminator 3
 3399 00b0 20AA     		add	r2, sp, #128
 3400 00b2 1A44     		add	r2, r2, r3
 3401 00b4 12F8802C 		ldrb	r2, [r2, #-128]	@ zero_extendqisi2
 3402 00b8 EA54     		strb	r2, [r5, r3]
 552:..\aes256ctr.c **** 		for(i=0;i<len;i++)
 3403              		.loc 1 552 0 discriminator 3
 3404 00ba 0133     		adds	r3, r3, #1
 3405              	.LVL511:
 3406              	.L59:
 552:..\aes256ctr.c **** 		for(i=0;i<len;i++)
 3407              		.loc 1 552 0 is_stmt 0 discriminator 1
 3408 00bc 9C42     		cmp	r4, r3
 3409 00be F7D8     		bhi	.L60
 3410              	.LVL512:
 3411              	.L55:
 3412              	.LBE133:
 554:..\aes256ctr.c **** 	}
 555:..\aes256ctr.c **** }
 3413              		.loc 1 555 0 is_stmt 1
ARM GAS  C:\Users\bogur\AppData\Local\Temp\cca0k2e0.s 			page 74


 3414 00c0 20B0     		add	sp, sp, #128
 3415              		.cfi_def_cfa_offset 24
 3416              		@ sp needed
 3417 00c2 BDE8F081 		pop	{r4, r5, r6, r7, r8, pc}
 3418              		.cfi_endproc
 3419              	.LFE19:
 3420              		.size	br_aes_ct64_ctr_run, .-br_aes_ct64_ctr_run
 3421 00c6 00BF     		.section	.text.pqcrystals_aes256ctr_ref_prf,"ax",%progbits
 3422              		.align	2
 3423              		.global	pqcrystals_aes256ctr_ref_prf
 3424              		.thumb
 3425              		.thumb_func
 3426              		.type	pqcrystals_aes256ctr_ref_prf, %function
 3427              	pqcrystals_aes256ctr_ref_prf:
 3428              	.LFB20:
 556:..\aes256ctr.c **** 
 557:..\aes256ctr.c **** void aes256ctr_prf(uint8_t *out, size_t outlen, const uint8_t *key, const uint8_t *nonce)
 558:..\aes256ctr.c **** {
 3429              		.loc 1 558 0
 3430              		.cfi_startproc
 3431              		@ args = 0, pretend = 0, frame = 960
 3432              		@ frame_needed = 0, uses_anonymous_args = 0
 3433              	.LVL513:
 3434 0000 70B5     		push	{r4, r5, r6, lr}
 3435              		.cfi_def_cfa_offset 16
 3436              		.cfi_offset 4, -16
 3437              		.cfi_offset 5, -12
 3438              		.cfi_offset 6, -8
 3439              		.cfi_offset 14, -4
 3440 0002 ADF5727D 		sub	sp, sp, #968
 3441              		.cfi_def_cfa_offset 984
 3442 0006 0546     		mov	r5, r0
 3443 0008 0E46     		mov	r6, r1
 3444 000a 1C46     		mov	r4, r3
 559:..\aes256ctr.c ****   uint64_t sk_exp[120];
 560:..\aes256ctr.c **** 
 561:..\aes256ctr.c ****   br_aes_ct64_ctr_init(sk_exp, key);
 3445              		.loc 1 561 0
 3446 000c 1146     		mov	r1, r2
 3447              	.LVL514:
 3448 000e 02A8     		add	r0, sp, #8
 3449              	.LVL515:
 3450 0010 FFF7FEFF 		bl	br_aes_ct64_ctr_init
 3451              	.LVL516:
 562:..\aes256ctr.c ****   br_aes_ct64_ctr_run(sk_exp, nonce, 0, out, outlen);
 3452              		.loc 1 562 0
 3453 0014 0096     		str	r6, [sp]
 3454 0016 2B46     		mov	r3, r5
 3455 0018 0022     		movs	r2, #0
 3456 001a 2146     		mov	r1, r4
 3457 001c 02A8     		add	r0, sp, #8
 3458 001e FFF7FEFF 		bl	br_aes_ct64_ctr_run
 3459              	.LVL517:
 563:..\aes256ctr.c **** }
 3460              		.loc 1 563 0
 3461 0022 0DF5727D 		add	sp, sp, #968
 3462              		.cfi_def_cfa_offset 16
ARM GAS  C:\Users\bogur\AppData\Local\Temp\cca0k2e0.s 			page 75


 3463              		@ sp needed
 3464 0026 70BD     		pop	{r4, r5, r6, pc}
 3465              		.cfi_endproc
 3466              	.LFE20:
 3467              		.size	pqcrystals_aes256ctr_ref_prf, .-pqcrystals_aes256ctr_ref_prf
 3468              		.section	.text.pqcrystals_aes256ctr_ref_init,"ax",%progbits
 3469              		.align	2
 3470              		.global	pqcrystals_aes256ctr_ref_init
 3471              		.thumb
 3472              		.thumb_func
 3473              		.type	pqcrystals_aes256ctr_ref_init, %function
 3474              	pqcrystals_aes256ctr_ref_init:
 3475              	.LFB21:
 564:..\aes256ctr.c **** 
 565:..\aes256ctr.c **** void aes256ctr_init(aes256ctr_ctx *s, const uint8_t *key, const uint8_t *nonce)
 566:..\aes256ctr.c **** {
 3476              		.loc 1 566 0
 3477              		.cfi_startproc
 3478              		@ args = 0, pretend = 0, frame = 0
 3479              		@ frame_needed = 0, uses_anonymous_args = 0
 3480              	.LVL518:
 3481 0000 70B5     		push	{r4, r5, r6, lr}
 3482              		.cfi_def_cfa_offset 16
 3483              		.cfi_offset 4, -16
 3484              		.cfi_offset 5, -12
 3485              		.cfi_offset 6, -8
 3486              		.cfi_offset 14, -4
 3487 0002 0446     		mov	r4, r0
 3488 0004 1646     		mov	r6, r2
 567:..\aes256ctr.c ****   br_aes_ct64_ctr_init(s->sk_exp, key);
 3489              		.loc 1 567 0
 3490 0006 FFF7FEFF 		bl	br_aes_ct64_ctr_init
 3491              	.LVL519:
 568:..\aes256ctr.c **** 
 569:..\aes256ctr.c ****   br_range_dec32le(s->ivw, 3, nonce);
 3492              		.loc 1 569 0
 3493 000a 04F57075 		add	r5, r4, #960
 3494 000e 3246     		mov	r2, r6
 3495 0010 0321     		movs	r1, #3
 3496 0012 2846     		mov	r0, r5
 3497 0014 FFF7FEFF 		bl	br_range_dec32le
 3498              	.LVL520:
 570:..\aes256ctr.c ****   memcpy(s->ivw +  4, s->ivw, 3 * sizeof(uint32_t));
 3499              		.loc 1 570 0
 3500 0018 D4F8C003 		ldr	r0, [r4, #960]	@ unaligned
 3501 001c D4F8C413 		ldr	r1, [r4, #964]	@ unaligned
 3502 0020 D4F8C823 		ldr	r2, [r4, #968]	@ unaligned
 3503 0024 C4F8D003 		str	r0, [r4, #976]	@ unaligned
 3504 0028 C4F8D413 		str	r1, [r4, #980]	@ unaligned
 3505 002c C4F8D823 		str	r2, [r4, #984]	@ unaligned
 571:..\aes256ctr.c ****   memcpy(s->ivw +  8, s->ivw, 3 * sizeof(uint32_t));
 3506              		.loc 1 571 0
 3507 0030 D4F8C003 		ldr	r0, [r4, #960]	@ unaligned
 3508 0034 D4F8C413 		ldr	r1, [r4, #964]	@ unaligned
 3509 0038 D4F8C823 		ldr	r2, [r4, #968]	@ unaligned
 3510 003c C4F8E003 		str	r0, [r4, #992]	@ unaligned
 3511 0040 C4F8E413 		str	r1, [r4, #996]	@ unaligned
ARM GAS  C:\Users\bogur\AppData\Local\Temp\cca0k2e0.s 			page 76


 3512 0044 C4F8E823 		str	r2, [r4, #1000]	@ unaligned
 572:..\aes256ctr.c ****   memcpy(s->ivw + 12, s->ivw, 3 * sizeof(uint32_t));
 3513              		.loc 1 572 0
 3514 0048 D4F8C003 		ldr	r0, [r4, #960]	@ unaligned
 3515 004c D4F8C413 		ldr	r1, [r4, #964]	@ unaligned
 3516 0050 D4F8C823 		ldr	r2, [r4, #968]	@ unaligned
 3517 0054 C4F8F003 		str	r0, [r4, #1008]	@ unaligned
 3518 0058 C4F8F413 		str	r1, [r4, #1012]	@ unaligned
 3519 005c C4F8F823 		str	r2, [r4, #1016]	@ unaligned
 573:..\aes256ctr.c ****   s->ivw[ 3] = br_swap32(0);
 3520              		.loc 1 573 0
 3521 0060 0023     		movs	r3, #0
 3522 0062 C4F8CC33 		str	r3, [r4, #972]
 574:..\aes256ctr.c ****   s->ivw[ 7] = br_swap32(1);
 3523              		.loc 1 574 0
 3524 0066 4FF08073 		mov	r3, #16777216
 3525 006a C4F8DC33 		str	r3, [r4, #988]
 575:..\aes256ctr.c ****   s->ivw[11] = br_swap32(2);
 3526              		.loc 1 575 0
 3527 006e 4FF00073 		mov	r3, #33554432
 3528 0072 C4F8EC33 		str	r3, [r4, #1004]
 576:..\aes256ctr.c ****   s->ivw[15] = br_swap32(3);
 3529              		.loc 1 576 0
 3530 0076 4FF04073 		mov	r3, #50331648
 3531 007a C4F8FC33 		str	r3, [r4, #1020]
 3532 007e 70BD     		pop	{r4, r5, r6, pc}
 3533              		.cfi_endproc
 3534              	.LFE21:
 3535              		.size	pqcrystals_aes256ctr_ref_init, .-pqcrystals_aes256ctr_ref_init
 3536              		.section	.text.pqcrystals_aes256ctr_ref_squeezeblocks,"ax",%progbits
 3537              		.align	2
 3538              		.global	pqcrystals_aes256ctr_ref_squeezeblocks
 3539              		.thumb
 3540              		.thumb_func
 3541              		.type	pqcrystals_aes256ctr_ref_squeezeblocks, %function
 3542              	pqcrystals_aes256ctr_ref_squeezeblocks:
 3543              	.LFB22:
 577:..\aes256ctr.c **** }
 578:..\aes256ctr.c **** 
 579:..\aes256ctr.c **** void aes256ctr_squeezeblocks(uint8_t *out, size_t nblocks, aes256ctr_ctx *s)
 580:..\aes256ctr.c **** {
 3544              		.loc 1 580 0
 3545              		.cfi_startproc
 3546              		@ args = 0, pretend = 0, frame = 0
 3547              		@ frame_needed = 0, uses_anonymous_args = 0
 3548              	.LVL521:
 3549 0000 70B5     		push	{r4, r5, r6, lr}
 3550              		.cfi_def_cfa_offset 16
 3551              		.cfi_offset 4, -16
 3552              		.cfi_offset 5, -12
 3553              		.cfi_offset 6, -8
 3554              		.cfi_offset 14, -4
 3555 0002 0546     		mov	r5, r0
 3556 0004 0C46     		mov	r4, r1
 3557 0006 1646     		mov	r6, r2
 581:..\aes256ctr.c ****   while (nblocks > 0) {
 3558              		.loc 1 581 0
ARM GAS  C:\Users\bogur\AppData\Local\Temp\cca0k2e0.s 			page 77


 3559 0008 07E0     		b	.L67
 3560              	.LVL522:
 3561              	.L68:
 582:..\aes256ctr.c ****     aes_ctr4x(out, s->ivw, s->sk_exp);
 3562              		.loc 1 582 0
 3563 000a 3246     		mov	r2, r6
 3564 000c 06F57071 		add	r1, r6, #960
 3565 0010 2846     		mov	r0, r5
 3566 0012 FFF7FEFF 		bl	aes_ctr4x
 3567              	.LVL523:
 583:..\aes256ctr.c ****     out += 64;
 3568              		.loc 1 583 0
 3569 0016 4035     		adds	r5, r5, #64
 3570              	.LVL524:
 584:..\aes256ctr.c ****     nblocks--;
 3571              		.loc 1 584 0
 3572 0018 013C     		subs	r4, r4, #1
 3573              	.LVL525:
 3574              	.L67:
 581:..\aes256ctr.c ****     aes_ctr4x(out, s->ivw, s->sk_exp);
 3575              		.loc 1 581 0
 3576 001a 002C     		cmp	r4, #0
 3577 001c F5D1     		bne	.L68
 585:..\aes256ctr.c ****   }
 586:..\aes256ctr.c **** }
 3578              		.loc 1 586 0
 3579 001e 70BD     		pop	{r4, r5, r6, pc}
 3580              		.cfi_endproc
 3581              	.LFE22:
 3582              		.size	pqcrystals_aes256ctr_ref_squeezeblocks, .-pqcrystals_aes256ctr_ref_squeezeblocks
 3583              		.section	.rodata
 3584              		.align	2
 3585              		.set	.LANCHOR0,. + 0
 3586              		.type	Rcon, %object
 3587              		.size	Rcon, 10
 3588              	Rcon:
 3589 0000 01       		.byte	1
 3590 0001 02       		.byte	2
 3591 0002 04       		.byte	4
 3592 0003 08       		.byte	8
 3593 0004 10       		.byte	16
 3594 0005 20       		.byte	32
 3595 0006 40       		.byte	64
 3596 0007 80       		.byte	-128
 3597 0008 1B       		.byte	27
 3598 0009 36       		.byte	54
 3599              		.text
 3600              	.Letext0:
 3601              		.file 2 "c:\\program files (x86)\\cypress\\psoc creator\\4.4\\psoc creator\\import\\gnu\\arm\\5.4.
 3602              		.file 3 "c:\\program files (x86)\\cypress\\psoc creator\\4.4\\psoc creator\\import\\gnu\\arm\\5.4.
 3603              		.file 4 "c:\\program files (x86)\\cypress\\psoc creator\\4.4\\psoc creator\\import\\gnu\\arm\\5.4.
 3604              		.file 5 "..\\aes256ctr.h"
 3605              		.section	.debug_info,"",%progbits
 3606              	.Ldebug_info0:
 3607 0000 AA180000 		.4byte	0x18aa
 3608 0004 0400     		.2byte	0x4
 3609 0006 00000000 		.4byte	.Ldebug_abbrev0
ARM GAS  C:\Users\bogur\AppData\Local\Temp\cca0k2e0.s 			page 78


 3610 000a 04       		.byte	0x4
 3611 000b 01       		.uleb128 0x1
 3612 000c 7C000000 		.4byte	.LASF51
 3613 0010 0C       		.byte	0xc
 3614 0011 0D030000 		.4byte	.LASF52
 3615 0015 71030000 		.4byte	.LASF53
 3616 0019 00000000 		.4byte	.Ldebug_ranges0+0
 3617 001d 00000000 		.4byte	0
 3618 0021 00000000 		.4byte	.Ldebug_line0
 3619 0025 02       		.uleb128 0x2
 3620 0026 08       		.byte	0x8
 3621 0027 07       		.byte	0x7
 3622 0028 59010000 		.4byte	.LASF0
 3623 002c 02       		.uleb128 0x2
 3624 002d 01       		.byte	0x1
 3625 002e 06       		.byte	0x6
 3626 002f 52030000 		.4byte	.LASF1
 3627 0033 03       		.uleb128 0x3
 3628 0034 CF020000 		.4byte	.LASF6
 3629 0038 02       		.byte	0x2
 3630 0039 1D       		.byte	0x1d
 3631 003a 3E000000 		.4byte	0x3e
 3632 003e 02       		.uleb128 0x2
 3633 003f 01       		.byte	0x1
 3634 0040 08       		.byte	0x8
 3635 0041 F4020000 		.4byte	.LASF2
 3636 0045 02       		.uleb128 0x2
 3637 0046 02       		.byte	0x2
 3638 0047 05       		.byte	0x5
 3639 0048 98020000 		.4byte	.LASF3
 3640 004c 02       		.uleb128 0x2
 3641 004d 02       		.byte	0x2
 3642 004e 07       		.byte	0x7
 3643 004f 5E030000 		.4byte	.LASF4
 3644 0053 02       		.uleb128 0x2
 3645 0054 04       		.byte	0x4
 3646 0055 05       		.byte	0x5
 3647 0056 A2020000 		.4byte	.LASF5
 3648 005a 03       		.uleb128 0x3
 3649 005b 02030000 		.4byte	.LASF7
 3650 005f 02       		.byte	0x2
 3651 0060 41       		.byte	0x41
 3652 0061 65000000 		.4byte	0x65
 3653 0065 02       		.uleb128 0x2
 3654 0066 04       		.byte	0x4
 3655 0067 07       		.byte	0x7
 3656 0068 E2020000 		.4byte	.LASF8
 3657 006c 02       		.uleb128 0x2
 3658 006d 08       		.byte	0x8
 3659 006e 05       		.byte	0x5
 3660 006f 0F020000 		.4byte	.LASF9
 3661 0073 03       		.uleb128 0x3
 3662 0074 DC010000 		.4byte	.LASF10
 3663 0078 02       		.byte	0x2
 3664 0079 5B       		.byte	0x5b
 3665 007a 25000000 		.4byte	0x25
 3666 007e 04       		.uleb128 0x4
ARM GAS  C:\Users\bogur\AppData\Local\Temp\cca0k2e0.s 			page 79


 3667 007f 04       		.byte	0x4
 3668 0080 05       		.byte	0x5
 3669 0081 696E7400 		.ascii	"int\000"
 3670 0085 02       		.uleb128 0x2
 3671 0086 04       		.byte	0x4
 3672 0087 07       		.byte	0x7
 3673 0088 55000000 		.4byte	.LASF11
 3674 008c 03       		.uleb128 0x3
 3675 008d 07020000 		.4byte	.LASF12
 3676 0091 03       		.byte	0x3
 3677 0092 18       		.byte	0x18
 3678 0093 33000000 		.4byte	0x33
 3679 0097 03       		.uleb128 0x3
 3680 0098 49010000 		.4byte	.LASF13
 3681 009c 03       		.byte	0x3
 3682 009d 30       		.byte	0x30
 3683 009e 5A000000 		.4byte	0x5a
 3684 00a2 03       		.uleb128 0x3
 3685 00a3 C0020000 		.4byte	.LASF14
 3686 00a7 03       		.byte	0x3
 3687 00a8 3C       		.byte	0x3c
 3688 00a9 73000000 		.4byte	0x73
 3689 00ad 03       		.uleb128 0x3
 3690 00ae 97010000 		.4byte	.LASF15
 3691 00b2 04       		.byte	0x4
 3692 00b3 D8       		.byte	0xd8
 3693 00b4 85000000 		.4byte	0x85
 3694 00b8 02       		.uleb128 0x2
 3695 00b9 08       		.byte	0x8
 3696 00ba 04       		.byte	0x4
 3697 00bb 59020000 		.4byte	.LASF16
 3698 00bf 02       		.uleb128 0x2
 3699 00c0 04       		.byte	0x4
 3700 00c1 07       		.byte	0x7
 3701 00c2 D9020000 		.4byte	.LASF17
 3702 00c6 02       		.uleb128 0x2
 3703 00c7 01       		.byte	0x1
 3704 00c8 08       		.byte	0x8
 3705 00c9 F3010000 		.4byte	.LASF18
 3706 00cd 05       		.uleb128 0x5
 3707 00ce 0004     		.2byte	0x400
 3708 00d0 05       		.byte	0x5
 3709 00d1 0B       		.byte	0xb
 3710 00d2 F0000000 		.4byte	0xf0
 3711 00d6 06       		.uleb128 0x6
 3712 00d7 52010000 		.4byte	.LASF19
 3713 00db 05       		.byte	0x5
 3714 00dc 0C       		.byte	0xc
 3715 00dd F0000000 		.4byte	0xf0
 3716 00e1 00       		.byte	0
 3717 00e2 07       		.uleb128 0x7
 3718 00e3 69767700 		.ascii	"ivw\000"
 3719 00e7 05       		.byte	0x5
 3720 00e8 0D       		.byte	0xd
 3721 00e9 00010000 		.4byte	0x100
 3722 00ed C003     		.2byte	0x3c0
 3723 00ef 00       		.byte	0
ARM GAS  C:\Users\bogur\AppData\Local\Temp\cca0k2e0.s 			page 80


 3724 00f0 08       		.uleb128 0x8
 3725 00f1 A2000000 		.4byte	0xa2
 3726 00f5 00010000 		.4byte	0x100
 3727 00f9 09       		.uleb128 0x9
 3728 00fa BF000000 		.4byte	0xbf
 3729 00fe 77       		.byte	0x77
 3730 00ff 00       		.byte	0
 3731 0100 08       		.uleb128 0x8
 3732 0101 97000000 		.4byte	0x97
 3733 0105 10010000 		.4byte	0x110
 3734 0109 09       		.uleb128 0x9
 3735 010a BF000000 		.4byte	0xbf
 3736 010e 0F       		.byte	0xf
 3737 010f 00       		.byte	0
 3738 0110 03       		.uleb128 0x3
 3739 0111 62000000 		.4byte	.LASF20
 3740 0115 05       		.byte	0x5
 3741 0116 0E       		.byte	0xe
 3742 0117 CD000000 		.4byte	0xcd
 3743 011b 0A       		.uleb128 0xa
 3744 011c 28020000 		.4byte	.LASF21
 3745 0120 01       		.byte	0x1
 3746 0121 1D       		.byte	0x1d
 3747 0122 97000000 		.4byte	0x97
 3748 0126 03       		.byte	0x3
 3749 0127 37010000 		.4byte	0x137
 3750 012b 0B       		.uleb128 0xb
 3751 012c 73726300 		.ascii	"src\000"
 3752 0130 01       		.byte	0x1
 3753 0131 1D       		.byte	0x1d
 3754 0132 37010000 		.4byte	0x137
 3755 0136 00       		.byte	0
 3756 0137 0C       		.uleb128 0xc
 3757 0138 04       		.byte	0x4
 3758 0139 3D010000 		.4byte	0x13d
 3759 013d 0D       		.uleb128 0xd
 3760 013e 8C000000 		.4byte	0x8c
 3761 0142 0E       		.uleb128 0xe
 3762 0143 1D020000 		.4byte	.LASF37
 3763 0147 01       		.byte	0x1
 3764 0148 34       		.byte	0x34
 3765 0149 03       		.byte	0x3
 3766 014a 63010000 		.4byte	0x163
 3767 014e 0B       		.uleb128 0xb
 3768 014f 64737400 		.ascii	"dst\000"
 3769 0153 01       		.byte	0x1
 3770 0154 34       		.byte	0x34
 3771 0155 63010000 		.4byte	0x163
 3772 0159 0B       		.uleb128 0xb
 3773 015a 7800     		.ascii	"x\000"
 3774 015c 01       		.byte	0x1
 3775 015d 34       		.byte	0x34
 3776 015e 97000000 		.4byte	0x97
 3777 0162 00       		.byte	0
 3778 0163 0C       		.uleb128 0xc
 3779 0164 04       		.byte	0x4
 3780 0165 8C000000 		.4byte	0x8c
ARM GAS  C:\Users\bogur\AppData\Local\Temp\cca0k2e0.s 			page 81


 3781 0169 0F       		.uleb128 0xf
 3782 016a 9E010000 		.4byte	.LASF22
 3783 016e 01       		.byte	0x1
 3784 016f BB01     		.2byte	0x1bb
 3785 0171 A2000000 		.4byte	0xa2
 3786 0175 03       		.byte	0x3
 3787 0176 85010000 		.4byte	0x185
 3788 017a 10       		.uleb128 0x10
 3789 017b 7800     		.ascii	"x\000"
 3790 017d 01       		.byte	0x1
 3791 017e BB01     		.2byte	0x1bb
 3792 0180 A2000000 		.4byte	0xa2
 3793 0184 00       		.byte	0
 3794 0185 0A       		.uleb128 0xa
 3795 0186 FD010000 		.4byte	.LASF23
 3796 018a 01       		.byte	0x1
 3797 018b 2D       		.byte	0x2d
 3798 018c 97000000 		.4byte	0x97
 3799 0190 03       		.byte	0x3
 3800 0191 9F010000 		.4byte	0x19f
 3801 0195 0B       		.uleb128 0xb
 3802 0196 7800     		.ascii	"x\000"
 3803 0198 01       		.byte	0x1
 3804 0199 2D       		.byte	0x2d
 3805 019a 97000000 		.4byte	0x97
 3806 019e 00       		.byte	0
 3807 019f 11       		.uleb128 0x11
 3808 01a0 11000000 		.4byte	.LASF24
 3809 01a4 01       		.byte	0x1
 3810 01a5 25       		.byte	0x25
 3811 01a6 00000000 		.4byte	.LFB1
 3812 01aa 2C000000 		.4byte	.LFE1-.LFB1
 3813 01ae 01       		.uleb128 0x1
 3814 01af 9C       		.byte	0x9c
 3815 01b0 F9010000 		.4byte	0x1f9
 3816 01b4 12       		.uleb128 0x12
 3817 01b5 7600     		.ascii	"v\000"
 3818 01b7 01       		.byte	0x1
 3819 01b8 25       		.byte	0x25
 3820 01b9 F9010000 		.4byte	0x1f9
 3821 01bd 00000000 		.4byte	.LLST0
 3822 01c1 12       		.uleb128 0x12
 3823 01c2 6E756D00 		.ascii	"num\000"
 3824 01c6 01       		.byte	0x1
 3825 01c7 25       		.byte	0x25
 3826 01c8 AD000000 		.4byte	0xad
 3827 01cc 2B000000 		.4byte	.LLST1
 3828 01d0 12       		.uleb128 0x12
 3829 01d1 73726300 		.ascii	"src\000"
 3830 01d5 01       		.byte	0x1
 3831 01d6 25       		.byte	0x25
 3832 01d7 37010000 		.4byte	0x137
 3833 01db 6C000000 		.4byte	.LLST2
 3834 01df 13       		.uleb128 0x13
 3835 01e0 1B010000 		.4byte	0x11b
 3836 01e4 04000000 		.4byte	.LBB43
 3837 01e8 14000000 		.4byte	.LBE43-.LBB43
ARM GAS  C:\Users\bogur\AppData\Local\Temp\cca0k2e0.s 			page 82


 3838 01ec 01       		.byte	0x1
 3839 01ed 28       		.byte	0x28
 3840 01ee 14       		.uleb128 0x14
 3841 01ef 2B010000 		.4byte	0x12b
 3842 01f3 8A000000 		.4byte	.LLST3
 3843 01f7 00       		.byte	0
 3844 01f8 00       		.byte	0
 3845 01f9 0C       		.uleb128 0xc
 3846 01fa 04       		.byte	0x4
 3847 01fb 97000000 		.4byte	0x97
 3848 01ff 11       		.uleb128 0x11
 3849 0200 00000000 		.4byte	.LASF25
 3850 0204 01       		.byte	0x1
 3851 0205 3C       		.byte	0x3c
 3852 0206 00000000 		.4byte	.LFB4
 3853 020a 2A000000 		.4byte	.LFE4-.LFB4
 3854 020e 01       		.uleb128 0x1
 3855 020f 9C       		.byte	0x9c
 3856 0210 62020000 		.4byte	0x262
 3857 0214 12       		.uleb128 0x12
 3858 0215 64737400 		.ascii	"dst\000"
 3859 0219 01       		.byte	0x1
 3860 021a 3C       		.byte	0x3c
 3861 021b 63010000 		.4byte	0x163
 3862 021f 9D000000 		.4byte	.LLST4
 3863 0223 12       		.uleb128 0x12
 3864 0224 7600     		.ascii	"v\000"
 3865 0226 01       		.byte	0x1
 3866 0227 3C       		.byte	0x3c
 3867 0228 62020000 		.4byte	0x262
 3868 022c BB000000 		.4byte	.LLST5
 3869 0230 12       		.uleb128 0x12
 3870 0231 6E756D00 		.ascii	"num\000"
 3871 0235 01       		.byte	0x1
 3872 0236 3C       		.byte	0x3c
 3873 0237 AD000000 		.4byte	0xad
 3874 023b E6000000 		.4byte	.LLST6
 3875 023f 13       		.uleb128 0x13
 3876 0240 42010000 		.4byte	0x142
 3877 0244 06000000 		.4byte	.LBB45
 3878 0248 12000000 		.4byte	.LBE45-.LBB45
 3879 024c 01       		.byte	0x1
 3880 024d 3F       		.byte	0x3f
 3881 024e 14       		.uleb128 0x14
 3882 024f 59010000 		.4byte	0x159
 3883 0253 27010000 		.4byte	.LLST7
 3884 0257 14       		.uleb128 0x14
 3885 0258 4E010000 		.4byte	0x14e
 3886 025c 3A010000 		.4byte	.LLST8
 3887 0260 00       		.byte	0
 3888 0261 00       		.byte	0
 3889 0262 0C       		.uleb128 0xc
 3890 0263 04       		.byte	0x4
 3891 0264 68020000 		.4byte	0x268
 3892 0268 0D       		.uleb128 0xd
 3893 0269 97000000 		.4byte	0x97
 3894 026d 11       		.uleb128 0x11
ARM GAS  C:\Users\bogur\AppData\Local\Temp\cca0k2e0.s 			page 83


 3895 026e 2F010000 		.4byte	.LASF26
 3896 0272 01       		.byte	0x1
 3897 0273 44       		.byte	0x44
 3898 0274 00000000 		.4byte	.LFB5
 3899 0278 04070000 		.4byte	.LFE5-.LFB5
 3900 027c 01       		.uleb128 0x1
 3901 027d 9C       		.byte	0x9c
 3902 027e AD090000 		.4byte	0x9ad
 3903 0282 12       		.uleb128 0x12
 3904 0283 7100     		.ascii	"q\000"
 3905 0285 01       		.byte	0x1
 3906 0286 44       		.byte	0x44
 3907 0287 AD090000 		.4byte	0x9ad
 3908 028b 4D010000 		.4byte	.LLST9
 3909 028f 15       		.uleb128 0x15
 3910 0290 783000   		.ascii	"x0\000"
 3911 0293 01       		.byte	0x1
 3912 0294 50       		.byte	0x50
 3913 0295 A2000000 		.4byte	0xa2
 3914 0299 6B010000 		.4byte	.LLST10
 3915 029d 15       		.uleb128 0x15
 3916 029e 783100   		.ascii	"x1\000"
 3917 02a1 01       		.byte	0x1
 3918 02a2 50       		.byte	0x50
 3919 02a3 A2000000 		.4byte	0xa2
 3920 02a7 9B010000 		.4byte	.LLST11
 3921 02ab 15       		.uleb128 0x15
 3922 02ac 783200   		.ascii	"x2\000"
 3923 02af 01       		.byte	0x1
 3924 02b0 50       		.byte	0x50
 3925 02b1 A2000000 		.4byte	0xa2
 3926 02b5 BF010000 		.4byte	.LLST12
 3927 02b9 15       		.uleb128 0x15
 3928 02ba 783300   		.ascii	"x3\000"
 3929 02bd 01       		.byte	0x1
 3930 02be 50       		.byte	0x50
 3931 02bf A2000000 		.4byte	0xa2
 3932 02c3 E3010000 		.4byte	.LLST13
 3933 02c7 15       		.uleb128 0x15
 3934 02c8 783400   		.ascii	"x4\000"
 3935 02cb 01       		.byte	0x1
 3936 02cc 50       		.byte	0x50
 3937 02cd A2000000 		.4byte	0xa2
 3938 02d1 07020000 		.4byte	.LLST14
 3939 02d5 15       		.uleb128 0x15
 3940 02d6 783500   		.ascii	"x5\000"
 3941 02d9 01       		.byte	0x1
 3942 02da 50       		.byte	0x50
 3943 02db A2000000 		.4byte	0xa2
 3944 02df 27020000 		.4byte	.LLST15
 3945 02e3 15       		.uleb128 0x15
 3946 02e4 783600   		.ascii	"x6\000"
 3947 02e7 01       		.byte	0x1
 3948 02e8 50       		.byte	0x50
 3949 02e9 A2000000 		.4byte	0xa2
 3950 02ed 4B020000 		.4byte	.LLST16
 3951 02f1 15       		.uleb128 0x15
ARM GAS  C:\Users\bogur\AppData\Local\Temp\cca0k2e0.s 			page 84


 3952 02f2 783700   		.ascii	"x7\000"
 3953 02f5 01       		.byte	0x1
 3954 02f6 50       		.byte	0x50
 3955 02f7 A2000000 		.4byte	0xa2
 3956 02fb 6F020000 		.4byte	.LLST17
 3957 02ff 15       		.uleb128 0x15
 3958 0300 793100   		.ascii	"y1\000"
 3959 0303 01       		.byte	0x1
 3960 0304 51       		.byte	0x51
 3961 0305 A2000000 		.4byte	0xa2
 3962 0309 83020000 		.4byte	.LLST18
 3963 030d 15       		.uleb128 0x15
 3964 030e 793200   		.ascii	"y2\000"
 3965 0311 01       		.byte	0x1
 3966 0312 51       		.byte	0x51
 3967 0313 A2000000 		.4byte	0xa2
 3968 0317 A8020000 		.4byte	.LLST19
 3969 031b 15       		.uleb128 0x15
 3970 031c 793300   		.ascii	"y3\000"
 3971 031f 01       		.byte	0x1
 3972 0320 51       		.byte	0x51
 3973 0321 A2000000 		.4byte	0xa2
 3974 0325 CD020000 		.4byte	.LLST20
 3975 0329 15       		.uleb128 0x15
 3976 032a 793400   		.ascii	"y4\000"
 3977 032d 01       		.byte	0x1
 3978 032e 51       		.byte	0x51
 3979 032f A2000000 		.4byte	0xa2
 3980 0333 F2020000 		.4byte	.LLST21
 3981 0337 15       		.uleb128 0x15
 3982 0338 793500   		.ascii	"y5\000"
 3983 033b 01       		.byte	0x1
 3984 033c 51       		.byte	0x51
 3985 033d A2000000 		.4byte	0xa2
 3986 0341 17030000 		.4byte	.LLST22
 3987 0345 15       		.uleb128 0x15
 3988 0346 793600   		.ascii	"y6\000"
 3989 0349 01       		.byte	0x1
 3990 034a 51       		.byte	0x51
 3991 034b A2000000 		.4byte	0xa2
 3992 034f 3C030000 		.4byte	.LLST23
 3993 0353 15       		.uleb128 0x15
 3994 0354 793700   		.ascii	"y7\000"
 3995 0357 01       		.byte	0x1
 3996 0358 51       		.byte	0x51
 3997 0359 A2000000 		.4byte	0xa2
 3998 035d 61030000 		.4byte	.LLST24
 3999 0361 15       		.uleb128 0x15
 4000 0362 793800   		.ascii	"y8\000"
 4001 0365 01       		.byte	0x1
 4002 0366 51       		.byte	0x51
 4003 0367 A2000000 		.4byte	0xa2
 4004 036b 86030000 		.4byte	.LLST25
 4005 036f 15       		.uleb128 0x15
 4006 0370 793900   		.ascii	"y9\000"
 4007 0373 01       		.byte	0x1
 4008 0374 51       		.byte	0x51
ARM GAS  C:\Users\bogur\AppData\Local\Temp\cca0k2e0.s 			page 85


 4009 0375 A2000000 		.4byte	0xa2
 4010 0379 AB030000 		.4byte	.LLST26
 4011 037d 15       		.uleb128 0x15
 4012 037e 79313000 		.ascii	"y10\000"
 4013 0382 01       		.byte	0x1
 4014 0383 52       		.byte	0x52
 4015 0384 A2000000 		.4byte	0xa2
 4016 0388 D0030000 		.4byte	.LLST27
 4017 038c 15       		.uleb128 0x15
 4018 038d 79313100 		.ascii	"y11\000"
 4019 0391 01       		.byte	0x1
 4020 0392 52       		.byte	0x52
 4021 0393 A2000000 		.4byte	0xa2
 4022 0397 E8030000 		.4byte	.LLST28
 4023 039b 15       		.uleb128 0x15
 4024 039c 79313200 		.ascii	"y12\000"
 4025 03a0 01       		.byte	0x1
 4026 03a1 52       		.byte	0x52
 4027 03a2 A2000000 		.4byte	0xa2
 4028 03a6 0D040000 		.4byte	.LLST29
 4029 03aa 15       		.uleb128 0x15
 4030 03ab 79313300 		.ascii	"y13\000"
 4031 03af 01       		.byte	0x1
 4032 03b0 52       		.byte	0x52
 4033 03b1 A2000000 		.4byte	0xa2
 4034 03b5 32040000 		.4byte	.LLST30
 4035 03b9 15       		.uleb128 0x15
 4036 03ba 79313400 		.ascii	"y14\000"
 4037 03be 01       		.byte	0x1
 4038 03bf 52       		.byte	0x52
 4039 03c0 A2000000 		.4byte	0xa2
 4040 03c4 57040000 		.4byte	.LLST31
 4041 03c8 15       		.uleb128 0x15
 4042 03c9 79313500 		.ascii	"y15\000"
 4043 03cd 01       		.byte	0x1
 4044 03ce 52       		.byte	0x52
 4045 03cf A2000000 		.4byte	0xa2
 4046 03d3 7C040000 		.4byte	.LLST32
 4047 03d7 15       		.uleb128 0x15
 4048 03d8 79313600 		.ascii	"y16\000"
 4049 03dc 01       		.byte	0x1
 4050 03dd 52       		.byte	0x52
 4051 03de A2000000 		.4byte	0xa2
 4052 03e2 A1040000 		.4byte	.LLST33
 4053 03e6 15       		.uleb128 0x15
 4054 03e7 79313700 		.ascii	"y17\000"
 4055 03eb 01       		.byte	0x1
 4056 03ec 52       		.byte	0x52
 4057 03ed A2000000 		.4byte	0xa2
 4058 03f1 C6040000 		.4byte	.LLST34
 4059 03f5 15       		.uleb128 0x15
 4060 03f6 79313800 		.ascii	"y18\000"
 4061 03fa 01       		.byte	0x1
 4062 03fb 52       		.byte	0x52
 4063 03fc A2000000 		.4byte	0xa2
 4064 0400 EB040000 		.4byte	.LLST35
 4065 0404 15       		.uleb128 0x15
ARM GAS  C:\Users\bogur\AppData\Local\Temp\cca0k2e0.s 			page 86


 4066 0405 79313900 		.ascii	"y19\000"
 4067 0409 01       		.byte	0x1
 4068 040a 52       		.byte	0x52
 4069 040b A2000000 		.4byte	0xa2
 4070 040f 0F050000 		.4byte	.LLST36
 4071 0413 15       		.uleb128 0x15
 4072 0414 79323000 		.ascii	"y20\000"
 4073 0418 01       		.byte	0x1
 4074 0419 53       		.byte	0x53
 4075 041a A2000000 		.4byte	0xa2
 4076 041e 34050000 		.4byte	.LLST37
 4077 0422 15       		.uleb128 0x15
 4078 0423 79323100 		.ascii	"y21\000"
 4079 0427 01       		.byte	0x1
 4080 0428 53       		.byte	0x53
 4081 0429 A2000000 		.4byte	0xa2
 4082 042d 59050000 		.4byte	.LLST38
 4083 0431 15       		.uleb128 0x15
 4084 0432 7A3000   		.ascii	"z0\000"
 4085 0435 01       		.byte	0x1
 4086 0436 54       		.byte	0x54
 4087 0437 A2000000 		.4byte	0xa2
 4088 043b 7E050000 		.4byte	.LLST39
 4089 043f 15       		.uleb128 0x15
 4090 0440 7A3100   		.ascii	"z1\000"
 4091 0443 01       		.byte	0x1
 4092 0444 54       		.byte	0x54
 4093 0445 A2000000 		.4byte	0xa2
 4094 0449 A2050000 		.4byte	.LLST40
 4095 044d 15       		.uleb128 0x15
 4096 044e 7A3200   		.ascii	"z2\000"
 4097 0451 01       		.byte	0x1
 4098 0452 54       		.byte	0x54
 4099 0453 A2000000 		.4byte	0xa2
 4100 0457 C6050000 		.4byte	.LLST41
 4101 045b 15       		.uleb128 0x15
 4102 045c 7A3300   		.ascii	"z3\000"
 4103 045f 01       		.byte	0x1
 4104 0460 54       		.byte	0x54
 4105 0461 A2000000 		.4byte	0xa2
 4106 0465 EA050000 		.4byte	.LLST42
 4107 0469 15       		.uleb128 0x15
 4108 046a 7A3400   		.ascii	"z4\000"
 4109 046d 01       		.byte	0x1
 4110 046e 54       		.byte	0x54
 4111 046f A2000000 		.4byte	0xa2
 4112 0473 0F060000 		.4byte	.LLST43
 4113 0477 15       		.uleb128 0x15
 4114 0478 7A3500   		.ascii	"z5\000"
 4115 047b 01       		.byte	0x1
 4116 047c 54       		.byte	0x54
 4117 047d A2000000 		.4byte	0xa2
 4118 0481 34060000 		.4byte	.LLST44
 4119 0485 15       		.uleb128 0x15
 4120 0486 7A3600   		.ascii	"z6\000"
 4121 0489 01       		.byte	0x1
 4122 048a 54       		.byte	0x54
ARM GAS  C:\Users\bogur\AppData\Local\Temp\cca0k2e0.s 			page 87


 4123 048b A2000000 		.4byte	0xa2
 4124 048f 59060000 		.4byte	.LLST45
 4125 0493 15       		.uleb128 0x15
 4126 0494 7A3700   		.ascii	"z7\000"
 4127 0497 01       		.byte	0x1
 4128 0498 54       		.byte	0x54
 4129 0499 A2000000 		.4byte	0xa2
 4130 049d 7E060000 		.4byte	.LLST46
 4131 04a1 15       		.uleb128 0x15
 4132 04a2 7A3800   		.ascii	"z8\000"
 4133 04a5 01       		.byte	0x1
 4134 04a6 54       		.byte	0x54
 4135 04a7 A2000000 		.4byte	0xa2
 4136 04ab A3060000 		.4byte	.LLST47
 4137 04af 15       		.uleb128 0x15
 4138 04b0 7A3900   		.ascii	"z9\000"
 4139 04b3 01       		.byte	0x1
 4140 04b4 54       		.byte	0x54
 4141 04b5 A2000000 		.4byte	0xa2
 4142 04b9 C8060000 		.4byte	.LLST48
 4143 04bd 15       		.uleb128 0x15
 4144 04be 7A313000 		.ascii	"z10\000"
 4145 04c2 01       		.byte	0x1
 4146 04c3 55       		.byte	0x55
 4147 04c4 A2000000 		.4byte	0xa2
 4148 04c8 ED060000 		.4byte	.LLST49
 4149 04cc 15       		.uleb128 0x15
 4150 04cd 7A313100 		.ascii	"z11\000"
 4151 04d1 01       		.byte	0x1
 4152 04d2 55       		.byte	0x55
 4153 04d3 A2000000 		.4byte	0xa2
 4154 04d7 05070000 		.4byte	.LLST50
 4155 04db 15       		.uleb128 0x15
 4156 04dc 7A313200 		.ascii	"z12\000"
 4157 04e0 01       		.byte	0x1
 4158 04e1 55       		.byte	0x55
 4159 04e2 A2000000 		.4byte	0xa2
 4160 04e6 2A070000 		.4byte	.LLST51
 4161 04ea 15       		.uleb128 0x15
 4162 04eb 7A313300 		.ascii	"z13\000"
 4163 04ef 01       		.byte	0x1
 4164 04f0 55       		.byte	0x55
 4165 04f1 A2000000 		.4byte	0xa2
 4166 04f5 4F070000 		.4byte	.LLST52
 4167 04f9 15       		.uleb128 0x15
 4168 04fa 7A313400 		.ascii	"z14\000"
 4169 04fe 01       		.byte	0x1
 4170 04ff 55       		.byte	0x55
 4171 0500 A2000000 		.4byte	0xa2
 4172 0504 67070000 		.4byte	.LLST53
 4173 0508 15       		.uleb128 0x15
 4174 0509 7A313500 		.ascii	"z15\000"
 4175 050d 01       		.byte	0x1
 4176 050e 55       		.byte	0x55
 4177 050f A2000000 		.4byte	0xa2
 4178 0513 8C070000 		.4byte	.LLST54
 4179 0517 15       		.uleb128 0x15
ARM GAS  C:\Users\bogur\AppData\Local\Temp\cca0k2e0.s 			page 88


 4180 0518 7A313600 		.ascii	"z16\000"
 4181 051c 01       		.byte	0x1
 4182 051d 55       		.byte	0x55
 4183 051e A2000000 		.4byte	0xa2
 4184 0522 A4070000 		.4byte	.LLST55
 4185 0526 15       		.uleb128 0x15
 4186 0527 7A313700 		.ascii	"z17\000"
 4187 052b 01       		.byte	0x1
 4188 052c 55       		.byte	0x55
 4189 052d A2000000 		.4byte	0xa2
 4190 0531 BC070000 		.4byte	.LLST56
 4191 0535 15       		.uleb128 0x15
 4192 0536 743000   		.ascii	"t0\000"
 4193 0539 01       		.byte	0x1
 4194 053a 56       		.byte	0x56
 4195 053b A2000000 		.4byte	0xa2
 4196 053f D4070000 		.4byte	.LLST57
 4197 0543 15       		.uleb128 0x15
 4198 0544 743100   		.ascii	"t1\000"
 4199 0547 01       		.byte	0x1
 4200 0548 56       		.byte	0x56
 4201 0549 A2000000 		.4byte	0xa2
 4202 054d EC070000 		.4byte	.LLST58
 4203 0551 15       		.uleb128 0x15
 4204 0552 743200   		.ascii	"t2\000"
 4205 0555 01       		.byte	0x1
 4206 0556 56       		.byte	0x56
 4207 0557 A2000000 		.4byte	0xa2
 4208 055b 04080000 		.4byte	.LLST59
 4209 055f 16       		.uleb128 0x16
 4210 0560 743300   		.ascii	"t3\000"
 4211 0563 01       		.byte	0x1
 4212 0564 56       		.byte	0x56
 4213 0565 A2000000 		.4byte	0xa2
 4214 0569 06       		.uleb128 0x6
 4215 056a 56       		.byte	0x56
 4216 056b 93       		.byte	0x93
 4217 056c 04       		.uleb128 0x4
 4218 056d 57       		.byte	0x57
 4219 056e 93       		.byte	0x93
 4220 056f 04       		.uleb128 0x4
 4221 0570 15       		.uleb128 0x15
 4222 0571 743400   		.ascii	"t4\000"
 4223 0574 01       		.byte	0x1
 4224 0575 56       		.byte	0x56
 4225 0576 A2000000 		.4byte	0xa2
 4226 057a 1C080000 		.4byte	.LLST60
 4227 057e 15       		.uleb128 0x15
 4228 057f 743500   		.ascii	"t5\000"
 4229 0582 01       		.byte	0x1
 4230 0583 56       		.byte	0x56
 4231 0584 A2000000 		.4byte	0xa2
 4232 0588 51080000 		.4byte	.LLST61
 4233 058c 15       		.uleb128 0x15
 4234 058d 743600   		.ascii	"t6\000"
 4235 0590 01       		.byte	0x1
 4236 0591 56       		.byte	0x56
ARM GAS  C:\Users\bogur\AppData\Local\Temp\cca0k2e0.s 			page 89


 4237 0592 A2000000 		.4byte	0xa2
 4238 0596 69080000 		.4byte	.LLST62
 4239 059a 15       		.uleb128 0x15
 4240 059b 743700   		.ascii	"t7\000"
 4241 059e 01       		.byte	0x1
 4242 059f 56       		.byte	0x56
 4243 05a0 A2000000 		.4byte	0xa2
 4244 05a4 8E080000 		.4byte	.LLST63
 4245 05a8 15       		.uleb128 0x15
 4246 05a9 743800   		.ascii	"t8\000"
 4247 05ac 01       		.byte	0x1
 4248 05ad 56       		.byte	0x56
 4249 05ae A2000000 		.4byte	0xa2
 4250 05b2 A6080000 		.4byte	.LLST64
 4251 05b6 15       		.uleb128 0x15
 4252 05b7 743900   		.ascii	"t9\000"
 4253 05ba 01       		.byte	0x1
 4254 05bb 56       		.byte	0x56
 4255 05bc A2000000 		.4byte	0xa2
 4256 05c0 BE080000 		.4byte	.LLST65
 4257 05c4 16       		.uleb128 0x16
 4258 05c5 74313000 		.ascii	"t10\000"
 4259 05c9 01       		.byte	0x1
 4260 05ca 57       		.byte	0x57
 4261 05cb A2000000 		.4byte	0xa2
 4262 05cf 06       		.uleb128 0x6
 4263 05d0 58       		.byte	0x58
 4264 05d1 93       		.byte	0x93
 4265 05d2 04       		.uleb128 0x4
 4266 05d3 59       		.byte	0x59
 4267 05d4 93       		.byte	0x93
 4268 05d5 04       		.uleb128 0x4
 4269 05d6 15       		.uleb128 0x15
 4270 05d7 74313100 		.ascii	"t11\000"
 4271 05db 01       		.byte	0x1
 4272 05dc 57       		.byte	0x57
 4273 05dd A2000000 		.4byte	0xa2
 4274 05e1 D6080000 		.4byte	.LLST66
 4275 05e5 15       		.uleb128 0x15
 4276 05e6 74313200 		.ascii	"t12\000"
 4277 05ea 01       		.byte	0x1
 4278 05eb 57       		.byte	0x57
 4279 05ec A2000000 		.4byte	0xa2
 4280 05f0 EE080000 		.4byte	.LLST67
 4281 05f4 15       		.uleb128 0x15
 4282 05f5 74313300 		.ascii	"t13\000"
 4283 05f9 01       		.byte	0x1
 4284 05fa 57       		.byte	0x57
 4285 05fb A2000000 		.4byte	0xa2
 4286 05ff 06090000 		.4byte	.LLST68
 4287 0603 15       		.uleb128 0x15
 4288 0604 74313400 		.ascii	"t14\000"
 4289 0608 01       		.byte	0x1
 4290 0609 57       		.byte	0x57
 4291 060a A2000000 		.4byte	0xa2
 4292 060e 1E090000 		.4byte	.LLST69
 4293 0612 15       		.uleb128 0x15
ARM GAS  C:\Users\bogur\AppData\Local\Temp\cca0k2e0.s 			page 90


 4294 0613 74313500 		.ascii	"t15\000"
 4295 0617 01       		.byte	0x1
 4296 0618 57       		.byte	0x57
 4297 0619 A2000000 		.4byte	0xa2
 4298 061d 43090000 		.4byte	.LLST70
 4299 0621 15       		.uleb128 0x15
 4300 0622 74313600 		.ascii	"t16\000"
 4301 0626 01       		.byte	0x1
 4302 0627 57       		.byte	0x57
 4303 0628 A2000000 		.4byte	0xa2
 4304 062c 5B090000 		.4byte	.LLST71
 4305 0630 15       		.uleb128 0x15
 4306 0631 74313700 		.ascii	"t17\000"
 4307 0635 01       		.byte	0x1
 4308 0636 57       		.byte	0x57
 4309 0637 A2000000 		.4byte	0xa2
 4310 063b 73090000 		.4byte	.LLST72
 4311 063f 15       		.uleb128 0x15
 4312 0640 74313800 		.ascii	"t18\000"
 4313 0644 01       		.byte	0x1
 4314 0645 57       		.byte	0x57
 4315 0646 A2000000 		.4byte	0xa2
 4316 064a 8B090000 		.4byte	.LLST73
 4317 064e 15       		.uleb128 0x15
 4318 064f 74313900 		.ascii	"t19\000"
 4319 0653 01       		.byte	0x1
 4320 0654 57       		.byte	0x57
 4321 0655 A2000000 		.4byte	0xa2
 4322 0659 A3090000 		.4byte	.LLST74
 4323 065d 15       		.uleb128 0x15
 4324 065e 74323000 		.ascii	"t20\000"
 4325 0662 01       		.byte	0x1
 4326 0663 58       		.byte	0x58
 4327 0664 A2000000 		.4byte	0xa2
 4328 0668 BB090000 		.4byte	.LLST75
 4329 066c 15       		.uleb128 0x15
 4330 066d 74323100 		.ascii	"t21\000"
 4331 0671 01       		.byte	0x1
 4332 0672 58       		.byte	0x58
 4333 0673 A2000000 		.4byte	0xa2
 4334 0677 D3090000 		.4byte	.LLST76
 4335 067b 15       		.uleb128 0x15
 4336 067c 74323200 		.ascii	"t22\000"
 4337 0680 01       		.byte	0x1
 4338 0681 58       		.byte	0x58
 4339 0682 A2000000 		.4byte	0xa2
 4340 0686 F7090000 		.4byte	.LLST77
 4341 068a 15       		.uleb128 0x15
 4342 068b 74323300 		.ascii	"t23\000"
 4343 068f 01       		.byte	0x1
 4344 0690 58       		.byte	0x58
 4345 0691 A2000000 		.4byte	0xa2
 4346 0695 0F0A0000 		.4byte	.LLST78
 4347 0699 15       		.uleb128 0x15
 4348 069a 74323400 		.ascii	"t24\000"
 4349 069e 01       		.byte	0x1
 4350 069f 58       		.byte	0x58
ARM GAS  C:\Users\bogur\AppData\Local\Temp\cca0k2e0.s 			page 91


 4351 06a0 A2000000 		.4byte	0xa2
 4352 06a4 340A0000 		.4byte	.LLST79
 4353 06a8 15       		.uleb128 0x15
 4354 06a9 74323500 		.ascii	"t25\000"
 4355 06ad 01       		.byte	0x1
 4356 06ae 58       		.byte	0x58
 4357 06af A2000000 		.4byte	0xa2
 4358 06b3 4C0A0000 		.4byte	.LLST80
 4359 06b7 15       		.uleb128 0x15
 4360 06b8 74323600 		.ascii	"t26\000"
 4361 06bc 01       		.byte	0x1
 4362 06bd 58       		.byte	0x58
 4363 06be A2000000 		.4byte	0xa2
 4364 06c2 710A0000 		.4byte	.LLST81
 4365 06c6 15       		.uleb128 0x15
 4366 06c7 74323700 		.ascii	"t27\000"
 4367 06cb 01       		.byte	0x1
 4368 06cc 58       		.byte	0x58
 4369 06cd A2000000 		.4byte	0xa2
 4370 06d1 890A0000 		.4byte	.LLST82
 4371 06d5 15       		.uleb128 0x15
 4372 06d6 74323800 		.ascii	"t28\000"
 4373 06da 01       		.byte	0x1
 4374 06db 58       		.byte	0x58
 4375 06dc A2000000 		.4byte	0xa2
 4376 06e0 A10A0000 		.4byte	.LLST83
 4377 06e4 15       		.uleb128 0x15
 4378 06e5 74323900 		.ascii	"t29\000"
 4379 06e9 01       		.byte	0x1
 4380 06ea 58       		.byte	0x58
 4381 06eb A2000000 		.4byte	0xa2
 4382 06ef B90A0000 		.4byte	.LLST84
 4383 06f3 15       		.uleb128 0x15
 4384 06f4 74333000 		.ascii	"t30\000"
 4385 06f8 01       		.byte	0x1
 4386 06f9 59       		.byte	0x59
 4387 06fa A2000000 		.4byte	0xa2
 4388 06fe DD0A0000 		.4byte	.LLST85
 4389 0702 15       		.uleb128 0x15
 4390 0703 74333100 		.ascii	"t31\000"
 4391 0707 01       		.byte	0x1
 4392 0708 59       		.byte	0x59
 4393 0709 A2000000 		.4byte	0xa2
 4394 070d F50A0000 		.4byte	.LLST86
 4395 0711 15       		.uleb128 0x15
 4396 0712 74333200 		.ascii	"t32\000"
 4397 0716 01       		.byte	0x1
 4398 0717 59       		.byte	0x59
 4399 0718 A2000000 		.4byte	0xa2
 4400 071c 0D0B0000 		.4byte	.LLST87
 4401 0720 15       		.uleb128 0x15
 4402 0721 74333300 		.ascii	"t33\000"
 4403 0725 01       		.byte	0x1
 4404 0726 59       		.byte	0x59
 4405 0727 A2000000 		.4byte	0xa2
 4406 072b 250B0000 		.4byte	.LLST88
 4407 072f 15       		.uleb128 0x15
ARM GAS  C:\Users\bogur\AppData\Local\Temp\cca0k2e0.s 			page 92


 4408 0730 74333400 		.ascii	"t34\000"
 4409 0734 01       		.byte	0x1
 4410 0735 59       		.byte	0x59
 4411 0736 A2000000 		.4byte	0xa2
 4412 073a 4A0B0000 		.4byte	.LLST89
 4413 073e 15       		.uleb128 0x15
 4414 073f 74333500 		.ascii	"t35\000"
 4415 0743 01       		.byte	0x1
 4416 0744 59       		.byte	0x59
 4417 0745 A2000000 		.4byte	0xa2
 4418 0749 620B0000 		.4byte	.LLST90
 4419 074d 15       		.uleb128 0x15
 4420 074e 74333600 		.ascii	"t36\000"
 4421 0752 01       		.byte	0x1
 4422 0753 59       		.byte	0x59
 4423 0754 A2000000 		.4byte	0xa2
 4424 0758 7A0B0000 		.4byte	.LLST91
 4425 075c 15       		.uleb128 0x15
 4426 075d 74333700 		.ascii	"t37\000"
 4427 0761 01       		.byte	0x1
 4428 0762 59       		.byte	0x59
 4429 0763 A2000000 		.4byte	0xa2
 4430 0767 920B0000 		.4byte	.LLST92
 4431 076b 15       		.uleb128 0x15
 4432 076c 74333800 		.ascii	"t38\000"
 4433 0770 01       		.byte	0x1
 4434 0771 59       		.byte	0x59
 4435 0772 A2000000 		.4byte	0xa2
 4436 0776 B70B0000 		.4byte	.LLST93
 4437 077a 15       		.uleb128 0x15
 4438 077b 74333900 		.ascii	"t39\000"
 4439 077f 01       		.byte	0x1
 4440 0780 59       		.byte	0x59
 4441 0781 A2000000 		.4byte	0xa2
 4442 0785 CF0B0000 		.4byte	.LLST94
 4443 0789 15       		.uleb128 0x15
 4444 078a 74343000 		.ascii	"t40\000"
 4445 078e 01       		.byte	0x1
 4446 078f 5A       		.byte	0x5a
 4447 0790 A2000000 		.4byte	0xa2
 4448 0794 E70B0000 		.4byte	.LLST95
 4449 0798 15       		.uleb128 0x15
 4450 0799 74343100 		.ascii	"t41\000"
 4451 079d 01       		.byte	0x1
 4452 079e 5A       		.byte	0x5a
 4453 079f A2000000 		.4byte	0xa2
 4454 07a3 FF0B0000 		.4byte	.LLST96
 4455 07a7 15       		.uleb128 0x15
 4456 07a8 74343200 		.ascii	"t42\000"
 4457 07ac 01       		.byte	0x1
 4458 07ad 5A       		.byte	0x5a
 4459 07ae A2000000 		.4byte	0xa2
 4460 07b2 170C0000 		.4byte	.LLST97
 4461 07b6 15       		.uleb128 0x15
 4462 07b7 74343300 		.ascii	"t43\000"
 4463 07bb 01       		.byte	0x1
 4464 07bc 5A       		.byte	0x5a
ARM GAS  C:\Users\bogur\AppData\Local\Temp\cca0k2e0.s 			page 93


 4465 07bd A2000000 		.4byte	0xa2
 4466 07c1 3C0C0000 		.4byte	.LLST98
 4467 07c5 15       		.uleb128 0x15
 4468 07c6 74343400 		.ascii	"t44\000"
 4469 07ca 01       		.byte	0x1
 4470 07cb 5A       		.byte	0x5a
 4471 07cc A2000000 		.4byte	0xa2
 4472 07d0 610C0000 		.4byte	.LLST99
 4473 07d4 15       		.uleb128 0x15
 4474 07d5 74343500 		.ascii	"t45\000"
 4475 07d9 01       		.byte	0x1
 4476 07da 5A       		.byte	0x5a
 4477 07db A2000000 		.4byte	0xa2
 4478 07df 860C0000 		.4byte	.LLST100
 4479 07e3 15       		.uleb128 0x15
 4480 07e4 74343600 		.ascii	"t46\000"
 4481 07e8 01       		.byte	0x1
 4482 07e9 5A       		.byte	0x5a
 4483 07ea A2000000 		.4byte	0xa2
 4484 07ee AB0C0000 		.4byte	.LLST101
 4485 07f2 15       		.uleb128 0x15
 4486 07f3 74343700 		.ascii	"t47\000"
 4487 07f7 01       		.byte	0x1
 4488 07f8 5A       		.byte	0x5a
 4489 07f9 A2000000 		.4byte	0xa2
 4490 07fd CF0C0000 		.4byte	.LLST102
 4491 0801 15       		.uleb128 0x15
 4492 0802 74343800 		.ascii	"t48\000"
 4493 0806 01       		.byte	0x1
 4494 0807 5A       		.byte	0x5a
 4495 0808 A2000000 		.4byte	0xa2
 4496 080c F40C0000 		.4byte	.LLST103
 4497 0810 15       		.uleb128 0x15
 4498 0811 74343900 		.ascii	"t49\000"
 4499 0815 01       		.byte	0x1
 4500 0816 5A       		.byte	0x5a
 4501 0817 A2000000 		.4byte	0xa2
 4502 081b 190D0000 		.4byte	.LLST104
 4503 081f 15       		.uleb128 0x15
 4504 0820 74353000 		.ascii	"t50\000"
 4505 0824 01       		.byte	0x1
 4506 0825 5B       		.byte	0x5b
 4507 0826 A2000000 		.4byte	0xa2
 4508 082a 3E0D0000 		.4byte	.LLST105
 4509 082e 15       		.uleb128 0x15
 4510 082f 74353100 		.ascii	"t51\000"
 4511 0833 01       		.byte	0x1
 4512 0834 5B       		.byte	0x5b
 4513 0835 A2000000 		.4byte	0xa2
 4514 0839 560D0000 		.4byte	.LLST106
 4515 083d 15       		.uleb128 0x15
 4516 083e 74353200 		.ascii	"t52\000"
 4517 0842 01       		.byte	0x1
 4518 0843 5B       		.byte	0x5b
 4519 0844 A2000000 		.4byte	0xa2
 4520 0848 7B0D0000 		.4byte	.LLST107
 4521 084c 15       		.uleb128 0x15
ARM GAS  C:\Users\bogur\AppData\Local\Temp\cca0k2e0.s 			page 94


 4522 084d 74353300 		.ascii	"t53\000"
 4523 0851 01       		.byte	0x1
 4524 0852 5B       		.byte	0x5b
 4525 0853 A2000000 		.4byte	0xa2
 4526 0857 930D0000 		.4byte	.LLST108
 4527 085b 15       		.uleb128 0x15
 4528 085c 74353400 		.ascii	"t54\000"
 4529 0860 01       		.byte	0x1
 4530 0861 5B       		.byte	0x5b
 4531 0862 A2000000 		.4byte	0xa2
 4532 0866 B80D0000 		.4byte	.LLST109
 4533 086a 15       		.uleb128 0x15
 4534 086b 74353500 		.ascii	"t55\000"
 4535 086f 01       		.byte	0x1
 4536 0870 5B       		.byte	0x5b
 4537 0871 A2000000 		.4byte	0xa2
 4538 0875 D00D0000 		.4byte	.LLST110
 4539 0879 15       		.uleb128 0x15
 4540 087a 74353600 		.ascii	"t56\000"
 4541 087e 01       		.byte	0x1
 4542 087f 5B       		.byte	0x5b
 4543 0880 A2000000 		.4byte	0xa2
 4544 0884 F50D0000 		.4byte	.LLST111
 4545 0888 15       		.uleb128 0x15
 4546 0889 74353700 		.ascii	"t57\000"
 4547 088d 01       		.byte	0x1
 4548 088e 5B       		.byte	0x5b
 4549 088f A2000000 		.4byte	0xa2
 4550 0893 1A0E0000 		.4byte	.LLST112
 4551 0897 15       		.uleb128 0x15
 4552 0898 74353800 		.ascii	"t58\000"
 4553 089c 01       		.byte	0x1
 4554 089d 5B       		.byte	0x5b
 4555 089e A2000000 		.4byte	0xa2
 4556 08a2 320E0000 		.4byte	.LLST113
 4557 08a6 15       		.uleb128 0x15
 4558 08a7 74353900 		.ascii	"t59\000"
 4559 08ab 01       		.byte	0x1
 4560 08ac 5B       		.byte	0x5b
 4561 08ad A2000000 		.4byte	0xa2
 4562 08b1 4A0E0000 		.4byte	.LLST114
 4563 08b5 15       		.uleb128 0x15
 4564 08b6 74363000 		.ascii	"t60\000"
 4565 08ba 01       		.byte	0x1
 4566 08bb 5C       		.byte	0x5c
 4567 08bc A2000000 		.4byte	0xa2
 4568 08c0 620E0000 		.4byte	.LLST115
 4569 08c4 15       		.uleb128 0x15
 4570 08c5 74363100 		.ascii	"t61\000"
 4571 08c9 01       		.byte	0x1
 4572 08ca 5C       		.byte	0x5c
 4573 08cb A2000000 		.4byte	0xa2
 4574 08cf 7A0E0000 		.4byte	.LLST116
 4575 08d3 15       		.uleb128 0x15
 4576 08d4 74363200 		.ascii	"t62\000"
 4577 08d8 01       		.byte	0x1
 4578 08d9 5C       		.byte	0x5c
ARM GAS  C:\Users\bogur\AppData\Local\Temp\cca0k2e0.s 			page 95


 4579 08da A2000000 		.4byte	0xa2
 4580 08de 920E0000 		.4byte	.LLST117
 4581 08e2 15       		.uleb128 0x15
 4582 08e3 74363300 		.ascii	"t63\000"
 4583 08e7 01       		.byte	0x1
 4584 08e8 5C       		.byte	0x5c
 4585 08e9 A2000000 		.4byte	0xa2
 4586 08ed C60E0000 		.4byte	.LLST118
 4587 08f1 15       		.uleb128 0x15
 4588 08f2 74363400 		.ascii	"t64\000"
 4589 08f6 01       		.byte	0x1
 4590 08f7 5C       		.byte	0x5c
 4591 08f8 A2000000 		.4byte	0xa2
 4592 08fc DE0E0000 		.4byte	.LLST119
 4593 0900 15       		.uleb128 0x15
 4594 0901 74363500 		.ascii	"t65\000"
 4595 0905 01       		.byte	0x1
 4596 0906 5C       		.byte	0x5c
 4597 0907 A2000000 		.4byte	0xa2
 4598 090b 130F0000 		.4byte	.LLST120
 4599 090f 15       		.uleb128 0x15
 4600 0910 74363600 		.ascii	"t66\000"
 4601 0914 01       		.byte	0x1
 4602 0915 5C       		.byte	0x5c
 4603 0916 A2000000 		.4byte	0xa2
 4604 091a 440F0000 		.4byte	.LLST121
 4605 091e 15       		.uleb128 0x15
 4606 091f 74363700 		.ascii	"t67\000"
 4607 0923 01       		.byte	0x1
 4608 0924 5C       		.byte	0x5c
 4609 0925 A2000000 		.4byte	0xa2
 4610 0929 5C0F0000 		.4byte	.LLST122
 4611 092d 15       		.uleb128 0x15
 4612 092e 733000   		.ascii	"s0\000"
 4613 0931 01       		.byte	0x1
 4614 0932 5D       		.byte	0x5d
 4615 0933 A2000000 		.4byte	0xa2
 4616 0937 810F0000 		.4byte	.LLST123
 4617 093b 16       		.uleb128 0x16
 4618 093c 733100   		.ascii	"s1\000"
 4619 093f 01       		.byte	0x1
 4620 0940 5D       		.byte	0x5d
 4621 0941 A2000000 		.4byte	0xa2
 4622 0945 06       		.uleb128 0x6
 4623 0946 54       		.byte	0x54
 4624 0947 93       		.byte	0x93
 4625 0948 04       		.uleb128 0x4
 4626 0949 55       		.byte	0x55
 4627 094a 93       		.byte	0x93
 4628 094b 04       		.uleb128 0x4
 4629 094c 16       		.uleb128 0x16
 4630 094d 733200   		.ascii	"s2\000"
 4631 0950 01       		.byte	0x1
 4632 0951 5D       		.byte	0x5d
 4633 0952 A2000000 		.4byte	0xa2
 4634 0956 06       		.uleb128 0x6
 4635 0957 52       		.byte	0x52
ARM GAS  C:\Users\bogur\AppData\Local\Temp\cca0k2e0.s 			page 96


 4636 0958 93       		.byte	0x93
 4637 0959 04       		.uleb128 0x4
 4638 095a 53       		.byte	0x53
 4639 095b 93       		.byte	0x93
 4640 095c 04       		.uleb128 0x4
 4641 095d 16       		.uleb128 0x16
 4642 095e 733300   		.ascii	"s3\000"
 4643 0961 01       		.byte	0x1
 4644 0962 5D       		.byte	0x5d
 4645 0963 A2000000 		.4byte	0xa2
 4646 0967 06       		.uleb128 0x6
 4647 0968 56       		.byte	0x56
 4648 0969 93       		.byte	0x93
 4649 096a 04       		.uleb128 0x4
 4650 096b 57       		.byte	0x57
 4651 096c 93       		.byte	0x93
 4652 096d 04       		.uleb128 0x4
 4653 096e 16       		.uleb128 0x16
 4654 096f 733400   		.ascii	"s4\000"
 4655 0972 01       		.byte	0x1
 4656 0973 5D       		.byte	0x5d
 4657 0974 A2000000 		.4byte	0xa2
 4658 0978 06       		.uleb128 0x6
 4659 0979 5A       		.byte	0x5a
 4660 097a 93       		.byte	0x93
 4661 097b 04       		.uleb128 0x4
 4662 097c 5B       		.byte	0x5b
 4663 097d 93       		.byte	0x93
 4664 097e 04       		.uleb128 0x4
 4665 097f 16       		.uleb128 0x16
 4666 0980 733500   		.ascii	"s5\000"
 4667 0983 01       		.byte	0x1
 4668 0984 5D       		.byte	0x5d
 4669 0985 A2000000 		.4byte	0xa2
 4670 0989 06       		.uleb128 0x6
 4671 098a 58       		.byte	0x58
 4672 098b 93       		.byte	0x93
 4673 098c 04       		.uleb128 0x4
 4674 098d 59       		.byte	0x59
 4675 098e 93       		.byte	0x93
 4676 098f 04       		.uleb128 0x4
 4677 0990 15       		.uleb128 0x15
 4678 0991 733600   		.ascii	"s6\000"
 4679 0994 01       		.byte	0x1
 4680 0995 5D       		.byte	0x5d
 4681 0996 A2000000 		.4byte	0xa2
 4682 099a A50F0000 		.4byte	.LLST124
 4683 099e 15       		.uleb128 0x15
 4684 099f 733700   		.ascii	"s7\000"
 4685 09a2 01       		.byte	0x1
 4686 09a3 5D       		.byte	0x5d
 4687 09a4 A2000000 		.4byte	0xa2
 4688 09a8 C90F0000 		.4byte	.LLST125
 4689 09ac 00       		.byte	0
 4690 09ad 0C       		.uleb128 0xc
 4691 09ae 04       		.byte	0x4
 4692 09af A2000000 		.4byte	0xa2
ARM GAS  C:\Users\bogur\AppData\Local\Temp\cca0k2e0.s 			page 97


 4693 09b3 11       		.uleb128 0x11
 4694 09b4 2C030000 		.4byte	.LASF27
 4695 09b8 01       		.byte	0x1
 4696 09b9 F3       		.byte	0xf3
 4697 09ba 00000000 		.4byte	.LFB6
 4698 09be 06040000 		.4byte	.LFE6-.LFB6
 4699 09c2 01       		.uleb128 0x1
 4700 09c3 9C       		.byte	0x9c
 4701 09c4 C70B0000 		.4byte	0xbc7
 4702 09c8 12       		.uleb128 0x12
 4703 09c9 7100     		.ascii	"q\000"
 4704 09cb 01       		.byte	0x1
 4705 09cc F3       		.byte	0xf3
 4706 09cd AD090000 		.4byte	0x9ad
 4707 09d1 EE0F0000 		.4byte	.LLST126
 4708 09d5 17       		.uleb128 0x17
 4709 09d6 08000000 		.4byte	.LBB47
 4710 09da 4A000000 		.4byte	.LBE47-.LBB47
 4711 09de FF090000 		.4byte	0x9ff
 4712 09e2 18       		.uleb128 0x18
 4713 09e3 6100     		.ascii	"a\000"
 4714 09e5 01       		.byte	0x1
 4715 09e6 0101     		.2byte	0x101
 4716 09e8 A2000000 		.4byte	0xa2
 4717 09ec 0C100000 		.4byte	.LLST127
 4718 09f0 18       		.uleb128 0x18
 4719 09f1 6200     		.ascii	"b\000"
 4720 09f3 01       		.byte	0x1
 4721 09f4 0101     		.2byte	0x101
 4722 09f6 A2000000 		.4byte	0xa2
 4723 09fa 30100000 		.4byte	.LLST128
 4724 09fe 00       		.byte	0
 4725 09ff 17       		.uleb128 0x17
 4726 0a00 52000000 		.4byte	.LBB48
 4727 0a04 4E000000 		.4byte	.LBE48-.LBB48
 4728 0a08 290A0000 		.4byte	0xa29
 4729 0a0c 18       		.uleb128 0x18
 4730 0a0d 6100     		.ascii	"a\000"
 4731 0a0f 01       		.byte	0x1
 4732 0a10 0201     		.2byte	0x102
 4733 0a12 A2000000 		.4byte	0xa2
 4734 0a16 54100000 		.4byte	.LLST129
 4735 0a1a 18       		.uleb128 0x18
 4736 0a1b 6200     		.ascii	"b\000"
 4737 0a1d 01       		.byte	0x1
 4738 0a1e 0201     		.2byte	0x102
 4739 0a20 A2000000 		.4byte	0xa2
 4740 0a24 78100000 		.4byte	.LLST130
 4741 0a28 00       		.byte	0
 4742 0a29 17       		.uleb128 0x17
 4743 0a2a A0000000 		.4byte	.LBB49
 4744 0a2e 58000000 		.4byte	.LBE49-.LBB49
 4745 0a32 530A0000 		.4byte	0xa53
 4746 0a36 18       		.uleb128 0x18
 4747 0a37 6100     		.ascii	"a\000"
 4748 0a39 01       		.byte	0x1
 4749 0a3a 0301     		.2byte	0x103
ARM GAS  C:\Users\bogur\AppData\Local\Temp\cca0k2e0.s 			page 98


 4750 0a3c A2000000 		.4byte	0xa2
 4751 0a40 9C100000 		.4byte	.LLST131
 4752 0a44 18       		.uleb128 0x18
 4753 0a45 6200     		.ascii	"b\000"
 4754 0a47 01       		.byte	0x1
 4755 0a48 0301     		.2byte	0x103
 4756 0a4a A2000000 		.4byte	0xa2
 4757 0a4e C0100000 		.4byte	.LLST132
 4758 0a52 00       		.byte	0
 4759 0a53 17       		.uleb128 0x17
 4760 0a54 F8000000 		.4byte	.LBB50
 4761 0a58 56000000 		.4byte	.LBE50-.LBB50
 4762 0a5c 7D0A0000 		.4byte	0xa7d
 4763 0a60 18       		.uleb128 0x18
 4764 0a61 6100     		.ascii	"a\000"
 4765 0a63 01       		.byte	0x1
 4766 0a64 0401     		.2byte	0x104
 4767 0a66 A2000000 		.4byte	0xa2
 4768 0a6a E4100000 		.4byte	.LLST133
 4769 0a6e 18       		.uleb128 0x18
 4770 0a6f 6200     		.ascii	"b\000"
 4771 0a71 01       		.byte	0x1
 4772 0a72 0401     		.2byte	0x104
 4773 0a74 A2000000 		.4byte	0xa2
 4774 0a78 F8100000 		.4byte	.LLST134
 4775 0a7c 00       		.byte	0
 4776 0a7d 17       		.uleb128 0x17
 4777 0a7e 4E010000 		.4byte	.LBB51
 4778 0a82 54000000 		.4byte	.LBE51-.LBB51
 4779 0a86 A70A0000 		.4byte	0xaa7
 4780 0a8a 18       		.uleb128 0x18
 4781 0a8b 6100     		.ascii	"a\000"
 4782 0a8d 01       		.byte	0x1
 4783 0a8e 0601     		.2byte	0x106
 4784 0a90 A2000000 		.4byte	0xa2
 4785 0a94 1C110000 		.4byte	.LLST135
 4786 0a98 18       		.uleb128 0x18
 4787 0a99 6200     		.ascii	"b\000"
 4788 0a9b 01       		.byte	0x1
 4789 0a9c 0601     		.2byte	0x106
 4790 0a9e A2000000 		.4byte	0xa2
 4791 0aa2 34110000 		.4byte	.LLST136
 4792 0aa6 00       		.byte	0
 4793 0aa7 17       		.uleb128 0x17
 4794 0aa8 A2010000 		.4byte	.LBB52
 4795 0aac 58000000 		.4byte	.LBE52-.LBB52
 4796 0ab0 D10A0000 		.4byte	0xad1
 4797 0ab4 18       		.uleb128 0x18
 4798 0ab5 6100     		.ascii	"a\000"
 4799 0ab7 01       		.byte	0x1
 4800 0ab8 0701     		.2byte	0x107
 4801 0aba A2000000 		.4byte	0xa2
 4802 0abe 59110000 		.4byte	.LLST137
 4803 0ac2 18       		.uleb128 0x18
 4804 0ac3 6200     		.ascii	"b\000"
 4805 0ac5 01       		.byte	0x1
 4806 0ac6 0701     		.2byte	0x107
ARM GAS  C:\Users\bogur\AppData\Local\Temp\cca0k2e0.s 			page 99


 4807 0ac8 A2000000 		.4byte	0xa2
 4808 0acc 6E110000 		.4byte	.LLST138
 4809 0ad0 00       		.byte	0
 4810 0ad1 17       		.uleb128 0x17
 4811 0ad2 FA010000 		.4byte	.LBB53
 4812 0ad6 5A000000 		.4byte	.LBE53-.LBB53
 4813 0ada FB0A0000 		.4byte	0xafb
 4814 0ade 18       		.uleb128 0x18
 4815 0adf 6100     		.ascii	"a\000"
 4816 0ae1 01       		.byte	0x1
 4817 0ae2 0801     		.2byte	0x108
 4818 0ae4 A2000000 		.4byte	0xa2
 4819 0ae8 93110000 		.4byte	.LLST139
 4820 0aec 18       		.uleb128 0x18
 4821 0aed 6200     		.ascii	"b\000"
 4822 0aef 01       		.byte	0x1
 4823 0af0 0801     		.2byte	0x108
 4824 0af2 A2000000 		.4byte	0xa2
 4825 0af6 A8110000 		.4byte	.LLST140
 4826 0afa 00       		.byte	0
 4827 0afb 17       		.uleb128 0x17
 4828 0afc 54020000 		.4byte	.LBB54
 4829 0b00 54000000 		.4byte	.LBE54-.LBB54
 4830 0b04 240B0000 		.4byte	0xb24
 4831 0b08 19       		.uleb128 0x19
 4832 0b09 6100     		.ascii	"a\000"
 4833 0b0b 01       		.byte	0x1
 4834 0b0c 0901     		.2byte	0x109
 4835 0b0e A2000000 		.4byte	0xa2
 4836 0b12 03       		.uleb128 0x3
 4837 0b13 91       		.byte	0x91
 4838 0b14 B87F     		.sleb128 -72
 4839 0b16 19       		.uleb128 0x19
 4840 0b17 6200     		.ascii	"b\000"
 4841 0b19 01       		.byte	0x1
 4842 0b1a 0901     		.2byte	0x109
 4843 0b1c A2000000 		.4byte	0xa2
 4844 0b20 02       		.uleb128 0x2
 4845 0b21 91       		.byte	0x91
 4846 0b22 40       		.sleb128 -64
 4847 0b23 00       		.byte	0
 4848 0b24 17       		.uleb128 0x17
 4849 0b25 A8020000 		.4byte	.LBB55
 4850 0b29 5C000000 		.4byte	.LBE55-.LBB55
 4851 0b2d 4E0B0000 		.4byte	0xb4e
 4852 0b31 19       		.uleb128 0x19
 4853 0b32 6100     		.ascii	"a\000"
 4854 0b34 01       		.byte	0x1
 4855 0b35 0B01     		.2byte	0x10b
 4856 0b37 A2000000 		.4byte	0xa2
 4857 0b3b 03       		.uleb128 0x3
 4858 0b3c 91       		.byte	0x91
 4859 0b3d A07F     		.sleb128 -96
 4860 0b3f 19       		.uleb128 0x19
 4861 0b40 6200     		.ascii	"b\000"
 4862 0b42 01       		.byte	0x1
 4863 0b43 0B01     		.2byte	0x10b
ARM GAS  C:\Users\bogur\AppData\Local\Temp\cca0k2e0.s 			page 100


 4864 0b45 A2000000 		.4byte	0xa2
 4865 0b49 03       		.uleb128 0x3
 4866 0b4a 91       		.byte	0x91
 4867 0b4b 987F     		.sleb128 -104
 4868 0b4d 00       		.byte	0
 4869 0b4e 17       		.uleb128 0x17
 4870 0b4f 04030000 		.4byte	.LBB56
 4871 0b53 50000000 		.4byte	.LBE56-.LBB56
 4872 0b57 780B0000 		.4byte	0xb78
 4873 0b5b 19       		.uleb128 0x19
 4874 0b5c 6100     		.ascii	"a\000"
 4875 0b5e 01       		.byte	0x1
 4876 0b5f 0C01     		.2byte	0x10c
 4877 0b61 A2000000 		.4byte	0xa2
 4878 0b65 03       		.uleb128 0x3
 4879 0b66 91       		.byte	0x91
 4880 0b67 A87F     		.sleb128 -88
 4881 0b69 18       		.uleb128 0x18
 4882 0b6a 6200     		.ascii	"b\000"
 4883 0b6c 01       		.byte	0x1
 4884 0b6d 0C01     		.2byte	0x10c
 4885 0b6f A2000000 		.4byte	0xa2
 4886 0b73 BC110000 		.4byte	.LLST141
 4887 0b77 00       		.byte	0
 4888 0b78 17       		.uleb128 0x17
 4889 0b79 54030000 		.4byte	.LBB57
 4890 0b7d 54000000 		.4byte	.LBE57-.LBB57
 4891 0b81 A10B0000 		.4byte	0xba1
 4892 0b85 19       		.uleb128 0x19
 4893 0b86 6100     		.ascii	"a\000"
 4894 0b88 01       		.byte	0x1
 4895 0b89 0D01     		.2byte	0x10d
 4896 0b8b A2000000 		.4byte	0xa2
 4897 0b8f 02       		.uleb128 0x2
 4898 0b90 91       		.byte	0x91
 4899 0b91 48       		.sleb128 -56
 4900 0b92 18       		.uleb128 0x18
 4901 0b93 6200     		.ascii	"b\000"
 4902 0b95 01       		.byte	0x1
 4903 0b96 0D01     		.2byte	0x10d
 4904 0b98 A2000000 		.4byte	0xa2
 4905 0b9c D4110000 		.4byte	.LLST142
 4906 0ba0 00       		.byte	0
 4907 0ba1 1A       		.uleb128 0x1a
 4908 0ba2 A8030000 		.4byte	.LBB58
 4909 0ba6 58000000 		.4byte	.LBE58-.LBB58
 4910 0baa 19       		.uleb128 0x19
 4911 0bab 6100     		.ascii	"a\000"
 4912 0bad 01       		.byte	0x1
 4913 0bae 0E01     		.2byte	0x10e
 4914 0bb0 A2000000 		.4byte	0xa2
 4915 0bb4 02       		.uleb128 0x2
 4916 0bb5 91       		.byte	0x91
 4917 0bb6 50       		.sleb128 -48
 4918 0bb7 19       		.uleb128 0x19
 4919 0bb8 6200     		.ascii	"b\000"
 4920 0bba 01       		.byte	0x1
ARM GAS  C:\Users\bogur\AppData\Local\Temp\cca0k2e0.s 			page 101


 4921 0bbb 0E01     		.2byte	0x10e
 4922 0bbd A2000000 		.4byte	0xa2
 4923 0bc1 03       		.uleb128 0x3
 4924 0bc2 91       		.byte	0x91
 4925 0bc3 B07F     		.sleb128 -80
 4926 0bc5 00       		.byte	0
 4927 0bc6 00       		.byte	0
 4928 0bc7 1B       		.uleb128 0x1b
 4929 0bc8 C2010000 		.4byte	.LASF28
 4930 0bcc 01       		.byte	0x1
 4931 0bcd 1101     		.2byte	0x111
 4932 0bcf 00000000 		.4byte	.LFB7
 4933 0bd3 44010000 		.4byte	.LFE7-.LFB7
 4934 0bd7 01       		.uleb128 0x1
 4935 0bd8 9C       		.byte	0x9c
 4936 0bd9 420C0000 		.4byte	0xc42
 4937 0bdd 1C       		.uleb128 0x1c
 4938 0bde 713000   		.ascii	"q0\000"
 4939 0be1 01       		.byte	0x1
 4940 0be2 1101     		.2byte	0x111
 4941 0be4 AD090000 		.4byte	0x9ad
 4942 0be8 01       		.uleb128 0x1
 4943 0be9 50       		.byte	0x50
 4944 0bea 1C       		.uleb128 0x1c
 4945 0beb 713100   		.ascii	"q1\000"
 4946 0bee 01       		.byte	0x1
 4947 0bef 1101     		.2byte	0x111
 4948 0bf1 AD090000 		.4byte	0x9ad
 4949 0bf5 01       		.uleb128 0x1
 4950 0bf6 51       		.byte	0x51
 4951 0bf7 1D       		.uleb128 0x1d
 4952 0bf8 7700     		.ascii	"w\000"
 4953 0bfa 01       		.byte	0x1
 4954 0bfb 1101     		.2byte	0x111
 4955 0bfd 62020000 		.4byte	0x262
 4956 0c01 F8110000 		.4byte	.LLST143
 4957 0c05 18       		.uleb128 0x18
 4958 0c06 783000   		.ascii	"x0\000"
 4959 0c09 01       		.byte	0x1
 4960 0c0a 1301     		.2byte	0x113
 4961 0c0c A2000000 		.4byte	0xa2
 4962 0c10 19120000 		.4byte	.LLST144
 4963 0c14 18       		.uleb128 0x18
 4964 0c15 783100   		.ascii	"x1\000"
 4965 0c18 01       		.byte	0x1
 4966 0c19 1301     		.2byte	0x113
 4967 0c1b A2000000 		.4byte	0xa2
 4968 0c1f 7D120000 		.4byte	.LLST145
 4969 0c23 18       		.uleb128 0x18
 4970 0c24 783200   		.ascii	"x2\000"
 4971 0c27 01       		.byte	0x1
 4972 0c28 1301     		.2byte	0x113
 4973 0c2a A2000000 		.4byte	0xa2
 4974 0c2e ED120000 		.4byte	.LLST146
 4975 0c32 18       		.uleb128 0x18
 4976 0c33 783300   		.ascii	"x3\000"
 4977 0c36 01       		.byte	0x1
ARM GAS  C:\Users\bogur\AppData\Local\Temp\cca0k2e0.s 			page 102


 4978 0c37 1301     		.2byte	0x113
 4979 0c39 A2000000 		.4byte	0xa2
 4980 0c3d 4F130000 		.4byte	.LLST147
 4981 0c41 00       		.byte	0
 4982 0c42 1B       		.uleb128 0x1b
 4983 0c43 DC030000 		.4byte	.LASF29
 4984 0c47 01       		.byte	0x1
 4985 0c48 2D01     		.2byte	0x12d
 4986 0c4a 00000000 		.4byte	.LFB8
 4987 0c4e CA000000 		.4byte	.LFE8-.LFB8
 4988 0c52 01       		.uleb128 0x1
 4989 0c53 9C       		.byte	0x9c
 4990 0c54 C00C0000 		.4byte	0xcc0
 4991 0c58 1D       		.uleb128 0x1d
 4992 0c59 7700     		.ascii	"w\000"
 4993 0c5b 01       		.byte	0x1
 4994 0c5c 2D01     		.2byte	0x12d
 4995 0c5e F9010000 		.4byte	0x1f9
 4996 0c62 BD130000 		.4byte	.LLST148
 4997 0c66 1D       		.uleb128 0x1d
 4998 0c67 713000   		.ascii	"q0\000"
 4999 0c6a 01       		.byte	0x1
 5000 0c6b 2D01     		.2byte	0x12d
 5001 0c6d A2000000 		.4byte	0xa2
 5002 0c71 DB130000 		.4byte	.LLST149
 5003 0c75 1C       		.uleb128 0x1c
 5004 0c76 713100   		.ascii	"q1\000"
 5005 0c79 01       		.byte	0x1
 5006 0c7a 2D01     		.2byte	0x12d
 5007 0c7c A2000000 		.4byte	0xa2
 5008 0c80 02       		.uleb128 0x2
 5009 0c81 91       		.byte	0x91
 5010 0c82 00       		.sleb128 0
 5011 0c83 18       		.uleb128 0x18
 5012 0c84 783000   		.ascii	"x0\000"
 5013 0c87 01       		.byte	0x1
 5014 0c88 2F01     		.2byte	0x12f
 5015 0c8a A2000000 		.4byte	0xa2
 5016 0c8e 03140000 		.4byte	.LLST150
 5017 0c92 18       		.uleb128 0x18
 5018 0c93 783100   		.ascii	"x1\000"
 5019 0c96 01       		.byte	0x1
 5020 0c97 2F01     		.2byte	0x12f
 5021 0c99 A2000000 		.4byte	0xa2
 5022 0c9d 3B140000 		.4byte	.LLST151
 5023 0ca1 18       		.uleb128 0x18
 5024 0ca2 783200   		.ascii	"x2\000"
 5025 0ca5 01       		.byte	0x1
 5026 0ca6 2F01     		.2byte	0x12f
 5027 0ca8 A2000000 		.4byte	0xa2
 5028 0cac 73140000 		.4byte	.LLST152
 5029 0cb0 18       		.uleb128 0x18
 5030 0cb1 783300   		.ascii	"x3\000"
 5031 0cb4 01       		.byte	0x1
 5032 0cb5 2F01     		.2byte	0x12f
 5033 0cb7 A2000000 		.4byte	0xa2
 5034 0cbb AB140000 		.4byte	.LLST153
ARM GAS  C:\Users\bogur\AppData\Local\Temp\cca0k2e0.s 			page 103


 5035 0cbf 00       		.byte	0
 5036 0cc0 1B       		.uleb128 0x1b
 5037 0cc1 41020000 		.4byte	.LASF30
 5038 0cc5 01       		.byte	0x1
 5039 0cc6 8601     		.2byte	0x186
 5040 0cc8 00000000 		.4byte	.LFB11
 5041 0ccc 04010000 		.4byte	.LFE11-.LFB11
 5042 0cd0 01       		.uleb128 0x1
 5043 0cd1 9C       		.byte	0x9c
 5044 0cd2 640D0000 		.4byte	0xd64
 5045 0cd6 1E       		.uleb128 0x1e
 5046 0cd7 70000000 		.4byte	.LASF31
 5047 0cdb 01       		.byte	0x1
 5048 0cdc 8601     		.2byte	0x186
 5049 0cde AD090000 		.4byte	0x9ad
 5050 0ce2 E3140000 		.4byte	.LLST154
 5051 0ce6 1E       		.uleb128 0x1e
 5052 0ce7 B6020000 		.4byte	.LASF32
 5053 0ceb 01       		.byte	0x1
 5054 0cec 8601     		.2byte	0x186
 5055 0cee 640D0000 		.4byte	0xd64
 5056 0cf2 02150000 		.4byte	.LLST155
 5057 0cf6 18       		.uleb128 0x18
 5058 0cf7 7500     		.ascii	"u\000"
 5059 0cf9 01       		.byte	0x1
 5060 0cfa 8801     		.2byte	0x188
 5061 0cfc 85000000 		.4byte	0x85
 5062 0d00 20150000 		.4byte	.LLST156
 5063 0d04 18       		.uleb128 0x18
 5064 0d05 7600     		.ascii	"v\000"
 5065 0d07 01       		.byte	0x1
 5066 0d08 8801     		.2byte	0x188
 5067 0d0a 85000000 		.4byte	0x85
 5068 0d0e 3F150000 		.4byte	.LLST157
 5069 0d12 1F       		.uleb128 0x1f
 5070 0d13 6E00     		.ascii	"n\000"
 5071 0d15 01       		.byte	0x1
 5072 0d16 8801     		.2byte	0x188
 5073 0d18 85000000 		.4byte	0x85
 5074 0d1c 1E       		.byte	0x1e
 5075 0d1d 1A       		.uleb128 0x1a
 5076 0d1e 10000000 		.4byte	.LBB59
 5077 0d22 E2000000 		.4byte	.LBE59-.LBB59
 5078 0d26 18       		.uleb128 0x18
 5079 0d27 783000   		.ascii	"x0\000"
 5080 0d2a 01       		.byte	0x1
 5081 0d2b 8C01     		.2byte	0x18c
 5082 0d2d A2000000 		.4byte	0xa2
 5083 0d31 5E150000 		.4byte	.LLST158
 5084 0d35 18       		.uleb128 0x18
 5085 0d36 783100   		.ascii	"x1\000"
 5086 0d39 01       		.byte	0x1
 5087 0d3a 8C01     		.2byte	0x18c
 5088 0d3c A2000000 		.4byte	0xa2
 5089 0d40 86150000 		.4byte	.LLST159
 5090 0d44 18       		.uleb128 0x18
 5091 0d45 783200   		.ascii	"x2\000"
ARM GAS  C:\Users\bogur\AppData\Local\Temp\cca0k2e0.s 			page 104


 5092 0d48 01       		.byte	0x1
 5093 0d49 8C01     		.2byte	0x18c
 5094 0d4b A2000000 		.4byte	0xa2
 5095 0d4f C8150000 		.4byte	.LLST160
 5096 0d53 18       		.uleb128 0x18
 5097 0d54 783300   		.ascii	"x3\000"
 5098 0d57 01       		.byte	0x1
 5099 0d58 8C01     		.2byte	0x18c
 5100 0d5a A2000000 		.4byte	0xa2
 5101 0d5e 0A160000 		.4byte	.LLST161
 5102 0d62 00       		.byte	0
 5103 0d63 00       		.byte	0
 5104 0d64 0C       		.uleb128 0xc
 5105 0d65 04       		.byte	0x4
 5106 0d66 6A0D0000 		.4byte	0xd6a
 5107 0d6a 0D       		.uleb128 0xd
 5108 0d6b A2000000 		.4byte	0xa2
 5109 0d6f 1B       		.uleb128 0x1b
 5110 0d70 A5010000 		.4byte	.LASF33
 5111 0d74 01       		.byte	0x1
 5112 0d75 E001     		.2byte	0x1e0
 5113 0d77 00000000 		.4byte	.LFB16
 5114 0d7b 2C000000 		.4byte	.LFE16-.LFB16
 5115 0d7f 01       		.uleb128 0x1
 5116 0d80 9C       		.byte	0x9c
 5117 0d81 CA0D0000 		.4byte	0xdca
 5118 0d85 1C       		.uleb128 0x1c
 5119 0d86 7800     		.ascii	"x\000"
 5120 0d88 01       		.byte	0x1
 5121 0d89 E001     		.2byte	0x1e0
 5122 0d8b F9010000 		.4byte	0x1f9
 5123 0d8f 01       		.uleb128 0x1
 5124 0d90 50       		.byte	0x50
 5125 0d91 20       		.uleb128 0x20
 5126 0d92 85010000 		.4byte	0x185
 5127 0d96 02000000 		.4byte	.LBB60
 5128 0d9a 12000000 		.4byte	.LBE60-.LBB60
 5129 0d9e 01       		.byte	0x1
 5130 0d9f E201     		.2byte	0x1e2
 5131 0da1 AF0D0000 		.4byte	0xdaf
 5132 0da5 14       		.uleb128 0x14
 5133 0da6 95010000 		.4byte	0x195
 5134 0daa 79160000 		.4byte	.LLST162
 5135 0dae 00       		.byte	0
 5136 0daf 21       		.uleb128 0x21
 5137 0db0 85010000 		.4byte	0x185
 5138 0db4 16000000 		.4byte	.LBB62
 5139 0db8 12000000 		.4byte	.LBE62-.LBB62
 5140 0dbc 01       		.byte	0x1
 5141 0dbd E301     		.2byte	0x1e3
 5142 0dbf 14       		.uleb128 0x14
 5143 0dc0 95010000 		.4byte	0x195
 5144 0dc4 A3160000 		.4byte	.LLST163
 5145 0dc8 00       		.byte	0
 5146 0dc9 00       		.byte	0
 5147 0dca 22       		.uleb128 0x22
 5148 0dcb D3030000 		.4byte	.LASF54
ARM GAS  C:\Users\bogur\AppData\Local\Temp\cca0k2e0.s 			page 105


 5149 0dcf 01       		.byte	0x1
 5150 0dd0 4701     		.2byte	0x147
 5151 0dd2 97000000 		.4byte	0x97
 5152 0dd6 00000000 		.4byte	.LFB9
 5153 0dda 2A000000 		.4byte	.LFE9-.LFB9
 5154 0dde 01       		.uleb128 0x1
 5155 0ddf 9C       		.byte	0x9c
 5156 0de0 580E0000 		.4byte	0xe58
 5157 0de4 1D       		.uleb128 0x1d
 5158 0de5 7800     		.ascii	"x\000"
 5159 0de7 01       		.byte	0x1
 5160 0de8 4701     		.2byte	0x147
 5161 0dea 97000000 		.4byte	0x97
 5162 0dee EF160000 		.4byte	.LLST164
 5163 0df2 19       		.uleb128 0x19
 5164 0df3 7100     		.ascii	"q\000"
 5165 0df5 01       		.byte	0x1
 5166 0df6 4901     		.2byte	0x149
 5167 0df8 580E0000 		.4byte	0xe58
 5168 0dfc 03       		.uleb128 0x3
 5169 0dfd 91       		.byte	0x91
 5170 0dfe B87F     		.sleb128 -72
 5171 0e00 23       		.uleb128 0x23
 5172 0e01 10000000 		.4byte	.LVL387
 5173 0e05 A4180000 		.4byte	0x18a4
 5174 0e09 1F0E0000 		.4byte	0xe1f
 5175 0e0d 24       		.uleb128 0x24
 5176 0e0e 01       		.uleb128 0x1
 5177 0e0f 50       		.byte	0x50
 5178 0e10 02       		.uleb128 0x2
 5179 0e11 7D       		.byte	0x7d
 5180 0e12 00       		.sleb128 0
 5181 0e13 24       		.uleb128 0x24
 5182 0e14 01       		.uleb128 0x1
 5183 0e15 51       		.byte	0x51
 5184 0e16 01       		.uleb128 0x1
 5185 0e17 30       		.byte	0x30
 5186 0e18 24       		.uleb128 0x24
 5187 0e19 01       		.uleb128 0x1
 5188 0e1a 52       		.byte	0x52
 5189 0e1b 02       		.uleb128 0x2
 5190 0e1c 08       		.byte	0x8
 5191 0e1d 40       		.byte	0x40
 5192 0e1e 00       		.byte	0
 5193 0e1f 23       		.uleb128 0x23
 5194 0e20 18000000 		.4byte	.LVL388
 5195 0e24 B3090000 		.4byte	0x9b3
 5196 0e28 330E0000 		.4byte	0xe33
 5197 0e2c 24       		.uleb128 0x24
 5198 0e2d 01       		.uleb128 0x1
 5199 0e2e 50       		.byte	0x50
 5200 0e2f 02       		.uleb128 0x2
 5201 0e30 7D       		.byte	0x7d
 5202 0e31 00       		.sleb128 0
 5203 0e32 00       		.byte	0
 5204 0e33 23       		.uleb128 0x23
 5205 0e34 1E000000 		.4byte	.LVL389
ARM GAS  C:\Users\bogur\AppData\Local\Temp\cca0k2e0.s 			page 106


 5206 0e38 6D020000 		.4byte	0x26d
 5207 0e3c 470E0000 		.4byte	0xe47
 5208 0e40 24       		.uleb128 0x24
 5209 0e41 01       		.uleb128 0x1
 5210 0e42 50       		.byte	0x50
 5211 0e43 02       		.uleb128 0x2
 5212 0e44 7D       		.byte	0x7d
 5213 0e45 00       		.sleb128 0
 5214 0e46 00       		.byte	0
 5215 0e47 25       		.uleb128 0x25
 5216 0e48 24000000 		.4byte	.LVL390
 5217 0e4c B3090000 		.4byte	0x9b3
 5218 0e50 24       		.uleb128 0x24
 5219 0e51 01       		.uleb128 0x1
 5220 0e52 50       		.byte	0x50
 5221 0e53 02       		.uleb128 0x2
 5222 0e54 7D       		.byte	0x7d
 5223 0e55 00       		.sleb128 0
 5224 0e56 00       		.byte	0
 5225 0e57 00       		.byte	0
 5226 0e58 08       		.uleb128 0x8
 5227 0e59 A2000000 		.4byte	0xa2
 5228 0e5d 680E0000 		.4byte	0xe68
 5229 0e61 09       		.uleb128 0x9
 5230 0e62 BF000000 		.4byte	0xbf
 5231 0e66 07       		.byte	0x7
 5232 0e67 00       		.byte	0
 5233 0e68 1B       		.uleb128 0x1b
 5234 0e69 22000000 		.4byte	.LASF34
 5235 0e6d 01       		.byte	0x1
 5236 0e6e 5301     		.2byte	0x153
 5237 0e70 00000000 		.4byte	.LFB10
 5238 0e74 3C010000 		.4byte	.LFE10-.LFB10
 5239 0e78 01       		.uleb128 0x1
 5240 0e79 9C       		.byte	0x9c
 5241 0e7a 980F0000 		.4byte	0xf98
 5242 0e7e 1E       		.uleb128 0x1e
 5243 0e7f B6020000 		.4byte	.LASF32
 5244 0e83 01       		.byte	0x1
 5245 0e84 5301     		.2byte	0x153
 5246 0e86 AD090000 		.4byte	0x9ad
 5247 0e8a 0D170000 		.4byte	.LLST165
 5248 0e8e 1D       		.uleb128 0x1d
 5249 0e8f 6B657900 		.ascii	"key\000"
 5250 0e93 01       		.byte	0x1
 5251 0e94 5301     		.2byte	0x153
 5252 0e96 37010000 		.4byte	0x137
 5253 0e9a 39170000 		.4byte	.LLST166
 5254 0e9e 18       		.uleb128 0x18
 5255 0e9f 6900     		.ascii	"i\000"
 5256 0ea1 01       		.byte	0x1
 5257 0ea2 5501     		.2byte	0x155
 5258 0ea4 7E000000 		.4byte	0x7e
 5259 0ea8 65170000 		.4byte	.LLST167
 5260 0eac 18       		.uleb128 0x18
 5261 0ead 6A00     		.ascii	"j\000"
 5262 0eaf 01       		.byte	0x1
ARM GAS  C:\Users\bogur\AppData\Local\Temp\cca0k2e0.s 			page 107


 5263 0eb0 5501     		.2byte	0x155
 5264 0eb2 7E000000 		.4byte	0x7e
 5265 0eb6 8F170000 		.4byte	.LLST168
 5266 0eba 18       		.uleb128 0x18
 5267 0ebb 6B00     		.ascii	"k\000"
 5268 0ebd 01       		.byte	0x1
 5269 0ebe 5501     		.2byte	0x155
 5270 0ec0 7E000000 		.4byte	0x7e
 5271 0ec4 D0170000 		.4byte	.LLST169
 5272 0ec8 1F       		.uleb128 0x1f
 5273 0ec9 6E6B00   		.ascii	"nk\000"
 5274 0ecc 01       		.byte	0x1
 5275 0ecd 5501     		.2byte	0x155
 5276 0ecf 7E000000 		.4byte	0x7e
 5277 0ed3 08       		.byte	0x8
 5278 0ed4 1F       		.uleb128 0x1f
 5279 0ed5 6E6B6600 		.ascii	"nkf\000"
 5280 0ed9 01       		.byte	0x1
 5281 0eda 5501     		.2byte	0x155
 5282 0edc 7E000000 		.4byte	0x7e
 5283 0ee0 3C       		.byte	0x3c
 5284 0ee1 18       		.uleb128 0x18
 5285 0ee2 746D7000 		.ascii	"tmp\000"
 5286 0ee6 01       		.byte	0x1
 5287 0ee7 5601     		.2byte	0x156
 5288 0ee9 97000000 		.4byte	0x97
 5289 0eed EF170000 		.4byte	.LLST170
 5290 0ef1 26       		.uleb128 0x26
 5291 0ef2 70000000 		.4byte	.LASF31
 5292 0ef6 01       		.byte	0x1
 5293 0ef7 5701     		.2byte	0x157
 5294 0ef9 980F0000 		.4byte	0xf98
 5295 0efd 03       		.uleb128 0x3
 5296 0efe 91       		.byte	0x91
 5297 0eff F07D     		.sleb128 -272
 5298 0f01 27       		.uleb128 0x27
 5299 0f02 1C030000 		.4byte	.LASF35
 5300 0f06 01       		.byte	0x1
 5301 0f07 5901     		.2byte	0x159
 5302 0f09 7E000000 		.4byte	0x7e
 5303 0f0d 20       		.byte	0x20
 5304 0f0e 17       		.uleb128 0x17
 5305 0f0f 64000000 		.4byte	.LBB64
 5306 0f13 C6000000 		.4byte	.LBE64-.LBB64
 5307 0f17 640F0000 		.4byte	0xf64
 5308 0f1b 19       		.uleb128 0x19
 5309 0f1c 7100     		.ascii	"q\000"
 5310 0f1e 01       		.byte	0x1
 5311 0f1f 6F01     		.2byte	0x16f
 5312 0f21 580E0000 		.4byte	0xe58
 5313 0f25 03       		.uleb128 0x3
 5314 0f26 91       		.byte	0x91
 5315 0f27 B07D     		.sleb128 -336
 5316 0f29 23       		.uleb128 0x23
 5317 0f2a 72000000 		.4byte	.LVL412
 5318 0f2e C70B0000 		.4byte	0xbc7
 5319 0f32 530F0000 		.4byte	0xf53
ARM GAS  C:\Users\bogur\AppData\Local\Temp\cca0k2e0.s 			page 108


 5320 0f36 24       		.uleb128 0x24
 5321 0f37 01       		.uleb128 0x1
 5322 0f38 50       		.byte	0x50
 5323 0f39 02       		.uleb128 0x2
 5324 0f3a 7D       		.byte	0x7d
 5325 0f3b 00       		.sleb128 0
 5326 0f3c 24       		.uleb128 0x24
 5327 0f3d 01       		.uleb128 0x1
 5328 0f3e 51       		.byte	0x51
 5329 0f3f 03       		.uleb128 0x3
 5330 0f40 91       		.byte	0x91
 5331 0f41 D07D     		.sleb128 -304
 5332 0f43 24       		.uleb128 0x24
 5333 0f44 01       		.uleb128 0x1
 5334 0f45 52       		.byte	0x52
 5335 0f46 0B       		.uleb128 0xb
 5336 0f47 74       		.byte	0x74
 5337 0f48 00       		.sleb128 0
 5338 0f49 32       		.byte	0x32
 5339 0f4a 24       		.byte	0x24
 5340 0f4b 91       		.byte	0x91
 5341 0f4c 00       		.sleb128 0
 5342 0f4d 22       		.byte	0x22
 5343 0f4e 0A       		.byte	0xa
 5344 0f4f 1001     		.2byte	0x110
 5345 0f51 1C       		.byte	0x1c
 5346 0f52 00       		.byte	0
 5347 0f53 25       		.uleb128 0x25
 5348 0f54 98000000 		.4byte	.LVL413
 5349 0f58 B3090000 		.4byte	0x9b3
 5350 0f5c 24       		.uleb128 0x24
 5351 0f5d 01       		.uleb128 0x1
 5352 0f5e 50       		.byte	0x50
 5353 0f5f 02       		.uleb128 0x2
 5354 0f60 7D       		.byte	0x7d
 5355 0f61 00       		.sleb128 0
 5356 0f62 00       		.byte	0
 5357 0f63 00       		.byte	0
 5358 0f64 23       		.uleb128 0x23
 5359 0f65 12000000 		.4byte	.LVL395
 5360 0f69 9F010000 		.4byte	0x19f
 5361 0f6d 850F0000 		.4byte	0xf85
 5362 0f71 24       		.uleb128 0x24
 5363 0f72 01       		.uleb128 0x1
 5364 0f73 50       		.byte	0x50
 5365 0f74 03       		.uleb128 0x3
 5366 0f75 91       		.byte	0x91
 5367 0f76 F07D     		.sleb128 -272
 5368 0f78 24       		.uleb128 0x24
 5369 0f79 01       		.uleb128 0x1
 5370 0f7a 51       		.byte	0x51
 5371 0f7b 01       		.uleb128 0x1
 5372 0f7c 38       		.byte	0x38
 5373 0f7d 24       		.uleb128 0x24
 5374 0f7e 01       		.uleb128 0x1
 5375 0f7f 52       		.byte	0x52
 5376 0f80 03       		.uleb128 0x3
ARM GAS  C:\Users\bogur\AppData\Local\Temp\cca0k2e0.s 			page 109


 5377 0f81 F3       		.byte	0xf3
 5378 0f82 01       		.uleb128 0x1
 5379 0f83 51       		.byte	0x51
 5380 0f84 00       		.byte	0
 5381 0f85 28       		.uleb128 0x28
 5382 0f86 26000000 		.4byte	.LVL400
 5383 0f8a CA0D0000 		.4byte	0xdca
 5384 0f8e 28       		.uleb128 0x28
 5385 0f8f 36000000 		.4byte	.LVL402
 5386 0f93 CA0D0000 		.4byte	0xdca
 5387 0f97 00       		.byte	0
 5388 0f98 08       		.uleb128 0x8
 5389 0f99 97000000 		.4byte	0x97
 5390 0f9d A80F0000 		.4byte	0xfa8
 5391 0fa1 09       		.uleb128 0x9
 5392 0fa2 BF000000 		.4byte	0xbf
 5393 0fa6 3B       		.byte	0x3b
 5394 0fa7 00       		.byte	0
 5395 0fa8 1B       		.uleb128 0x1b
 5396 0fa9 AD010000 		.4byte	.LASF36
 5397 0fad 01       		.byte	0x1
 5398 0fae 0A02     		.2byte	0x20a
 5399 0fb0 00000000 		.4byte	.LFB18
 5400 0fb4 18000000 		.4byte	.LFE18-.LFB18
 5401 0fb8 01       		.uleb128 0x1
 5402 0fb9 9C       		.byte	0x9c
 5403 0fba 20100000 		.4byte	0x1020
 5404 0fbe 1E       		.uleb128 0x1e
 5405 0fbf 52010000 		.4byte	.LASF19
 5406 0fc3 01       		.byte	0x1
 5407 0fc4 0A02     		.2byte	0x20a
 5408 0fc6 AD090000 		.4byte	0x9ad
 5409 0fca 3A180000 		.4byte	.LLST171
 5410 0fce 1D       		.uleb128 0x1d
 5411 0fcf 6B657900 		.ascii	"key\000"
 5412 0fd3 01       		.byte	0x1
 5413 0fd4 0A02     		.2byte	0x20a
 5414 0fd6 37010000 		.4byte	0x137
 5415 0fda 58180000 		.4byte	.LLST172
 5416 0fde 26       		.uleb128 0x26
 5417 0fdf 70000000 		.4byte	.LASF31
 5418 0fe3 01       		.byte	0x1
 5419 0fe4 0C02     		.2byte	0x20c
 5420 0fe6 20100000 		.4byte	0x1020
 5421 0fea 03       		.uleb128 0x3
 5422 0feb 91       		.byte	0x91
 5423 0fec 887E     		.sleb128 -248
 5424 0fee 23       		.uleb128 0x23
 5425 0fef 0C000000 		.4byte	.LVL419
 5426 0ff3 680E0000 		.4byte	0xe68
 5427 0ff7 09100000 		.4byte	0x1009
 5428 0ffb 24       		.uleb128 0x24
 5429 0ffc 01       		.uleb128 0x1
 5430 0ffd 50       		.byte	0x50
 5431 0ffe 02       		.uleb128 0x2
 5432 0fff 7D       		.byte	0x7d
 5433 1000 00       		.sleb128 0
ARM GAS  C:\Users\bogur\AppData\Local\Temp\cca0k2e0.s 			page 110


 5434 1001 24       		.uleb128 0x24
 5435 1002 01       		.uleb128 0x1
 5436 1003 51       		.byte	0x51
 5437 1004 03       		.uleb128 0x3
 5438 1005 F3       		.byte	0xf3
 5439 1006 01       		.uleb128 0x1
 5440 1007 51       		.byte	0x51
 5441 1008 00       		.byte	0
 5442 1009 25       		.uleb128 0x25
 5443 100a 14000000 		.4byte	.LVL420
 5444 100e C00C0000 		.4byte	0xcc0
 5445 1012 24       		.uleb128 0x24
 5446 1013 01       		.uleb128 0x1
 5447 1014 50       		.byte	0x50
 5448 1015 02       		.uleb128 0x2
 5449 1016 74       		.byte	0x74
 5450 1017 00       		.sleb128 0
 5451 1018 24       		.uleb128 0x24
 5452 1019 01       		.uleb128 0x1
 5453 101a 51       		.byte	0x51
 5454 101b 02       		.uleb128 0x2
 5455 101c 7D       		.byte	0x7d
 5456 101d 00       		.sleb128 0
 5457 101e 00       		.byte	0
 5458 101f 00       		.byte	0
 5459 1020 08       		.uleb128 0x8
 5460 1021 A2000000 		.4byte	0xa2
 5461 1025 30100000 		.4byte	0x1030
 5462 1029 09       		.uleb128 0x9
 5463 102a BF000000 		.4byte	0xbf
 5464 102e 1D       		.byte	0x1d
 5465 102f 00       		.byte	0
 5466 1030 29       		.uleb128 0x29
 5467 1031 33020000 		.4byte	.LASF38
 5468 1035 01       		.byte	0x1
 5469 1036 9D01     		.2byte	0x19d
 5470 1038 03       		.byte	0x3
 5471 1039 53100000 		.4byte	0x1053
 5472 103d 10       		.uleb128 0x10
 5473 103e 7100     		.ascii	"q\000"
 5474 1040 01       		.byte	0x1
 5475 1041 9D01     		.2byte	0x19d
 5476 1043 AD090000 		.4byte	0x9ad
 5477 1047 10       		.uleb128 0x10
 5478 1048 736B00   		.ascii	"sk\000"
 5479 104b 01       		.byte	0x1
 5480 104c 9D01     		.2byte	0x19d
 5481 104e 640D0000 		.4byte	0xd64
 5482 1052 00       		.byte	0
 5483 1053 29       		.uleb128 0x29
 5484 1054 65020000 		.4byte	.LASF39
 5485 1058 01       		.byte	0x1
 5486 1059 C001     		.2byte	0x1c0
 5487 105b 03       		.byte	0x3
 5488 105c 1B110000 		.4byte	0x111b
 5489 1060 10       		.uleb128 0x10
 5490 1061 7100     		.ascii	"q\000"
ARM GAS  C:\Users\bogur\AppData\Local\Temp\cca0k2e0.s 			page 111


 5491 1063 01       		.byte	0x1
 5492 1064 C001     		.2byte	0x1c0
 5493 1066 AD090000 		.4byte	0x9ad
 5494 106a 2A       		.uleb128 0x2a
 5495 106b 713000   		.ascii	"q0\000"
 5496 106e 01       		.byte	0x1
 5497 106f C201     		.2byte	0x1c2
 5498 1071 A2000000 		.4byte	0xa2
 5499 1075 2A       		.uleb128 0x2a
 5500 1076 713100   		.ascii	"q1\000"
 5501 1079 01       		.byte	0x1
 5502 107a C201     		.2byte	0x1c2
 5503 107c A2000000 		.4byte	0xa2
 5504 1080 2A       		.uleb128 0x2a
 5505 1081 713200   		.ascii	"q2\000"
 5506 1084 01       		.byte	0x1
 5507 1085 C201     		.2byte	0x1c2
 5508 1087 A2000000 		.4byte	0xa2
 5509 108b 2A       		.uleb128 0x2a
 5510 108c 713300   		.ascii	"q3\000"
 5511 108f 01       		.byte	0x1
 5512 1090 C201     		.2byte	0x1c2
 5513 1092 A2000000 		.4byte	0xa2
 5514 1096 2A       		.uleb128 0x2a
 5515 1097 713400   		.ascii	"q4\000"
 5516 109a 01       		.byte	0x1
 5517 109b C201     		.2byte	0x1c2
 5518 109d A2000000 		.4byte	0xa2
 5519 10a1 2A       		.uleb128 0x2a
 5520 10a2 713500   		.ascii	"q5\000"
 5521 10a5 01       		.byte	0x1
 5522 10a6 C201     		.2byte	0x1c2
 5523 10a8 A2000000 		.4byte	0xa2
 5524 10ac 2A       		.uleb128 0x2a
 5525 10ad 713600   		.ascii	"q6\000"
 5526 10b0 01       		.byte	0x1
 5527 10b1 C201     		.2byte	0x1c2
 5528 10b3 A2000000 		.4byte	0xa2
 5529 10b7 2A       		.uleb128 0x2a
 5530 10b8 713700   		.ascii	"q7\000"
 5531 10bb 01       		.byte	0x1
 5532 10bc C201     		.2byte	0x1c2
 5533 10be A2000000 		.4byte	0xa2
 5534 10c2 2A       		.uleb128 0x2a
 5535 10c3 723000   		.ascii	"r0\000"
 5536 10c6 01       		.byte	0x1
 5537 10c7 C301     		.2byte	0x1c3
 5538 10c9 A2000000 		.4byte	0xa2
 5539 10cd 2A       		.uleb128 0x2a
 5540 10ce 723100   		.ascii	"r1\000"
 5541 10d1 01       		.byte	0x1
 5542 10d2 C301     		.2byte	0x1c3
 5543 10d4 A2000000 		.4byte	0xa2
 5544 10d8 2A       		.uleb128 0x2a
 5545 10d9 723200   		.ascii	"r2\000"
 5546 10dc 01       		.byte	0x1
 5547 10dd C301     		.2byte	0x1c3
ARM GAS  C:\Users\bogur\AppData\Local\Temp\cca0k2e0.s 			page 112


 5548 10df A2000000 		.4byte	0xa2
 5549 10e3 2A       		.uleb128 0x2a
 5550 10e4 723300   		.ascii	"r3\000"
 5551 10e7 01       		.byte	0x1
 5552 10e8 C301     		.2byte	0x1c3
 5553 10ea A2000000 		.4byte	0xa2
 5554 10ee 2A       		.uleb128 0x2a
 5555 10ef 723400   		.ascii	"r4\000"
 5556 10f2 01       		.byte	0x1
 5557 10f3 C301     		.2byte	0x1c3
 5558 10f5 A2000000 		.4byte	0xa2
 5559 10f9 2A       		.uleb128 0x2a
 5560 10fa 723500   		.ascii	"r5\000"
 5561 10fd 01       		.byte	0x1
 5562 10fe C301     		.2byte	0x1c3
 5563 1100 A2000000 		.4byte	0xa2
 5564 1104 2A       		.uleb128 0x2a
 5565 1105 723600   		.ascii	"r6\000"
 5566 1108 01       		.byte	0x1
 5567 1109 C301     		.2byte	0x1c3
 5568 110b A2000000 		.4byte	0xa2
 5569 110f 2A       		.uleb128 0x2a
 5570 1110 723700   		.ascii	"r7\000"
 5571 1113 01       		.byte	0x1
 5572 1114 C301     		.2byte	0x1c3
 5573 1116 A2000000 		.4byte	0xa2
 5574 111a 00       		.byte	0
 5575 111b 29       		.uleb128 0x29
 5576 111c AB020000 		.4byte	.LASF40
 5577 1120 01       		.byte	0x1
 5578 1121 A901     		.2byte	0x1a9
 5579 1123 03       		.byte	0x3
 5580 1124 49110000 		.4byte	0x1149
 5581 1128 10       		.uleb128 0x10
 5582 1129 7100     		.ascii	"q\000"
 5583 112b 01       		.byte	0x1
 5584 112c A901     		.2byte	0x1a9
 5585 112e AD090000 		.4byte	0x9ad
 5586 1132 2A       		.uleb128 0x2a
 5587 1133 6900     		.ascii	"i\000"
 5588 1135 01       		.byte	0x1
 5589 1136 AB01     		.2byte	0x1ab
 5590 1138 7E000000 		.4byte	0x7e
 5591 113c 2B       		.uleb128 0x2b
 5592 113d 2A       		.uleb128 0x2a
 5593 113e 7800     		.ascii	"x\000"
 5594 1140 01       		.byte	0x1
 5595 1141 AE01     		.2byte	0x1ae
 5596 1143 A2000000 		.4byte	0xa2
 5597 1147 00       		.byte	0
 5598 1148 00       		.byte	0
 5599 1149 1B       		.uleb128 0x1b
 5600 114a 71020000 		.4byte	.LASF41
 5601 114e 01       		.byte	0x1
 5602 114f E601     		.2byte	0x1e6
 5603 1151 00000000 		.4byte	.LFB17
 5604 1155 CC060000 		.4byte	.LFE17-.LFB17
ARM GAS  C:\Users\bogur\AppData\Local\Temp\cca0k2e0.s 			page 113


 5605 1159 01       		.uleb128 0x1
 5606 115a 9C       		.byte	0x9c
 5607 115b 6D150000 		.4byte	0x156d
 5608 115f 1D       		.uleb128 0x1d
 5609 1160 6F757400 		.ascii	"out\000"
 5610 1164 01       		.byte	0x1
 5611 1165 E601     		.2byte	0x1e6
 5612 1167 63010000 		.4byte	0x163
 5613 116b 79180000 		.4byte	.LLST173
 5614 116f 1D       		.uleb128 0x1d
 5615 1170 69767700 		.ascii	"ivw\000"
 5616 1174 01       		.byte	0x1
 5617 1175 E601     		.2byte	0x1e6
 5618 1177 F9010000 		.4byte	0x1f9
 5619 117b 9A180000 		.4byte	.LLST174
 5620 117f 1E       		.uleb128 0x1e
 5621 1180 52010000 		.4byte	.LASF19
 5622 1184 01       		.byte	0x1
 5623 1185 E601     		.2byte	0x1e6
 5624 1187 AD090000 		.4byte	0x9ad
 5625 118b C8180000 		.4byte	.LLST175
 5626 118f 19       		.uleb128 0x19
 5627 1190 7700     		.ascii	"w\000"
 5628 1192 01       		.byte	0x1
 5629 1193 E801     		.2byte	0x1e8
 5630 1195 00010000 		.4byte	0x100
 5631 1199 03       		.uleb128 0x3
 5632 119a 91       		.byte	0x91
 5633 119b 987F     		.sleb128 -104
 5634 119d 19       		.uleb128 0x19
 5635 119e 7100     		.ascii	"q\000"
 5636 11a0 01       		.byte	0x1
 5637 11a1 E901     		.2byte	0x1e9
 5638 11a3 580E0000 		.4byte	0xe58
 5639 11a7 03       		.uleb128 0x3
 5640 11a8 91       		.byte	0x91
 5641 11a9 D87E     		.sleb128 -168
 5642 11ab 18       		.uleb128 0x18
 5643 11ac 6900     		.ascii	"i\000"
 5644 11ae 01       		.byte	0x1
 5645 11af EA01     		.2byte	0x1ea
 5646 11b1 7E000000 		.4byte	0x7e
 5647 11b5 E9180000 		.4byte	.LLST176
 5648 11b9 20       		.uleb128 0x20
 5649 11ba 30100000 		.4byte	0x1030
 5650 11be 4E000000 		.4byte	.LBB95
 5651 11c2 A2000000 		.4byte	.LBE95-.LBB95
 5652 11c6 01       		.byte	0x1
 5653 11c7 F201     		.2byte	0x1f2
 5654 11c9 E0110000 		.4byte	0x11e0
 5655 11cd 14       		.uleb128 0x14
 5656 11ce 47100000 		.4byte	0x1047
 5657 11d2 37190000 		.4byte	.LLST177
 5658 11d6 14       		.uleb128 0x14
 5659 11d7 3D100000 		.4byte	0x103d
 5660 11db 59190000 		.4byte	.LLST178
 5661 11df 00       		.byte	0
ARM GAS  C:\Users\bogur\AppData\Local\Temp\cca0k2e0.s 			page 114


 5662 11e0 20       		.uleb128 0x20
 5663 11e1 1B110000 		.4byte	0x111b
 5664 11e5 FC000000 		.4byte	.LBB97
 5665 11e9 DA000000 		.4byte	.LBE97-.LBB97
 5666 11ed 01       		.byte	0x1
 5667 11ee F501     		.2byte	0x1f5
 5668 11f0 24120000 		.4byte	0x1224
 5669 11f4 14       		.uleb128 0x14
 5670 11f5 28110000 		.4byte	0x1128
 5671 11f9 96190000 		.4byte	.LLST179
 5672 11fd 1A       		.uleb128 0x1a
 5673 11fe FC000000 		.4byte	.LBB98
 5674 1202 DA000000 		.4byte	.LBE98-.LBB98
 5675 1206 2C       		.uleb128 0x2c
 5676 1207 32110000 		.4byte	0x1132
 5677 120b AC190000 		.4byte	.LLST180
 5678 120f 1A       		.uleb128 0x1a
 5679 1210 04010000 		.4byte	.LBB99
 5680 1214 BC000000 		.4byte	.LBE99-.LBB99
 5681 1218 2C       		.uleb128 0x2c
 5682 1219 3D110000 		.4byte	0x113d
 5683 121d D6190000 		.4byte	.LLST181
 5684 1221 00       		.byte	0
 5685 1222 00       		.byte	0
 5686 1223 00       		.byte	0
 5687 1224 20       		.uleb128 0x20
 5688 1225 53100000 		.4byte	0x1053
 5689 1229 D6010000 		.4byte	.LBB100
 5690 122d 56020000 		.4byte	.LBE100-.LBB100
 5691 1231 01       		.byte	0x1
 5692 1232 F601     		.2byte	0x1f6
 5693 1234 C4130000 		.4byte	0x13c4
 5694 1238 14       		.uleb128 0x14
 5695 1239 60100000 		.4byte	0x1060
 5696 123d EE190000 		.4byte	.LLST182
 5697 1241 1A       		.uleb128 0x1a
 5698 1242 D6010000 		.4byte	.LBB101
 5699 1246 56020000 		.4byte	.LBE101-.LBB101
 5700 124a 2C       		.uleb128 0x2c
 5701 124b 6A100000 		.4byte	0x106a
 5702 124f 041A0000 		.4byte	.LLST183
 5703 1253 2C       		.uleb128 0x2c
 5704 1254 75100000 		.4byte	0x1075
 5705 1258 291A0000 		.4byte	.LLST184
 5706 125c 2C       		.uleb128 0x2c
 5707 125d 80100000 		.4byte	0x1080
 5708 1261 3E1A0000 		.4byte	.LLST185
 5709 1265 2C       		.uleb128 0x2c
 5710 1266 8B100000 		.4byte	0x108b
 5711 126a 531A0000 		.4byte	.LLST186
 5712 126e 2C       		.uleb128 0x2c
 5713 126f 96100000 		.4byte	0x1096
 5714 1273 681A0000 		.4byte	.LLST187
 5715 1277 2C       		.uleb128 0x2c
 5716 1278 A1100000 		.4byte	0x10a1
 5717 127c 7D1A0000 		.4byte	.LLST188
 5718 1280 2C       		.uleb128 0x2c
ARM GAS  C:\Users\bogur\AppData\Local\Temp\cca0k2e0.s 			page 115


 5719 1281 AC100000 		.4byte	0x10ac
 5720 1285 921A0000 		.4byte	.LLST189
 5721 1289 2C       		.uleb128 0x2c
 5722 128a B7100000 		.4byte	0x10b7
 5723 128e A71A0000 		.4byte	.LLST190
 5724 1292 2C       		.uleb128 0x2c
 5725 1293 C2100000 		.4byte	0x10c2
 5726 1297 BC1A0000 		.4byte	.LLST191
 5727 129b 2C       		.uleb128 0x2c
 5728 129c CD100000 		.4byte	0x10cd
 5729 12a0 D11A0000 		.4byte	.LLST192
 5730 12a4 2C       		.uleb128 0x2c
 5731 12a5 D8100000 		.4byte	0x10d8
 5732 12a9 E61A0000 		.4byte	.LLST193
 5733 12ad 2C       		.uleb128 0x2c
 5734 12ae E3100000 		.4byte	0x10e3
 5735 12b2 FB1A0000 		.4byte	.LLST194
 5736 12b6 2C       		.uleb128 0x2c
 5737 12b7 EE100000 		.4byte	0x10ee
 5738 12bb 101B0000 		.4byte	.LLST195
 5739 12bf 2C       		.uleb128 0x2c
 5740 12c0 F9100000 		.4byte	0x10f9
 5741 12c4 251B0000 		.4byte	.LLST196
 5742 12c8 2C       		.uleb128 0x2c
 5743 12c9 04110000 		.4byte	0x1104
 5744 12cd 3A1B0000 		.4byte	.LLST197
 5745 12d1 2C       		.uleb128 0x2c
 5746 12d2 0F110000 		.4byte	0x110f
 5747 12d6 4F1B0000 		.4byte	.LLST198
 5748 12da 20       		.uleb128 0x20
 5749 12db 69010000 		.4byte	0x169
 5750 12df B8020000 		.4byte	.LBB102
 5751 12e3 04000000 		.4byte	.LBE102-.LBB102
 5752 12e7 01       		.byte	0x1
 5753 12e8 D601     		.2byte	0x1d6
 5754 12ea F8120000 		.4byte	0x12f8
 5755 12ee 14       		.uleb128 0x14
 5756 12ef 7A010000 		.4byte	0x17a
 5757 12f3 641B0000 		.4byte	.LLST199
 5758 12f7 00       		.byte	0
 5759 12f8 20       		.uleb128 0x20
 5760 12f9 69010000 		.4byte	0x169
 5761 12fd F8020000 		.4byte	.LBB104
 5762 1301 04000000 		.4byte	.LBE104-.LBB104
 5763 1305 01       		.byte	0x1
 5764 1306 D701     		.2byte	0x1d7
 5765 1308 16130000 		.4byte	0x1316
 5766 130c 14       		.uleb128 0x14
 5767 130d 7A010000 		.4byte	0x17a
 5768 1311 7C1B0000 		.4byte	.LLST200
 5769 1315 00       		.byte	0
 5770 1316 20       		.uleb128 0x20
 5771 1317 69010000 		.4byte	0x169
 5772 131b 26030000 		.4byte	.LBB106
 5773 131f 04000000 		.4byte	.LBE106-.LBB106
 5774 1323 01       		.byte	0x1
 5775 1324 D801     		.2byte	0x1d8
ARM GAS  C:\Users\bogur\AppData\Local\Temp\cca0k2e0.s 			page 116


 5776 1326 34130000 		.4byte	0x1334
 5777 132a 14       		.uleb128 0x14
 5778 132b 7A010000 		.4byte	0x17a
 5779 132f 941B0000 		.4byte	.LLST201
 5780 1333 00       		.byte	0
 5781 1334 20       		.uleb128 0x20
 5782 1335 69010000 		.4byte	0x169
 5783 1339 66030000 		.4byte	.LBB108
 5784 133d 04000000 		.4byte	.LBE108-.LBB108
 5785 1341 01       		.byte	0x1
 5786 1342 D901     		.2byte	0x1d9
 5787 1344 52130000 		.4byte	0x1352
 5788 1348 14       		.uleb128 0x14
 5789 1349 7A010000 		.4byte	0x17a
 5790 134d AC1B0000 		.4byte	.LLST202
 5791 1351 00       		.byte	0
 5792 1352 20       		.uleb128 0x20
 5793 1353 69010000 		.4byte	0x169
 5794 1357 A2030000 		.4byte	.LBB110
 5795 135b 04000000 		.4byte	.LBE110-.LBB110
 5796 135f 01       		.byte	0x1
 5797 1360 DA01     		.2byte	0x1da
 5798 1362 6C130000 		.4byte	0x136c
 5799 1366 2D       		.uleb128 0x2d
 5800 1367 7A010000 		.4byte	0x17a
 5801 136b 00       		.byte	0
 5802 136c 20       		.uleb128 0x20
 5803 136d 69010000 		.4byte	0x169
 5804 1371 D0030000 		.4byte	.LBB112
 5805 1375 04000000 		.4byte	.LBE112-.LBB112
 5806 1379 01       		.byte	0x1
 5807 137a DB01     		.2byte	0x1db
 5808 137c 8A130000 		.4byte	0x138a
 5809 1380 14       		.uleb128 0x14
 5810 1381 7A010000 		.4byte	0x17a
 5811 1385 C41B0000 		.4byte	.LLST203
 5812 1389 00       		.byte	0
 5813 138a 20       		.uleb128 0x20
 5814 138b 69010000 		.4byte	0x169
 5815 138f FE030000 		.4byte	.LBB114
 5816 1393 04000000 		.4byte	.LBE114-.LBB114
 5817 1397 01       		.byte	0x1
 5818 1398 DC01     		.2byte	0x1dc
 5819 139a A8130000 		.4byte	0x13a8
 5820 139e 14       		.uleb128 0x14
 5821 139f 7A010000 		.4byte	0x17a
 5822 13a3 DC1B0000 		.4byte	.LLST204
 5823 13a7 00       		.byte	0
 5824 13a8 21       		.uleb128 0x21
 5825 13a9 69010000 		.4byte	0x169
 5826 13ad 1C040000 		.4byte	.LBB116
 5827 13b1 08000000 		.4byte	.LBE116-.LBB116
 5828 13b5 01       		.byte	0x1
 5829 13b6 DD01     		.2byte	0x1dd
 5830 13b8 14       		.uleb128 0x14
 5831 13b9 7A010000 		.4byte	0x17a
 5832 13bd F41B0000 		.4byte	.LLST205
ARM GAS  C:\Users\bogur\AppData\Local\Temp\cca0k2e0.s 			page 117


 5833 13c1 00       		.byte	0
 5834 13c2 00       		.byte	0
 5835 13c3 00       		.byte	0
 5836 13c4 20       		.uleb128 0x20
 5837 13c5 30100000 		.4byte	0x1030
 5838 13c9 36040000 		.4byte	.LBB118
 5839 13cd AA000000 		.4byte	.LBE118-.LBB118
 5840 13d1 01       		.byte	0x1
 5841 13d2 F701     		.2byte	0x1f7
 5842 13d4 EB130000 		.4byte	0x13eb
 5843 13d8 14       		.uleb128 0x14
 5844 13d9 47100000 		.4byte	0x1047
 5845 13dd 091C0000 		.4byte	.LLST206
 5846 13e1 14       		.uleb128 0x14
 5847 13e2 3D100000 		.4byte	0x103d
 5848 13e6 1C1C0000 		.4byte	.LLST207
 5849 13ea 00       		.byte	0
 5850 13eb 20       		.uleb128 0x20
 5851 13ec 1B110000 		.4byte	0x111b
 5852 13f0 F4040000 		.4byte	.LBB120
 5853 13f4 C2000000 		.4byte	.LBE120-.LBB120
 5854 13f8 01       		.byte	0x1
 5855 13f9 FA01     		.2byte	0x1fa
 5856 13fb 2F140000 		.4byte	0x142f
 5857 13ff 14       		.uleb128 0x14
 5858 1400 28110000 		.4byte	0x1128
 5859 1404 321C0000 		.4byte	.LLST208
 5860 1408 1A       		.uleb128 0x1a
 5861 1409 F4040000 		.4byte	.LBB121
 5862 140d C2000000 		.4byte	.LBE121-.LBB121
 5863 1411 2C       		.uleb128 0x2c
 5864 1412 32110000 		.4byte	0x1132
 5865 1416 481C0000 		.4byte	.LLST209
 5866 141a 1A       		.uleb128 0x1a
 5867 141b FA040000 		.4byte	.LBB122
 5868 141f B6000000 		.4byte	.LBE122-.LBB122
 5869 1423 2C       		.uleb128 0x2c
 5870 1424 3D110000 		.4byte	0x113d
 5871 1428 671C0000 		.4byte	.LLST210
 5872 142c 00       		.byte	0
 5873 142d 00       		.byte	0
 5874 142e 00       		.byte	0
 5875 142f 20       		.uleb128 0x20
 5876 1430 30100000 		.4byte	0x1030
 5877 1434 B8050000 		.4byte	.LBB123
 5878 1438 A0000000 		.4byte	.LBE123-.LBB123
 5879 143c 01       		.byte	0x1
 5880 143d FB01     		.2byte	0x1fb
 5881 143f 56140000 		.4byte	0x1456
 5882 1443 14       		.uleb128 0x14
 5883 1444 47100000 		.4byte	0x1047
 5884 1448 7F1C0000 		.4byte	.LLST211
 5885 144c 14       		.uleb128 0x14
 5886 144d 3D100000 		.4byte	0x103d
 5887 1451 9F1C0000 		.4byte	.LLST212
 5888 1455 00       		.byte	0
 5889 1456 23       		.uleb128 0x23
ARM GAS  C:\Users\bogur\AppData\Local\Temp\cca0k2e0.s 			page 118


 5890 1457 42000000 		.4byte	.LVL425
 5891 145b C70B0000 		.4byte	0xbc7
 5892 145f 8E140000 		.4byte	0x148e
 5893 1463 24       		.uleb128 0x24
 5894 1464 01       		.uleb128 0x1
 5895 1465 50       		.byte	0x50
 5896 1466 0A       		.uleb128 0xa
 5897 1467 74       		.byte	0x74
 5898 1468 00       		.sleb128 0
 5899 1469 33       		.byte	0x33
 5900 146a 24       		.byte	0x24
 5901 146b 91       		.byte	0x91
 5902 146c 00       		.sleb128 0
 5903 146d 22       		.byte	0x22
 5904 146e 08       		.byte	0x8
 5905 146f A8       		.byte	0xa8
 5906 1470 1C       		.byte	0x1c
 5907 1471 24       		.uleb128 0x24
 5908 1472 01       		.uleb128 0x1
 5909 1473 51       		.byte	0x51
 5910 1474 0A       		.uleb128 0xa
 5911 1475 74       		.byte	0x74
 5912 1476 04       		.sleb128 4
 5913 1477 33       		.byte	0x33
 5914 1478 24       		.byte	0x24
 5915 1479 91       		.byte	0x91
 5916 147a 00       		.sleb128 0
 5917 147b 22       		.byte	0x22
 5918 147c 08       		.byte	0x8
 5919 147d A8       		.byte	0xa8
 5920 147e 1C       		.byte	0x1c
 5921 147f 24       		.uleb128 0x24
 5922 1480 01       		.uleb128 0x1
 5923 1481 52       		.byte	0x52
 5924 1482 0A       		.uleb128 0xa
 5925 1483 74       		.byte	0x74
 5926 1484 00       		.sleb128 0
 5927 1485 34       		.byte	0x34
 5928 1486 24       		.byte	0x24
 5929 1487 91       		.byte	0x91
 5930 1488 00       		.sleb128 0
 5931 1489 22       		.byte	0x22
 5932 148a 08       		.byte	0x8
 5933 148b 68       		.byte	0x68
 5934 148c 1C       		.byte	0x1c
 5935 148d 00       		.byte	0
 5936 148e 23       		.uleb128 0x23
 5937 148f 4E000000 		.4byte	.LVL427
 5938 1493 B3090000 		.4byte	0x9b3
 5939 1497 A3140000 		.4byte	0x14a3
 5940 149b 24       		.uleb128 0x24
 5941 149c 01       		.uleb128 0x1
 5942 149d 50       		.byte	0x50
 5943 149e 03       		.uleb128 0x3
 5944 149f 91       		.byte	0x91
 5945 14a0 D87E     		.sleb128 -168
 5946 14a2 00       		.byte	0
ARM GAS  C:\Users\bogur\AppData\Local\Temp\cca0k2e0.s 			page 119


 5947 14a3 23       		.uleb128 0x23
 5948 14a4 FC000000 		.4byte	.LVL432
 5949 14a8 6D020000 		.4byte	0x26d
 5950 14ac B8140000 		.4byte	0x14b8
 5951 14b0 24       		.uleb128 0x24
 5952 14b1 01       		.uleb128 0x1
 5953 14b2 50       		.byte	0x50
 5954 14b3 03       		.uleb128 0x3
 5955 14b4 91       		.byte	0x91
 5956 14b5 D87E     		.sleb128 -168
 5957 14b7 00       		.byte	0
 5958 14b8 23       		.uleb128 0x23
 5959 14b9 F4040000 		.4byte	.LVL466
 5960 14bd 6D020000 		.4byte	0x26d
 5961 14c1 CD140000 		.4byte	0x14cd
 5962 14c5 24       		.uleb128 0x24
 5963 14c6 01       		.uleb128 0x1
 5964 14c7 50       		.byte	0x50
 5965 14c8 03       		.uleb128 0x3
 5966 14c9 91       		.byte	0x91
 5967 14ca D87E     		.sleb128 -168
 5968 14cc 00       		.byte	0
 5969 14cd 23       		.uleb128 0x23
 5970 14ce 5E060000 		.4byte	.LVL474
 5971 14d2 B3090000 		.4byte	0x9b3
 5972 14d6 E2140000 		.4byte	0x14e2
 5973 14da 24       		.uleb128 0x24
 5974 14db 01       		.uleb128 0x1
 5975 14dc 50       		.byte	0x50
 5976 14dd 03       		.uleb128 0x3
 5977 14de 91       		.byte	0x91
 5978 14df D87E     		.sleb128 -168
 5979 14e1 00       		.byte	0
 5980 14e2 23       		.uleb128 0x23
 5981 14e3 8A060000 		.4byte	.LVL476
 5982 14e7 420C0000 		.4byte	0xc42
 5983 14eb FE140000 		.4byte	0x14fe
 5984 14ef 24       		.uleb128 0x24
 5985 14f0 01       		.uleb128 0x1
 5986 14f1 50       		.byte	0x50
 5987 14f2 0A       		.uleb128 0xa
 5988 14f3 74       		.byte	0x74
 5989 14f4 00       		.sleb128 0
 5990 14f5 34       		.byte	0x34
 5991 14f6 24       		.byte	0x24
 5992 14f7 91       		.byte	0x91
 5993 14f8 00       		.sleb128 0
 5994 14f9 22       		.byte	0x22
 5995 14fa 08       		.byte	0x8
 5996 14fb 68       		.byte	0x68
 5997 14fc 1C       		.byte	0x1c
 5998 14fd 00       		.byte	0
 5999 14fe 23       		.uleb128 0x23
 6000 14ff 9A060000 		.4byte	.LVL478
 6001 1503 FF010000 		.4byte	0x1ff
 6002 1507 20150000 		.4byte	0x1520
 6003 150b 24       		.uleb128 0x24
ARM GAS  C:\Users\bogur\AppData\Local\Temp\cca0k2e0.s 			page 120


 6004 150c 01       		.uleb128 0x1
 6005 150d 50       		.byte	0x50
 6006 150e 04       		.uleb128 0x4
 6007 150f 91       		.byte	0x91
 6008 1510 C07E     		.sleb128 -192
 6009 1512 06       		.byte	0x6
 6010 1513 24       		.uleb128 0x24
 6011 1514 01       		.uleb128 0x1
 6012 1515 51       		.byte	0x51
 6013 1516 03       		.uleb128 0x3
 6014 1517 91       		.byte	0x91
 6015 1518 987F     		.sleb128 -104
 6016 151a 24       		.uleb128 0x24
 6017 151b 01       		.uleb128 0x1
 6018 151c 52       		.byte	0x52
 6019 151d 01       		.uleb128 0x1
 6020 151e 40       		.byte	0x40
 6021 151f 00       		.byte	0
 6022 1520 23       		.uleb128 0x23
 6023 1521 A4060000 		.4byte	.LVL480
 6024 1525 6F0D0000 		.4byte	0xd6f
 6025 1529 34150000 		.4byte	0x1534
 6026 152d 24       		.uleb128 0x24
 6027 152e 01       		.uleb128 0x1
 6028 152f 50       		.byte	0x50
 6029 1530 02       		.uleb128 0x2
 6030 1531 74       		.byte	0x74
 6031 1532 0C       		.sleb128 12
 6032 1533 00       		.byte	0
 6033 1534 23       		.uleb128 0x23
 6034 1535 AC060000 		.4byte	.LVL481
 6035 1539 6F0D0000 		.4byte	0xd6f
 6036 153d 48150000 		.4byte	0x1548
 6037 1541 24       		.uleb128 0x24
 6038 1542 01       		.uleb128 0x1
 6039 1543 50       		.byte	0x50
 6040 1544 02       		.uleb128 0x2
 6041 1545 74       		.byte	0x74
 6042 1546 1C       		.sleb128 28
 6043 1547 00       		.byte	0
 6044 1548 23       		.uleb128 0x23
 6045 1549 B4060000 		.4byte	.LVL482
 6046 154d 6F0D0000 		.4byte	0xd6f
 6047 1551 5C150000 		.4byte	0x155c
 6048 1555 24       		.uleb128 0x24
 6049 1556 01       		.uleb128 0x1
 6050 1557 50       		.byte	0x50
 6051 1558 02       		.uleb128 0x2
 6052 1559 74       		.byte	0x74
 6053 155a 2C       		.sleb128 44
 6054 155b 00       		.byte	0
 6055 155c 25       		.uleb128 0x25
 6056 155d BC060000 		.4byte	.LVL483
 6057 1561 6F0D0000 		.4byte	0xd6f
 6058 1565 24       		.uleb128 0x24
 6059 1566 01       		.uleb128 0x1
 6060 1567 50       		.byte	0x50
ARM GAS  C:\Users\bogur\AppData\Local\Temp\cca0k2e0.s 			page 121


 6061 1568 02       		.uleb128 0x2
 6062 1569 74       		.byte	0x74
 6063 156a 3C       		.sleb128 60
 6064 156b 00       		.byte	0
 6065 156c 00       		.byte	0
 6066 156d 1B       		.uleb128 0x1b
 6067 156e 3E030000 		.4byte	.LASF42
 6068 1572 01       		.byte	0x1
 6069 1573 1202     		.2byte	0x212
 6070 1575 00000000 		.4byte	.LFB19
 6071 1579 C6000000 		.4byte	.LFE19-.LFB19
 6072 157d 01       		.uleb128 0x1
 6073 157e 9C       		.byte	0x9c
 6074 157f DE160000 		.4byte	0x16de
 6075 1583 1E       		.uleb128 0x1e
 6076 1584 52010000 		.4byte	.LASF19
 6077 1588 01       		.byte	0x1
 6078 1589 1202     		.2byte	0x212
 6079 158b AD090000 		.4byte	0x9ad
 6080 158f B51C0000 		.4byte	.LLST213
 6081 1593 1D       		.uleb128 0x1d
 6082 1594 697600   		.ascii	"iv\000"
 6083 1597 01       		.byte	0x1
 6084 1598 1202     		.2byte	0x212
 6085 159a 37010000 		.4byte	0x137
 6086 159e D31C0000 		.4byte	.LLST214
 6087 15a2 1D       		.uleb128 0x1d
 6088 15a3 636300   		.ascii	"cc\000"
 6089 15a6 01       		.byte	0x1
 6090 15a7 1202     		.2byte	0x212
 6091 15a9 97000000 		.4byte	0x97
 6092 15ad FF1C0000 		.4byte	.LLST215
 6093 15b1 1E       		.uleb128 0x1e
 6094 15b2 F8010000 		.4byte	.LASF43
 6095 15b6 01       		.byte	0x1
 6096 15b7 1202     		.2byte	0x212
 6097 15b9 63010000 		.4byte	0x163
 6098 15bd 381D0000 		.4byte	.LLST216
 6099 15c1 1D       		.uleb128 0x1d
 6100 15c2 6C656E00 		.ascii	"len\000"
 6101 15c6 01       		.byte	0x1
 6102 15c7 1202     		.2byte	0x212
 6103 15c9 AD000000 		.4byte	0xad
 6104 15cd 561D0000 		.4byte	.LLST217
 6105 15d1 19       		.uleb128 0x19
 6106 15d2 69767700 		.ascii	"ivw\000"
 6107 15d6 01       		.byte	0x1
 6108 15d7 1402     		.2byte	0x214
 6109 15d9 00010000 		.4byte	0x100
 6110 15dd 03       		.uleb128 0x3
 6111 15de 91       		.byte	0x91
 6112 15df A87F     		.sleb128 -88
 6113 15e1 18       		.uleb128 0x18
 6114 15e2 6900     		.ascii	"i\000"
 6115 15e4 01       		.byte	0x1
 6116 15e5 1502     		.2byte	0x215
 6117 15e7 AD000000 		.4byte	0xad
ARM GAS  C:\Users\bogur\AppData\Local\Temp\cca0k2e0.s 			page 122


 6118 15eb 751D0000 		.4byte	.LLST218
 6119 15ef 20       		.uleb128 0x20
 6120 15f0 85010000 		.4byte	0x185
 6121 15f4 36000000 		.4byte	.LBB125
 6122 15f8 12000000 		.4byte	.LBE125-.LBB125
 6123 15fc 01       		.byte	0x1
 6124 15fd 1B02     		.2byte	0x21b
 6125 15ff 0D160000 		.4byte	0x160d
 6126 1603 14       		.uleb128 0x14
 6127 1604 95010000 		.4byte	0x195
 6128 1608 941D0000 		.4byte	.LLST219
 6129 160c 00       		.byte	0
 6130 160d 20       		.uleb128 0x20
 6131 160e 85010000 		.4byte	0x185
 6132 1612 4C000000 		.4byte	.LBB127
 6133 1616 12000000 		.4byte	.LBE127-.LBB127
 6134 161a 01       		.byte	0x1
 6135 161b 1C02     		.2byte	0x21c
 6136 161d 2B160000 		.4byte	0x162b
 6137 1621 14       		.uleb128 0x14
 6138 1622 95010000 		.4byte	0x195
 6139 1626 B21D0000 		.4byte	.LLST220
 6140 162a 00       		.byte	0
 6141 162b 20       		.uleb128 0x20
 6142 162c 85010000 		.4byte	0x185
 6143 1630 62000000 		.4byte	.LBB129
 6144 1634 12000000 		.4byte	.LBE129-.LBB129
 6145 1638 01       		.byte	0x1
 6146 1639 1D02     		.2byte	0x21d
 6147 163b 49160000 		.4byte	0x1649
 6148 163f 14       		.uleb128 0x14
 6149 1640 95010000 		.4byte	0x195
 6150 1644 DD1D0000 		.4byte	.LLST221
 6151 1648 00       		.byte	0
 6152 1649 20       		.uleb128 0x20
 6153 164a 85010000 		.4byte	0x185
 6154 164e 78000000 		.4byte	.LBB131
 6155 1652 12000000 		.4byte	.LBE131-.LBB131
 6156 1656 01       		.byte	0x1
 6157 1657 1E02     		.2byte	0x21e
 6158 1659 67160000 		.4byte	0x1667
 6159 165d 14       		.uleb128 0x14
 6160 165e 95010000 		.4byte	0x195
 6161 1662 081E0000 		.4byte	.LLST222
 6162 1666 00       		.byte	0
 6163 1667 17       		.uleb128 0x17
 6164 1668 A2000000 		.4byte	.LBB133
 6165 166c 1E000000 		.4byte	.LBE133-.LBB133
 6166 1670 A1160000 		.4byte	0x16a1
 6167 1674 19       		.uleb128 0x19
 6168 1675 746D7000 		.ascii	"tmp\000"
 6169 1679 01       		.byte	0x1
 6170 167a 2602     		.2byte	0x226
 6171 167c DE160000 		.4byte	0x16de
 6172 1680 03       		.uleb128 0x3
 6173 1681 91       		.byte	0x91
 6174 1682 E87E     		.sleb128 -152
ARM GAS  C:\Users\bogur\AppData\Local\Temp\cca0k2e0.s 			page 123


 6175 1684 25       		.uleb128 0x25
 6176 1685 AC000000 		.4byte	.LVL509
 6177 1689 49110000 		.4byte	0x1149
 6178 168d 24       		.uleb128 0x24
 6179 168e 01       		.uleb128 0x1
 6180 168f 50       		.byte	0x50
 6181 1690 02       		.uleb128 0x2
 6182 1691 7D       		.byte	0x7d
 6183 1692 00       		.sleb128 0
 6184 1693 24       		.uleb128 0x24
 6185 1694 01       		.uleb128 0x1
 6186 1695 51       		.byte	0x51
 6187 1696 02       		.uleb128 0x2
 6188 1697 78       		.byte	0x78
 6189 1698 00       		.sleb128 0
 6190 1699 24       		.uleb128 0x24
 6191 169a 01       		.uleb128 0x1
 6192 169b 52       		.byte	0x52
 6193 169c 02       		.uleb128 0x2
 6194 169d 77       		.byte	0x77
 6195 169e 00       		.sleb128 0
 6196 169f 00       		.byte	0
 6197 16a0 00       		.byte	0
 6198 16a1 23       		.uleb128 0x23
 6199 16a2 1C000000 		.4byte	.LVL489
 6200 16a6 9F010000 		.4byte	0x19f
 6201 16aa C1160000 		.4byte	0x16c1
 6202 16ae 24       		.uleb128 0x24
 6203 16af 01       		.uleb128 0x1
 6204 16b0 50       		.byte	0x50
 6205 16b1 02       		.uleb128 0x2
 6206 16b2 78       		.byte	0x78
 6207 16b3 00       		.sleb128 0
 6208 16b4 24       		.uleb128 0x24
 6209 16b5 01       		.uleb128 0x1
 6210 16b6 51       		.byte	0x51
 6211 16b7 01       		.uleb128 0x1
 6212 16b8 33       		.byte	0x33
 6213 16b9 24       		.uleb128 0x24
 6214 16ba 01       		.uleb128 0x1
 6215 16bb 52       		.byte	0x52
 6216 16bc 03       		.uleb128 0x3
 6217 16bd F3       		.byte	0xf3
 6218 16be 01       		.uleb128 0x1
 6219 16bf 51       		.byte	0x51
 6220 16c0 00       		.byte	0
 6221 16c1 25       		.uleb128 0x25
 6222 16c2 98000000 		.4byte	.LVL506
 6223 16c6 49110000 		.4byte	0x1149
 6224 16ca 24       		.uleb128 0x24
 6225 16cb 01       		.uleb128 0x1
 6226 16cc 50       		.byte	0x50
 6227 16cd 02       		.uleb128 0x2
 6228 16ce 75       		.byte	0x75
 6229 16cf 00       		.sleb128 0
 6230 16d0 24       		.uleb128 0x24
 6231 16d1 01       		.uleb128 0x1
ARM GAS  C:\Users\bogur\AppData\Local\Temp\cca0k2e0.s 			page 124


 6232 16d2 51       		.byte	0x51
 6233 16d3 02       		.uleb128 0x2
 6234 16d4 78       		.byte	0x78
 6235 16d5 00       		.sleb128 0
 6236 16d6 24       		.uleb128 0x24
 6237 16d7 01       		.uleb128 0x1
 6238 16d8 52       		.byte	0x52
 6239 16d9 02       		.uleb128 0x2
 6240 16da 77       		.byte	0x77
 6241 16db 00       		.sleb128 0
 6242 16dc 00       		.byte	0
 6243 16dd 00       		.byte	0
 6244 16de 08       		.uleb128 0x8
 6245 16df 8C000000 		.4byte	0x8c
 6246 16e3 EE160000 		.4byte	0x16ee
 6247 16e7 09       		.uleb128 0x9
 6248 16e8 BF000000 		.4byte	0xbf
 6249 16ec 3F       		.byte	0x3f
 6250 16ed 00       		.byte	0
 6251 16ee 2E       		.uleb128 0x2e
 6252 16ef 7B020000 		.4byte	.LASF46
 6253 16f3 01       		.byte	0x1
 6254 16f4 2D02     		.2byte	0x22d
 6255 16f6 00000000 		.4byte	.LFB20
 6256 16fa 28000000 		.4byte	.LFE20-.LFB20
 6257 16fe 01       		.uleb128 0x1
 6258 16ff 9C       		.byte	0x9c
 6259 1700 9A170000 		.4byte	0x179a
 6260 1704 1D       		.uleb128 0x1d
 6261 1705 6F757400 		.ascii	"out\000"
 6262 1709 01       		.byte	0x1
 6263 170a 2D02     		.2byte	0x22d
 6264 170c 63010000 		.4byte	0x163
 6265 1710 361E0000 		.4byte	.LLST223
 6266 1714 1E       		.uleb128 0x1e
 6267 1715 E7010000 		.4byte	.LASF44
 6268 1719 01       		.byte	0x1
 6269 171a 2D02     		.2byte	0x22d
 6270 171c AD000000 		.4byte	0xad
 6271 1720 541E0000 		.4byte	.LLST224
 6272 1724 1D       		.uleb128 0x1d
 6273 1725 6B657900 		.ascii	"key\000"
 6274 1729 01       		.byte	0x1
 6275 172a 2D02     		.2byte	0x22d
 6276 172c 37010000 		.4byte	0x137
 6277 1730 721E0000 		.4byte	.LLST225
 6278 1734 1E       		.uleb128 0x1e
 6279 1735 C9020000 		.4byte	.LASF45
 6280 1739 01       		.byte	0x1
 6281 173a 2D02     		.2byte	0x22d
 6282 173c 37010000 		.4byte	0x137
 6283 1740 931E0000 		.4byte	.LLST226
 6284 1744 26       		.uleb128 0x26
 6285 1745 52010000 		.4byte	.LASF19
 6286 1749 01       		.byte	0x1
 6287 174a 2F02     		.2byte	0x22f
 6288 174c F0000000 		.4byte	0xf0
ARM GAS  C:\Users\bogur\AppData\Local\Temp\cca0k2e0.s 			page 125


 6289 1750 03       		.uleb128 0x3
 6290 1751 91       		.byte	0x91
 6291 1752 B078     		.sleb128 -976
 6292 1754 23       		.uleb128 0x23
 6293 1755 14000000 		.4byte	.LVL516
 6294 1759 A80F0000 		.4byte	0xfa8
 6295 175d 70170000 		.4byte	0x1770
 6296 1761 24       		.uleb128 0x24
 6297 1762 01       		.uleb128 0x1
 6298 1763 50       		.byte	0x50
 6299 1764 03       		.uleb128 0x3
 6300 1765 91       		.byte	0x91
 6301 1766 B078     		.sleb128 -976
 6302 1768 24       		.uleb128 0x24
 6303 1769 01       		.uleb128 0x1
 6304 176a 51       		.byte	0x51
 6305 176b 03       		.uleb128 0x3
 6306 176c F3       		.byte	0xf3
 6307 176d 01       		.uleb128 0x1
 6308 176e 52       		.byte	0x52
 6309 176f 00       		.byte	0
 6310 1770 25       		.uleb128 0x25
 6311 1771 22000000 		.4byte	.LVL517
 6312 1775 6D150000 		.4byte	0x156d
 6313 1779 24       		.uleb128 0x24
 6314 177a 01       		.uleb128 0x1
 6315 177b 50       		.byte	0x50
 6316 177c 03       		.uleb128 0x3
 6317 177d 91       		.byte	0x91
 6318 177e B078     		.sleb128 -976
 6319 1780 24       		.uleb128 0x24
 6320 1781 01       		.uleb128 0x1
 6321 1782 51       		.byte	0x51
 6322 1783 02       		.uleb128 0x2
 6323 1784 74       		.byte	0x74
 6324 1785 00       		.sleb128 0
 6325 1786 24       		.uleb128 0x24
 6326 1787 01       		.uleb128 0x1
 6327 1788 52       		.byte	0x52
 6328 1789 01       		.uleb128 0x1
 6329 178a 30       		.byte	0x30
 6330 178b 24       		.uleb128 0x24
 6331 178c 01       		.uleb128 0x1
 6332 178d 53       		.byte	0x53
 6333 178e 02       		.uleb128 0x2
 6334 178f 75       		.byte	0x75
 6335 1790 00       		.sleb128 0
 6336 1791 24       		.uleb128 0x24
 6337 1792 02       		.uleb128 0x2
 6338 1793 7D       		.byte	0x7d
 6339 1794 00       		.sleb128 0
 6340 1795 02       		.uleb128 0x2
 6341 1796 76       		.byte	0x76
 6342 1797 00       		.sleb128 0
 6343 1798 00       		.byte	0
 6344 1799 00       		.byte	0
 6345 179a 2E       		.uleb128 0x2e
ARM GAS  C:\Users\bogur\AppData\Local\Temp\cca0k2e0.s 			page 126


 6346 179b 37000000 		.4byte	.LASF47
 6347 179f 01       		.byte	0x1
 6348 17a0 3502     		.2byte	0x235
 6349 17a2 00000000 		.4byte	.LFB21
 6350 17a6 80000000 		.4byte	.LFE21-.LFB21
 6351 17aa 01       		.uleb128 0x1
 6352 17ab 9C       		.byte	0x9c
 6353 17ac 15180000 		.4byte	0x1815
 6354 17b0 1D       		.uleb128 0x1d
 6355 17b1 7300     		.ascii	"s\000"
 6356 17b3 01       		.byte	0x1
 6357 17b4 3502     		.2byte	0x235
 6358 17b6 15180000 		.4byte	0x1815
 6359 17ba B11E0000 		.4byte	.LLST227
 6360 17be 1D       		.uleb128 0x1d
 6361 17bf 6B657900 		.ascii	"key\000"
 6362 17c3 01       		.byte	0x1
 6363 17c4 3502     		.2byte	0x235
 6364 17c6 37010000 		.4byte	0x137
 6365 17ca CF1E0000 		.4byte	.LLST228
 6366 17ce 1E       		.uleb128 0x1e
 6367 17cf C9020000 		.4byte	.LASF45
 6368 17d3 01       		.byte	0x1
 6369 17d4 3502     		.2byte	0x235
 6370 17d6 37010000 		.4byte	0x137
 6371 17da F01E0000 		.4byte	.LLST229
 6372 17de 23       		.uleb128 0x23
 6373 17df 0A000000 		.4byte	.LVL519
 6374 17e3 A80F0000 		.4byte	0xfa8
 6375 17e7 F9170000 		.4byte	0x17f9
 6376 17eb 24       		.uleb128 0x24
 6377 17ec 01       		.uleb128 0x1
 6378 17ed 50       		.byte	0x50
 6379 17ee 02       		.uleb128 0x2
 6380 17ef 74       		.byte	0x74
 6381 17f0 00       		.sleb128 0
 6382 17f1 24       		.uleb128 0x24
 6383 17f2 01       		.uleb128 0x1
 6384 17f3 51       		.byte	0x51
 6385 17f4 03       		.uleb128 0x3
 6386 17f5 F3       		.byte	0xf3
 6387 17f6 01       		.uleb128 0x1
 6388 17f7 51       		.byte	0x51
 6389 17f8 00       		.byte	0
 6390 17f9 25       		.uleb128 0x25
 6391 17fa 18000000 		.4byte	.LVL520
 6392 17fe 9F010000 		.4byte	0x19f
 6393 1802 24       		.uleb128 0x24
 6394 1803 01       		.uleb128 0x1
 6395 1804 50       		.byte	0x50
 6396 1805 02       		.uleb128 0x2
 6397 1806 75       		.byte	0x75
 6398 1807 00       		.sleb128 0
 6399 1808 24       		.uleb128 0x24
 6400 1809 01       		.uleb128 0x1
 6401 180a 51       		.byte	0x51
 6402 180b 01       		.uleb128 0x1
ARM GAS  C:\Users\bogur\AppData\Local\Temp\cca0k2e0.s 			page 127


 6403 180c 33       		.byte	0x33
 6404 180d 24       		.uleb128 0x24
 6405 180e 01       		.uleb128 0x1
 6406 180f 52       		.byte	0x52
 6407 1810 02       		.uleb128 0x2
 6408 1811 76       		.byte	0x76
 6409 1812 00       		.sleb128 0
 6410 1813 00       		.byte	0
 6411 1814 00       		.byte	0
 6412 1815 0C       		.uleb128 0xc
 6413 1816 04       		.byte	0x4
 6414 1817 10010000 		.4byte	0x110
 6415 181b 2E       		.uleb128 0x2e
 6416 181c 70010000 		.4byte	.LASF48
 6417 1820 01       		.byte	0x1
 6418 1821 4302     		.2byte	0x243
 6419 1823 00000000 		.4byte	.LFB22
 6420 1827 20000000 		.4byte	.LFE22-.LFB22
 6421 182b 01       		.uleb128 0x1
 6422 182c 9C       		.byte	0x9c
 6423 182d 7D180000 		.4byte	0x187d
 6424 1831 1D       		.uleb128 0x1d
 6425 1832 6F757400 		.ascii	"out\000"
 6426 1836 01       		.byte	0x1
 6427 1837 4302     		.2byte	0x243
 6428 1839 63010000 		.4byte	0x163
 6429 183d 0E1F0000 		.4byte	.LLST230
 6430 1841 1E       		.uleb128 0x1e
 6431 1842 24030000 		.4byte	.LASF49
 6432 1846 01       		.byte	0x1
 6433 1847 4302     		.2byte	0x243
 6434 1849 AD000000 		.4byte	0xad
 6435 184d 2C1F0000 		.4byte	.LLST231
 6436 1851 1D       		.uleb128 0x1d
 6437 1852 7300     		.ascii	"s\000"
 6438 1854 01       		.byte	0x1
 6439 1855 4302     		.2byte	0x243
 6440 1857 15180000 		.4byte	0x1815
 6441 185b 4A1F0000 		.4byte	.LLST232
 6442 185f 25       		.uleb128 0x25
 6443 1860 16000000 		.4byte	.LVL523
 6444 1864 49110000 		.4byte	0x1149
 6445 1868 24       		.uleb128 0x24
 6446 1869 01       		.uleb128 0x1
 6447 186a 50       		.byte	0x50
 6448 186b 02       		.uleb128 0x2
 6449 186c 75       		.byte	0x75
 6450 186d 00       		.sleb128 0
 6451 186e 24       		.uleb128 0x24
 6452 186f 01       		.uleb128 0x1
 6453 1870 51       		.byte	0x51
 6454 1871 03       		.uleb128 0x3
 6455 1872 76       		.byte	0x76
 6456 1873 C007     		.sleb128 960
 6457 1875 24       		.uleb128 0x24
 6458 1876 01       		.uleb128 0x1
 6459 1877 52       		.byte	0x52
ARM GAS  C:\Users\bogur\AppData\Local\Temp\cca0k2e0.s 			page 128


 6460 1878 02       		.uleb128 0x2
 6461 1879 76       		.byte	0x76
 6462 187a 00       		.sleb128 0
 6463 187b 00       		.byte	0
 6464 187c 00       		.byte	0
 6465 187d 08       		.uleb128 0x8
 6466 187e 3D010000 		.4byte	0x13d
 6467 1882 8D180000 		.4byte	0x188d
 6468 1886 09       		.uleb128 0x9
 6469 1887 BF000000 		.4byte	0xbf
 6470 188b 09       		.byte	0x9
 6471 188c 00       		.byte	0
 6472 188d 26       		.uleb128 0x26
 6473 188e EE010000 		.4byte	.LASF50
 6474 1892 01       		.byte	0x1
 6475 1893 4301     		.2byte	0x143
 6476 1895 9F180000 		.4byte	0x189f
 6477 1899 05       		.uleb128 0x5
 6478 189a 03       		.byte	0x3
 6479 189b 00000000 		.4byte	Rcon
 6480 189f 0D       		.uleb128 0xd
 6481 18a0 7D180000 		.4byte	0x187d
 6482 18a4 2F       		.uleb128 0x2f
 6483 18a5 75000000 		.4byte	.LASF55
 6484 18a9 75000000 		.4byte	.LASF55
 6485 18ad 00       		.byte	0
 6486              		.section	.debug_abbrev,"",%progbits
 6487              	.Ldebug_abbrev0:
 6488 0000 01       		.uleb128 0x1
 6489 0001 11       		.uleb128 0x11
 6490 0002 01       		.byte	0x1
 6491 0003 25       		.uleb128 0x25
 6492 0004 0E       		.uleb128 0xe
 6493 0005 13       		.uleb128 0x13
 6494 0006 0B       		.uleb128 0xb
 6495 0007 03       		.uleb128 0x3
 6496 0008 0E       		.uleb128 0xe
 6497 0009 1B       		.uleb128 0x1b
 6498 000a 0E       		.uleb128 0xe
 6499 000b 55       		.uleb128 0x55
 6500 000c 17       		.uleb128 0x17
 6501 000d 11       		.uleb128 0x11
 6502 000e 01       		.uleb128 0x1
 6503 000f 10       		.uleb128 0x10
 6504 0010 17       		.uleb128 0x17
 6505 0011 00       		.byte	0
 6506 0012 00       		.byte	0
 6507 0013 02       		.uleb128 0x2
 6508 0014 24       		.uleb128 0x24
 6509 0015 00       		.byte	0
 6510 0016 0B       		.uleb128 0xb
 6511 0017 0B       		.uleb128 0xb
 6512 0018 3E       		.uleb128 0x3e
 6513 0019 0B       		.uleb128 0xb
 6514 001a 03       		.uleb128 0x3
 6515 001b 0E       		.uleb128 0xe
 6516 001c 00       		.byte	0
ARM GAS  C:\Users\bogur\AppData\Local\Temp\cca0k2e0.s 			page 129


 6517 001d 00       		.byte	0
 6518 001e 03       		.uleb128 0x3
 6519 001f 16       		.uleb128 0x16
 6520 0020 00       		.byte	0
 6521 0021 03       		.uleb128 0x3
 6522 0022 0E       		.uleb128 0xe
 6523 0023 3A       		.uleb128 0x3a
 6524 0024 0B       		.uleb128 0xb
 6525 0025 3B       		.uleb128 0x3b
 6526 0026 0B       		.uleb128 0xb
 6527 0027 49       		.uleb128 0x49
 6528 0028 13       		.uleb128 0x13
 6529 0029 00       		.byte	0
 6530 002a 00       		.byte	0
 6531 002b 04       		.uleb128 0x4
 6532 002c 24       		.uleb128 0x24
 6533 002d 00       		.byte	0
 6534 002e 0B       		.uleb128 0xb
 6535 002f 0B       		.uleb128 0xb
 6536 0030 3E       		.uleb128 0x3e
 6537 0031 0B       		.uleb128 0xb
 6538 0032 03       		.uleb128 0x3
 6539 0033 08       		.uleb128 0x8
 6540 0034 00       		.byte	0
 6541 0035 00       		.byte	0
 6542 0036 05       		.uleb128 0x5
 6543 0037 13       		.uleb128 0x13
 6544 0038 01       		.byte	0x1
 6545 0039 0B       		.uleb128 0xb
 6546 003a 05       		.uleb128 0x5
 6547 003b 3A       		.uleb128 0x3a
 6548 003c 0B       		.uleb128 0xb
 6549 003d 3B       		.uleb128 0x3b
 6550 003e 0B       		.uleb128 0xb
 6551 003f 01       		.uleb128 0x1
 6552 0040 13       		.uleb128 0x13
 6553 0041 00       		.byte	0
 6554 0042 00       		.byte	0
 6555 0043 06       		.uleb128 0x6
 6556 0044 0D       		.uleb128 0xd
 6557 0045 00       		.byte	0
 6558 0046 03       		.uleb128 0x3
 6559 0047 0E       		.uleb128 0xe
 6560 0048 3A       		.uleb128 0x3a
 6561 0049 0B       		.uleb128 0xb
 6562 004a 3B       		.uleb128 0x3b
 6563 004b 0B       		.uleb128 0xb
 6564 004c 49       		.uleb128 0x49
 6565 004d 13       		.uleb128 0x13
 6566 004e 38       		.uleb128 0x38
 6567 004f 0B       		.uleb128 0xb
 6568 0050 00       		.byte	0
 6569 0051 00       		.byte	0
 6570 0052 07       		.uleb128 0x7
 6571 0053 0D       		.uleb128 0xd
 6572 0054 00       		.byte	0
 6573 0055 03       		.uleb128 0x3
ARM GAS  C:\Users\bogur\AppData\Local\Temp\cca0k2e0.s 			page 130


 6574 0056 08       		.uleb128 0x8
 6575 0057 3A       		.uleb128 0x3a
 6576 0058 0B       		.uleb128 0xb
 6577 0059 3B       		.uleb128 0x3b
 6578 005a 0B       		.uleb128 0xb
 6579 005b 49       		.uleb128 0x49
 6580 005c 13       		.uleb128 0x13
 6581 005d 38       		.uleb128 0x38
 6582 005e 05       		.uleb128 0x5
 6583 005f 00       		.byte	0
 6584 0060 00       		.byte	0
 6585 0061 08       		.uleb128 0x8
 6586 0062 01       		.uleb128 0x1
 6587 0063 01       		.byte	0x1
 6588 0064 49       		.uleb128 0x49
 6589 0065 13       		.uleb128 0x13
 6590 0066 01       		.uleb128 0x1
 6591 0067 13       		.uleb128 0x13
 6592 0068 00       		.byte	0
 6593 0069 00       		.byte	0
 6594 006a 09       		.uleb128 0x9
 6595 006b 21       		.uleb128 0x21
 6596 006c 00       		.byte	0
 6597 006d 49       		.uleb128 0x49
 6598 006e 13       		.uleb128 0x13
 6599 006f 2F       		.uleb128 0x2f
 6600 0070 0B       		.uleb128 0xb
 6601 0071 00       		.byte	0
 6602 0072 00       		.byte	0
 6603 0073 0A       		.uleb128 0xa
 6604 0074 2E       		.uleb128 0x2e
 6605 0075 01       		.byte	0x1
 6606 0076 03       		.uleb128 0x3
 6607 0077 0E       		.uleb128 0xe
 6608 0078 3A       		.uleb128 0x3a
 6609 0079 0B       		.uleb128 0xb
 6610 007a 3B       		.uleb128 0x3b
 6611 007b 0B       		.uleb128 0xb
 6612 007c 27       		.uleb128 0x27
 6613 007d 19       		.uleb128 0x19
 6614 007e 49       		.uleb128 0x49
 6615 007f 13       		.uleb128 0x13
 6616 0080 20       		.uleb128 0x20
 6617 0081 0B       		.uleb128 0xb
 6618 0082 01       		.uleb128 0x1
 6619 0083 13       		.uleb128 0x13
 6620 0084 00       		.byte	0
 6621 0085 00       		.byte	0
 6622 0086 0B       		.uleb128 0xb
 6623 0087 05       		.uleb128 0x5
 6624 0088 00       		.byte	0
 6625 0089 03       		.uleb128 0x3
 6626 008a 08       		.uleb128 0x8
 6627 008b 3A       		.uleb128 0x3a
 6628 008c 0B       		.uleb128 0xb
 6629 008d 3B       		.uleb128 0x3b
 6630 008e 0B       		.uleb128 0xb
ARM GAS  C:\Users\bogur\AppData\Local\Temp\cca0k2e0.s 			page 131


 6631 008f 49       		.uleb128 0x49
 6632 0090 13       		.uleb128 0x13
 6633 0091 00       		.byte	0
 6634 0092 00       		.byte	0
 6635 0093 0C       		.uleb128 0xc
 6636 0094 0F       		.uleb128 0xf
 6637 0095 00       		.byte	0
 6638 0096 0B       		.uleb128 0xb
 6639 0097 0B       		.uleb128 0xb
 6640 0098 49       		.uleb128 0x49
 6641 0099 13       		.uleb128 0x13
 6642 009a 00       		.byte	0
 6643 009b 00       		.byte	0
 6644 009c 0D       		.uleb128 0xd
 6645 009d 26       		.uleb128 0x26
 6646 009e 00       		.byte	0
 6647 009f 49       		.uleb128 0x49
 6648 00a0 13       		.uleb128 0x13
 6649 00a1 00       		.byte	0
 6650 00a2 00       		.byte	0
 6651 00a3 0E       		.uleb128 0xe
 6652 00a4 2E       		.uleb128 0x2e
 6653 00a5 01       		.byte	0x1
 6654 00a6 03       		.uleb128 0x3
 6655 00a7 0E       		.uleb128 0xe
 6656 00a8 3A       		.uleb128 0x3a
 6657 00a9 0B       		.uleb128 0xb
 6658 00aa 3B       		.uleb128 0x3b
 6659 00ab 0B       		.uleb128 0xb
 6660 00ac 27       		.uleb128 0x27
 6661 00ad 19       		.uleb128 0x19
 6662 00ae 20       		.uleb128 0x20
 6663 00af 0B       		.uleb128 0xb
 6664 00b0 01       		.uleb128 0x1
 6665 00b1 13       		.uleb128 0x13
 6666 00b2 00       		.byte	0
 6667 00b3 00       		.byte	0
 6668 00b4 0F       		.uleb128 0xf
 6669 00b5 2E       		.uleb128 0x2e
 6670 00b6 01       		.byte	0x1
 6671 00b7 03       		.uleb128 0x3
 6672 00b8 0E       		.uleb128 0xe
 6673 00b9 3A       		.uleb128 0x3a
 6674 00ba 0B       		.uleb128 0xb
 6675 00bb 3B       		.uleb128 0x3b
 6676 00bc 05       		.uleb128 0x5
 6677 00bd 27       		.uleb128 0x27
 6678 00be 19       		.uleb128 0x19
 6679 00bf 49       		.uleb128 0x49
 6680 00c0 13       		.uleb128 0x13
 6681 00c1 20       		.uleb128 0x20
 6682 00c2 0B       		.uleb128 0xb
 6683 00c3 01       		.uleb128 0x1
 6684 00c4 13       		.uleb128 0x13
 6685 00c5 00       		.byte	0
 6686 00c6 00       		.byte	0
 6687 00c7 10       		.uleb128 0x10
ARM GAS  C:\Users\bogur\AppData\Local\Temp\cca0k2e0.s 			page 132


 6688 00c8 05       		.uleb128 0x5
 6689 00c9 00       		.byte	0
 6690 00ca 03       		.uleb128 0x3
 6691 00cb 08       		.uleb128 0x8
 6692 00cc 3A       		.uleb128 0x3a
 6693 00cd 0B       		.uleb128 0xb
 6694 00ce 3B       		.uleb128 0x3b
 6695 00cf 05       		.uleb128 0x5
 6696 00d0 49       		.uleb128 0x49
 6697 00d1 13       		.uleb128 0x13
 6698 00d2 00       		.byte	0
 6699 00d3 00       		.byte	0
 6700 00d4 11       		.uleb128 0x11
 6701 00d5 2E       		.uleb128 0x2e
 6702 00d6 01       		.byte	0x1
 6703 00d7 03       		.uleb128 0x3
 6704 00d8 0E       		.uleb128 0xe
 6705 00d9 3A       		.uleb128 0x3a
 6706 00da 0B       		.uleb128 0xb
 6707 00db 3B       		.uleb128 0x3b
 6708 00dc 0B       		.uleb128 0xb
 6709 00dd 27       		.uleb128 0x27
 6710 00de 19       		.uleb128 0x19
 6711 00df 11       		.uleb128 0x11
 6712 00e0 01       		.uleb128 0x1
 6713 00e1 12       		.uleb128 0x12
 6714 00e2 06       		.uleb128 0x6
 6715 00e3 40       		.uleb128 0x40
 6716 00e4 18       		.uleb128 0x18
 6717 00e5 9742     		.uleb128 0x2117
 6718 00e7 19       		.uleb128 0x19
 6719 00e8 01       		.uleb128 0x1
 6720 00e9 13       		.uleb128 0x13
 6721 00ea 00       		.byte	0
 6722 00eb 00       		.byte	0
 6723 00ec 12       		.uleb128 0x12
 6724 00ed 05       		.uleb128 0x5
 6725 00ee 00       		.byte	0
 6726 00ef 03       		.uleb128 0x3
 6727 00f0 08       		.uleb128 0x8
 6728 00f1 3A       		.uleb128 0x3a
 6729 00f2 0B       		.uleb128 0xb
 6730 00f3 3B       		.uleb128 0x3b
 6731 00f4 0B       		.uleb128 0xb
 6732 00f5 49       		.uleb128 0x49
 6733 00f6 13       		.uleb128 0x13
 6734 00f7 02       		.uleb128 0x2
 6735 00f8 17       		.uleb128 0x17
 6736 00f9 00       		.byte	0
 6737 00fa 00       		.byte	0
 6738 00fb 13       		.uleb128 0x13
 6739 00fc 1D       		.uleb128 0x1d
 6740 00fd 01       		.byte	0x1
 6741 00fe 31       		.uleb128 0x31
 6742 00ff 13       		.uleb128 0x13
 6743 0100 11       		.uleb128 0x11
 6744 0101 01       		.uleb128 0x1
ARM GAS  C:\Users\bogur\AppData\Local\Temp\cca0k2e0.s 			page 133


 6745 0102 12       		.uleb128 0x12
 6746 0103 06       		.uleb128 0x6
 6747 0104 58       		.uleb128 0x58
 6748 0105 0B       		.uleb128 0xb
 6749 0106 59       		.uleb128 0x59
 6750 0107 0B       		.uleb128 0xb
 6751 0108 00       		.byte	0
 6752 0109 00       		.byte	0
 6753 010a 14       		.uleb128 0x14
 6754 010b 05       		.uleb128 0x5
 6755 010c 00       		.byte	0
 6756 010d 31       		.uleb128 0x31
 6757 010e 13       		.uleb128 0x13
 6758 010f 02       		.uleb128 0x2
 6759 0110 17       		.uleb128 0x17
 6760 0111 00       		.byte	0
 6761 0112 00       		.byte	0
 6762 0113 15       		.uleb128 0x15
 6763 0114 34       		.uleb128 0x34
 6764 0115 00       		.byte	0
 6765 0116 03       		.uleb128 0x3
 6766 0117 08       		.uleb128 0x8
 6767 0118 3A       		.uleb128 0x3a
 6768 0119 0B       		.uleb128 0xb
 6769 011a 3B       		.uleb128 0x3b
 6770 011b 0B       		.uleb128 0xb
 6771 011c 49       		.uleb128 0x49
 6772 011d 13       		.uleb128 0x13
 6773 011e 02       		.uleb128 0x2
 6774 011f 17       		.uleb128 0x17
 6775 0120 00       		.byte	0
 6776 0121 00       		.byte	0
 6777 0122 16       		.uleb128 0x16
 6778 0123 34       		.uleb128 0x34
 6779 0124 00       		.byte	0
 6780 0125 03       		.uleb128 0x3
 6781 0126 08       		.uleb128 0x8
 6782 0127 3A       		.uleb128 0x3a
 6783 0128 0B       		.uleb128 0xb
 6784 0129 3B       		.uleb128 0x3b
 6785 012a 0B       		.uleb128 0xb
 6786 012b 49       		.uleb128 0x49
 6787 012c 13       		.uleb128 0x13
 6788 012d 02       		.uleb128 0x2
 6789 012e 18       		.uleb128 0x18
 6790 012f 00       		.byte	0
 6791 0130 00       		.byte	0
 6792 0131 17       		.uleb128 0x17
 6793 0132 0B       		.uleb128 0xb
 6794 0133 01       		.byte	0x1
 6795 0134 11       		.uleb128 0x11
 6796 0135 01       		.uleb128 0x1
 6797 0136 12       		.uleb128 0x12
 6798 0137 06       		.uleb128 0x6
 6799 0138 01       		.uleb128 0x1
 6800 0139 13       		.uleb128 0x13
 6801 013a 00       		.byte	0
ARM GAS  C:\Users\bogur\AppData\Local\Temp\cca0k2e0.s 			page 134


 6802 013b 00       		.byte	0
 6803 013c 18       		.uleb128 0x18
 6804 013d 34       		.uleb128 0x34
 6805 013e 00       		.byte	0
 6806 013f 03       		.uleb128 0x3
 6807 0140 08       		.uleb128 0x8
 6808 0141 3A       		.uleb128 0x3a
 6809 0142 0B       		.uleb128 0xb
 6810 0143 3B       		.uleb128 0x3b
 6811 0144 05       		.uleb128 0x5
 6812 0145 49       		.uleb128 0x49
 6813 0146 13       		.uleb128 0x13
 6814 0147 02       		.uleb128 0x2
 6815 0148 17       		.uleb128 0x17
 6816 0149 00       		.byte	0
 6817 014a 00       		.byte	0
 6818 014b 19       		.uleb128 0x19
 6819 014c 34       		.uleb128 0x34
 6820 014d 00       		.byte	0
 6821 014e 03       		.uleb128 0x3
 6822 014f 08       		.uleb128 0x8
 6823 0150 3A       		.uleb128 0x3a
 6824 0151 0B       		.uleb128 0xb
 6825 0152 3B       		.uleb128 0x3b
 6826 0153 05       		.uleb128 0x5
 6827 0154 49       		.uleb128 0x49
 6828 0155 13       		.uleb128 0x13
 6829 0156 02       		.uleb128 0x2
 6830 0157 18       		.uleb128 0x18
 6831 0158 00       		.byte	0
 6832 0159 00       		.byte	0
 6833 015a 1A       		.uleb128 0x1a
 6834 015b 0B       		.uleb128 0xb
 6835 015c 01       		.byte	0x1
 6836 015d 11       		.uleb128 0x11
 6837 015e 01       		.uleb128 0x1
 6838 015f 12       		.uleb128 0x12
 6839 0160 06       		.uleb128 0x6
 6840 0161 00       		.byte	0
 6841 0162 00       		.byte	0
 6842 0163 1B       		.uleb128 0x1b
 6843 0164 2E       		.uleb128 0x2e
 6844 0165 01       		.byte	0x1
 6845 0166 03       		.uleb128 0x3
 6846 0167 0E       		.uleb128 0xe
 6847 0168 3A       		.uleb128 0x3a
 6848 0169 0B       		.uleb128 0xb
 6849 016a 3B       		.uleb128 0x3b
 6850 016b 05       		.uleb128 0x5
 6851 016c 27       		.uleb128 0x27
 6852 016d 19       		.uleb128 0x19
 6853 016e 11       		.uleb128 0x11
 6854 016f 01       		.uleb128 0x1
 6855 0170 12       		.uleb128 0x12
 6856 0171 06       		.uleb128 0x6
 6857 0172 40       		.uleb128 0x40
 6858 0173 18       		.uleb128 0x18
ARM GAS  C:\Users\bogur\AppData\Local\Temp\cca0k2e0.s 			page 135


 6859 0174 9742     		.uleb128 0x2117
 6860 0176 19       		.uleb128 0x19
 6861 0177 01       		.uleb128 0x1
 6862 0178 13       		.uleb128 0x13
 6863 0179 00       		.byte	0
 6864 017a 00       		.byte	0
 6865 017b 1C       		.uleb128 0x1c
 6866 017c 05       		.uleb128 0x5
 6867 017d 00       		.byte	0
 6868 017e 03       		.uleb128 0x3
 6869 017f 08       		.uleb128 0x8
 6870 0180 3A       		.uleb128 0x3a
 6871 0181 0B       		.uleb128 0xb
 6872 0182 3B       		.uleb128 0x3b
 6873 0183 05       		.uleb128 0x5
 6874 0184 49       		.uleb128 0x49
 6875 0185 13       		.uleb128 0x13
 6876 0186 02       		.uleb128 0x2
 6877 0187 18       		.uleb128 0x18
 6878 0188 00       		.byte	0
 6879 0189 00       		.byte	0
 6880 018a 1D       		.uleb128 0x1d
 6881 018b 05       		.uleb128 0x5
 6882 018c 00       		.byte	0
 6883 018d 03       		.uleb128 0x3
 6884 018e 08       		.uleb128 0x8
 6885 018f 3A       		.uleb128 0x3a
 6886 0190 0B       		.uleb128 0xb
 6887 0191 3B       		.uleb128 0x3b
 6888 0192 05       		.uleb128 0x5
 6889 0193 49       		.uleb128 0x49
 6890 0194 13       		.uleb128 0x13
 6891 0195 02       		.uleb128 0x2
 6892 0196 17       		.uleb128 0x17
 6893 0197 00       		.byte	0
 6894 0198 00       		.byte	0
 6895 0199 1E       		.uleb128 0x1e
 6896 019a 05       		.uleb128 0x5
 6897 019b 00       		.byte	0
 6898 019c 03       		.uleb128 0x3
 6899 019d 0E       		.uleb128 0xe
 6900 019e 3A       		.uleb128 0x3a
 6901 019f 0B       		.uleb128 0xb
 6902 01a0 3B       		.uleb128 0x3b
 6903 01a1 05       		.uleb128 0x5
 6904 01a2 49       		.uleb128 0x49
 6905 01a3 13       		.uleb128 0x13
 6906 01a4 02       		.uleb128 0x2
 6907 01a5 17       		.uleb128 0x17
 6908 01a6 00       		.byte	0
 6909 01a7 00       		.byte	0
 6910 01a8 1F       		.uleb128 0x1f
 6911 01a9 34       		.uleb128 0x34
 6912 01aa 00       		.byte	0
 6913 01ab 03       		.uleb128 0x3
 6914 01ac 08       		.uleb128 0x8
 6915 01ad 3A       		.uleb128 0x3a
ARM GAS  C:\Users\bogur\AppData\Local\Temp\cca0k2e0.s 			page 136


 6916 01ae 0B       		.uleb128 0xb
 6917 01af 3B       		.uleb128 0x3b
 6918 01b0 05       		.uleb128 0x5
 6919 01b1 49       		.uleb128 0x49
 6920 01b2 13       		.uleb128 0x13
 6921 01b3 1C       		.uleb128 0x1c
 6922 01b4 0B       		.uleb128 0xb
 6923 01b5 00       		.byte	0
 6924 01b6 00       		.byte	0
 6925 01b7 20       		.uleb128 0x20
 6926 01b8 1D       		.uleb128 0x1d
 6927 01b9 01       		.byte	0x1
 6928 01ba 31       		.uleb128 0x31
 6929 01bb 13       		.uleb128 0x13
 6930 01bc 11       		.uleb128 0x11
 6931 01bd 01       		.uleb128 0x1
 6932 01be 12       		.uleb128 0x12
 6933 01bf 06       		.uleb128 0x6
 6934 01c0 58       		.uleb128 0x58
 6935 01c1 0B       		.uleb128 0xb
 6936 01c2 59       		.uleb128 0x59
 6937 01c3 05       		.uleb128 0x5
 6938 01c4 01       		.uleb128 0x1
 6939 01c5 13       		.uleb128 0x13
 6940 01c6 00       		.byte	0
 6941 01c7 00       		.byte	0
 6942 01c8 21       		.uleb128 0x21
 6943 01c9 1D       		.uleb128 0x1d
 6944 01ca 01       		.byte	0x1
 6945 01cb 31       		.uleb128 0x31
 6946 01cc 13       		.uleb128 0x13
 6947 01cd 11       		.uleb128 0x11
 6948 01ce 01       		.uleb128 0x1
 6949 01cf 12       		.uleb128 0x12
 6950 01d0 06       		.uleb128 0x6
 6951 01d1 58       		.uleb128 0x58
 6952 01d2 0B       		.uleb128 0xb
 6953 01d3 59       		.uleb128 0x59
 6954 01d4 05       		.uleb128 0x5
 6955 01d5 00       		.byte	0
 6956 01d6 00       		.byte	0
 6957 01d7 22       		.uleb128 0x22
 6958 01d8 2E       		.uleb128 0x2e
 6959 01d9 01       		.byte	0x1
 6960 01da 03       		.uleb128 0x3
 6961 01db 0E       		.uleb128 0xe
 6962 01dc 3A       		.uleb128 0x3a
 6963 01dd 0B       		.uleb128 0xb
 6964 01de 3B       		.uleb128 0x3b
 6965 01df 05       		.uleb128 0x5
 6966 01e0 27       		.uleb128 0x27
 6967 01e1 19       		.uleb128 0x19
 6968 01e2 49       		.uleb128 0x49
 6969 01e3 13       		.uleb128 0x13
 6970 01e4 11       		.uleb128 0x11
 6971 01e5 01       		.uleb128 0x1
 6972 01e6 12       		.uleb128 0x12
ARM GAS  C:\Users\bogur\AppData\Local\Temp\cca0k2e0.s 			page 137


 6973 01e7 06       		.uleb128 0x6
 6974 01e8 40       		.uleb128 0x40
 6975 01e9 18       		.uleb128 0x18
 6976 01ea 9742     		.uleb128 0x2117
 6977 01ec 19       		.uleb128 0x19
 6978 01ed 01       		.uleb128 0x1
 6979 01ee 13       		.uleb128 0x13
 6980 01ef 00       		.byte	0
 6981 01f0 00       		.byte	0
 6982 01f1 23       		.uleb128 0x23
 6983 01f2 898201   		.uleb128 0x4109
 6984 01f5 01       		.byte	0x1
 6985 01f6 11       		.uleb128 0x11
 6986 01f7 01       		.uleb128 0x1
 6987 01f8 31       		.uleb128 0x31
 6988 01f9 13       		.uleb128 0x13
 6989 01fa 01       		.uleb128 0x1
 6990 01fb 13       		.uleb128 0x13
 6991 01fc 00       		.byte	0
 6992 01fd 00       		.byte	0
 6993 01fe 24       		.uleb128 0x24
 6994 01ff 8A8201   		.uleb128 0x410a
 6995 0202 00       		.byte	0
 6996 0203 02       		.uleb128 0x2
 6997 0204 18       		.uleb128 0x18
 6998 0205 9142     		.uleb128 0x2111
 6999 0207 18       		.uleb128 0x18
 7000 0208 00       		.byte	0
 7001 0209 00       		.byte	0
 7002 020a 25       		.uleb128 0x25
 7003 020b 898201   		.uleb128 0x4109
 7004 020e 01       		.byte	0x1
 7005 020f 11       		.uleb128 0x11
 7006 0210 01       		.uleb128 0x1
 7007 0211 31       		.uleb128 0x31
 7008 0212 13       		.uleb128 0x13
 7009 0213 00       		.byte	0
 7010 0214 00       		.byte	0
 7011 0215 26       		.uleb128 0x26
 7012 0216 34       		.uleb128 0x34
 7013 0217 00       		.byte	0
 7014 0218 03       		.uleb128 0x3
 7015 0219 0E       		.uleb128 0xe
 7016 021a 3A       		.uleb128 0x3a
 7017 021b 0B       		.uleb128 0xb
 7018 021c 3B       		.uleb128 0x3b
 7019 021d 05       		.uleb128 0x5
 7020 021e 49       		.uleb128 0x49
 7021 021f 13       		.uleb128 0x13
 7022 0220 02       		.uleb128 0x2
 7023 0221 18       		.uleb128 0x18
 7024 0222 00       		.byte	0
 7025 0223 00       		.byte	0
 7026 0224 27       		.uleb128 0x27
 7027 0225 34       		.uleb128 0x34
 7028 0226 00       		.byte	0
 7029 0227 03       		.uleb128 0x3
ARM GAS  C:\Users\bogur\AppData\Local\Temp\cca0k2e0.s 			page 138


 7030 0228 0E       		.uleb128 0xe
 7031 0229 3A       		.uleb128 0x3a
 7032 022a 0B       		.uleb128 0xb
 7033 022b 3B       		.uleb128 0x3b
 7034 022c 05       		.uleb128 0x5
 7035 022d 49       		.uleb128 0x49
 7036 022e 13       		.uleb128 0x13
 7037 022f 1C       		.uleb128 0x1c
 7038 0230 0B       		.uleb128 0xb
 7039 0231 00       		.byte	0
 7040 0232 00       		.byte	0
 7041 0233 28       		.uleb128 0x28
 7042 0234 898201   		.uleb128 0x4109
 7043 0237 00       		.byte	0
 7044 0238 11       		.uleb128 0x11
 7045 0239 01       		.uleb128 0x1
 7046 023a 31       		.uleb128 0x31
 7047 023b 13       		.uleb128 0x13
 7048 023c 00       		.byte	0
 7049 023d 00       		.byte	0
 7050 023e 29       		.uleb128 0x29
 7051 023f 2E       		.uleb128 0x2e
 7052 0240 01       		.byte	0x1
 7053 0241 03       		.uleb128 0x3
 7054 0242 0E       		.uleb128 0xe
 7055 0243 3A       		.uleb128 0x3a
 7056 0244 0B       		.uleb128 0xb
 7057 0245 3B       		.uleb128 0x3b
 7058 0246 05       		.uleb128 0x5
 7059 0247 27       		.uleb128 0x27
 7060 0248 19       		.uleb128 0x19
 7061 0249 20       		.uleb128 0x20
 7062 024a 0B       		.uleb128 0xb
 7063 024b 01       		.uleb128 0x1
 7064 024c 13       		.uleb128 0x13
 7065 024d 00       		.byte	0
 7066 024e 00       		.byte	0
 7067 024f 2A       		.uleb128 0x2a
 7068 0250 34       		.uleb128 0x34
 7069 0251 00       		.byte	0
 7070 0252 03       		.uleb128 0x3
 7071 0253 08       		.uleb128 0x8
 7072 0254 3A       		.uleb128 0x3a
 7073 0255 0B       		.uleb128 0xb
 7074 0256 3B       		.uleb128 0x3b
 7075 0257 05       		.uleb128 0x5
 7076 0258 49       		.uleb128 0x49
 7077 0259 13       		.uleb128 0x13
 7078 025a 00       		.byte	0
 7079 025b 00       		.byte	0
 7080 025c 2B       		.uleb128 0x2b
 7081 025d 0B       		.uleb128 0xb
 7082 025e 01       		.byte	0x1
 7083 025f 00       		.byte	0
 7084 0260 00       		.byte	0
 7085 0261 2C       		.uleb128 0x2c
 7086 0262 34       		.uleb128 0x34
ARM GAS  C:\Users\bogur\AppData\Local\Temp\cca0k2e0.s 			page 139


 7087 0263 00       		.byte	0
 7088 0264 31       		.uleb128 0x31
 7089 0265 13       		.uleb128 0x13
 7090 0266 02       		.uleb128 0x2
 7091 0267 17       		.uleb128 0x17
 7092 0268 00       		.byte	0
 7093 0269 00       		.byte	0
 7094 026a 2D       		.uleb128 0x2d
 7095 026b 05       		.uleb128 0x5
 7096 026c 00       		.byte	0
 7097 026d 31       		.uleb128 0x31
 7098 026e 13       		.uleb128 0x13
 7099 026f 00       		.byte	0
 7100 0270 00       		.byte	0
 7101 0271 2E       		.uleb128 0x2e
 7102 0272 2E       		.uleb128 0x2e
 7103 0273 01       		.byte	0x1
 7104 0274 3F       		.uleb128 0x3f
 7105 0275 19       		.uleb128 0x19
 7106 0276 03       		.uleb128 0x3
 7107 0277 0E       		.uleb128 0xe
 7108 0278 3A       		.uleb128 0x3a
 7109 0279 0B       		.uleb128 0xb
 7110 027a 3B       		.uleb128 0x3b
 7111 027b 05       		.uleb128 0x5
 7112 027c 27       		.uleb128 0x27
 7113 027d 19       		.uleb128 0x19
 7114 027e 11       		.uleb128 0x11
 7115 027f 01       		.uleb128 0x1
 7116 0280 12       		.uleb128 0x12
 7117 0281 06       		.uleb128 0x6
 7118 0282 40       		.uleb128 0x40
 7119 0283 18       		.uleb128 0x18
 7120 0284 9742     		.uleb128 0x2117
 7121 0286 19       		.uleb128 0x19
 7122 0287 01       		.uleb128 0x1
 7123 0288 13       		.uleb128 0x13
 7124 0289 00       		.byte	0
 7125 028a 00       		.byte	0
 7126 028b 2F       		.uleb128 0x2f
 7127 028c 2E       		.uleb128 0x2e
 7128 028d 00       		.byte	0
 7129 028e 3F       		.uleb128 0x3f
 7130 028f 19       		.uleb128 0x19
 7131 0290 3C       		.uleb128 0x3c
 7132 0291 19       		.uleb128 0x19
 7133 0292 6E       		.uleb128 0x6e
 7134 0293 0E       		.uleb128 0xe
 7135 0294 03       		.uleb128 0x3
 7136 0295 0E       		.uleb128 0xe
 7137 0296 00       		.byte	0
 7138 0297 00       		.byte	0
 7139 0298 00       		.byte	0
 7140              		.section	.debug_loc,"",%progbits
 7141              	.Ldebug_loc0:
 7142              	.LLST0:
 7143 0000 00000000 		.4byte	.LVL0
ARM GAS  C:\Users\bogur\AppData\Local\Temp\cca0k2e0.s 			page 140


 7144 0004 04000000 		.4byte	.LVL1
 7145 0008 0100     		.2byte	0x1
 7146 000a 50       		.byte	0x50
 7147 000b 04000000 		.4byte	.LVL1
 7148 000f 20000000 		.4byte	.LVL4
 7149 0013 0300     		.2byte	0x3
 7150 0015 70       		.byte	0x70
 7151 0016 04       		.sleb128 4
 7152 0017 9F       		.byte	0x9f
 7153 0018 20000000 		.4byte	.LVL4
 7154 001c 2C000000 		.4byte	.LFE1
 7155 0020 0100     		.2byte	0x1
 7156 0022 50       		.byte	0x50
 7157 0023 00000000 		.4byte	0
 7158 0027 00000000 		.4byte	0
 7159              	.LLST1:
 7160 002b 00000000 		.4byte	.LVL0
 7161 002f 04000000 		.4byte	.LVL1
 7162 0033 0100     		.2byte	0x1
 7163 0035 51       		.byte	0x51
 7164 0036 04000000 		.4byte	.LVL1
 7165 003a 20000000 		.4byte	.LVL4
 7166 003e 0100     		.2byte	0x1
 7167 0040 54       		.byte	0x54
 7168 0041 20000000 		.4byte	.LVL4
 7169 0045 22000000 		.4byte	.LVL5
 7170 0049 0100     		.2byte	0x1
 7171 004b 51       		.byte	0x51
 7172 004c 22000000 		.4byte	.LVL5
 7173 0050 2A000000 		.4byte	.LVL6
 7174 0054 0100     		.2byte	0x1
 7175 0056 54       		.byte	0x54
 7176 0057 2A000000 		.4byte	.LVL6
 7177 005b 2C000000 		.4byte	.LFE1
 7178 005f 0300     		.2byte	0x3
 7179 0061 71       		.byte	0x71
 7180 0062 7F       		.sleb128 -1
 7181 0063 9F       		.byte	0x9f
 7182 0064 00000000 		.4byte	0
 7183 0068 00000000 		.4byte	0
 7184              	.LLST2:
 7185 006c 00000000 		.4byte	.LVL0
 7186 0070 1C000000 		.4byte	.LVL3
 7187 0074 0100     		.2byte	0x1
 7188 0076 52       		.byte	0x52
 7189 0077 1C000000 		.4byte	.LVL3
 7190 007b 2C000000 		.4byte	.LFE1
 7191 007f 0100     		.2byte	0x1
 7192 0081 52       		.byte	0x52
 7193 0082 00000000 		.4byte	0
 7194 0086 00000000 		.4byte	0
 7195              	.LLST3:
 7196 008a 04000000 		.4byte	.LVL1
 7197 008e 18000000 		.4byte	.LVL2
 7198 0092 0100     		.2byte	0x1
 7199 0094 52       		.byte	0x52
 7200 0095 00000000 		.4byte	0
ARM GAS  C:\Users\bogur\AppData\Local\Temp\cca0k2e0.s 			page 141


 7201 0099 00000000 		.4byte	0
 7202              	.LLST4:
 7203 009d 00000000 		.4byte	.LVL7
 7204 00a1 1A000000 		.4byte	.LVL12
 7205 00a5 0100     		.2byte	0x1
 7206 00a7 50       		.byte	0x50
 7207 00a8 1A000000 		.4byte	.LVL12
 7208 00ac 2A000000 		.4byte	.LFE4
 7209 00b0 0100     		.2byte	0x1
 7210 00b2 50       		.byte	0x50
 7211 00b3 00000000 		.4byte	0
 7212 00b7 00000000 		.4byte	0
 7213              	.LLST5:
 7214 00bb 00000000 		.4byte	.LVL7
 7215 00bf 04000000 		.4byte	.LVL8
 7216 00c3 0100     		.2byte	0x1
 7217 00c5 51       		.byte	0x51
 7218 00c6 04000000 		.4byte	.LVL8
 7219 00ca 1E000000 		.4byte	.LVL13
 7220 00ce 0300     		.2byte	0x3
 7221 00d0 71       		.byte	0x71
 7222 00d1 04       		.sleb128 4
 7223 00d2 9F       		.byte	0x9f
 7224 00d3 1E000000 		.4byte	.LVL13
 7225 00d7 2A000000 		.4byte	.LFE4
 7226 00db 0100     		.2byte	0x1
 7227 00dd 51       		.byte	0x51
 7228 00de 00000000 		.4byte	0
 7229 00e2 00000000 		.4byte	0
 7230              	.LLST6:
 7231 00e6 00000000 		.4byte	.LVL7
 7232 00ea 04000000 		.4byte	.LVL8
 7233 00ee 0100     		.2byte	0x1
 7234 00f0 52       		.byte	0x52
 7235 00f1 04000000 		.4byte	.LVL8
 7236 00f5 1E000000 		.4byte	.LVL13
 7237 00f9 0100     		.2byte	0x1
 7238 00fb 54       		.byte	0x54
 7239 00fc 1E000000 		.4byte	.LVL13
 7240 0100 20000000 		.4byte	.LVL14
 7241 0104 0100     		.2byte	0x1
 7242 0106 52       		.byte	0x52
 7243 0107 20000000 		.4byte	.LVL14
 7244 010b 28000000 		.4byte	.LVL15
 7245 010f 0100     		.2byte	0x1
 7246 0111 54       		.byte	0x54
 7247 0112 28000000 		.4byte	.LVL15
 7248 0116 2A000000 		.4byte	.LFE4
 7249 011a 0300     		.2byte	0x3
 7250 011c 72       		.byte	0x72
 7251 011d 7F       		.sleb128 -1
 7252 011e 9F       		.byte	0x9f
 7253 011f 00000000 		.4byte	0
 7254 0123 00000000 		.4byte	0
 7255              	.LLST7:
 7256 0127 06000000 		.4byte	.LVL9
 7257 012b 16000000 		.4byte	.LVL10
ARM GAS  C:\Users\bogur\AppData\Local\Temp\cca0k2e0.s 			page 142


 7258 012f 0100     		.2byte	0x1
 7259 0131 53       		.byte	0x53
 7260 0132 00000000 		.4byte	0
 7261 0136 00000000 		.4byte	0
 7262              	.LLST8:
 7263 013a 06000000 		.4byte	.LVL9
 7264 013e 18000000 		.4byte	.LVL11
 7265 0142 0100     		.2byte	0x1
 7266 0144 50       		.byte	0x50
 7267 0145 00000000 		.4byte	0
 7268 0149 00000000 		.4byte	0
 7269              	.LLST9:
 7270 014d 00000000 		.4byte	.LVL16
 7271 0151 20000000 		.4byte	.LVL21
 7272 0155 0100     		.2byte	0x1
 7273 0157 50       		.byte	0x50
 7274 0158 20000000 		.4byte	.LVL21
 7275 015c 04070000 		.4byte	.LFE5
 7276 0160 0100     		.2byte	0x1
 7277 0162 5E       		.byte	0x5e
 7278 0163 00000000 		.4byte	0
 7279 0167 00000000 		.4byte	0
 7280              	.LLST10:
 7281 016b 10000000 		.4byte	.LVL17
 7282 016f 80000000 		.4byte	.LVL33
 7283 0173 0600     		.2byte	0x6
 7284 0175 53       		.byte	0x53
 7285 0176 93       		.byte	0x93
 7286 0177 04       		.uleb128 0x4
 7287 0178 54       		.byte	0x54
 7288 0179 93       		.byte	0x93
 7289 017a 04       		.uleb128 0x4
 7290 017b 80000000 		.4byte	.LVL33
 7291 017f B2010000 		.4byte	.LVL68
 7292 0183 0200     		.2byte	0x2
 7293 0185 7D       		.byte	0x7d
 7294 0186 00       		.sleb128 0
 7295 0187 B2010000 		.4byte	.LVL68
 7296 018b 5A060000 		.4byte	.LVL240
 7297 018f 0200     		.2byte	0x2
 7298 0191 7E       		.byte	0x7e
 7299 0192 38       		.sleb128 56
 7300 0193 00000000 		.4byte	0
 7301 0197 00000000 		.4byte	0
 7302              	.LLST11:
 7303 019b 14000000 		.4byte	.LVL18
 7304 019f 7E000000 		.4byte	.LVL32
 7305 01a3 0600     		.2byte	0x6
 7306 01a5 52       		.byte	0x52
 7307 01a6 93       		.byte	0x93
 7308 01a7 04       		.uleb128 0x4
 7309 01a8 53       		.byte	0x53
 7310 01a9 93       		.byte	0x93
 7311 01aa 04       		.uleb128 0x4
 7312 01ab 7E000000 		.4byte	.LVL32
 7313 01af E6060000 		.4byte	.LVL259
 7314 01b3 0200     		.2byte	0x2
ARM GAS  C:\Users\bogur\AppData\Local\Temp\cca0k2e0.s 			page 143


 7315 01b5 7E       		.byte	0x7e
 7316 01b6 30       		.sleb128 48
 7317 01b7 00000000 		.4byte	0
 7318 01bb 00000000 		.4byte	0
 7319              	.LLST12:
 7320 01bf 18000000 		.4byte	.LVL19
 7321 01c3 88000000 		.4byte	.LVL35
 7322 01c7 0600     		.2byte	0x6
 7323 01c9 54       		.byte	0x54
 7324 01ca 93       		.byte	0x93
 7325 01cb 04       		.uleb128 0x4
 7326 01cc 55       		.byte	0x55
 7327 01cd 93       		.byte	0x93
 7328 01ce 04       		.uleb128 0x4
 7329 01cf 88000000 		.4byte	.LVL35
 7330 01d3 EA060000 		.4byte	.LVL260
 7331 01d7 0200     		.2byte	0x2
 7332 01d9 7E       		.byte	0x7e
 7333 01da 28       		.sleb128 40
 7334 01db 00000000 		.4byte	0
 7335 01df 00000000 		.4byte	0
 7336              	.LLST13:
 7337 01e3 1C000000 		.4byte	.LVL20
 7338 01e7 C2000000 		.4byte	.LVL42
 7339 01eb 0600     		.2byte	0x6
 7340 01ed 58       		.byte	0x58
 7341 01ee 93       		.byte	0x93
 7342 01ef 04       		.uleb128 0x4
 7343 01f0 59       		.byte	0x59
 7344 01f1 93       		.byte	0x93
 7345 01f2 04       		.uleb128 0x4
 7346 01f3 C2000000 		.4byte	.LVL42
 7347 01f7 EE060000 		.4byte	.LVL261
 7348 01fb 0200     		.2byte	0x2
 7349 01fd 7E       		.byte	0x7e
 7350 01fe 20       		.sleb128 32
 7351 01ff 00000000 		.4byte	0
 7352 0203 00000000 		.4byte	0
 7353              	.LLST14:
 7354 0207 1C000000 		.4byte	.LVL20
 7355 020b 20000000 		.4byte	.LVL21
 7356 020f 0200     		.2byte	0x2
 7357 0211 70       		.byte	0x70
 7358 0212 18       		.sleb128 24
 7359 0213 20000000 		.4byte	.LVL21
 7360 0217 F2060000 		.4byte	.LVL262
 7361 021b 0200     		.2byte	0x2
 7362 021d 7E       		.byte	0x7e
 7363 021e 18       		.sleb128 24
 7364 021f 00000000 		.4byte	0
 7365 0223 00000000 		.4byte	0
 7366              	.LLST15:
 7367 0227 24000000 		.4byte	.LVL22
 7368 022b 28000000 		.4byte	.LVL23
 7369 022f 0600     		.2byte	0x6
 7370 0231 50       		.byte	0x50
 7371 0232 93       		.byte	0x93
ARM GAS  C:\Users\bogur\AppData\Local\Temp\cca0k2e0.s 			page 144


 7372 0233 04       		.uleb128 0x4
 7373 0234 51       		.byte	0x51
 7374 0235 93       		.byte	0x93
 7375 0236 04       		.uleb128 0x4
 7376 0237 28000000 		.4byte	.LVL23
 7377 023b F6060000 		.4byte	.LVL263
 7378 023f 0200     		.2byte	0x2
 7379 0241 7E       		.byte	0x7e
 7380 0242 10       		.sleb128 16
 7381 0243 00000000 		.4byte	0
 7382 0247 00000000 		.4byte	0
 7383              	.LLST16:
 7384 024b 2C000000 		.4byte	.LVL24
 7385 024f 30000000 		.4byte	.LVL25
 7386 0253 0600     		.2byte	0x6
 7387 0255 50       		.byte	0x50
 7388 0256 93       		.byte	0x93
 7389 0257 04       		.uleb128 0x4
 7390 0258 51       		.byte	0x51
 7391 0259 93       		.byte	0x93
 7392 025a 04       		.uleb128 0x4
 7393 025b 30000000 		.4byte	.LVL25
 7394 025f 6A060000 		.4byte	.LVL243
 7395 0263 0200     		.2byte	0x2
 7396 0265 7E       		.byte	0x7e
 7397 0266 08       		.sleb128 8
 7398 0267 00000000 		.4byte	0
 7399 026b 00000000 		.4byte	0
 7400              	.LLST17:
 7401 026f 2C000000 		.4byte	.LVL24
 7402 0273 FE060000 		.4byte	.LVL264
 7403 0277 0200     		.2byte	0x2
 7404 0279 7E       		.byte	0x7e
 7405 027a 00       		.sleb128 0
 7406 027b 00000000 		.4byte	0
 7407 027f 00000000 		.4byte	0
 7408              	.LLST18:
 7409 0283 90000000 		.4byte	.LVL36
 7410 0287 98000000 		.4byte	.LVL37
 7411 028b 0600     		.2byte	0x6
 7412 028d 54       		.byte	0x54
 7413 028e 93       		.byte	0x93
 7414 028f 04       		.uleb128 0x4
 7415 0290 55       		.byte	0x55
 7416 0291 93       		.byte	0x93
 7417 0292 04       		.uleb128 0x4
 7418 0293 98000000 		.4byte	.LVL37
 7419 0297 44040000 		.4byte	.LVL172
 7420 029b 0300     		.2byte	0x3
 7421 029d 91       		.byte	0x91
 7422 029e 907E     		.sleb128 -240
 7423 02a0 00000000 		.4byte	0
 7424 02a4 00000000 		.4byte	0
 7425              	.LLST19:
 7426 02a8 C8000000 		.4byte	.LVL43
 7427 02ac CA000000 		.4byte	.LVL44
 7428 02b0 0600     		.2byte	0x6
ARM GAS  C:\Users\bogur\AppData\Local\Temp\cca0k2e0.s 			page 145


 7429 02b2 58       		.byte	0x58
 7430 02b3 93       		.byte	0x93
 7431 02b4 04       		.uleb128 0x4
 7432 02b5 59       		.byte	0x59
 7433 02b6 93       		.byte	0x93
 7434 02b7 04       		.uleb128 0x4
 7435 02b8 CA000000 		.4byte	.LVL44
 7436 02bc 04070000 		.4byte	.LFE5
 7437 02c0 0300     		.2byte	0x3
 7438 02c2 91       		.byte	0x91
 7439 02c3 D87E     		.sleb128 -168
 7440 02c5 00000000 		.4byte	0
 7441 02c9 00000000 		.4byte	0
 7442              	.LLST20:
 7443 02cd EC000000 		.4byte	.LVL47
 7444 02d1 FC000000 		.4byte	.LVL48
 7445 02d5 0600     		.2byte	0x6
 7446 02d7 5B       		.byte	0x5b
 7447 02d8 93       		.byte	0x93
 7448 02d9 04       		.uleb128 0x4
 7449 02da 5C       		.byte	0x5c
 7450 02db 93       		.byte	0x93
 7451 02dc 04       		.uleb128 0x4
 7452 02dd FC000000 		.4byte	.LVL48
 7453 02e1 04070000 		.4byte	.LFE5
 7454 02e5 0300     		.2byte	0x3
 7455 02e7 91       		.byte	0x91
 7456 02e8 E07E     		.sleb128 -160
 7457 02ea 00000000 		.4byte	0
 7458 02ee 00000000 		.4byte	0
 7459              	.LLST21:
 7460 02f2 A0000000 		.4byte	.LVL38
 7461 02f6 A8000000 		.4byte	.LVL39
 7462 02fa 0600     		.2byte	0x6
 7463 02fc 54       		.byte	0x54
 7464 02fd 93       		.byte	0x93
 7465 02fe 04       		.uleb128 0x4
 7466 02ff 55       		.byte	0x55
 7467 0300 93       		.byte	0x93
 7468 0301 04       		.uleb128 0x4
 7469 0302 A8000000 		.4byte	.LVL39
 7470 0306 B4050000 		.4byte	.LVL216
 7471 030a 0300     		.2byte	0x3
 7472 030c 91       		.byte	0x91
 7473 030d C87E     		.sleb128 -184
 7474 030f 00000000 		.4byte	0
 7475 0313 00000000 		.4byte	0
 7476              	.LLST22:
 7477 0317 DC000000 		.4byte	.LVL45
 7478 031b 56020000 		.4byte	.LVL91
 7479 031f 0600     		.2byte	0x6
 7480 0321 58       		.byte	0x58
 7481 0322 93       		.byte	0x93
 7482 0323 04       		.uleb128 0x4
 7483 0324 59       		.byte	0x59
 7484 0325 93       		.byte	0x93
 7485 0326 04       		.uleb128 0x4
ARM GAS  C:\Users\bogur\AppData\Local\Temp\cca0k2e0.s 			page 146


 7486 0327 56020000 		.4byte	.LVL91
 7487 032b 04070000 		.4byte	.LFE5
 7488 032f 0300     		.2byte	0x3
 7489 0331 91       		.byte	0x91
 7490 0332 B07F     		.sleb128 -80
 7491 0334 00000000 		.4byte	0
 7492 0338 00000000 		.4byte	0
 7493              	.LLST23:
 7494 033c 24010000 		.4byte	.LVL53
 7495 0340 3A010000 		.4byte	.LVL56
 7496 0344 0600     		.2byte	0x6
 7497 0346 56       		.byte	0x56
 7498 0347 93       		.byte	0x93
 7499 0348 04       		.uleb128 0x4
 7500 0349 57       		.byte	0x57
 7501 034a 93       		.byte	0x93
 7502 034b 04       		.uleb128 0x4
 7503 034c 3A010000 		.4byte	.LVL56
 7504 0350 80040000 		.4byte	.LVL178
 7505 0354 0300     		.2byte	0x3
 7506 0356 91       		.byte	0x91
 7507 0357 F07E     		.sleb128 -144
 7508 0359 00000000 		.4byte	0
 7509 035d 00000000 		.4byte	0
 7510              	.LLST24:
 7511 0361 5E010000 		.4byte	.LVL59
 7512 0365 1A020000 		.4byte	.LVL83
 7513 0369 0600     		.2byte	0x6
 7514 036b 5A       		.byte	0x5a
 7515 036c 93       		.byte	0x93
 7516 036d 04       		.uleb128 0x4
 7517 036e 5B       		.byte	0x5b
 7518 036f 93       		.byte	0x93
 7519 0370 04       		.uleb128 0x4
 7520 0371 1A020000 		.4byte	.LVL83
 7521 0375 58040000 		.4byte	.LVL174
 7522 0379 0300     		.2byte	0x3
 7523 037b 91       		.byte	0x91
 7524 037c 887F     		.sleb128 -120
 7525 037e 00000000 		.4byte	0
 7526 0382 00000000 		.4byte	0
 7527              	.LLST25:
 7528 0386 78000000 		.4byte	.LVL31
 7529 038a E4000000 		.4byte	.LVL46
 7530 038e 0600     		.2byte	0x6
 7531 0390 5B       		.byte	0x5b
 7532 0391 93       		.byte	0x93
 7533 0392 04       		.uleb128 0x4
 7534 0393 5C       		.byte	0x5c
 7535 0394 93       		.byte	0x93
 7536 0395 04       		.uleb128 0x4
 7537 0396 E4000000 		.4byte	.LVL46
 7538 039a 60050000 		.4byte	.LVL204
 7539 039e 0300     		.2byte	0x3
 7540 03a0 91       		.byte	0x91
 7541 03a1 B07E     		.sleb128 -208
 7542 03a3 00000000 		.4byte	0
ARM GAS  C:\Users\bogur\AppData\Local\Temp\cca0k2e0.s 			page 147


 7543 03a7 00000000 		.4byte	0
 7544              	.LLST26:
 7545 03ab 68000000 		.4byte	.LVL30
 7546 03af B0000000 		.4byte	.LVL40
 7547 03b3 0600     		.2byte	0x6
 7548 03b5 5A       		.byte	0x5a
 7549 03b6 93       		.byte	0x93
 7550 03b7 04       		.uleb128 0x4
 7551 03b8 5B       		.byte	0x5b
 7552 03b9 93       		.byte	0x93
 7553 03ba 04       		.uleb128 0x4
 7554 03bb B0000000 		.4byte	.LVL40
 7555 03bf 40050000 		.4byte	.LVL199
 7556 03c3 0300     		.2byte	0x3
 7557 03c5 91       		.byte	0x91
 7558 03c6 A87E     		.sleb128 -216
 7559 03c8 00000000 		.4byte	0
 7560 03cc 00000000 		.4byte	0
 7561              	.LLST27:
 7562 03d0 3A010000 		.4byte	.LVL56
 7563 03d4 64010000 		.4byte	.LVL60
 7564 03d8 0600     		.2byte	0x6
 7565 03da 55       		.byte	0x55
 7566 03db 93       		.byte	0x93
 7567 03dc 04       		.uleb128 0x4
 7568 03dd 56       		.byte	0x56
 7569 03de 93       		.byte	0x93
 7570 03df 04       		.uleb128 0x4
 7571 03e0 00000000 		.4byte	0
 7572 03e4 00000000 		.4byte	0
 7573              	.LLST28:
 7574 03e8 4E010000 		.4byte	.LVL57
 7575 03ec C0010000 		.4byte	.LVL70
 7576 03f0 0600     		.2byte	0x6
 7577 03f2 52       		.byte	0x52
 7578 03f3 93       		.byte	0x93
 7579 03f4 04       		.uleb128 0x4
 7580 03f5 53       		.byte	0x53
 7581 03f6 93       		.byte	0x93
 7582 03f7 04       		.uleb128 0x4
 7583 03f8 C0010000 		.4byte	.LVL70
 7584 03fc 6C040000 		.4byte	.LVL176
 7585 0400 0300     		.2byte	0x3
 7586 0402 91       		.byte	0x91
 7587 0403 807F     		.sleb128 -128
 7588 0405 00000000 		.4byte	0
 7589 0409 00000000 		.4byte	0
 7590              	.LLST29:
 7591 040d B4000000 		.4byte	.LVL41
 7592 0411 2A010000 		.4byte	.LVL54
 7593 0415 0600     		.2byte	0x6
 7594 0417 52       		.byte	0x52
 7595 0418 93       		.byte	0x93
 7596 0419 04       		.uleb128 0x4
 7597 041a 53       		.byte	0x53
 7598 041b 93       		.byte	0x93
 7599 041c 04       		.uleb128 0x4
ARM GAS  C:\Users\bogur\AppData\Local\Temp\cca0k2e0.s 			page 148


 7600 041d 2A010000 		.4byte	.LVL54
 7601 0421 A4040000 		.4byte	.LVL182
 7602 0425 0300     		.2byte	0x3
 7603 0427 91       		.byte	0x91
 7604 0428 D07E     		.sleb128 -176
 7605 042a 00000000 		.4byte	0
 7606 042e 00000000 		.4byte	0
 7607              	.LLST30:
 7608 0432 54000000 		.4byte	.LVL27
 7609 0436 64000000 		.4byte	.LVL29
 7610 043a 0600     		.2byte	0x6
 7611 043c 5B       		.byte	0x5b
 7612 043d 93       		.byte	0x93
 7613 043e 04       		.uleb128 0x4
 7614 043f 5C       		.byte	0x5c
 7615 0440 93       		.byte	0x93
 7616 0441 04       		.uleb128 0x4
 7617 0442 64000000 		.4byte	.LVL29
 7618 0446 DC040000 		.4byte	.LVL187
 7619 044a 0300     		.2byte	0x3
 7620 044c 91       		.byte	0x91
 7621 044d 887E     		.sleb128 -248
 7622 044f 00000000 		.4byte	0
 7623 0453 00000000 		.4byte	0
 7624              	.LLST31:
 7625 0457 40000000 		.4byte	.LVL26
 7626 045b 62000000 		.4byte	.LVL28
 7627 045f 0600     		.2byte	0x6
 7628 0461 5A       		.byte	0x5a
 7629 0462 93       		.byte	0x93
 7630 0463 04       		.uleb128 0x4
 7631 0464 5B       		.byte	0x5b
 7632 0465 93       		.byte	0x93
 7633 0466 04       		.uleb128 0x4
 7634 0467 62000000 		.4byte	.LVL28
 7635 046b A0050000 		.4byte	.LVL212
 7636 046f 0300     		.2byte	0x3
 7637 0471 91       		.byte	0x91
 7638 0472 A07E     		.sleb128 -224
 7639 0474 00000000 		.4byte	0
 7640 0478 00000000 		.4byte	0
 7641              	.LLST32:
 7642 047c 0C010000 		.4byte	.LVL50
 7643 0480 2C010000 		.4byte	.LVL55
 7644 0484 0600     		.2byte	0x6
 7645 0486 53       		.byte	0x53
 7646 0487 93       		.byte	0x93
 7647 0488 04       		.uleb128 0x4
 7648 0489 54       		.byte	0x54
 7649 048a 93       		.byte	0x93
 7650 048b 04       		.uleb128 0x4
 7651 048c 2C010000 		.4byte	.LVL55
 7652 0490 38040000 		.4byte	.LVL170
 7653 0494 0300     		.2byte	0x3
 7654 0496 91       		.byte	0x91
 7655 0497 E87E     		.sleb128 -152
 7656 0499 00000000 		.4byte	0
ARM GAS  C:\Users\bogur\AppData\Local\Temp\cca0k2e0.s 			page 149


 7657 049d 00000000 		.4byte	0
 7658              	.LLST33:
 7659 04a1 92010000 		.4byte	.LVL65
 7660 04a5 BE010000 		.4byte	.LVL69
 7661 04a9 0600     		.2byte	0x6
 7662 04ab 56       		.byte	0x56
 7663 04ac 93       		.byte	0x93
 7664 04ad 04       		.uleb128 0x4
 7665 04ae 57       		.byte	0x57
 7666 04af 93       		.byte	0x93
 7667 04b0 04       		.uleb128 0x4
 7668 04b1 BE010000 		.4byte	.LVL69
 7669 04b5 04070000 		.4byte	.LFE5
 7670 04b9 0300     		.2byte	0x3
 7671 04bb 91       		.byte	0x91
 7672 04bc 987F     		.sleb128 -104
 7673 04be 00000000 		.4byte	0
 7674 04c2 00000000 		.4byte	0
 7675              	.LLST34:
 7676 04c6 6A010000 		.4byte	.LVL61
 7677 04ca 7A010000 		.4byte	.LVL62
 7678 04ce 0600     		.2byte	0x6
 7679 04d0 55       		.byte	0x55
 7680 04d1 93       		.byte	0x93
 7681 04d2 04       		.uleb128 0x4
 7682 04d3 56       		.byte	0x56
 7683 04d4 93       		.byte	0x93
 7684 04d5 04       		.uleb128 0x4
 7685 04d6 7A010000 		.4byte	.LVL62
 7686 04da 04070000 		.4byte	.LFE5
 7687 04de 0300     		.2byte	0x3
 7688 04e0 91       		.byte	0x91
 7689 04e1 907F     		.sleb128 -112
 7690 04e3 00000000 		.4byte	0
 7691 04e7 00000000 		.4byte	0
 7692              	.LLST35:
 7693 04eb B2010000 		.4byte	.LVL68
 7694 04ef 26020000 		.4byte	.LVL84
 7695 04f3 0600     		.2byte	0x6
 7696 04f5 5B       		.byte	0x5b
 7697 04f6 93       		.byte	0x93
 7698 04f7 04       		.uleb128 0x4
 7699 04f8 5C       		.byte	0x5c
 7700 04f9 93       		.byte	0x93
 7701 04fa 04       		.uleb128 0x4
 7702 04fb 26020000 		.4byte	.LVL84
 7703 04ff DE020000 		.4byte	.LVL113
 7704 0503 0200     		.2byte	0x2
 7705 0505 7D       		.byte	0x7d
 7706 0506 00       		.sleb128 0
 7707 0507 00000000 		.4byte	0
 7708 050b 00000000 		.4byte	0
 7709              	.LLST36:
 7710 050f 7E010000 		.4byte	.LVL63
 7711 0513 88010000 		.4byte	.LVL64
 7712 0517 0600     		.2byte	0x6
 7713 0519 54       		.byte	0x54
ARM GAS  C:\Users\bogur\AppData\Local\Temp\cca0k2e0.s 			page 150


 7714 051a 93       		.byte	0x93
 7715 051b 04       		.uleb128 0x4
 7716 051c 55       		.byte	0x55
 7717 051d 93       		.byte	0x93
 7718 051e 04       		.uleb128 0x4
 7719 051f 88010000 		.4byte	.LVL64
 7720 0523 08030000 		.4byte	.LVL122
 7721 0527 0300     		.2byte	0x3
 7722 0529 91       		.byte	0x91
 7723 052a B87E     		.sleb128 -200
 7724 052c 00000000 		.4byte	0
 7725 0530 00000000 		.4byte	0
 7726              	.LLST37:
 7727 0534 18010000 		.4byte	.LVL51
 7728 0538 52010000 		.4byte	.LVL58
 7729 053c 0600     		.2byte	0x6
 7730 053e 5A       		.byte	0x5a
 7731 053f 93       		.byte	0x93
 7732 0540 04       		.uleb128 0x4
 7733 0541 5B       		.byte	0x5b
 7734 0542 93       		.byte	0x93
 7735 0543 04       		.uleb128 0x4
 7736 0544 52010000 		.4byte	.LVL58
 7737 0548 F4020000 		.4byte	.LVL117
 7738 054c 0300     		.2byte	0x3
 7739 054e 91       		.byte	0x91
 7740 054f 987E     		.sleb128 -232
 7741 0551 00000000 		.4byte	0
 7742 0555 00000000 		.4byte	0
 7743              	.LLST38:
 7744 0559 9E010000 		.4byte	.LVL66
 7745 055d A6010000 		.4byte	.LVL67
 7746 0561 0600     		.2byte	0x6
 7747 0563 53       		.byte	0x53
 7748 0564 93       		.byte	0x93
 7749 0565 04       		.uleb128 0x4
 7750 0566 54       		.byte	0x54
 7751 0567 93       		.byte	0x93
 7752 0568 04       		.uleb128 0x4
 7753 0569 A6010000 		.4byte	.LVL67
 7754 056d B0030000 		.4byte	.LVL155
 7755 0571 0300     		.2byte	0x3
 7756 0573 91       		.byte	0x91
 7757 0574 C07E     		.sleb128 -192
 7758 0576 00000000 		.4byte	0
 7759 057a 00000000 		.4byte	0
 7760              	.LLST39:
 7761 057e F8030000 		.4byte	.LVL163
 7762 0582 FC030000 		.4byte	.LVL164
 7763 0586 0600     		.2byte	0x6
 7764 0588 56       		.byte	0x56
 7765 0589 93       		.byte	0x93
 7766 058a 04       		.uleb128 0x4
 7767 058b 57       		.byte	0x57
 7768 058c 93       		.byte	0x93
 7769 058d 04       		.uleb128 0x4
 7770 058e FC030000 		.4byte	.LVL164
ARM GAS  C:\Users\bogur\AppData\Local\Temp\cca0k2e0.s 			page 151


 7771 0592 04070000 		.4byte	.LFE5
 7772 0596 0200     		.2byte	0x2
 7773 0598 91       		.byte	0x91
 7774 0599 40       		.sleb128 -64
 7775 059a 00000000 		.4byte	0
 7776 059e 00000000 		.4byte	0
 7777              	.LLST40:
 7778 05a2 10040000 		.4byte	.LVL166
 7779 05a6 14040000 		.4byte	.LVL167
 7780 05aa 0600     		.2byte	0x6
 7781 05ac 56       		.byte	0x56
 7782 05ad 93       		.byte	0x93
 7783 05ae 04       		.uleb128 0x4
 7784 05af 57       		.byte	0x57
 7785 05b0 93       		.byte	0x93
 7786 05b1 04       		.uleb128 0x4
 7787 05b2 14040000 		.4byte	.LVL167
 7788 05b6 04070000 		.4byte	.LFE5
 7789 05ba 0200     		.2byte	0x2
 7790 05bc 91       		.byte	0x91
 7791 05bd 48       		.sleb128 -56
 7792 05be 00000000 		.4byte	0
 7793 05c2 00000000 		.4byte	0
 7794              	.LLST41:
 7795 05c6 24040000 		.4byte	.LVL168
 7796 05ca 28040000 		.4byte	.LVL169
 7797 05ce 0600     		.2byte	0x6
 7798 05d0 56       		.byte	0x56
 7799 05d1 93       		.byte	0x93
 7800 05d2 04       		.uleb128 0x4
 7801 05d3 57       		.byte	0x57
 7802 05d4 93       		.byte	0x93
 7803 05d5 04       		.uleb128 0x4
 7804 05d6 28040000 		.4byte	.LVL169
 7805 05da 04070000 		.4byte	.LFE5
 7806 05de 0200     		.2byte	0x2
 7807 05e0 91       		.byte	0x91
 7808 05e1 50       		.sleb128 -48
 7809 05e2 00000000 		.4byte	0
 7810 05e6 00000000 		.4byte	0
 7811              	.LLST42:
 7812 05ea 38040000 		.4byte	.LVL170
 7813 05ee 3C040000 		.4byte	.LVL171
 7814 05f2 0600     		.2byte	0x6
 7815 05f4 56       		.byte	0x56
 7816 05f5 93       		.byte	0x93
 7817 05f6 04       		.uleb128 0x4
 7818 05f7 57       		.byte	0x57
 7819 05f8 93       		.byte	0x93
 7820 05f9 04       		.uleb128 0x4
 7821 05fa 3C040000 		.4byte	.LVL171
 7822 05fe 04070000 		.4byte	.LFE5
 7823 0602 0300     		.2byte	0x3
 7824 0604 91       		.byte	0x91
 7825 0605 E87E     		.sleb128 -152
 7826 0607 00000000 		.4byte	0
 7827 060b 00000000 		.4byte	0
ARM GAS  C:\Users\bogur\AppData\Local\Temp\cca0k2e0.s 			page 152


 7828              	.LLST43:
 7829 060f 44040000 		.4byte	.LVL172
 7830 0613 48040000 		.4byte	.LVL173
 7831 0617 0600     		.2byte	0x6
 7832 0619 56       		.byte	0x56
 7833 061a 93       		.byte	0x93
 7834 061b 04       		.uleb128 0x4
 7835 061c 57       		.byte	0x57
 7836 061d 93       		.byte	0x93
 7837 061e 04       		.uleb128 0x4
 7838 061f 48040000 		.4byte	.LVL173
 7839 0623 32060000 		.4byte	.LVL234
 7840 0627 0300     		.2byte	0x3
 7841 0629 91       		.byte	0x91
 7842 062a 907E     		.sleb128 -240
 7843 062c 00000000 		.4byte	0
 7844 0630 00000000 		.4byte	0
 7845              	.LLST44:
 7846 0634 58040000 		.4byte	.LVL174
 7847 0638 5C040000 		.4byte	.LVL175
 7848 063c 0600     		.2byte	0x6
 7849 063e 56       		.byte	0x56
 7850 063f 93       		.byte	0x93
 7851 0640 04       		.uleb128 0x4
 7852 0641 57       		.byte	0x57
 7853 0642 93       		.byte	0x93
 7854 0643 04       		.uleb128 0x4
 7855 0644 5C040000 		.4byte	.LVL175
 7856 0648 04070000 		.4byte	.LFE5
 7857 064c 0300     		.2byte	0x3
 7858 064e 91       		.byte	0x91
 7859 064f 887F     		.sleb128 -120
 7860 0651 00000000 		.4byte	0
 7861 0655 00000000 		.4byte	0
 7862              	.LLST45:
 7863 0659 6C040000 		.4byte	.LVL176
 7864 065d 70040000 		.4byte	.LVL177
 7865 0661 0600     		.2byte	0x6
 7866 0663 56       		.byte	0x56
 7867 0664 93       		.byte	0x93
 7868 0665 04       		.uleb128 0x4
 7869 0666 57       		.byte	0x57
 7870 0667 93       		.byte	0x93
 7871 0668 04       		.uleb128 0x4
 7872 0669 70040000 		.4byte	.LVL177
 7873 066d 04070000 		.4byte	.LFE5
 7874 0671 0300     		.2byte	0x3
 7875 0673 91       		.byte	0x91
 7876 0674 807F     		.sleb128 -128
 7877 0676 00000000 		.4byte	0
 7878 067a 00000000 		.4byte	0
 7879              	.LLST46:
 7880 067e 80040000 		.4byte	.LVL178
 7881 0682 84040000 		.4byte	.LVL179
 7882 0686 0600     		.2byte	0x6
 7883 0688 56       		.byte	0x56
 7884 0689 93       		.byte	0x93
ARM GAS  C:\Users\bogur\AppData\Local\Temp\cca0k2e0.s 			page 153


 7885 068a 04       		.uleb128 0x4
 7886 068b 57       		.byte	0x57
 7887 068c 93       		.byte	0x93
 7888 068d 04       		.uleb128 0x4
 7889 068e 84040000 		.4byte	.LVL179
 7890 0692 04070000 		.4byte	.LFE5
 7891 0696 0300     		.2byte	0x3
 7892 0698 91       		.byte	0x91
 7893 0699 F07E     		.sleb128 -144
 7894 069b 00000000 		.4byte	0
 7895 069f 00000000 		.4byte	0
 7896              	.LLST47:
 7897 06a3 90040000 		.4byte	.LVL180
 7898 06a7 94040000 		.4byte	.LVL181
 7899 06ab 0600     		.2byte	0x6
 7900 06ad 56       		.byte	0x56
 7901 06ae 93       		.byte	0x93
 7902 06af 04       		.uleb128 0x4
 7903 06b0 57       		.byte	0x57
 7904 06b1 93       		.byte	0x93
 7905 06b2 04       		.uleb128 0x4
 7906 06b3 94040000 		.4byte	.LVL181
 7907 06b7 04070000 		.4byte	.LFE5
 7908 06bb 0300     		.2byte	0x3
 7909 06bd 91       		.byte	0x91
 7910 06be F87E     		.sleb128 -136
 7911 06c0 00000000 		.4byte	0
 7912 06c4 00000000 		.4byte	0
 7913              	.LLST48:
 7914 06c8 A4040000 		.4byte	.LVL182
 7915 06cc A8040000 		.4byte	.LVL183
 7916 06d0 0600     		.2byte	0x6
 7917 06d2 56       		.byte	0x56
 7918 06d3 93       		.byte	0x93
 7919 06d4 04       		.uleb128 0x4
 7920 06d5 57       		.byte	0x57
 7921 06d6 93       		.byte	0x93
 7922 06d7 04       		.uleb128 0x4
 7923 06d8 A8040000 		.4byte	.LVL183
 7924 06dc 04070000 		.4byte	.LFE5
 7925 06e0 0300     		.2byte	0x3
 7926 06e2 91       		.byte	0x91
 7927 06e3 D07E     		.sleb128 -176
 7928 06e5 00000000 		.4byte	0
 7929 06e9 00000000 		.4byte	0
 7930              	.LLST49:
 7931 06ed B4040000 		.4byte	.LVL184
 7932 06f1 84050000 		.4byte	.LVL209
 7933 06f5 0600     		.2byte	0x6
 7934 06f7 5A       		.byte	0x5a
 7935 06f8 93       		.byte	0x93
 7936 06f9 04       		.uleb128 0x4
 7937 06fa 5B       		.byte	0x5b
 7938 06fb 93       		.byte	0x93
 7939 06fc 04       		.uleb128 0x4
 7940 06fd 00000000 		.4byte	0
 7941 0701 00000000 		.4byte	0
ARM GAS  C:\Users\bogur\AppData\Local\Temp\cca0k2e0.s 			page 154


 7942              	.LLST50:
 7943 0705 C8040000 		.4byte	.LVL185
 7944 0709 CC040000 		.4byte	.LVL186
 7945 070d 0600     		.2byte	0x6
 7946 070f 56       		.byte	0x56
 7947 0710 93       		.byte	0x93
 7948 0711 04       		.uleb128 0x4
 7949 0712 57       		.byte	0x57
 7950 0713 93       		.byte	0x93
 7951 0714 04       		.uleb128 0x4
 7952 0715 CC040000 		.4byte	.LVL186
 7953 0719 50050000 		.4byte	.LVL202
 7954 071d 0300     		.2byte	0x3
 7955 071f 91       		.byte	0x91
 7956 0720 987E     		.sleb128 -232
 7957 0722 00000000 		.4byte	0
 7958 0726 00000000 		.4byte	0
 7959              	.LLST51:
 7960 072a DC040000 		.4byte	.LVL187
 7961 072e E0040000 		.4byte	.LVL188
 7962 0732 0600     		.2byte	0x6
 7963 0734 56       		.byte	0x56
 7964 0735 93       		.byte	0x93
 7965 0736 04       		.uleb128 0x4
 7966 0737 57       		.byte	0x57
 7967 0738 93       		.byte	0x93
 7968 0739 04       		.uleb128 0x4
 7969 073a E0040000 		.4byte	.LVL188
 7970 073e C8050000 		.4byte	.LVL219
 7971 0742 0300     		.2byte	0x3
 7972 0744 91       		.byte	0x91
 7973 0745 887E     		.sleb128 -248
 7974 0747 00000000 		.4byte	0
 7975 074b 00000000 		.4byte	0
 7976              	.LLST52:
 7977 074f E8040000 		.4byte	.LVL190
 7978 0753 68050000 		.4byte	.LVL205
 7979 0757 0600     		.2byte	0x6
 7980 0759 54       		.byte	0x54
 7981 075a 93       		.byte	0x93
 7982 075b 04       		.uleb128 0x4
 7983 075c 55       		.byte	0x55
 7984 075d 93       		.byte	0x93
 7985 075e 04       		.uleb128 0x4
 7986 075f 00000000 		.4byte	0
 7987 0763 00000000 		.4byte	0
 7988              	.LLST53:
 7989 0767 F8040000 		.4byte	.LVL191
 7990 076b FC040000 		.4byte	.LVL192
 7991 076f 0600     		.2byte	0x6
 7992 0771 56       		.byte	0x56
 7993 0772 93       		.byte	0x93
 7994 0773 04       		.uleb128 0x4
 7995 0774 57       		.byte	0x57
 7996 0775 93       		.byte	0x93
 7997 0776 04       		.uleb128 0x4
 7998 0777 FC040000 		.4byte	.LVL192
ARM GAS  C:\Users\bogur\AppData\Local\Temp\cca0k2e0.s 			page 155


 7999 077b 04070000 		.4byte	.LFE5
 8000 077f 0300     		.2byte	0x3
 8001 0781 91       		.byte	0x91
 8002 0782 B87E     		.sleb128 -200
 8003 0784 00000000 		.4byte	0
 8004 0788 00000000 		.4byte	0
 8005              	.LLST54:
 8006 078c 08050000 		.4byte	.LVL193
 8007 0790 34050000 		.4byte	.LVL198
 8008 0794 0600     		.2byte	0x6
 8009 0796 50       		.byte	0x50
 8010 0797 93       		.byte	0x93
 8011 0798 04       		.uleb128 0x4
 8012 0799 51       		.byte	0x51
 8013 079a 93       		.byte	0x93
 8014 079b 04       		.uleb128 0x4
 8015 079c 00000000 		.4byte	0
 8016 07a0 00000000 		.4byte	0
 8017              	.LLST55:
 8018 07a4 18050000 		.4byte	.LVL194
 8019 07a8 BC050000 		.4byte	.LVL217
 8020 07ac 0600     		.2byte	0x6
 8021 07ae 56       		.byte	0x56
 8022 07af 93       		.byte	0x93
 8023 07b0 04       		.uleb128 0x4
 8024 07b1 57       		.byte	0x57
 8025 07b2 93       		.byte	0x93
 8026 07b3 04       		.uleb128 0x4
 8027 07b4 00000000 		.4byte	0
 8028 07b8 00000000 		.4byte	0
 8029              	.LLST56:
 8030 07bc 24050000 		.4byte	.LVL195
 8031 07c0 AE050000 		.4byte	.LVL215
 8032 07c4 0600     		.2byte	0x6
 8033 07c6 52       		.byte	0x52
 8034 07c7 93       		.byte	0x93
 8035 07c8 04       		.uleb128 0x4
 8036 07c9 53       		.byte	0x53
 8037 07ca 93       		.byte	0x93
 8038 07cb 04       		.uleb128 0x4
 8039 07cc 00000000 		.4byte	0
 8040 07d0 00000000 		.4byte	0
 8041              	.LLST57:
 8042 07d4 84000000 		.4byte	.LVL34
 8043 07d8 C6010000 		.4byte	.LVL72
 8044 07dc 0600     		.2byte	0x6
 8045 07de 50       		.byte	0x50
 8046 07df 93       		.byte	0x93
 8047 07e0 04       		.uleb128 0x4
 8048 07e1 51       		.byte	0x51
 8049 07e2 93       		.byte	0x93
 8050 07e3 04       		.uleb128 0x4
 8051 07e4 00000000 		.4byte	0
 8052 07e8 00000000 		.4byte	0
 8053              	.LLST58:
 8054 07ec 00010000 		.4byte	.LVL49
 8055 07f0 1C010000 		.4byte	.LVL52
ARM GAS  C:\Users\bogur\AppData\Local\Temp\cca0k2e0.s 			page 156


 8056 07f4 0600     		.2byte	0x6
 8057 07f6 56       		.byte	0x56
 8058 07f7 93       		.byte	0x93
 8059 07f8 04       		.uleb128 0x4
 8060 07f9 57       		.byte	0x57
 8061 07fa 93       		.byte	0x93
 8062 07fb 04       		.uleb128 0x4
 8063 07fc 00000000 		.4byte	0
 8064 0800 00000000 		.4byte	0
 8065              	.LLST59:
 8066 0804 C2010000 		.4byte	.LVL71
 8067 0808 02020000 		.4byte	.LVL79
 8068 080c 0600     		.2byte	0x6
 8069 080e 52       		.byte	0x52
 8070 080f 93       		.byte	0x93
 8071 0810 04       		.uleb128 0x4
 8072 0811 53       		.byte	0x53
 8073 0812 93       		.byte	0x93
 8074 0813 04       		.uleb128 0x4
 8075 0814 00000000 		.4byte	0
 8076 0818 00000000 		.4byte	0
 8077              	.LLST60:
 8078 081c D6010000 		.4byte	.LVL73
 8079 0820 DE010000 		.4byte	.LVL74
 8080 0824 0600     		.2byte	0x6
 8081 0826 50       		.byte	0x50
 8082 0827 93       		.byte	0x93
 8083 0828 04       		.uleb128 0x4
 8084 0829 51       		.byte	0x51
 8085 082a 93       		.byte	0x93
 8086 082b 04       		.uleb128 0x4
 8087 082c DE010000 		.4byte	.LVL74
 8088 0830 72020000 		.4byte	.LVL96
 8089 0834 0300     		.2byte	0x3
 8090 0836 91       		.byte	0x91
 8091 0837 A07F     		.sleb128 -96
 8092 0839 72020000 		.4byte	.LVL96
 8093 083d 76020000 		.4byte	.LVL97
 8094 0841 0600     		.2byte	0x6
 8095 0843 58       		.byte	0x58
 8096 0844 93       		.byte	0x93
 8097 0845 04       		.uleb128 0x4
 8098 0846 59       		.byte	0x59
 8099 0847 93       		.byte	0x93
 8100 0848 04       		.uleb128 0x4
 8101 0849 00000000 		.4byte	0
 8102 084d 00000000 		.4byte	0
 8103              	.LLST61:
 8104 0851 E2010000 		.4byte	.LVL75
 8105 0855 FA010000 		.4byte	.LVL77
 8106 0859 0600     		.2byte	0x6
 8107 085b 54       		.byte	0x54
 8108 085c 93       		.byte	0x93
 8109 085d 04       		.uleb128 0x4
 8110 085e 55       		.byte	0x55
 8111 085f 93       		.byte	0x93
 8112 0860 04       		.uleb128 0x4
ARM GAS  C:\Users\bogur\AppData\Local\Temp\cca0k2e0.s 			page 157


 8113 0861 00000000 		.4byte	0
 8114 0865 00000000 		.4byte	0
 8115              	.LLST62:
 8116 0869 EE010000 		.4byte	.LVL76
 8117 086d 12020000 		.4byte	.LVL81
 8118 0871 0600     		.2byte	0x6
 8119 0873 50       		.byte	0x50
 8120 0874 93       		.byte	0x93
 8121 0875 04       		.uleb128 0x4
 8122 0876 51       		.byte	0x51
 8123 0877 93       		.byte	0x93
 8124 0878 04       		.uleb128 0x4
 8125 0879 12020000 		.4byte	.LVL81
 8126 087d E4030000 		.4byte	.LVL161
 8127 0881 0300     		.2byte	0x3
 8128 0883 91       		.byte	0x91
 8129 0884 A87F     		.sleb128 -88
 8130 0886 00000000 		.4byte	0
 8131 088a 00000000 		.4byte	0
 8132              	.LLST63:
 8133 088e FE010000 		.4byte	.LVL78
 8134 0892 32020000 		.4byte	.LVL86
 8135 0896 0600     		.2byte	0x6
 8136 0898 54       		.byte	0x54
 8137 0899 93       		.byte	0x93
 8138 089a 04       		.uleb128 0x4
 8139 089b 55       		.byte	0x55
 8140 089c 93       		.byte	0x93
 8141 089d 04       		.uleb128 0x4
 8142 089e 00000000 		.4byte	0
 8143 08a2 00000000 		.4byte	0
 8144              	.LLST64:
 8145 08a6 0E020000 		.4byte	.LVL80
 8146 08aa 40020000 		.4byte	.LVL88
 8147 08ae 0600     		.2byte	0x6
 8148 08b0 52       		.byte	0x52
 8149 08b1 93       		.byte	0x93
 8150 08b2 04       		.uleb128 0x4
 8151 08b3 53       		.byte	0x53
 8152 08b4 93       		.byte	0x93
 8153 08b5 04       		.uleb128 0x4
 8154 08b6 00000000 		.4byte	0
 8155 08ba 00000000 		.4byte	0
 8156              	.LLST65:
 8157 08be 16020000 		.4byte	.LVL82
 8158 08c2 AC020000 		.4byte	.LVL106
 8159 08c6 0600     		.2byte	0x6
 8160 08c8 50       		.byte	0x50
 8161 08c9 93       		.byte	0x93
 8162 08ca 04       		.uleb128 0x4
 8163 08cb 51       		.byte	0x51
 8164 08cc 93       		.byte	0x93
 8165 08cd 04       		.uleb128 0x4
 8166 08ce 00000000 		.4byte	0
 8167 08d2 00000000 		.4byte	0
 8168              	.LLST66:
 8169 08d6 2E020000 		.4byte	.LVL85
ARM GAS  C:\Users\bogur\AppData\Local\Temp\cca0k2e0.s 			page 158


 8170 08da A2020000 		.4byte	.LVL105
 8171 08de 0600     		.2byte	0x6
 8172 08e0 5A       		.byte	0x5a
 8173 08e1 93       		.byte	0x93
 8174 08e2 04       		.uleb128 0x4
 8175 08e3 5B       		.byte	0x5b
 8176 08e4 93       		.byte	0x93
 8177 08e5 04       		.uleb128 0x4
 8178 08e6 00000000 		.4byte	0
 8179 08ea 00000000 		.4byte	0
 8180              	.LLST67:
 8181 08ee 3C020000 		.4byte	.LVL87
 8182 08f2 82020000 		.4byte	.LVL100
 8183 08f6 0600     		.2byte	0x6
 8184 08f8 54       		.byte	0x54
 8185 08f9 93       		.byte	0x93
 8186 08fa 04       		.uleb128 0x4
 8187 08fb 55       		.byte	0x55
 8188 08fc 93       		.byte	0x93
 8189 08fd 04       		.uleb128 0x4
 8190 08fe 00000000 		.4byte	0
 8191 0902 00000000 		.4byte	0
 8192              	.LLST68:
 8193 0906 4A020000 		.4byte	.LVL89
 8194 090a 5A020000 		.4byte	.LVL92
 8195 090e 0600     		.2byte	0x6
 8196 0910 52       		.byte	0x52
 8197 0911 93       		.byte	0x93
 8198 0912 04       		.uleb128 0x4
 8199 0913 53       		.byte	0x53
 8200 0914 93       		.byte	0x93
 8201 0915 04       		.uleb128 0x4
 8202 0916 00000000 		.4byte	0
 8203 091a 00000000 		.4byte	0
 8204              	.LLST69:
 8205 091e 52020000 		.4byte	.LVL90
 8206 0922 7C020000 		.4byte	.LVL98
 8207 0926 0600     		.2byte	0x6
 8208 0928 56       		.byte	0x56
 8209 0929 93       		.byte	0x93
 8210 092a 04       		.uleb128 0x4
 8211 092b 57       		.byte	0x57
 8212 092c 93       		.byte	0x93
 8213 092d 04       		.uleb128 0x4
 8214 092e 7C020000 		.4byte	.LVL98
 8215 0932 BC030000 		.4byte	.LVL157
 8216 0936 0300     		.2byte	0x3
 8217 0938 91       		.byte	0x91
 8218 0939 A07F     		.sleb128 -96
 8219 093b 00000000 		.4byte	0
 8220 093f 00000000 		.4byte	0
 8221              	.LLST70:
 8222 0943 62020000 		.4byte	.LVL93
 8223 0947 6E020000 		.4byte	.LVL95
 8224 094b 0600     		.2byte	0x6
 8225 094d 58       		.byte	0x58
 8226 094e 93       		.byte	0x93
ARM GAS  C:\Users\bogur\AppData\Local\Temp\cca0k2e0.s 			page 159


 8227 094f 04       		.uleb128 0x4
 8228 0950 59       		.byte	0x59
 8229 0951 93       		.byte	0x93
 8230 0952 04       		.uleb128 0x4
 8231 0953 00000000 		.4byte	0
 8232 0957 00000000 		.4byte	0
 8233              	.LLST71:
 8234 095b 6A020000 		.4byte	.LVL94
 8235 095f 88020000 		.4byte	.LVL101
 8236 0963 0600     		.2byte	0x6
 8237 0965 52       		.byte	0x52
 8238 0966 93       		.byte	0x93
 8239 0967 04       		.uleb128 0x4
 8240 0968 53       		.byte	0x53
 8241 0969 93       		.byte	0x93
 8242 096a 04       		.uleb128 0x4
 8243 096b 00000000 		.4byte	0
 8244 096f 00000000 		.4byte	0
 8245              	.LLST72:
 8246 0973 7E020000 		.4byte	.LVL99
 8247 0977 CC020000 		.4byte	.LVL110
 8248 097b 0600     		.2byte	0x6
 8249 097d 56       		.byte	0x56
 8250 097e 93       		.byte	0x93
 8251 097f 04       		.uleb128 0x4
 8252 0980 57       		.byte	0x57
 8253 0981 93       		.byte	0x93
 8254 0982 04       		.uleb128 0x4
 8255 0983 00000000 		.4byte	0
 8256 0987 00000000 		.4byte	0
 8257              	.LLST73:
 8258 098b 8E020000 		.4byte	.LVL102
 8259 098f BC020000 		.4byte	.LVL108
 8260 0993 0600     		.2byte	0x6
 8261 0995 54       		.byte	0x54
 8262 0996 93       		.byte	0x93
 8263 0997 04       		.uleb128 0x4
 8264 0998 55       		.byte	0x55
 8265 0999 93       		.byte	0x93
 8266 099a 04       		.uleb128 0x4
 8267 099b 00000000 		.4byte	0
 8268 099f 00000000 		.4byte	0
 8269              	.LLST74:
 8270 09a3 96020000 		.4byte	.LVL103
 8271 09a7 E0020000 		.4byte	.LVL114
 8272 09ab 0600     		.2byte	0x6
 8273 09ad 52       		.byte	0x52
 8274 09ae 93       		.byte	0x93
 8275 09af 04       		.uleb128 0x4
 8276 09b0 53       		.byte	0x53
 8277 09b1 93       		.byte	0x93
 8278 09b2 04       		.uleb128 0x4
 8279 09b3 00000000 		.4byte	0
 8280 09b7 00000000 		.4byte	0
 8281              	.LLST75:
 8282 09bb 9E020000 		.4byte	.LVL104
 8283 09bf EA020000 		.4byte	.LVL115
ARM GAS  C:\Users\bogur\AppData\Local\Temp\cca0k2e0.s 			page 160


 8284 09c3 0600     		.2byte	0x6
 8285 09c5 58       		.byte	0x58
 8286 09c6 93       		.byte	0x93
 8287 09c7 04       		.uleb128 0x4
 8288 09c8 59       		.byte	0x59
 8289 09c9 93       		.byte	0x93
 8290 09ca 04       		.uleb128 0x4
 8291 09cb 00000000 		.4byte	0
 8292 09cf 00000000 		.4byte	0
 8293              	.LLST76:
 8294 09d3 AE020000 		.4byte	.LVL107
 8295 09d7 F6020000 		.4byte	.LVL118
 8296 09db 0600     		.2byte	0x6
 8297 09dd 50       		.byte	0x50
 8298 09de 93       		.byte	0x93
 8299 09df 04       		.uleb128 0x4
 8300 09e0 51       		.byte	0x51
 8301 09e1 93       		.byte	0x93
 8302 09e2 04       		.uleb128 0x4
 8303 09e3 F6020000 		.4byte	.LVL118
 8304 09e7 1C030000 		.4byte	.LVL125
 8305 09eb 0200     		.2byte	0x2
 8306 09ed 7D       		.byte	0x7d
 8307 09ee 00       		.sleb128 0
 8308 09ef 00000000 		.4byte	0
 8309 09f3 00000000 		.4byte	0
 8310              	.LLST77:
 8311 09f7 BE020000 		.4byte	.LVL109
 8312 09fb 5C030000 		.4byte	.LVL138
 8313 09ff 0600     		.2byte	0x6
 8314 0a01 54       		.byte	0x54
 8315 0a02 93       		.byte	0x93
 8316 0a03 04       		.uleb128 0x4
 8317 0a04 55       		.byte	0x55
 8318 0a05 93       		.byte	0x93
 8319 0a06 04       		.uleb128 0x4
 8320 0a07 00000000 		.4byte	0
 8321 0a0b 00000000 		.4byte	0
 8322              	.LLST78:
 8323 0a0f CE020000 		.4byte	.LVL111
 8324 0a13 FA020000 		.4byte	.LVL119
 8325 0a17 0600     		.2byte	0x6
 8326 0a19 56       		.byte	0x56
 8327 0a1a 93       		.byte	0x93
 8328 0a1b 04       		.uleb128 0x4
 8329 0a1c 57       		.byte	0x57
 8330 0a1d 93       		.byte	0x93
 8331 0a1e 04       		.uleb128 0x4
 8332 0a1f FA020000 		.4byte	.LVL119
 8333 0a23 A4030000 		.4byte	.LVL153
 8334 0a27 0300     		.2byte	0x3
 8335 0a29 91       		.byte	0x91
 8336 0a2a 987E     		.sleb128 -232
 8337 0a2c 00000000 		.4byte	0
 8338 0a30 00000000 		.4byte	0
 8339              	.LLST79:
 8340 0a34 DA020000 		.4byte	.LVL112
ARM GAS  C:\Users\bogur\AppData\Local\Temp\cca0k2e0.s 			page 161


 8341 0a38 8C030000 		.4byte	.LVL146
 8342 0a3c 0600     		.2byte	0x6
 8343 0a3e 5A       		.byte	0x5a
 8344 0a3f 93       		.byte	0x93
 8345 0a40 04       		.uleb128 0x4
 8346 0a41 5B       		.byte	0x5b
 8347 0a42 93       		.byte	0x93
 8348 0a43 04       		.uleb128 0x4
 8349 0a44 00000000 		.4byte	0
 8350 0a48 00000000 		.4byte	0
 8351              	.LLST80:
 8352 0a4c EC020000 		.4byte	.LVL116
 8353 0a50 0C030000 		.4byte	.LVL123
 8354 0a54 0600     		.2byte	0x6
 8355 0a56 58       		.byte	0x58
 8356 0a57 93       		.byte	0x93
 8357 0a58 04       		.uleb128 0x4
 8358 0a59 59       		.byte	0x59
 8359 0a5a 93       		.byte	0x93
 8360 0a5b 04       		.uleb128 0x4
 8361 0a5c 0C030000 		.4byte	.LVL123
 8362 0a60 94030000 		.4byte	.LVL149
 8363 0a64 0300     		.2byte	0x3
 8364 0a66 91       		.byte	0x91
 8365 0a67 B87E     		.sleb128 -200
 8366 0a69 00000000 		.4byte	0
 8367 0a6d 00000000 		.4byte	0
 8368              	.LLST81:
 8369 0a71 FC020000 		.4byte	.LVL120
 8370 0a75 34030000 		.4byte	.LVL130
 8371 0a79 0600     		.2byte	0x6
 8372 0a7b 56       		.byte	0x56
 8373 0a7c 93       		.byte	0x93
 8374 0a7d 04       		.uleb128 0x4
 8375 0a7e 57       		.byte	0x57
 8376 0a7f 93       		.byte	0x93
 8377 0a80 04       		.uleb128 0x4
 8378 0a81 00000000 		.4byte	0
 8379 0a85 00000000 		.4byte	0
 8380              	.LLST82:
 8381 0a89 04030000 		.4byte	.LVL121
 8382 0a8d 9E030000 		.4byte	.LVL152
 8383 0a91 0600     		.2byte	0x6
 8384 0a93 50       		.byte	0x50
 8385 0a94 93       		.byte	0x93
 8386 0a95 04       		.uleb128 0x4
 8387 0a96 51       		.byte	0x51
 8388 0a97 93       		.byte	0x93
 8389 0a98 04       		.uleb128 0x4
 8390 0a99 00000000 		.4byte	0
 8391 0a9d 00000000 		.4byte	0
 8392              	.LLST83:
 8393 0aa1 10030000 		.4byte	.LVL124
 8394 0aa5 20030000 		.4byte	.LVL126
 8395 0aa9 0600     		.2byte	0x6
 8396 0aab 58       		.byte	0x58
 8397 0aac 93       		.byte	0x93
ARM GAS  C:\Users\bogur\AppData\Local\Temp\cca0k2e0.s 			page 162


 8398 0aad 04       		.uleb128 0x4
 8399 0aae 59       		.byte	0x59
 8400 0aaf 93       		.byte	0x93
 8401 0ab0 04       		.uleb128 0x4
 8402 0ab1 00000000 		.4byte	0
 8403 0ab5 00000000 		.4byte	0
 8404              	.LLST84:
 8405 0ab9 1C030000 		.4byte	.LVL125
 8406 0abd 2C030000 		.4byte	.LVL128
 8407 0ac1 0600     		.2byte	0x6
 8408 0ac3 52       		.byte	0x52
 8409 0ac4 93       		.byte	0x93
 8410 0ac5 04       		.uleb128 0x4
 8411 0ac6 53       		.byte	0x53
 8412 0ac7 93       		.byte	0x93
 8413 0ac8 04       		.uleb128 0x4
 8414 0ac9 2C030000 		.4byte	.LVL128
 8415 0acd 30050000 		.4byte	.LVL197
 8416 0ad1 0200     		.2byte	0x2
 8417 0ad3 7D       		.byte	0x7d
 8418 0ad4 00       		.sleb128 0
 8419 0ad5 00000000 		.4byte	0
 8420 0ad9 00000000 		.4byte	0
 8421              	.LLST85:
 8422 0add 28030000 		.4byte	.LVL127
 8423 0ae1 3C030000 		.4byte	.LVL132
 8424 0ae5 0600     		.2byte	0x6
 8425 0ae7 58       		.byte	0x58
 8426 0ae8 93       		.byte	0x93
 8427 0ae9 04       		.uleb128 0x4
 8428 0aea 59       		.byte	0x59
 8429 0aeb 93       		.byte	0x93
 8430 0aec 04       		.uleb128 0x4
 8431 0aed 00000000 		.4byte	0
 8432 0af1 00000000 		.4byte	0
 8433              	.LLST86:
 8434 0af5 30030000 		.4byte	.LVL129
 8435 0af9 48030000 		.4byte	.LVL135
 8436 0afd 0600     		.2byte	0x6
 8437 0aff 52       		.byte	0x52
 8438 0b00 93       		.byte	0x93
 8439 0b01 04       		.uleb128 0x4
 8440 0b02 53       		.byte	0x53
 8441 0b03 93       		.byte	0x93
 8442 0b04 04       		.uleb128 0x4
 8443 0b05 00000000 		.4byte	0
 8444 0b09 00000000 		.4byte	0
 8445              	.LLST87:
 8446 0b0d 38030000 		.4byte	.LVL131
 8447 0b11 42030000 		.4byte	.LVL133
 8448 0b15 0600     		.2byte	0x6
 8449 0b17 56       		.byte	0x56
 8450 0b18 93       		.byte	0x93
 8451 0b19 04       		.uleb128 0x4
 8452 0b1a 57       		.byte	0x57
 8453 0b1b 93       		.byte	0x93
 8454 0b1c 04       		.uleb128 0x4
ARM GAS  C:\Users\bogur\AppData\Local\Temp\cca0k2e0.s 			page 163


 8455 0b1d 00000000 		.4byte	0
 8456 0b21 00000000 		.4byte	0
 8457              	.LLST88:
 8458 0b25 44030000 		.4byte	.LVL134
 8459 0b29 A6030000 		.4byte	.LVL154
 8460 0b2d 0600     		.2byte	0x6
 8461 0b2f 56       		.byte	0x56
 8462 0b30 93       		.byte	0x93
 8463 0b31 04       		.uleb128 0x4
 8464 0b32 57       		.byte	0x57
 8465 0b33 93       		.byte	0x93
 8466 0b34 04       		.uleb128 0x4
 8467 0b35 A6030000 		.4byte	.LVL154
 8468 0b39 C8040000 		.4byte	.LVL185
 8469 0b3d 0300     		.2byte	0x3
 8470 0b3f 91       		.byte	0x91
 8471 0b40 987E     		.sleb128 -232
 8472 0b42 00000000 		.4byte	0
 8473 0b46 00000000 		.4byte	0
 8474              	.LLST89:
 8475 0b4a 50030000 		.4byte	.LVL136
 8476 0b4e 6A030000 		.4byte	.LVL141
 8477 0b52 0600     		.2byte	0x6
 8478 0b54 52       		.byte	0x52
 8479 0b55 93       		.byte	0x93
 8480 0b56 04       		.uleb128 0x4
 8481 0b57 53       		.byte	0x53
 8482 0b58 93       		.byte	0x93
 8483 0b59 04       		.uleb128 0x4
 8484 0b5a 00000000 		.4byte	0
 8485 0b5e 00000000 		.4byte	0
 8486              	.LLST90:
 8487 0b62 58030000 		.4byte	.LVL137
 8488 0b66 64030000 		.4byte	.LVL140
 8489 0b6a 0600     		.2byte	0x6
 8490 0b6c 58       		.byte	0x58
 8491 0b6d 93       		.byte	0x93
 8492 0b6e 04       		.uleb128 0x4
 8493 0b6f 59       		.byte	0x59
 8494 0b70 93       		.byte	0x93
 8495 0b71 04       		.uleb128 0x4
 8496 0b72 00000000 		.4byte	0
 8497 0b76 00000000 		.4byte	0
 8498              	.LLST91:
 8499 0b7a 60030000 		.4byte	.LVL139
 8500 0b7e 7C030000 		.4byte	.LVL144
 8501 0b82 0600     		.2byte	0x6
 8502 0b84 54       		.byte	0x54
 8503 0b85 93       		.byte	0x93
 8504 0b86 04       		.uleb128 0x4
 8505 0b87 55       		.byte	0x55
 8506 0b88 93       		.byte	0x93
 8507 0b89 04       		.uleb128 0x4
 8508 0b8a 00000000 		.4byte	0
 8509 0b8e 00000000 		.4byte	0
 8510              	.LLST92:
 8511 0b92 6C030000 		.4byte	.LVL142
ARM GAS  C:\Users\bogur\AppData\Local\Temp\cca0k2e0.s 			page 164


 8512 0b96 B2030000 		.4byte	.LVL156
 8513 0b9a 0600     		.2byte	0x6
 8514 0b9c 52       		.byte	0x52
 8515 0b9d 93       		.byte	0x93
 8516 0b9e 04       		.uleb128 0x4
 8517 0b9f 53       		.byte	0x53
 8518 0ba0 93       		.byte	0x93
 8519 0ba1 04       		.uleb128 0x4
 8520 0ba2 B2030000 		.4byte	.LVL156
 8521 0ba6 F8040000 		.4byte	.LVL191
 8522 0baa 0300     		.2byte	0x3
 8523 0bac 91       		.byte	0x91
 8524 0bad B87E     		.sleb128 -200
 8525 0baf 00000000 		.4byte	0
 8526 0bb3 00000000 		.4byte	0
 8527              	.LLST93:
 8528 0bb7 74030000 		.4byte	.LVL143
 8529 0bbb 98030000 		.4byte	.LVL150
 8530 0bbf 0600     		.2byte	0x6
 8531 0bc1 58       		.byte	0x58
 8532 0bc2 93       		.byte	0x93
 8533 0bc3 04       		.uleb128 0x4
 8534 0bc4 59       		.byte	0x59
 8535 0bc5 93       		.byte	0x93
 8536 0bc6 04       		.uleb128 0x4
 8537 0bc7 00000000 		.4byte	0
 8538 0bcb 00000000 		.4byte	0
 8539              	.LLST94:
 8540 0bcf 80030000 		.4byte	.LVL145
 8541 0bd3 8E030000 		.4byte	.LVL147
 8542 0bd7 0600     		.2byte	0x6
 8543 0bd9 54       		.byte	0x54
 8544 0bda 93       		.byte	0x93
 8545 0bdb 04       		.uleb128 0x4
 8546 0bdc 55       		.byte	0x55
 8547 0bdd 93       		.byte	0x93
 8548 0bde 04       		.uleb128 0x4
 8549 0bdf 00000000 		.4byte	0
 8550 0be3 00000000 		.4byte	0
 8551              	.LLST95:
 8552 0be7 90030000 		.4byte	.LVL148
 8553 0beb E6040000 		.4byte	.LVL189
 8554 0bef 0600     		.2byte	0x6
 8555 0bf1 54       		.byte	0x54
 8556 0bf2 93       		.byte	0x93
 8557 0bf3 04       		.uleb128 0x4
 8558 0bf4 55       		.byte	0x55
 8559 0bf5 93       		.byte	0x93
 8560 0bf6 04       		.uleb128 0x4
 8561 0bf7 00000000 		.4byte	0
 8562 0bfb 00000000 		.4byte	0
 8563              	.LLST96:
 8564 0bff 9C030000 		.4byte	.LVL151
 8565 0c03 28050000 		.4byte	.LVL196
 8566 0c07 0600     		.2byte	0x6
 8567 0c09 58       		.byte	0x58
 8568 0c0a 93       		.byte	0x93
ARM GAS  C:\Users\bogur\AppData\Local\Temp\cca0k2e0.s 			page 165


 8569 0c0b 04       		.uleb128 0x4
 8570 0c0c 59       		.byte	0x59
 8571 0c0d 93       		.byte	0x93
 8572 0c0e 04       		.uleb128 0x4
 8573 0c0f 00000000 		.4byte	0
 8574 0c13 00000000 		.4byte	0
 8575              	.LLST97:
 8576 0c17 B0030000 		.4byte	.LVL155
 8577 0c1b C8030000 		.4byte	.LVL159
 8578 0c1f 0600     		.2byte	0x6
 8579 0c21 50       		.byte	0x50
 8580 0c22 93       		.byte	0x93
 8581 0c23 04       		.uleb128 0x4
 8582 0c24 51       		.byte	0x51
 8583 0c25 93       		.byte	0x93
 8584 0c26 04       		.uleb128 0x4
 8585 0c27 C8030000 		.4byte	.LVL159
 8586 0c2b 80050000 		.4byte	.LVL208
 8587 0c2f 0300     		.2byte	0x3
 8588 0c31 91       		.byte	0x91
 8589 0c32 C07E     		.sleb128 -192
 8590 0c34 00000000 		.4byte	0
 8591 0c38 00000000 		.4byte	0
 8592              	.LLST98:
 8593 0c3c BC030000 		.4byte	.LVL157
 8594 0c40 C0030000 		.4byte	.LVL158
 8595 0c44 0600     		.2byte	0x6
 8596 0c46 52       		.byte	0x52
 8597 0c47 93       		.byte	0x93
 8598 0c48 04       		.uleb128 0x4
 8599 0c49 53       		.byte	0x53
 8600 0c4a 93       		.byte	0x93
 8601 0c4b 04       		.uleb128 0x4
 8602 0c4c C0030000 		.4byte	.LVL158
 8603 0c50 04070000 		.4byte	.LFE5
 8604 0c54 0300     		.2byte	0x3
 8605 0c56 91       		.byte	0x91
 8606 0c57 A07F     		.sleb128 -96
 8607 0c59 00000000 		.4byte	0
 8608 0c5d 00000000 		.4byte	0
 8609              	.LLST99:
 8610 0c61 D0030000 		.4byte	.LVL160
 8611 0c65 08040000 		.4byte	.LVL165
 8612 0c69 0600     		.2byte	0x6
 8613 0c6b 5B       		.byte	0x5b
 8614 0c6c 93       		.byte	0x93
 8615 0c6d 04       		.uleb128 0x4
 8616 0c6e 5C       		.byte	0x5c
 8617 0c6f 93       		.byte	0x93
 8618 0c70 04       		.uleb128 0x4
 8619 0c71 08040000 		.4byte	.LVL165
 8620 0c75 04070000 		.4byte	.LFE5
 8621 0c79 0300     		.2byte	0x3
 8622 0c7b 91       		.byte	0x91
 8623 0c7c B87F     		.sleb128 -72
 8624 0c7e 00000000 		.4byte	0
 8625 0c82 00000000 		.4byte	0
ARM GAS  C:\Users\bogur\AppData\Local\Temp\cca0k2e0.s 			page 166


 8626              	.LLST100:
 8627 0c86 E4030000 		.4byte	.LVL161
 8628 0c8a E8030000 		.4byte	.LVL162
 8629 0c8e 0600     		.2byte	0x6
 8630 0c90 56       		.byte	0x56
 8631 0c91 93       		.byte	0x93
 8632 0c92 04       		.uleb128 0x4
 8633 0c93 57       		.byte	0x57
 8634 0c94 93       		.byte	0x93
 8635 0c95 04       		.uleb128 0x4
 8636 0c96 E8030000 		.4byte	.LVL162
 8637 0c9a 04070000 		.4byte	.LFE5
 8638 0c9e 0300     		.2byte	0x3
 8639 0ca0 91       		.byte	0x91
 8640 0ca1 A87F     		.sleb128 -88
 8641 0ca3 00000000 		.4byte	0
 8642 0ca7 00000000 		.4byte	0
 8643              	.LLST101:
 8644 0cab 30050000 		.4byte	.LVL197
 8645 0caf 48050000 		.4byte	.LVL201
 8646 0cb3 0600     		.2byte	0x6
 8647 0cb5 58       		.byte	0x58
 8648 0cb6 93       		.byte	0x93
 8649 0cb7 04       		.uleb128 0x4
 8650 0cb8 59       		.byte	0x59
 8651 0cb9 93       		.byte	0x93
 8652 0cba 04       		.uleb128 0x4
 8653 0cbb 48050000 		.4byte	.LVL201
 8654 0cbf 16060000 		.4byte	.LVL229
 8655 0cc3 0200     		.2byte	0x2
 8656 0cc5 7D       		.byte	0x7d
 8657 0cc6 00       		.sleb128 0
 8658 0cc7 00000000 		.4byte	0
 8659 0ccb 00000000 		.4byte	0
 8660              	.LLST102:
 8661 0ccf 40050000 		.4byte	.LVL199
 8662 0cd3 44050000 		.4byte	.LVL200
 8663 0cd7 0600     		.2byte	0x6
 8664 0cd9 50       		.byte	0x50
 8665 0cda 93       		.byte	0x93
 8666 0cdb 04       		.uleb128 0x4
 8667 0cdc 51       		.byte	0x51
 8668 0cdd 93       		.byte	0x93
 8669 0cde 04       		.uleb128 0x4
 8670 0cdf 44050000 		.4byte	.LVL200
 8671 0ce3 04070000 		.4byte	.LFE5
 8672 0ce7 0300     		.2byte	0x3
 8673 0ce9 91       		.byte	0x91
 8674 0cea A87E     		.sleb128 -216
 8675 0cec 00000000 		.4byte	0
 8676 0cf0 00000000 		.4byte	0
 8677              	.LLST103:
 8678 0cf4 50050000 		.4byte	.LVL202
 8679 0cf8 54050000 		.4byte	.LVL203
 8680 0cfc 0600     		.2byte	0x6
 8681 0cfe 58       		.byte	0x58
 8682 0cff 93       		.byte	0x93
ARM GAS  C:\Users\bogur\AppData\Local\Temp\cca0k2e0.s 			page 167


 8683 0d00 04       		.uleb128 0x4
 8684 0d01 59       		.byte	0x59
 8685 0d02 93       		.byte	0x93
 8686 0d03 04       		.uleb128 0x4
 8687 0d04 54050000 		.4byte	.LVL203
 8688 0d08 04070000 		.4byte	.LFE5
 8689 0d0c 0300     		.2byte	0x3
 8690 0d0e 91       		.byte	0x91
 8691 0d0f 987E     		.sleb128 -232
 8692 0d11 00000000 		.4byte	0
 8693 0d15 00000000 		.4byte	0
 8694              	.LLST104:
 8695 0d19 60050000 		.4byte	.LVL204
 8696 0d1d 72050000 		.4byte	.LVL206
 8697 0d21 0600     		.2byte	0x6
 8698 0d23 58       		.byte	0x58
 8699 0d24 93       		.byte	0x93
 8700 0d25 04       		.uleb128 0x4
 8701 0d26 59       		.byte	0x59
 8702 0d27 93       		.byte	0x93
 8703 0d28 04       		.uleb128 0x4
 8704 0d29 72050000 		.4byte	.LVL206
 8705 0d2d 04070000 		.4byte	.LFE5
 8706 0d31 0300     		.2byte	0x3
 8707 0d33 91       		.byte	0x91
 8708 0d34 B07E     		.sleb128 -208
 8709 0d36 00000000 		.4byte	0
 8710 0d3a 00000000 		.4byte	0
 8711              	.LLST105:
 8712 0d3e 74050000 		.4byte	.LVL207
 8713 0d42 D6050000 		.4byte	.LVL220
 8714 0d46 0600     		.2byte	0x6
 8715 0d48 58       		.byte	0x58
 8716 0d49 93       		.byte	0x93
 8717 0d4a 04       		.uleb128 0x4
 8718 0d4b 59       		.byte	0x59
 8719 0d4c 93       		.byte	0x93
 8720 0d4d 04       		.uleb128 0x4
 8721 0d4e 00000000 		.4byte	0
 8722 0d52 00000000 		.4byte	0
 8723              	.LLST106:
 8724 0d56 80050000 		.4byte	.LVL208
 8725 0d5a 98050000 		.4byte	.LVL211
 8726 0d5e 0600     		.2byte	0x6
 8727 0d60 54       		.byte	0x54
 8728 0d61 93       		.byte	0x93
 8729 0d62 04       		.uleb128 0x4
 8730 0d63 55       		.byte	0x55
 8731 0d64 93       		.byte	0x93
 8732 0d65 04       		.uleb128 0x4
 8733 0d66 98050000 		.4byte	.LVL211
 8734 0d6a 04070000 		.4byte	.LFE5
 8735 0d6e 0300     		.2byte	0x3
 8736 0d70 91       		.byte	0x91
 8737 0d71 C07E     		.sleb128 -192
 8738 0d73 00000000 		.4byte	0
 8739 0d77 00000000 		.4byte	0
ARM GAS  C:\Users\bogur\AppData\Local\Temp\cca0k2e0.s 			page 168


 8740              	.LLST107:
 8741 0d7b 90050000 		.4byte	.LVL210
 8742 0d7f 1A060000 		.4byte	.LVL230
 8743 0d83 0600     		.2byte	0x6
 8744 0d85 5A       		.byte	0x5a
 8745 0d86 93       		.byte	0x93
 8746 0d87 04       		.uleb128 0x4
 8747 0d88 5B       		.byte	0x5b
 8748 0d89 93       		.byte	0x93
 8749 0d8a 04       		.uleb128 0x4
 8750 0d8b 00000000 		.4byte	0
 8751 0d8f 00000000 		.4byte	0
 8752              	.LLST108:
 8753 0d93 A0050000 		.4byte	.LVL212
 8754 0d97 A8050000 		.4byte	.LVL213
 8755 0d9b 0600     		.2byte	0x6
 8756 0d9d 50       		.byte	0x50
 8757 0d9e 93       		.byte	0x93
 8758 0d9f 04       		.uleb128 0x4
 8759 0da0 51       		.byte	0x51
 8760 0da1 93       		.byte	0x93
 8761 0da2 04       		.uleb128 0x4
 8762 0da3 A8050000 		.4byte	.LVL213
 8763 0da7 04070000 		.4byte	.LFE5
 8764 0dab 0300     		.2byte	0x3
 8765 0dad 91       		.byte	0x91
 8766 0dae A07E     		.sleb128 -224
 8767 0db0 00000000 		.4byte	0
 8768 0db4 00000000 		.4byte	0
 8769              	.LLST109:
 8770 0db8 AC050000 		.4byte	.LVL214
 8771 0dbc EE050000 		.4byte	.LVL224
 8772 0dc0 0600     		.2byte	0x6
 8773 0dc2 54       		.byte	0x54
 8774 0dc3 93       		.byte	0x93
 8775 0dc4 04       		.uleb128 0x4
 8776 0dc5 55       		.byte	0x55
 8777 0dc6 93       		.byte	0x93
 8778 0dc7 04       		.uleb128 0x4
 8779 0dc8 00000000 		.4byte	0
 8780 0dcc 00000000 		.4byte	0
 8781              	.LLST110:
 8782 0dd0 B4050000 		.4byte	.LVL216
 8783 0dd4 C4050000 		.4byte	.LVL218
 8784 0dd8 0600     		.2byte	0x6
 8785 0dda 52       		.byte	0x52
 8786 0ddb 93       		.byte	0x93
 8787 0ddc 04       		.uleb128 0x4
 8788 0ddd 53       		.byte	0x53
 8789 0dde 93       		.byte	0x93
 8790 0ddf 04       		.uleb128 0x4
 8791 0de0 C4050000 		.4byte	.LVL218
 8792 0de4 04070000 		.4byte	.LFE5
 8793 0de8 0300     		.2byte	0x3
 8794 0dea 91       		.byte	0x91
 8795 0deb C87E     		.sleb128 -184
 8796 0ded 00000000 		.4byte	0
ARM GAS  C:\Users\bogur\AppData\Local\Temp\cca0k2e0.s 			page 169


 8797 0df1 00000000 		.4byte	0
 8798              	.LLST111:
 8799 0df5 C8050000 		.4byte	.LVL219
 8800 0df9 DC050000 		.4byte	.LVL222
 8801 0dfd 0600     		.2byte	0x6
 8802 0dff 51       		.byte	0x51
 8803 0e00 93       		.byte	0x93
 8804 0e01 04       		.uleb128 0x4
 8805 0e02 52       		.byte	0x52
 8806 0e03 93       		.byte	0x93
 8807 0e04 04       		.uleb128 0x4
 8808 0e05 DC050000 		.4byte	.LVL222
 8809 0e09 7A060000 		.4byte	.LVL245
 8810 0e0d 0300     		.2byte	0x3
 8811 0e0f 91       		.byte	0x91
 8812 0e10 887E     		.sleb128 -248
 8813 0e12 00000000 		.4byte	0
 8814 0e16 00000000 		.4byte	0
 8815              	.LLST112:
 8816 0e1a D8050000 		.4byte	.LVL221
 8817 0e1e 08060000 		.4byte	.LVL227
 8818 0e22 0600     		.2byte	0x6
 8819 0e24 58       		.byte	0x58
 8820 0e25 93       		.byte	0x93
 8821 0e26 04       		.uleb128 0x4
 8822 0e27 59       		.byte	0x59
 8823 0e28 93       		.byte	0x93
 8824 0e29 04       		.uleb128 0x4
 8825 0e2a 00000000 		.4byte	0
 8826 0e2e 00000000 		.4byte	0
 8827              	.LLST113:
 8828 0e32 E4050000 		.4byte	.LVL223
 8829 0e36 24060000 		.4byte	.LVL231
 8830 0e3a 0600     		.2byte	0x6
 8831 0e3c 56       		.byte	0x56
 8832 0e3d 93       		.byte	0x93
 8833 0e3e 04       		.uleb128 0x4
 8834 0e3f 57       		.byte	0x57
 8835 0e40 93       		.byte	0x93
 8836 0e41 04       		.uleb128 0x4
 8837 0e42 00000000 		.4byte	0
 8838 0e46 00000000 		.4byte	0
 8839              	.LLST114:
 8840 0e4a F0050000 		.4byte	.LVL225
 8841 0e4e 62060000 		.4byte	.LVL242
 8842 0e52 0600     		.2byte	0x6
 8843 0e54 54       		.byte	0x54
 8844 0e55 93       		.byte	0x93
 8845 0e56 04       		.uleb128 0x4
 8846 0e57 55       		.byte	0x55
 8847 0e58 93       		.byte	0x93
 8848 0e59 04       		.uleb128 0x4
 8849 0e5a 00000000 		.4byte	0
 8850 0e5e 00000000 		.4byte	0
 8851              	.LLST115:
 8852 0e62 FA050000 		.4byte	.LVL226
 8853 0e66 7E060000 		.4byte	.LVL246
ARM GAS  C:\Users\bogur\AppData\Local\Temp\cca0k2e0.s 			page 170


 8854 0e6a 0600     		.2byte	0x6
 8855 0e6c 50       		.byte	0x50
 8856 0e6d 93       		.byte	0x93
 8857 0e6e 04       		.uleb128 0x4
 8858 0e6f 51       		.byte	0x51
 8859 0e70 93       		.byte	0x93
 8860 0e71 04       		.uleb128 0x4
 8861 0e72 00000000 		.4byte	0
 8862 0e76 00000000 		.4byte	0
 8863              	.LLST116:
 8864 0e7a 0A060000 		.4byte	.LVL228
 8865 0e7e 52060000 		.4byte	.LVL239
 8866 0e82 0600     		.2byte	0x6
 8867 0e84 58       		.byte	0x58
 8868 0e85 93       		.byte	0x93
 8869 0e86 04       		.uleb128 0x4
 8870 0e87 59       		.byte	0x59
 8871 0e88 93       		.byte	0x93
 8872 0e89 04       		.uleb128 0x4
 8873 0e8a 00000000 		.4byte	0
 8874 0e8e 00000000 		.4byte	0
 8875              	.LLST117:
 8876 0e92 16060000 		.4byte	.LVL229
 8877 0e96 2A060000 		.4byte	.LVL233
 8878 0e9a 0600     		.2byte	0x6
 8879 0e9c 52       		.byte	0x52
 8880 0e9d 93       		.byte	0x93
 8881 0e9e 04       		.uleb128 0x4
 8882 0e9f 53       		.byte	0x53
 8883 0ea0 93       		.byte	0x93
 8884 0ea1 04       		.uleb128 0x4
 8885 0ea2 2A060000 		.4byte	.LVL233
 8886 0ea6 42060000 		.4byte	.LVL236
 8887 0eaa 0200     		.2byte	0x2
 8888 0eac 7D       		.byte	0x7d
 8889 0ead 00       		.sleb128 0
 8890 0eae 42060000 		.4byte	.LVL236
 8891 0eb2 5C060000 		.4byte	.LVL241
 8892 0eb6 0600     		.2byte	0x6
 8893 0eb8 52       		.byte	0x52
 8894 0eb9 93       		.byte	0x93
 8895 0eba 04       		.uleb128 0x4
 8896 0ebb 53       		.byte	0x53
 8897 0ebc 93       		.byte	0x93
 8898 0ebd 04       		.uleb128 0x4
 8899 0ebe 00000000 		.4byte	0
 8900 0ec2 00000000 		.4byte	0
 8901              	.LLST118:
 8902 0ec6 26060000 		.4byte	.LVL232
 8903 0eca 92060000 		.4byte	.LVL249
 8904 0ece 0600     		.2byte	0x6
 8905 0ed0 56       		.byte	0x56
 8906 0ed1 93       		.byte	0x93
 8907 0ed2 04       		.uleb128 0x4
 8908 0ed3 57       		.byte	0x57
 8909 0ed4 93       		.byte	0x93
 8910 0ed5 04       		.uleb128 0x4
ARM GAS  C:\Users\bogur\AppData\Local\Temp\cca0k2e0.s 			page 171


 8911 0ed6 00000000 		.4byte	0
 8912 0eda 00000000 		.4byte	0
 8913              	.LLST119:
 8914 0ede 32060000 		.4byte	.LVL234
 8915 0ee2 36060000 		.4byte	.LVL235
 8916 0ee6 0600     		.2byte	0x6
 8917 0ee8 52       		.byte	0x52
 8918 0ee9 93       		.byte	0x93
 8919 0eea 04       		.uleb128 0x4
 8920 0eeb 53       		.byte	0x53
 8921 0eec 93       		.byte	0x93
 8922 0eed 04       		.uleb128 0x4
 8923 0eee 36060000 		.4byte	.LVL235
 8924 0ef2 8E060000 		.4byte	.LVL248
 8925 0ef6 0300     		.2byte	0x3
 8926 0ef8 91       		.byte	0x91
 8927 0ef9 907E     		.sleb128 -240
 8928 0efb 8E060000 		.4byte	.LVL248
 8929 0eff DA060000 		.4byte	.LVL257
 8930 0f03 0600     		.2byte	0x6
 8931 0f05 50       		.byte	0x50
 8932 0f06 93       		.byte	0x93
 8933 0f07 04       		.uleb128 0x4
 8934 0f08 51       		.byte	0x51
 8935 0f09 93       		.byte	0x93
 8936 0f0a 04       		.uleb128 0x4
 8937 0f0b 00000000 		.4byte	0
 8938 0f0f 00000000 		.4byte	0
 8939              	.LLST120:
 8940 0f13 42060000 		.4byte	.LVL236
 8941 0f17 46060000 		.4byte	.LVL237
 8942 0f1b 0600     		.2byte	0x6
 8943 0f1d 5A       		.byte	0x5a
 8944 0f1e 93       		.byte	0x93
 8945 0f1f 04       		.uleb128 0x4
 8946 0f20 5B       		.byte	0x5b
 8947 0f21 93       		.byte	0x93
 8948 0f22 04       		.uleb128 0x4
 8949 0f23 46060000 		.4byte	.LVL237
 8950 0f27 00070000 		.4byte	.LVL265
 8951 0f2b 0200     		.2byte	0x2
 8952 0f2d 7D       		.byte	0x7d
 8953 0f2e 00       		.sleb128 0
 8954 0f2f 00070000 		.4byte	.LVL265
 8955 0f33 04070000 		.4byte	.LFE5
 8956 0f37 0300     		.2byte	0x3
 8957 0f39 91       		.byte	0x91
 8958 0f3a 807E     		.sleb128 -256
 8959 0f3c 00000000 		.4byte	0
 8960 0f40 00000000 		.4byte	0
 8961              	.LLST121:
 8962 0f44 4E060000 		.4byte	.LVL238
 8963 0f48 A8060000 		.4byte	.LVL251
 8964 0f4c 0600     		.2byte	0x6
 8965 0f4e 5A       		.byte	0x5a
 8966 0f4f 93       		.byte	0x93
 8967 0f50 04       		.uleb128 0x4
ARM GAS  C:\Users\bogur\AppData\Local\Temp\cca0k2e0.s 			page 172


 8968 0f51 5B       		.byte	0x5b
 8969 0f52 93       		.byte	0x93
 8970 0f53 04       		.uleb128 0x4
 8971 0f54 00000000 		.4byte	0
 8972 0f58 00000000 		.4byte	0
 8973              	.LLST122:
 8974 0f5c 8E060000 		.4byte	.LVL248
 8975 0f60 C4060000 		.4byte	.LVL255
 8976 0f64 0600     		.2byte	0x6
 8977 0f66 52       		.byte	0x52
 8978 0f67 93       		.byte	0x93
 8979 0f68 04       		.uleb128 0x4
 8980 0f69 53       		.byte	0x53
 8981 0f6a 93       		.byte	0x93
 8982 0f6b 04       		.uleb128 0x4
 8983 0f6c C4060000 		.4byte	.LVL255
 8984 0f70 04070000 		.4byte	.LFE5
 8985 0f74 0300     		.2byte	0x3
 8986 0f76 91       		.byte	0x91
 8987 0f77 907E     		.sleb128 -240
 8988 0f79 00000000 		.4byte	0
 8989 0f7d 00000000 		.4byte	0
 8990              	.LLST123:
 8991 0f81 5A060000 		.4byte	.LVL240
 8992 0f85 AE060000 		.4byte	.LVL253
 8993 0f89 0600     		.2byte	0x6
 8994 0f8b 58       		.byte	0x58
 8995 0f8c 93       		.byte	0x93
 8996 0f8d 04       		.uleb128 0x4
 8997 0f8e 59       		.byte	0x59
 8998 0f8f 93       		.byte	0x93
 8999 0f90 04       		.uleb128 0x4
 9000 0f91 AE060000 		.4byte	.LVL253
 9001 0f95 04070000 		.4byte	.LFE5
 9002 0f99 0200     		.2byte	0x2
 9003 0f9b 7E       		.byte	0x7e
 9004 0f9c 38       		.sleb128 56
 9005 0f9d 00000000 		.4byte	0
 9006 0fa1 00000000 		.4byte	0
 9007              	.LLST124:
 9008 0fa5 6A060000 		.4byte	.LVL243
 9009 0fa9 72060000 		.4byte	.LVL244
 9010 0fad 0600     		.2byte	0x6
 9011 0faf 54       		.byte	0x54
 9012 0fb0 93       		.byte	0x93
 9013 0fb1 04       		.uleb128 0x4
 9014 0fb2 55       		.byte	0x55
 9015 0fb3 93       		.byte	0x93
 9016 0fb4 04       		.uleb128 0x4
 9017 0fb5 72060000 		.4byte	.LVL244
 9018 0fb9 04070000 		.4byte	.LFE5
 9019 0fbd 0200     		.2byte	0x2
 9020 0fbf 7E       		.byte	0x7e
 9021 0fc0 08       		.sleb128 8
 9022 0fc1 00000000 		.4byte	0
 9023 0fc5 00000000 		.4byte	0
 9024              	.LLST125:
ARM GAS  C:\Users\bogur\AppData\Local\Temp\cca0k2e0.s 			page 173


 9025 0fc9 7A060000 		.4byte	.LVL245
 9026 0fcd 82060000 		.4byte	.LVL247
 9027 0fd1 0600     		.2byte	0x6
 9028 0fd3 54       		.byte	0x54
 9029 0fd4 93       		.byte	0x93
 9030 0fd5 04       		.uleb128 0x4
 9031 0fd6 55       		.byte	0x55
 9032 0fd7 93       		.byte	0x93
 9033 0fd8 04       		.uleb128 0x4
 9034 0fd9 82060000 		.4byte	.LVL247
 9035 0fdd 04070000 		.4byte	.LFE5
 9036 0fe1 0300     		.2byte	0x3
 9037 0fe3 91       		.byte	0x91
 9038 0fe4 887E     		.sleb128 -248
 9039 0fe6 00000000 		.4byte	0
 9040 0fea 00000000 		.4byte	0
 9041              	.LLST126:
 9042 0fee 00000000 		.4byte	.LVL266
 9043 0ff2 1C000000 		.4byte	.LVL269
 9044 0ff6 0100     		.2byte	0x1
 9045 0ff8 50       		.byte	0x50
 9046 0ff9 1C000000 		.4byte	.LVL269
 9047 0ffd 06040000 		.4byte	.LFE6
 9048 1001 0100     		.2byte	0x1
 9049 1003 5E       		.byte	0x5e
 9050 1004 00000000 		.4byte	0
 9051 1008 00000000 		.4byte	0
 9052              	.LLST127:
 9053 100c 0C000000 		.4byte	.LVL267
 9054 1010 42000000 		.4byte	.LVL270
 9055 1014 0600     		.2byte	0x6
 9056 1016 54       		.byte	0x54
 9057 1017 93       		.byte	0x93
 9058 1018 04       		.uleb128 0x4
 9059 1019 55       		.byte	0x55
 9060 101a 93       		.byte	0x93
 9061 101b 04       		.uleb128 0x4
 9062 101c 42000000 		.4byte	.LVL270
 9063 1020 D8020000 		.4byte	.LVL295
 9064 1024 0200     		.2byte	0x2
 9065 1026 7E       		.byte	0x7e
 9066 1027 00       		.sleb128 0
 9067 1028 00000000 		.4byte	0
 9068 102c 00000000 		.4byte	0
 9069              	.LLST128:
 9070 1030 10000000 		.4byte	.LVL268
 9071 1034 5E000000 		.4byte	.LVL273
 9072 1038 0600     		.2byte	0x6
 9073 103a 58       		.byte	0x58
 9074 103b 93       		.byte	0x93
 9075 103c 04       		.uleb128 0x4
 9076 103d 59       		.byte	0x59
 9077 103e 93       		.byte	0x93
 9078 103f 04       		.uleb128 0x4
 9079 1040 5E000000 		.4byte	.LVL273
 9080 1044 2C030000 		.4byte	.LVL297
 9081 1048 0200     		.2byte	0x2
ARM GAS  C:\Users\bogur\AppData\Local\Temp\cca0k2e0.s 			page 174


 9082 104a 7E       		.byte	0x7e
 9083 104b 08       		.sleb128 8
 9084 104c 00000000 		.4byte	0
 9085 1050 00000000 		.4byte	0
 9086              	.LLST129:
 9087 1054 56000000 		.4byte	.LVL271
 9088 1058 90000000 		.4byte	.LVL274
 9089 105c 0600     		.2byte	0x6
 9090 105e 56       		.byte	0x56
 9091 105f 93       		.byte	0x93
 9092 1060 04       		.uleb128 0x4
 9093 1061 57       		.byte	0x57
 9094 1062 93       		.byte	0x93
 9095 1063 04       		.uleb128 0x4
 9096 1064 90000000 		.4byte	.LVL274
 9097 1068 84030000 		.4byte	.LVL300
 9098 106c 0200     		.2byte	0x2
 9099 106e 7E       		.byte	0x7e
 9100 106f 10       		.sleb128 16
 9101 1070 00000000 		.4byte	0
 9102 1074 00000000 		.4byte	0
 9103              	.LLST130:
 9104 1078 5A000000 		.4byte	.LVL272
 9105 107c AA000000 		.4byte	.LVL276
 9106 1080 0600     		.2byte	0x6
 9107 1082 5A       		.byte	0x5a
 9108 1083 93       		.byte	0x93
 9109 1084 04       		.uleb128 0x4
 9110 1085 5B       		.byte	0x5b
 9111 1086 93       		.byte	0x93
 9112 1087 04       		.uleb128 0x4
 9113 1088 AA000000 		.4byte	.LVL276
 9114 108c D8030000 		.4byte	.LVL302
 9115 1090 0200     		.2byte	0x2
 9116 1092 7E       		.byte	0x7e
 9117 1093 18       		.sleb128 24
 9118 1094 00000000 		.4byte	0
 9119 1098 00000000 		.4byte	0
 9120              	.LLST131:
 9121 109c A4000000 		.4byte	.LVL275
 9122 10a0 EC000000 		.4byte	.LVL279
 9123 10a4 0600     		.2byte	0x6
 9124 10a6 53       		.byte	0x53
 9125 10a7 93       		.byte	0x93
 9126 10a8 04       		.uleb128 0x4
 9127 10a9 54       		.byte	0x54
 9128 10aa 93       		.byte	0x93
 9129 10ab 04       		.uleb128 0x4
 9130 10ac EC000000 		.4byte	.LVL279
 9131 10b0 04030000 		.4byte	.LVL296
 9132 10b4 0200     		.2byte	0x2
 9133 10b6 7E       		.byte	0x7e
 9134 10b7 20       		.sleb128 32
 9135 10b8 00000000 		.4byte	0
 9136 10bc 00000000 		.4byte	0
 9137              	.LLST132:
 9138 10c0 AC000000 		.4byte	.LVL277
ARM GAS  C:\Users\bogur\AppData\Local\Temp\cca0k2e0.s 			page 175


 9139 10c4 C0000000 		.4byte	.LVL278
 9140 10c8 0600     		.2byte	0x6
 9141 10ca 5A       		.byte	0x5a
 9142 10cb 93       		.byte	0x93
 9143 10cc 04       		.uleb128 0x4
 9144 10cd 5B       		.byte	0x5b
 9145 10ce 93       		.byte	0x93
 9146 10cf 04       		.uleb128 0x4
 9147 10d0 C0000000 		.4byte	.LVL278
 9148 10d4 28010000 		.4byte	.LVL282
 9149 10d8 0200     		.2byte	0x2
 9150 10da 7D       		.byte	0x7d
 9151 10db 00       		.sleb128 0
 9152 10dc 00000000 		.4byte	0
 9153 10e0 00000000 		.4byte	0
 9154              	.LLST133:
 9155 10e4 F8000000 		.4byte	.LVL280
 9156 10e8 A8030000 		.4byte	.LVL301
 9157 10ec 0200     		.2byte	0x2
 9158 10ee 7E       		.byte	0x7e
 9159 10ef 30       		.sleb128 48
 9160 10f0 00000000 		.4byte	0
 9161 10f4 00000000 		.4byte	0
 9162              	.LLST134:
 9163 10f8 FC000000 		.4byte	.LVL281
 9164 10fc 5E010000 		.4byte	.LVL284
 9165 1100 0600     		.2byte	0x6
 9166 1102 5A       		.byte	0x5a
 9167 1103 93       		.byte	0x93
 9168 1104 04       		.uleb128 0x4
 9169 1105 5B       		.byte	0x5b
 9170 1106 93       		.byte	0x93
 9171 1107 04       		.uleb128 0x4
 9172 1108 5E010000 		.4byte	.LVL284
 9173 110c 00040000 		.4byte	.LVL303
 9174 1110 0200     		.2byte	0x2
 9175 1112 7E       		.byte	0x7e
 9176 1113 38       		.sleb128 56
 9177 1114 00000000 		.4byte	0
 9178 1118 00000000 		.4byte	0
 9179              	.LLST135:
 9180 111c 4E010000 		.4byte	.LVL283
 9181 1120 9A010000 		.4byte	.LVL287
 9182 1124 0600     		.2byte	0x6
 9183 1126 50       		.byte	0x50
 9184 1127 93       		.byte	0x93
 9185 1128 04       		.uleb128 0x4
 9186 1129 51       		.byte	0x51
 9187 112a 93       		.byte	0x93
 9188 112b 04       		.uleb128 0x4
 9189 112c 00000000 		.4byte	0
 9190 1130 00000000 		.4byte	0
 9191              	.LLST136:
 9192 1134 4E010000 		.4byte	.LVL283
 9193 1138 7A010000 		.4byte	.LVL285
 9194 113c 0300     		.2byte	0x3
 9195 113e 91       		.byte	0x91
ARM GAS  C:\Users\bogur\AppData\Local\Temp\cca0k2e0.s 			page 176


 9196 113f A07F     		.sleb128 -96
 9197 1141 7A010000 		.4byte	.LVL285
 9198 1145 92010000 		.4byte	.LVL286
 9199 1149 0600     		.2byte	0x6
 9200 114b 54       		.byte	0x54
 9201 114c 93       		.byte	0x93
 9202 114d 04       		.uleb128 0x4
 9203 114e 55       		.byte	0x55
 9204 114f 93       		.byte	0x93
 9205 1150 04       		.uleb128 0x4
 9206 1151 00000000 		.4byte	0
 9207 1155 00000000 		.4byte	0
 9208              	.LLST137:
 9209 1159 A2010000 		.4byte	.LVL288
 9210 115d 2A020000 		.4byte	.LVL292
 9211 1161 0300     		.2byte	0x3
 9212 1163 91       		.byte	0x91
 9213 1164 987F     		.sleb128 -104
 9214 1166 00000000 		.4byte	0
 9215 116a 00000000 		.4byte	0
 9216              	.LLST138:
 9217 116e A2010000 		.4byte	.LVL288
 9218 1172 D2010000 		.4byte	.LVL289
 9219 1176 0300     		.2byte	0x3
 9220 1178 91       		.byte	0x91
 9221 1179 A87F     		.sleb128 -88
 9222 117b D2010000 		.4byte	.LVL289
 9223 117f EA010000 		.4byte	.LVL290
 9224 1183 0600     		.2byte	0x6
 9225 1185 56       		.byte	0x56
 9226 1186 93       		.byte	0x93
 9227 1187 04       		.uleb128 0x4
 9228 1188 57       		.byte	0x57
 9229 1189 93       		.byte	0x93
 9230 118a 04       		.uleb128 0x4
 9231 118b 00000000 		.4byte	0
 9232 118f 00000000 		.4byte	0
 9233              	.LLST139:
 9234 1193 FA010000 		.4byte	.LVL291
 9235 1197 A8020000 		.4byte	.LVL294
 9236 119b 0300     		.2byte	0x3
 9237 119d 91       		.byte	0x91
 9238 119e B07F     		.sleb128 -80
 9239 11a0 00000000 		.4byte	0
 9240 11a4 00000000 		.4byte	0
 9241              	.LLST140:
 9242 11a8 FA010000 		.4byte	.LVL291
 9243 11ac 54020000 		.4byte	.LVL293
 9244 11b0 0200     		.2byte	0x2
 9245 11b2 7D       		.byte	0x7d
 9246 11b3 00       		.sleb128 0
 9247 11b4 00000000 		.4byte	0
 9248 11b8 00000000 		.4byte	0
 9249              	.LLST141:
 9250 11bc 04030000 		.4byte	.LVL296
 9251 11c0 58030000 		.4byte	.LVL299
 9252 11c4 0600     		.2byte	0x6
ARM GAS  C:\Users\bogur\AppData\Local\Temp\cca0k2e0.s 			page 177


 9253 11c6 50       		.byte	0x50
 9254 11c7 93       		.byte	0x93
 9255 11c8 04       		.uleb128 0x4
 9256 11c9 51       		.byte	0x51
 9257 11ca 93       		.byte	0x93
 9258 11cb 04       		.uleb128 0x4
 9259 11cc 00000000 		.4byte	0
 9260 11d0 00000000 		.4byte	0
 9261              	.LLST142:
 9262 11d4 54030000 		.4byte	.LVL298
 9263 11d8 02040000 		.4byte	.LVL304
 9264 11dc 0200     		.2byte	0x2
 9265 11de 7D       		.byte	0x7d
 9266 11df 00       		.sleb128 0
 9267 11e0 02040000 		.4byte	.LVL304
 9268 11e4 06040000 		.4byte	.LFE6
 9269 11e8 0600     		.2byte	0x6
 9270 11ea 58       		.byte	0x58
 9271 11eb 93       		.byte	0x93
 9272 11ec 04       		.uleb128 0x4
 9273 11ed 59       		.byte	0x59
 9274 11ee 93       		.byte	0x93
 9275 11ef 04       		.uleb128 0x4
 9276 11f0 00000000 		.4byte	0
 9277 11f4 00000000 		.4byte	0
 9278              	.LLST143:
 9279 11f8 00000000 		.4byte	.LVL305
 9280 11fc 2E000000 		.4byte	.LVL311
 9281 1200 0100     		.2byte	0x1
 9282 1202 52       		.byte	0x52
 9283 1203 2E000000 		.4byte	.LVL311
 9284 1207 44010000 		.4byte	.LFE7
 9285 120b 0400     		.2byte	0x4
 9286 120d F3       		.byte	0xf3
 9287 120e 01       		.uleb128 0x1
 9288 120f 52       		.byte	0x52
 9289 1210 9F       		.byte	0x9f
 9290 1211 00000000 		.4byte	0
 9291 1215 00000000 		.4byte	0
 9292              	.LLST144:
 9293 1219 0A000000 		.4byte	.LVL306
 9294 121d 3A000000 		.4byte	.LVL312
 9295 1221 0600     		.2byte	0x6
 9296 1223 56       		.byte	0x56
 9297 1224 93       		.byte	0x93
 9298 1225 04       		.uleb128 0x4
 9299 1226 57       		.byte	0x57
 9300 1227 93       		.byte	0x93
 9301 1228 04       		.uleb128 0x4
 9302 1229 3A000000 		.4byte	.LVL312
 9303 122d 3E000000 		.4byte	.LVL313
 9304 1231 0600     		.2byte	0x6
 9305 1233 54       		.byte	0x54
 9306 1234 93       		.byte	0x93
 9307 1235 04       		.uleb128 0x4
 9308 1236 55       		.byte	0x55
 9309 1237 93       		.byte	0x93
ARM GAS  C:\Users\bogur\AppData\Local\Temp\cca0k2e0.s 			page 178


 9310 1238 04       		.uleb128 0x4
 9311 1239 3E000000 		.4byte	.LVL313
 9312 123d 90000000 		.4byte	.LVL319
 9313 1241 0200     		.2byte	0x2
 9314 1243 91       		.byte	0x91
 9315 1244 50       		.sleb128 -48
 9316 1245 90000000 		.4byte	.LVL319
 9317 1249 C8000000 		.4byte	.LVL324
 9318 124d 0600     		.2byte	0x6
 9319 124f 56       		.byte	0x56
 9320 1250 93       		.byte	0x93
 9321 1251 04       		.uleb128 0x4
 9322 1252 57       		.byte	0x57
 9323 1253 93       		.byte	0x93
 9324 1254 04       		.uleb128 0x4
 9325 1255 C8000000 		.4byte	.LVL324
 9326 1259 F8000000 		.4byte	.LVL330
 9327 125d 0600     		.2byte	0x6
 9328 125f 58       		.byte	0x58
 9329 1260 93       		.byte	0x93
 9330 1261 04       		.uleb128 0x4
 9331 1262 59       		.byte	0x59
 9332 1263 93       		.byte	0x93
 9333 1264 04       		.uleb128 0x4
 9334 1265 FC000000 		.4byte	.LVL331
 9335 1269 18010000 		.4byte	.LVL334
 9336 126d 0600     		.2byte	0x6
 9337 126f 58       		.byte	0x58
 9338 1270 93       		.byte	0x93
 9339 1271 04       		.uleb128 0x4
 9340 1272 59       		.byte	0x59
 9341 1273 93       		.byte	0x93
 9342 1274 04       		.uleb128 0x4
 9343 1275 00000000 		.4byte	0
 9344 1279 00000000 		.4byte	0
 9345              	.LLST145:
 9346 127d 16000000 		.4byte	.LVL307
 9347 1281 1A000000 		.4byte	.LVL308
 9348 1285 0600     		.2byte	0x6
 9349 1287 58       		.byte	0x58
 9350 1288 93       		.byte	0x93
 9351 1289 04       		.uleb128 0x4
 9352 128a 59       		.byte	0x59
 9353 128b 93       		.byte	0x93
 9354 128c 04       		.uleb128 0x4
 9355 128d 1A000000 		.4byte	.LVL308
 9356 1291 54000000 		.4byte	.LVL314
 9357 1295 0200     		.2byte	0x2
 9358 1297 7D       		.byte	0x7d
 9359 1298 00       		.sleb128 0
 9360 1299 54000000 		.4byte	.LVL314
 9361 129d 88000000 		.4byte	.LVL318
 9362 12a1 0600     		.2byte	0x6
 9363 12a3 56       		.byte	0x56
 9364 12a4 93       		.byte	0x93
 9365 12a5 04       		.uleb128 0x4
 9366 12a6 57       		.byte	0x57
ARM GAS  C:\Users\bogur\AppData\Local\Temp\cca0k2e0.s 			page 179


 9367 12a7 93       		.byte	0x93
 9368 12a8 04       		.uleb128 0x4
 9369 12a9 88000000 		.4byte	.LVL318
 9370 12ad 9C000000 		.4byte	.LVL321
 9371 12b1 0200     		.2byte	0x2
 9372 12b3 7D       		.byte	0x7d
 9373 12b4 00       		.sleb128 0
 9374 12b5 9C000000 		.4byte	.LVL321
 9375 12b9 D4000000 		.4byte	.LVL325
 9376 12bd 0600     		.2byte	0x6
 9377 12bf 54       		.byte	0x54
 9378 12c0 93       		.byte	0x93
 9379 12c1 04       		.uleb128 0x4
 9380 12c2 55       		.byte	0x55
 9381 12c3 93       		.byte	0x93
 9382 12c4 04       		.uleb128 0x4
 9383 12c5 D4000000 		.4byte	.LVL325
 9384 12c9 00010000 		.4byte	.LVL332
 9385 12cd 0600     		.2byte	0x6
 9386 12cf 56       		.byte	0x56
 9387 12d0 93       		.byte	0x93
 9388 12d1 04       		.uleb128 0x4
 9389 12d2 57       		.byte	0x57
 9390 12d3 93       		.byte	0x93
 9391 12d4 04       		.uleb128 0x4
 9392 12d5 04010000 		.4byte	.LVL333
 9393 12d9 36010000 		.4byte	.LVL336
 9394 12dd 0600     		.2byte	0x6
 9395 12df 56       		.byte	0x56
 9396 12e0 93       		.byte	0x93
 9397 12e1 04       		.uleb128 0x4
 9398 12e2 57       		.byte	0x57
 9399 12e3 93       		.byte	0x93
 9400 12e4 04       		.uleb128 0x4
 9401 12e5 00000000 		.4byte	0
 9402 12e9 00000000 		.4byte	0
 9403              	.LLST146:
 9404 12ed 1E000000 		.4byte	.LVL309
 9405 12f1 62000000 		.4byte	.LVL315
 9406 12f5 0600     		.2byte	0x6
 9407 12f7 58       		.byte	0x58
 9408 12f8 93       		.byte	0x93
 9409 12f9 04       		.uleb128 0x4
 9410 12fa 59       		.byte	0x59
 9411 12fb 93       		.byte	0x93
 9412 12fc 04       		.uleb128 0x4
 9413 12fd 66000000 		.4byte	.LVL316
 9414 1301 A4000000 		.4byte	.LVL322
 9415 1305 0600     		.2byte	0x6
 9416 1307 58       		.byte	0x58
 9417 1308 93       		.byte	0x93
 9418 1309 04       		.uleb128 0x4
 9419 130a 59       		.byte	0x59
 9420 130b 93       		.byte	0x93
 9421 130c 04       		.uleb128 0x4
 9422 130d A4000000 		.4byte	.LVL322
 9423 1311 DE000000 		.4byte	.LVL326
ARM GAS  C:\Users\bogur\AppData\Local\Temp\cca0k2e0.s 			page 180


 9424 1315 0600     		.2byte	0x6
 9425 1317 52       		.byte	0x52
 9426 1318 93       		.byte	0x93
 9427 1319 04       		.uleb128 0x4
 9428 131a 53       		.byte	0x53
 9429 131b 93       		.byte	0x93
 9430 131c 04       		.uleb128 0x4
 9431 131d E0000000 		.4byte	.LVL327
 9432 1321 04010000 		.4byte	.LVL333
 9433 1325 0600     		.2byte	0x6
 9434 1327 52       		.byte	0x52
 9435 1328 93       		.byte	0x93
 9436 1329 04       		.uleb128 0x4
 9437 132a 53       		.byte	0x53
 9438 132b 93       		.byte	0x93
 9439 132c 04       		.uleb128 0x4
 9440 132d 04010000 		.4byte	.LVL333
 9441 1331 2C010000 		.4byte	.LVL335
 9442 1335 1000     		.2byte	0x10
 9443 1337 F5       		.byte	0xf5
 9444 1338 02       		.uleb128 0x2
 9445 1339 25       		.uleb128 0x25
 9446 133a F4       		.byte	0xf4
 9447 133b 25       		.uleb128 0x25
 9448 133c 08       		.byte	0x8
 9449 133d FF00FF00 		.8byte	0xff00ff00ff00ff
 9449      FF00FF00 
 9450 1345 1A       		.byte	0x1a
 9451 1346 9F       		.byte	0x9f
 9452 1347 00000000 		.4byte	0
 9453 134b 00000000 		.4byte	0
 9454              	.LLST147:
 9455 134f 26000000 		.4byte	.LVL310
 9456 1353 7C000000 		.4byte	.LVL317
 9457 1357 0600     		.2byte	0x6
 9458 1359 5A       		.byte	0x5a
 9459 135a 93       		.byte	0x93
 9460 135b 04       		.uleb128 0x4
 9461 135c 5B       		.byte	0x5b
 9462 135d 93       		.byte	0x93
 9463 135e 04       		.uleb128 0x4
 9464 135f 7C000000 		.4byte	.LVL317
 9465 1363 94000000 		.4byte	.LVL320
 9466 1367 0600     		.2byte	0x6
 9467 1369 54       		.byte	0x54
 9468 136a 93       		.byte	0x93
 9469 136b 04       		.uleb128 0x4
 9470 136c 55       		.byte	0x55
 9471 136d 93       		.byte	0x93
 9472 136e 04       		.uleb128 0x4
 9473 136f 94000000 		.4byte	.LVL320
 9474 1373 B4000000 		.4byte	.LVL323
 9475 1377 0200     		.2byte	0x2
 9476 1379 91       		.byte	0x91
 9477 137a 58       		.sleb128 -40
 9478 137b B4000000 		.4byte	.LVL323
 9479 137f F0000000 		.4byte	.LVL328
ARM GAS  C:\Users\bogur\AppData\Local\Temp\cca0k2e0.s 			page 181


 9480 1383 0600     		.2byte	0x6
 9481 1385 5A       		.byte	0x5a
 9482 1386 93       		.byte	0x93
 9483 1387 04       		.uleb128 0x4
 9484 1388 5B       		.byte	0x5b
 9485 1389 93       		.byte	0x93
 9486 138a 04       		.uleb128 0x4
 9487 138b F4000000 		.4byte	.LVL329
 9488 138f 04010000 		.4byte	.LVL333
 9489 1393 0600     		.2byte	0x6
 9490 1395 5A       		.byte	0x5a
 9491 1396 93       		.byte	0x93
 9492 1397 04       		.uleb128 0x4
 9493 1398 5B       		.byte	0x5b
 9494 1399 93       		.byte	0x93
 9495 139a 04       		.uleb128 0x4
 9496 139b 04010000 		.4byte	.LVL333
 9497 139f 42010000 		.4byte	.LVL337
 9498 13a3 1000     		.2byte	0x10
 9499 13a5 F5       		.byte	0xf5
 9500 13a6 0A       		.uleb128 0xa
 9501 13a7 25       		.uleb128 0x25
 9502 13a8 F4       		.byte	0xf4
 9503 13a9 25       		.uleb128 0x25
 9504 13aa 08       		.byte	0x8
 9505 13ab FF00FF00 		.8byte	0xff00ff00ff00ff
 9505      FF00FF00 
 9506 13b3 1A       		.byte	0x1a
 9507 13b4 9F       		.byte	0x9f
 9508 13b5 00000000 		.4byte	0
 9509 13b9 00000000 		.4byte	0
 9510              	.LLST148:
 9511 13bd 00000000 		.4byte	.LVL338
 9512 13c1 0A000000 		.4byte	.LVL339
 9513 13c5 0100     		.2byte	0x1
 9514 13c7 50       		.byte	0x50
 9515 13c8 0A000000 		.4byte	.LVL339
 9516 13cc CA000000 		.4byte	.LFE8
 9517 13d0 0100     		.2byte	0x1
 9518 13d2 5E       		.byte	0x5e
 9519 13d3 00000000 		.4byte	0
 9520 13d7 00000000 		.4byte	0
 9521              	.LLST149:
 9522 13db 00000000 		.4byte	.LVL338
 9523 13df 26000000 		.4byte	.LVL342
 9524 13e3 0600     		.2byte	0x6
 9525 13e5 52       		.byte	0x52
 9526 13e6 93       		.byte	0x93
 9527 13e7 04       		.uleb128 0x4
 9528 13e8 53       		.byte	0x53
 9529 13e9 93       		.byte	0x93
 9530 13ea 04       		.uleb128 0x4
 9531 13eb 26000000 		.4byte	.LVL342
 9532 13ef CA000000 		.4byte	.LFE8
 9533 13f3 0600     		.2byte	0x6
 9534 13f5 F3       		.byte	0xf3
 9535 13f6 03       		.uleb128 0x3
ARM GAS  C:\Users\bogur\AppData\Local\Temp\cca0k2e0.s 			page 182


 9536 13f7 F5       		.byte	0xf5
 9537 13f8 02       		.uleb128 0x2
 9538 13f9 25       		.uleb128 0x25
 9539 13fa 9F       		.byte	0x9f
 9540 13fb 00000000 		.4byte	0
 9541 13ff 00000000 		.4byte	0
 9542              	.LLST150:
 9543 1403 12000000 		.4byte	.LVL340
 9544 1407 4E000000 		.4byte	.LVL345
 9545 140b 0600     		.2byte	0x6
 9546 140d 58       		.byte	0x58
 9547 140e 93       		.byte	0x93
 9548 140f 04       		.uleb128 0x4
 9549 1410 59       		.byte	0x59
 9550 1411 93       		.byte	0x93
 9551 1412 04       		.uleb128 0x4
 9552 1413 52000000 		.4byte	.LVL346
 9553 1417 8A000000 		.4byte	.LVL351
 9554 141b 0600     		.2byte	0x6
 9555 141d 58       		.byte	0x58
 9556 141e 93       		.byte	0x93
 9557 141f 04       		.uleb128 0x4
 9558 1420 59       		.byte	0x59
 9559 1421 93       		.byte	0x93
 9560 1422 04       		.uleb128 0x4
 9561 1423 8E000000 		.4byte	.LVL352
 9562 1427 CA000000 		.4byte	.LFE8
 9563 142b 0600     		.2byte	0x6
 9564 142d 58       		.byte	0x58
 9565 142e 93       		.byte	0x93
 9566 142f 04       		.uleb128 0x4
 9567 1430 59       		.byte	0x59
 9568 1431 93       		.byte	0x93
 9569 1432 04       		.uleb128 0x4
 9570 1433 00000000 		.4byte	0
 9571 1437 00000000 		.4byte	0
 9572              	.LLST151:
 9573 143b 1A000000 		.4byte	.LVL341
 9574 143f 5C000000 		.4byte	.LVL347
 9575 1443 0600     		.2byte	0x6
 9576 1445 56       		.byte	0x56
 9577 1446 93       		.byte	0x93
 9578 1447 04       		.uleb128 0x4
 9579 1448 57       		.byte	0x57
 9580 1449 93       		.byte	0x93
 9581 144a 04       		.uleb128 0x4
 9582 144b 5E000000 		.4byte	.LVL348
 9583 144f 92000000 		.4byte	.LVL353
 9584 1453 0600     		.2byte	0x6
 9585 1455 56       		.byte	0x56
 9586 1456 93       		.byte	0x93
 9587 1457 04       		.uleb128 0x4
 9588 1458 57       		.byte	0x57
 9589 1459 93       		.byte	0x93
 9590 145a 04       		.uleb128 0x4
 9591 145b 96000000 		.4byte	.LVL354
 9592 145f B2000000 		.4byte	.LVL358
ARM GAS  C:\Users\bogur\AppData\Local\Temp\cca0k2e0.s 			page 183


 9593 1463 0600     		.2byte	0x6
 9594 1465 56       		.byte	0x56
 9595 1466 93       		.byte	0x93
 9596 1467 04       		.uleb128 0x4
 9597 1468 57       		.byte	0x57
 9598 1469 93       		.byte	0x93
 9599 146a 04       		.uleb128 0x4
 9600 146b 00000000 		.4byte	0
 9601 146f 00000000 		.4byte	0
 9602              	.LLST152:
 9603 1473 2A000000 		.4byte	.LVL343
 9604 1477 6A000000 		.4byte	.LVL349
 9605 147b 0600     		.2byte	0x6
 9606 147d 52       		.byte	0x52
 9607 147e 93       		.byte	0x93
 9608 147f 04       		.uleb128 0x4
 9609 1480 53       		.byte	0x53
 9610 1481 93       		.byte	0x93
 9611 1482 04       		.uleb128 0x4
 9612 1483 6A000000 		.4byte	.LVL349
 9613 1487 9A000000 		.4byte	.LVL355
 9614 148b 0600     		.2byte	0x6
 9615 148d 54       		.byte	0x54
 9616 148e 93       		.byte	0x93
 9617 148f 04       		.uleb128 0x4
 9618 1490 55       		.byte	0x55
 9619 1491 93       		.byte	0x93
 9620 1492 04       		.uleb128 0x4
 9621 1493 9E000000 		.4byte	.LVL356
 9622 1497 BA000000 		.4byte	.LVL359
 9623 149b 0600     		.2byte	0x6
 9624 149d 54       		.byte	0x54
 9625 149e 93       		.byte	0x93
 9626 149f 04       		.uleb128 0x4
 9627 14a0 55       		.byte	0x55
 9628 14a1 93       		.byte	0x93
 9629 14a2 04       		.uleb128 0x4
 9630 14a3 00000000 		.4byte	0
 9631 14a7 00000000 		.4byte	0
 9632              	.LLST153:
 9633 14ab 3E000000 		.4byte	.LVL344
 9634 14af 7E000000 		.4byte	.LVL350
 9635 14b3 0600     		.2byte	0x6
 9636 14b5 5A       		.byte	0x5a
 9637 14b6 93       		.byte	0x93
 9638 14b7 04       		.uleb128 0x4
 9639 14b8 5B       		.byte	0x5b
 9640 14b9 93       		.byte	0x93
 9641 14ba 04       		.uleb128 0x4
 9642 14bb 7E000000 		.4byte	.LVL350
 9643 14bf A6000000 		.4byte	.LVL357
 9644 14c3 0600     		.2byte	0x6
 9645 14c5 52       		.byte	0x52
 9646 14c6 93       		.byte	0x93
 9647 14c7 04       		.uleb128 0x4
 9648 14c8 53       		.byte	0x53
 9649 14c9 93       		.byte	0x93
ARM GAS  C:\Users\bogur\AppData\Local\Temp\cca0k2e0.s 			page 184


 9650 14ca 04       		.uleb128 0x4
 9651 14cb A6000000 		.4byte	.LVL357
 9652 14cf CA000000 		.4byte	.LFE8
 9653 14d3 0600     		.2byte	0x6
 9654 14d5 5A       		.byte	0x5a
 9655 14d6 93       		.byte	0x93
 9656 14d7 04       		.uleb128 0x4
 9657 14d8 5B       		.byte	0x5b
 9658 14d9 93       		.byte	0x93
 9659 14da 04       		.uleb128 0x4
 9660 14db 00000000 		.4byte	0
 9661 14df 00000000 		.4byte	0
 9662              	.LLST154:
 9663 14e3 00000000 		.4byte	.LVL360
 9664 14e7 10000000 		.4byte	.LVL363
 9665 14eb 0100     		.2byte	0x1
 9666 14ed 50       		.byte	0x50
 9667 14ee 10000000 		.4byte	.LVL363
 9668 14f2 04010000 		.4byte	.LFE11
 9669 14f6 0200     		.2byte	0x2
 9670 14f8 91       		.byte	0x91
 9671 14f9 54       		.sleb128 -44
 9672 14fa 00000000 		.4byte	0
 9673 14fe 00000000 		.4byte	0
 9674              	.LLST155:
 9675 1502 00000000 		.4byte	.LVL360
 9676 1506 0A000000 		.4byte	.LVL362
 9677 150a 0100     		.2byte	0x1
 9678 150c 51       		.byte	0x51
 9679 150d 0A000000 		.4byte	.LVL362
 9680 1511 04010000 		.4byte	.LFE11
 9681 1515 0100     		.2byte	0x1
 9682 1517 5C       		.byte	0x5c
 9683 1518 00000000 		.4byte	0
 9684 151c 00000000 		.4byte	0
 9685              	.LLST156:
 9686 1520 08000000 		.4byte	.LVL361
 9687 1524 10000000 		.4byte	.LVL363
 9688 1528 0200     		.2byte	0x2
 9689 152a 30       		.byte	0x30
 9690 152b 9F       		.byte	0x9f
 9691 152c 10000000 		.4byte	.LVL363
 9692 1530 04010000 		.4byte	.LFE11
 9693 1534 0100     		.2byte	0x1
 9694 1536 5E       		.byte	0x5e
 9695 1537 00000000 		.4byte	0
 9696 153b 00000000 		.4byte	0
 9697              	.LLST157:
 9698 153f 08000000 		.4byte	.LVL361
 9699 1543 10000000 		.4byte	.LVL363
 9700 1547 0200     		.2byte	0x2
 9701 1549 30       		.byte	0x30
 9702 154a 9F       		.byte	0x9f
 9703 154b 10000000 		.4byte	.LVL363
 9704 154f 04010000 		.4byte	.LFE11
 9705 1553 0100     		.2byte	0x1
 9706 1555 51       		.byte	0x51
ARM GAS  C:\Users\bogur\AppData\Local\Temp\cca0k2e0.s 			page 185


 9707 1556 00000000 		.4byte	0
 9708 155a 00000000 		.4byte	0
 9709              	.LLST158:
 9710 155e 18000000 		.4byte	.LVL364
 9711 1562 20000000 		.4byte	.LVL365
 9712 1566 0600     		.2byte	0x6
 9713 1568 54       		.byte	0x54
 9714 1569 93       		.byte	0x93
 9715 156a 04       		.uleb128 0x4
 9716 156b 55       		.byte	0x55
 9717 156c 93       		.byte	0x93
 9718 156d 04       		.uleb128 0x4
 9719 156e 20000000 		.4byte	.LVL365
 9720 1572 78000000 		.4byte	.LVL371
 9721 1576 0600     		.2byte	0x6
 9722 1578 56       		.byte	0x56
 9723 1579 93       		.byte	0x93
 9724 157a 04       		.uleb128 0x4
 9725 157b 57       		.byte	0x57
 9726 157c 93       		.byte	0x93
 9727 157d 04       		.uleb128 0x4
 9728 157e 00000000 		.4byte	0
 9729 1582 00000000 		.4byte	0
 9730              	.LLST159:
 9731 1586 18000000 		.4byte	.LVL364
 9732 158a 20000000 		.4byte	.LVL365
 9733 158e 0600     		.2byte	0x6
 9734 1590 54       		.byte	0x54
 9735 1591 93       		.byte	0x93
 9736 1592 04       		.uleb128 0x4
 9737 1593 55       		.byte	0x55
 9738 1594 93       		.byte	0x93
 9739 1595 04       		.uleb128 0x4
 9740 1596 20000000 		.4byte	.LVL365
 9741 159a 2E000000 		.4byte	.LVL366
 9742 159e 1000     		.2byte	0x10
 9743 15a0 F5       		.byte	0xf5
 9744 15a1 04       		.uleb128 0x4
 9745 15a2 25       		.uleb128 0x25
 9746 15a3 F4       		.byte	0xf4
 9747 15a4 25       		.uleb128 0x25
 9748 15a5 08       		.byte	0x8
 9749 15a6 22222222 		.8byte	0x2222222222222222
 9749      22222222 
 9750 15ae 1A       		.byte	0x1a
 9751 15af 9F       		.byte	0x9f
 9752 15b0 2E000000 		.4byte	.LVL366
 9753 15b4 9E000000 		.4byte	.LVL372
 9754 15b8 0600     		.2byte	0x6
 9755 15ba 52       		.byte	0x52
 9756 15bb 93       		.byte	0x93
 9757 15bc 04       		.uleb128 0x4
 9758 15bd 53       		.byte	0x53
 9759 15be 93       		.byte	0x93
 9760 15bf 04       		.uleb128 0x4
 9761 15c0 00000000 		.4byte	0
 9762 15c4 00000000 		.4byte	0
ARM GAS  C:\Users\bogur\AppData\Local\Temp\cca0k2e0.s 			page 186


 9763              	.LLST160:
 9764 15c8 18000000 		.4byte	.LVL364
 9765 15cc 20000000 		.4byte	.LVL365
 9766 15d0 0600     		.2byte	0x6
 9767 15d2 54       		.byte	0x54
 9768 15d3 93       		.byte	0x93
 9769 15d4 04       		.uleb128 0x4
 9770 15d5 55       		.byte	0x55
 9771 15d6 93       		.byte	0x93
 9772 15d7 04       		.uleb128 0x4
 9773 15d8 20000000 		.4byte	.LVL365
 9774 15dc 46000000 		.4byte	.LVL367
 9775 15e0 1000     		.2byte	0x10
 9776 15e2 F5       		.byte	0xf5
 9777 15e3 04       		.uleb128 0x4
 9778 15e4 25       		.uleb128 0x25
 9779 15e5 F4       		.byte	0xf4
 9780 15e6 25       		.uleb128 0x25
 9781 15e7 08       		.byte	0x8
 9782 15e8 44444444 		.8byte	0x4444444444444444
 9782      44444444 
 9783 15f0 1A       		.byte	0x1a
 9784 15f1 9F       		.byte	0x9f
 9785 15f2 46000000 		.4byte	.LVL367
 9786 15f6 C8000000 		.4byte	.LVL373
 9787 15fa 0600     		.2byte	0x6
 9788 15fc 58       		.byte	0x58
 9789 15fd 93       		.byte	0x93
 9790 15fe 04       		.uleb128 0x4
 9791 15ff 59       		.byte	0x59
 9792 1600 93       		.byte	0x93
 9793 1601 04       		.uleb128 0x4
 9794 1602 00000000 		.4byte	0
 9795 1606 00000000 		.4byte	0
 9796              	.LLST161:
 9797 160a 18000000 		.4byte	.LVL364
 9798 160e 20000000 		.4byte	.LVL365
 9799 1612 0600     		.2byte	0x6
 9800 1614 54       		.byte	0x54
 9801 1615 93       		.byte	0x93
 9802 1616 04       		.uleb128 0x4
 9803 1617 55       		.byte	0x55
 9804 1618 93       		.byte	0x93
 9805 1619 04       		.uleb128 0x4
 9806 161a 20000000 		.4byte	.LVL365
 9807 161e 56000000 		.4byte	.LVL368
 9808 1622 1000     		.2byte	0x10
 9809 1624 F5       		.byte	0xf5
 9810 1625 04       		.uleb128 0x4
 9811 1626 25       		.uleb128 0x25
 9812 1627 F4       		.byte	0xf4
 9813 1628 25       		.uleb128 0x25
 9814 1629 08       		.byte	0x8
 9815 162a 88888888 		.8byte	0x8888888888888888
 9815      88888888 
 9816 1632 1A       		.byte	0x1a
 9817 1633 9F       		.byte	0x9f
ARM GAS  C:\Users\bogur\AppData\Local\Temp\cca0k2e0.s 			page 187


 9818 1634 56000000 		.4byte	.LVL368
 9819 1638 62000000 		.4byte	.LVL369
 9820 163c 1700     		.2byte	0x17
 9821 163e 7E       		.byte	0x7e
 9822 163f 00       		.sleb128 0
 9823 1640 33       		.byte	0x33
 9824 1641 24       		.byte	0x24
 9825 1642 7C       		.byte	0x7c
 9826 1643 00       		.sleb128 0
 9827 1644 22       		.byte	0x22
 9828 1645 F6       		.byte	0xf6
 9829 1646 08       		.byte	0x8
 9830 1647 25       		.uleb128 0x25
 9831 1648 F4       		.byte	0xf4
 9832 1649 25       		.uleb128 0x25
 9833 164a 08       		.byte	0x8
 9834 164b 88888888 		.8byte	0x8888888888888888
 9834      88888888 
 9835 1653 1A       		.byte	0x1a
 9836 1654 9F       		.byte	0x9f
 9837 1655 62000000 		.4byte	.LVL369
 9838 1659 68000000 		.4byte	.LVL370
 9839 165d 0600     		.2byte	0x6
 9840 165f 54       		.byte	0x54
 9841 1660 93       		.byte	0x93
 9842 1661 04       		.uleb128 0x4
 9843 1662 55       		.byte	0x55
 9844 1663 93       		.byte	0x93
 9845 1664 04       		.uleb128 0x4
 9846 1665 68000000 		.4byte	.LVL370
 9847 1669 F8000000 		.4byte	.LVL375
 9848 166d 0200     		.2byte	0x2
 9849 166f 91       		.byte	0x91
 9850 1670 48       		.sleb128 -56
 9851 1671 00000000 		.4byte	0
 9852 1675 00000000 		.4byte	0
 9853              	.LLST162:
 9854 1679 02000000 		.4byte	.LVL377
 9855 167d 0A000000 		.4byte	.LVL378
 9856 1681 0100     		.2byte	0x1
 9857 1683 52       		.byte	0x52
 9858 1684 0A000000 		.4byte	.LVL378
 9859 1688 10000000 		.4byte	.LVL379
 9860 168c 0200     		.2byte	0x2
 9861 168e 70       		.byte	0x70
 9862 168f 00       		.sleb128 0
 9863 1690 10000000 		.4byte	.LVL379
 9864 1694 14000000 		.4byte	.LVL380
 9865 1698 0100     		.2byte	0x1
 9866 169a 53       		.byte	0x53
 9867 169b 00000000 		.4byte	0
 9868 169f 00000000 		.4byte	0
 9869              	.LLST163:
 9870 16a3 16000000 		.4byte	.LVL381
 9871 16a7 1E000000 		.4byte	.LVL382
 9872 16ab 0100     		.2byte	0x1
 9873 16ad 53       		.byte	0x53
ARM GAS  C:\Users\bogur\AppData\Local\Temp\cca0k2e0.s 			page 188


 9874 16ae 1E000000 		.4byte	.LVL382
 9875 16b2 24000000 		.4byte	.LVL383
 9876 16b6 2400     		.2byte	0x24
 9877 16b8 70       		.byte	0x70
 9878 16b9 00       		.sleb128 0
 9879 16ba 06       		.byte	0x6
 9880 16bb 38       		.byte	0x38
 9881 16bc 24       		.byte	0x24
 9882 16bd 11       		.byte	0x11
 9883 16be 80FE8378 		.sleb128 -16711936
 9884 16c2 1A       		.byte	0x1a
 9885 16c3 70       		.byte	0x70
 9886 16c4 00       		.sleb128 0
 9887 16c5 06       		.byte	0x6
 9888 16c6 38       		.byte	0x38
 9889 16c7 25       		.byte	0x25
 9890 16c8 0C       		.byte	0xc
 9891 16c9 FF00FF00 		.4byte	0xff00ff
 9892 16cd 1A       		.byte	0x1a
 9893 16ce 21       		.byte	0x21
 9894 16cf 40       		.byte	0x40
 9895 16d0 14       		.byte	0x14
 9896 16d1 14       		.byte	0x14
 9897 16d2 1F       		.byte	0x1f
 9898 16d3 23       		.byte	0x23
 9899 16d4 20       		.uleb128 0x20
 9900 16d5 24       		.byte	0x24
 9901 16d6 17       		.byte	0x17
 9902 16d7 25       		.byte	0x25
 9903 16d8 21       		.byte	0x21
 9904 16d9 23       		.byte	0x23
 9905 16da 04       		.uleb128 0x4
 9906 16db 9F       		.byte	0x9f
 9907 16dc 24000000 		.4byte	.LVL383
 9908 16e0 28000000 		.4byte	.LVL384
 9909 16e4 0100     		.2byte	0x1
 9910 16e6 53       		.byte	0x53
 9911 16e7 00000000 		.4byte	0
 9912 16eb 00000000 		.4byte	0
 9913              	.LLST164:
 9914 16ef 00000000 		.4byte	.LVL385
 9915 16f3 0C000000 		.4byte	.LVL386
 9916 16f7 0100     		.2byte	0x1
 9917 16f9 50       		.byte	0x50
 9918 16fa 0C000000 		.4byte	.LVL386
 9919 16fe 2A000000 		.4byte	.LFE9
 9920 1702 0100     		.2byte	0x1
 9921 1704 54       		.byte	0x54
 9922 1705 00000000 		.4byte	0
 9923 1709 00000000 		.4byte	0
 9924              	.LLST165:
 9925 170d 00000000 		.4byte	.LVL391
 9926 1711 0E000000 		.4byte	.LVL394
 9927 1715 0100     		.2byte	0x1
 9928 1717 50       		.byte	0x50
 9929 1718 0E000000 		.4byte	.LVL394
 9930 171c 38010000 		.4byte	.LVL416
ARM GAS  C:\Users\bogur\AppData\Local\Temp\cca0k2e0.s 			page 189


 9931 1720 0100     		.2byte	0x1
 9932 1722 56       		.byte	0x56
 9933 1723 38010000 		.4byte	.LVL416
 9934 1727 3C010000 		.4byte	.LFE10
 9935 172b 0400     		.2byte	0x4
 9936 172d F3       		.byte	0xf3
 9937 172e 01       		.uleb128 0x1
 9938 172f 50       		.byte	0x50
 9939 1730 9F       		.byte	0x9f
 9940 1731 00000000 		.4byte	0
 9941 1735 00000000 		.4byte	0
 9942              	.LLST166:
 9943 1739 00000000 		.4byte	.LVL391
 9944 173d 0C000000 		.4byte	.LVL393
 9945 1741 0100     		.2byte	0x1
 9946 1743 51       		.byte	0x51
 9947 1744 0C000000 		.4byte	.LVL393
 9948 1748 11000000 		.4byte	.LVL395-1
 9949 174c 0100     		.2byte	0x1
 9950 174e 52       		.byte	0x52
 9951 174f 11000000 		.4byte	.LVL395-1
 9952 1753 3C010000 		.4byte	.LFE10
 9953 1757 0400     		.2byte	0x4
 9954 1759 F3       		.byte	0xf3
 9955 175a 01       		.uleb128 0x1
 9956 175b 51       		.byte	0x51
 9957 175c 9F       		.byte	0x9f
 9958 175d 00000000 		.4byte	0
 9959 1761 00000000 		.4byte	0
 9960              	.LLST167:
 9961 1765 14000000 		.4byte	.LVL396
 9962 1769 1C000000 		.4byte	.LVL397
 9963 176d 0200     		.2byte	0x2
 9964 176f 38       		.byte	0x38
 9965 1770 9F       		.byte	0x9f
 9966 1771 1C000000 		.4byte	.LVL397
 9967 1775 62000000 		.4byte	.LVL410
 9968 1779 0100     		.2byte	0x1
 9969 177b 54       		.byte	0x54
 9970 177c 64000000 		.4byte	.LVL411
 9971 1780 38010000 		.4byte	.LVL416
 9972 1784 0100     		.2byte	0x1
 9973 1786 54       		.byte	0x54
 9974 1787 00000000 		.4byte	0
 9975 178b 00000000 		.4byte	0
 9976              	.LLST168:
 9977 178f 14000000 		.4byte	.LVL396
 9978 1793 1C000000 		.4byte	.LVL397
 9979 1797 0200     		.2byte	0x2
 9980 1799 30       		.byte	0x30
 9981 179a 9F       		.byte	0x9f
 9982 179b 1C000000 		.4byte	.LVL397
 9983 179f 54000000 		.4byte	.LVL405
 9984 17a3 0100     		.2byte	0x1
 9985 17a5 55       		.byte	0x55
 9986 17a6 54000000 		.4byte	.LVL405
 9987 17aa 58000000 		.4byte	.LVL407
ARM GAS  C:\Users\bogur\AppData\Local\Temp\cca0k2e0.s 			page 190


 9988 17ae 0200     		.2byte	0x2
 9989 17b0 30       		.byte	0x30
 9990 17b1 9F       		.byte	0x9f
 9991 17b2 58000000 		.4byte	.LVL407
 9992 17b6 60000000 		.4byte	.LVL409
 9993 17ba 0100     		.2byte	0x1
 9994 17bc 55       		.byte	0x55
 9995 17bd 64000000 		.4byte	.LVL411
 9996 17c1 38010000 		.4byte	.LVL416
 9997 17c5 0100     		.2byte	0x1
 9998 17c7 55       		.byte	0x55
 9999 17c8 00000000 		.4byte	0
 10000 17cc 00000000 		.4byte	0
 10001              	.LLST169:
 10002 17d0 14000000 		.4byte	.LVL396
 10003 17d4 1C000000 		.4byte	.LVL397
 10004 17d8 0200     		.2byte	0x2
 10005 17da 30       		.byte	0x30
 10006 17db 9F       		.byte	0x9f
 10007 17dc 1C000000 		.4byte	.LVL397
 10008 17e0 64000000 		.4byte	.LVL411
 10009 17e4 0100     		.2byte	0x1
 10010 17e6 57       		.byte	0x57
 10011 17e7 00000000 		.4byte	0
 10012 17eb 00000000 		.4byte	0
 10013              	.LLST170:
 10014 17ef 14000000 		.4byte	.LVL396
 10015 17f3 1E000000 		.4byte	.LVL398
 10016 17f7 0100     		.2byte	0x1
 10017 17f9 50       		.byte	0x50
 10018 17fa 1E000000 		.4byte	.LVL398
 10019 17fe 22000000 		.4byte	.LVL399
 10020 1802 0D00     		.2byte	0xd
 10021 1804 70       		.byte	0x70
 10022 1805 00       		.sleb128 0
 10023 1806 38       		.byte	0x38
 10024 1807 14       		.byte	0x14
 10025 1808 14       		.byte	0x14
 10026 1809 1F       		.byte	0x1f
 10027 180a 23       		.byte	0x23
 10028 180b 20       		.uleb128 0x20
 10029 180c 24       		.byte	0x24
 10030 180d 17       		.byte	0x17
 10031 180e 25       		.byte	0x25
 10032 180f 21       		.byte	0x21
 10033 1810 9F       		.byte	0x9f
 10034 1811 22000000 		.4byte	.LVL399
 10035 1815 25000000 		.4byte	.LVL400-1
 10036 1819 0100     		.2byte	0x1
 10037 181b 50       		.byte	0x50
 10038 181c 2C000000 		.4byte	.LVL401
 10039 1820 35000000 		.4byte	.LVL402-1
 10040 1824 0100     		.2byte	0x1
 10041 1826 50       		.byte	0x50
 10042 1827 36000000 		.4byte	.LVL402
 10043 182b 64000000 		.4byte	.LVL411
 10044 182f 0100     		.2byte	0x1
ARM GAS  C:\Users\bogur\AppData\Local\Temp\cca0k2e0.s 			page 191


 10045 1831 50       		.byte	0x50
 10046 1832 00000000 		.4byte	0
 10047 1836 00000000 		.4byte	0
 10048              	.LLST171:
 10049 183a 00000000 		.4byte	.LVL417
 10050 183e 08000000 		.4byte	.LVL418
 10051 1842 0100     		.2byte	0x1
 10052 1844 50       		.byte	0x50
 10053 1845 08000000 		.4byte	.LVL418
 10054 1849 18000000 		.4byte	.LFE18
 10055 184d 0100     		.2byte	0x1
 10056 184f 54       		.byte	0x54
 10057 1850 00000000 		.4byte	0
 10058 1854 00000000 		.4byte	0
 10059              	.LLST172:
 10060 1858 00000000 		.4byte	.LVL417
 10061 185c 0B000000 		.4byte	.LVL419-1
 10062 1860 0100     		.2byte	0x1
 10063 1862 51       		.byte	0x51
 10064 1863 0B000000 		.4byte	.LVL419-1
 10065 1867 18000000 		.4byte	.LFE18
 10066 186b 0400     		.2byte	0x4
 10067 186d F3       		.byte	0xf3
 10068 186e 01       		.uleb128 0x1
 10069 186f 51       		.byte	0x51
 10070 1870 9F       		.byte	0x9f
 10071 1871 00000000 		.4byte	0
 10072 1875 00000000 		.4byte	0
 10073              	.LLST173:
 10074 1879 00000000 		.4byte	.LVL421
 10075 187d 14000000 		.4byte	.LVL422
 10076 1881 0100     		.2byte	0x1
 10077 1883 50       		.byte	0x50
 10078 1884 14000000 		.4byte	.LVL422
 10079 1888 CC060000 		.4byte	.LFE17
 10080 188c 0400     		.2byte	0x4
 10081 188e F3       		.byte	0xf3
 10082 188f 01       		.uleb128 0x1
 10083 1890 50       		.byte	0x50
 10084 1891 9F       		.byte	0x9f
 10085 1892 00000000 		.4byte	0
 10086 1896 00000000 		.4byte	0
 10087              	.LLST174:
 10088 189a 00000000 		.4byte	.LVL421
 10089 189e 14000000 		.4byte	.LVL422
 10090 18a2 0100     		.2byte	0x1
 10091 18a4 51       		.byte	0x51
 10092 18a5 14000000 		.4byte	.LVL422
 10093 18a9 F6000000 		.4byte	.LVL431
 10094 18ad 0300     		.2byte	0x3
 10095 18af 76       		.byte	0x76
 10096 18b0 40       		.sleb128 -64
 10097 18b1 9F       		.byte	0x9f
 10098 18b2 F6000000 		.4byte	.LVL431
 10099 18b6 CC060000 		.4byte	.LFE17
 10100 18ba 0400     		.2byte	0x4
 10101 18bc F3       		.byte	0xf3
ARM GAS  C:\Users\bogur\AppData\Local\Temp\cca0k2e0.s 			page 192


 10102 18bd 01       		.uleb128 0x1
 10103 18be 51       		.byte	0x51
 10104 18bf 9F       		.byte	0x9f
 10105 18c0 00000000 		.4byte	0
 10106 18c4 00000000 		.4byte	0
 10107              	.LLST175:
 10108 18c8 00000000 		.4byte	.LVL421
 10109 18cc 14000000 		.4byte	.LVL422
 10110 18d0 0100     		.2byte	0x1
 10111 18d2 52       		.byte	0x52
 10112 18d3 14000000 		.4byte	.LVL422
 10113 18d7 CC060000 		.4byte	.LFE17
 10114 18db 0400     		.2byte	0x4
 10115 18dd F3       		.byte	0xf3
 10116 18de 01       		.uleb128 0x1
 10117 18df 52       		.byte	0x52
 10118 18e0 9F       		.byte	0x9f
 10119 18e1 00000000 		.4byte	0
 10120 18e5 00000000 		.4byte	0
 10121              	.LLST176:
 10122 18e9 28000000 		.4byte	.LVL423
 10123 18ed 2C000000 		.4byte	.LVL424
 10124 18f1 0200     		.2byte	0x2
 10125 18f3 30       		.byte	0x30
 10126 18f4 9F       		.byte	0x9f
 10127 18f5 2C000000 		.4byte	.LVL424
 10128 18f9 50000000 		.4byte	.LVL428
 10129 18fd 0100     		.2byte	0x1
 10130 18ff 54       		.byte	0x54
 10131 1900 F6000000 		.4byte	.LVL431
 10132 1904 FB000000 		.4byte	.LVL432-1
 10133 1908 0100     		.2byte	0x1
 10134 190a 53       		.byte	0x53
 10135 190b FB000000 		.4byte	.LVL432-1
 10136 190f 5E060000 		.4byte	.LVL474
 10137 1913 0300     		.2byte	0x3
 10138 1915 91       		.byte	0x91
 10139 1916 B87E     		.sleb128 -200
 10140 1918 5E060000 		.4byte	.LVL474
 10141 191c 62060000 		.4byte	.LVL475
 10142 1920 0200     		.2byte	0x2
 10143 1922 30       		.byte	0x30
 10144 1923 9F       		.byte	0x9f
 10145 1924 62060000 		.4byte	.LVL475
 10146 1928 9C060000 		.4byte	.LVL479
 10147 192c 0100     		.2byte	0x1
 10148 192e 54       		.byte	0x54
 10149 192f 00000000 		.4byte	0
 10150 1933 00000000 		.4byte	0
 10151              	.LLST177:
 10152 1937 4E000000 		.4byte	.LVL427
 10153 193b C2060000 		.4byte	.LVL484
 10154 193f 0300     		.2byte	0x3
 10155 1941 91       		.byte	0x91
 10156 1942 BC7E     		.sleb128 -196
 10157 1944 C2060000 		.4byte	.LVL484
 10158 1948 CC060000 		.4byte	.LFE17
ARM GAS  C:\Users\bogur\AppData\Local\Temp\cca0k2e0.s 			page 193


 10159 194c 0300     		.2byte	0x3
 10160 194e 7D       		.byte	0x7d
 10161 194f BC7E     		.sleb128 -196
 10162 1951 00000000 		.4byte	0
 10163 1955 00000000 		.4byte	0
 10164              	.LLST178:
 10165 1959 4E000000 		.4byte	.LVL427
 10166 195d 56000000 		.4byte	.LVL429
 10167 1961 0400     		.2byte	0x4
 10168 1963 91       		.byte	0x91
 10169 1964 D87E     		.sleb128 -168
 10170 1966 9F       		.byte	0x9f
 10171 1967 56000000 		.4byte	.LVL429
 10172 196b 5E000000 		.4byte	.LVL430
 10173 196f 0100     		.2byte	0x1
 10174 1971 53       		.byte	0x53
 10175 1972 5E000000 		.4byte	.LVL430
 10176 1976 C2060000 		.4byte	.LVL484
 10177 197a 0400     		.2byte	0x4
 10178 197c 91       		.byte	0x91
 10179 197d D87E     		.sleb128 -168
 10180 197f 9F       		.byte	0x9f
 10181 1980 C2060000 		.4byte	.LVL484
 10182 1984 CC060000 		.4byte	.LFE17
 10183 1988 0400     		.2byte	0x4
 10184 198a 7D       		.byte	0x7d
 10185 198b D87E     		.sleb128 -168
 10186 198d 9F       		.byte	0x9f
 10187 198e 00000000 		.4byte	0
 10188 1992 00000000 		.4byte	0
 10189              	.LLST179:
 10190 1996 FC000000 		.4byte	.LVL432
 10191 199a D6010000 		.4byte	.LVL437
 10192 199e 0400     		.2byte	0x4
 10193 19a0 91       		.byte	0x91
 10194 19a1 D87E     		.sleb128 -168
 10195 19a3 9F       		.byte	0x9f
 10196 19a4 00000000 		.4byte	0
 10197 19a8 00000000 		.4byte	0
 10198              	.LLST180:
 10199 19ac FC000000 		.4byte	.LVL432
 10200 19b0 04010000 		.4byte	.LVL433
 10201 19b4 0200     		.2byte	0x2
 10202 19b6 30       		.byte	0x30
 10203 19b7 9F       		.byte	0x9f
 10204 19b8 04010000 		.4byte	.LVL433
 10205 19bc 24010000 		.4byte	.LVL435
 10206 19c0 0100     		.2byte	0x1
 10207 19c2 53       		.byte	0x53
 10208 19c3 24010000 		.4byte	.LVL435
 10209 19c7 D6010000 		.4byte	.LVL437
 10210 19cb 0100     		.2byte	0x1
 10211 19cd 5E       		.byte	0x5e
 10212 19ce 00000000 		.4byte	0
 10213 19d2 00000000 		.4byte	0
 10214              	.LLST181:
 10215 19d6 10010000 		.4byte	.LVL434
ARM GAS  C:\Users\bogur\AppData\Local\Temp\cca0k2e0.s 			page 194


 10216 19da D0010000 		.4byte	.LVL436
 10217 19de 0600     		.2byte	0x6
 10218 19e0 57       		.byte	0x57
 10219 19e1 93       		.byte	0x93
 10220 19e2 04       		.uleb128 0x4
 10221 19e3 5C       		.byte	0x5c
 10222 19e4 93       		.byte	0x93
 10223 19e5 04       		.uleb128 0x4
 10224 19e6 00000000 		.4byte	0
 10225 19ea 00000000 		.4byte	0
 10226              	.LLST182:
 10227 19ee D6010000 		.4byte	.LVL437
 10228 19f2 2C040000 		.4byte	.LVL462
 10229 19f6 0400     		.2byte	0x4
 10230 19f8 91       		.byte	0x91
 10231 19f9 D87E     		.sleb128 -168
 10232 19fb 9F       		.byte	0x9f
 10233 19fc 00000000 		.4byte	0
 10234 1a00 00000000 		.4byte	0
 10235              	.LLST183:
 10236 1a04 DC010000 		.4byte	.LVL438
 10237 1a08 B6020000 		.4byte	.LVL447
 10238 1a0c 0600     		.2byte	0x6
 10239 1a0e 52       		.byte	0x52
 10240 1a0f 93       		.byte	0x93
 10241 1a10 04       		.uleb128 0x4
 10242 1a11 53       		.byte	0x53
 10243 1a12 93       		.byte	0x93
 10244 1a13 04       		.uleb128 0x4
 10245 1a14 B6020000 		.4byte	.LVL447
 10246 1a18 2C040000 		.4byte	.LVL462
 10247 1a1c 0300     		.2byte	0x3
 10248 1a1e 91       		.byte	0x91
 10249 1a1f D87E     		.sleb128 -168
 10250 1a21 00000000 		.4byte	0
 10251 1a25 00000000 		.4byte	0
 10252              	.LLST184:
 10253 1a29 DC010000 		.4byte	.LVL438
 10254 1a2d 2C040000 		.4byte	.LVL462
 10255 1a31 0300     		.2byte	0x3
 10256 1a33 91       		.byte	0x91
 10257 1a34 E07E     		.sleb128 -160
 10258 1a36 00000000 		.4byte	0
 10259 1a3a 00000000 		.4byte	0
 10260              	.LLST185:
 10261 1a3e DC010000 		.4byte	.LVL438
 10262 1a42 2C040000 		.4byte	.LVL462
 10263 1a46 0300     		.2byte	0x3
 10264 1a48 91       		.byte	0x91
 10265 1a49 E87E     		.sleb128 -152
 10266 1a4b 00000000 		.4byte	0
 10267 1a4f 00000000 		.4byte	0
 10268              	.LLST186:
 10269 1a53 DC010000 		.4byte	.LVL438
 10270 1a57 2C040000 		.4byte	.LVL462
 10271 1a5b 0300     		.2byte	0x3
 10272 1a5d 91       		.byte	0x91
ARM GAS  C:\Users\bogur\AppData\Local\Temp\cca0k2e0.s 			page 195


 10273 1a5e F07E     		.sleb128 -144
 10274 1a60 00000000 		.4byte	0
 10275 1a64 00000000 		.4byte	0
 10276              	.LLST187:
 10277 1a68 DC010000 		.4byte	.LVL438
 10278 1a6c 2C040000 		.4byte	.LVL462
 10279 1a70 0300     		.2byte	0x3
 10280 1a72 91       		.byte	0x91
 10281 1a73 F87E     		.sleb128 -136
 10282 1a75 00000000 		.4byte	0
 10283 1a79 00000000 		.4byte	0
 10284              	.LLST188:
 10285 1a7d DC010000 		.4byte	.LVL438
 10286 1a81 2C040000 		.4byte	.LVL462
 10287 1a85 0300     		.2byte	0x3
 10288 1a87 91       		.byte	0x91
 10289 1a88 807F     		.sleb128 -128
 10290 1a8a 00000000 		.4byte	0
 10291 1a8e 00000000 		.4byte	0
 10292              	.LLST189:
 10293 1a92 DC010000 		.4byte	.LVL438
 10294 1a96 2C040000 		.4byte	.LVL462
 10295 1a9a 0300     		.2byte	0x3
 10296 1a9c 91       		.byte	0x91
 10297 1a9d 887F     		.sleb128 -120
 10298 1a9f 00000000 		.4byte	0
 10299 1aa3 00000000 		.4byte	0
 10300              	.LLST190:
 10301 1aa7 DC010000 		.4byte	.LVL438
 10302 1aab 2C040000 		.4byte	.LVL462
 10303 1aaf 0300     		.2byte	0x3
 10304 1ab1 91       		.byte	0x91
 10305 1ab2 907F     		.sleb128 -112
 10306 1ab4 00000000 		.4byte	0
 10307 1ab8 00000000 		.4byte	0
 10308              	.LLST191:
 10309 1abc EC010000 		.4byte	.LVL439
 10310 1ac0 2C040000 		.4byte	.LVL462
 10311 1ac4 0300     		.2byte	0x3
 10312 1ac6 91       		.byte	0x91
 10313 1ac7 E07C     		.sleb128 -416
 10314 1ac9 00000000 		.4byte	0
 10315 1acd 00000000 		.4byte	0
 10316              	.LLST192:
 10317 1ad1 02020000 		.4byte	.LVL440
 10318 1ad5 2C040000 		.4byte	.LVL462
 10319 1ad9 0300     		.2byte	0x3
 10320 1adb 91       		.byte	0x91
 10321 1adc E87C     		.sleb128 -408
 10322 1ade 00000000 		.4byte	0
 10323 1ae2 00000000 		.4byte	0
 10324              	.LLST193:
 10325 1ae6 18020000 		.4byte	.LVL441
 10326 1aea 2C040000 		.4byte	.LVL462
 10327 1aee 0300     		.2byte	0x3
 10328 1af0 91       		.byte	0x91
 10329 1af1 F07C     		.sleb128 -400
ARM GAS  C:\Users\bogur\AppData\Local\Temp\cca0k2e0.s 			page 196


 10330 1af3 00000000 		.4byte	0
 10331 1af7 00000000 		.4byte	0
 10332              	.LLST194:
 10333 1afb 2E020000 		.4byte	.LVL442
 10334 1aff 2C040000 		.4byte	.LVL462
 10335 1b03 0300     		.2byte	0x3
 10336 1b05 91       		.byte	0x91
 10337 1b06 F87C     		.sleb128 -392
 10338 1b08 00000000 		.4byte	0
 10339 1b0c 00000000 		.4byte	0
 10340              	.LLST195:
 10341 1b10 44020000 		.4byte	.LVL443
 10342 1b14 2C040000 		.4byte	.LVL462
 10343 1b18 0300     		.2byte	0x3
 10344 1b1a 91       		.byte	0x91
 10345 1b1b B07D     		.sleb128 -336
 10346 1b1d 00000000 		.4byte	0
 10347 1b21 00000000 		.4byte	0
 10348              	.LLST196:
 10349 1b25 5A020000 		.4byte	.LVL444
 10350 1b29 2C040000 		.4byte	.LVL462
 10351 1b2d 0300     		.2byte	0x3
 10352 1b2f 91       		.byte	0x91
 10353 1b30 807D     		.sleb128 -384
 10354 1b32 00000000 		.4byte	0
 10355 1b36 00000000 		.4byte	0
 10356              	.LLST197:
 10357 1b3a 70020000 		.4byte	.LVL445
 10358 1b3e 2C040000 		.4byte	.LVL462
 10359 1b42 0300     		.2byte	0x3
 10360 1b44 91       		.byte	0x91
 10361 1b45 887D     		.sleb128 -376
 10362 1b47 00000000 		.4byte	0
 10363 1b4b 00000000 		.4byte	0
 10364              	.LLST198:
 10365 1b4f 86020000 		.4byte	.LVL446
 10366 1b53 2C040000 		.4byte	.LVL462
 10367 1b57 0300     		.2byte	0x3
 10368 1b59 91       		.byte	0x91
 10369 1b5a D87C     		.sleb128 -424
 10370 1b5c 00000000 		.4byte	0
 10371 1b60 00000000 		.4byte	0
 10372              	.LLST199:
 10373 1b64 B8020000 		.4byte	.LVL448
 10374 1b68 BC020000 		.4byte	.LVL449
 10375 1b6c 0600     		.2byte	0x6
 10376 1b6e 52       		.byte	0x52
 10377 1b6f 93       		.byte	0x93
 10378 1b70 04       		.uleb128 0x4
 10379 1b71 53       		.byte	0x53
 10380 1b72 93       		.byte	0x93
 10381 1b73 04       		.uleb128 0x4
 10382 1b74 00000000 		.4byte	0
 10383 1b78 00000000 		.4byte	0
 10384              	.LLST200:
 10385 1b7c F8020000 		.4byte	.LVL450
 10386 1b80 FC020000 		.4byte	.LVL451
ARM GAS  C:\Users\bogur\AppData\Local\Temp\cca0k2e0.s 			page 197


 10387 1b84 0600     		.2byte	0x6
 10388 1b86 50       		.byte	0x50
 10389 1b87 93       		.byte	0x93
 10390 1b88 04       		.uleb128 0x4
 10391 1b89 51       		.byte	0x51
 10392 1b8a 93       		.byte	0x93
 10393 1b8b 04       		.uleb128 0x4
 10394 1b8c 00000000 		.4byte	0
 10395 1b90 00000000 		.4byte	0
 10396              	.LLST201:
 10397 1b94 26030000 		.4byte	.LVL452
 10398 1b98 2A030000 		.4byte	.LVL453
 10399 1b9c 0600     		.2byte	0x6
 10400 1b9e 52       		.byte	0x52
 10401 1b9f 93       		.byte	0x93
 10402 1ba0 04       		.uleb128 0x4
 10403 1ba1 53       		.byte	0x53
 10404 1ba2 93       		.byte	0x93
 10405 1ba3 04       		.uleb128 0x4
 10406 1ba4 00000000 		.4byte	0
 10407 1ba8 00000000 		.4byte	0
 10408              	.LLST202:
 10409 1bac 66030000 		.4byte	.LVL454
 10410 1bb0 6A030000 		.4byte	.LVL455
 10411 1bb4 0600     		.2byte	0x6
 10412 1bb6 50       		.byte	0x50
 10413 1bb7 93       		.byte	0x93
 10414 1bb8 04       		.uleb128 0x4
 10415 1bb9 51       		.byte	0x51
 10416 1bba 93       		.byte	0x93
 10417 1bbb 04       		.uleb128 0x4
 10418 1bbc 00000000 		.4byte	0
 10419 1bc0 00000000 		.4byte	0
 10420              	.LLST203:
 10421 1bc4 D0030000 		.4byte	.LVL456
 10422 1bc8 D4030000 		.4byte	.LVL457
 10423 1bcc 0600     		.2byte	0x6
 10424 1bce 52       		.byte	0x52
 10425 1bcf 93       		.byte	0x93
 10426 1bd0 04       		.uleb128 0x4
 10427 1bd1 53       		.byte	0x53
 10428 1bd2 93       		.byte	0x93
 10429 1bd3 04       		.uleb128 0x4
 10430 1bd4 00000000 		.4byte	0
 10431 1bd8 00000000 		.4byte	0
 10432              	.LLST204:
 10433 1bdc FE030000 		.4byte	.LVL458
 10434 1be0 02040000 		.4byte	.LVL459
 10435 1be4 0600     		.2byte	0x6
 10436 1be6 52       		.byte	0x52
 10437 1be7 93       		.byte	0x93
 10438 1be8 04       		.uleb128 0x4
 10439 1be9 53       		.byte	0x53
 10440 1bea 93       		.byte	0x93
 10441 1beb 04       		.uleb128 0x4
 10442 1bec 00000000 		.4byte	0
 10443 1bf0 00000000 		.4byte	0
ARM GAS  C:\Users\bogur\AppData\Local\Temp\cca0k2e0.s 			page 198


 10444              	.LLST205:
 10445 1bf4 1C040000 		.4byte	.LVL460
 10446 1bf8 24040000 		.4byte	.LVL461
 10447 1bfc 0300     		.2byte	0x3
 10448 1bfe 91       		.byte	0x91
 10449 1bff F87D     		.sleb128 -264
 10450 1c01 00000000 		.4byte	0
 10451 1c05 00000000 		.4byte	0
 10452              	.LLST206:
 10453 1c09 36040000 		.4byte	.LVL463
 10454 1c0d E0040000 		.4byte	.LVL464
 10455 1c11 0100     		.2byte	0x1
 10456 1c13 5E       		.byte	0x5e
 10457 1c14 00000000 		.4byte	0
 10458 1c18 00000000 		.4byte	0
 10459              	.LLST207:
 10460 1c1c 36040000 		.4byte	.LVL463
 10461 1c20 E0040000 		.4byte	.LVL464
 10462 1c24 0400     		.2byte	0x4
 10463 1c26 91       		.byte	0x91
 10464 1c27 D87E     		.sleb128 -168
 10465 1c29 9F       		.byte	0x9f
 10466 1c2a 00000000 		.4byte	0
 10467 1c2e 00000000 		.4byte	0
 10468              	.LLST208:
 10469 1c32 F4040000 		.4byte	.LVL466
 10470 1c36 B6050000 		.4byte	.LVL470
 10471 1c3a 0400     		.2byte	0x4
 10472 1c3c 91       		.byte	0x91
 10473 1c3d D87E     		.sleb128 -168
 10474 1c3f 9F       		.byte	0x9f
 10475 1c40 00000000 		.4byte	0
 10476 1c44 00000000 		.4byte	0
 10477              	.LLST209:
 10478 1c48 F4040000 		.4byte	.LVL466
 10479 1c4c FA040000 		.4byte	.LVL467
 10480 1c50 0200     		.2byte	0x2
 10481 1c52 30       		.byte	0x30
 10482 1c53 9F       		.byte	0x9f
 10483 1c54 FA040000 		.4byte	.LVL467
 10484 1c58 B6050000 		.4byte	.LVL470
 10485 1c5c 0100     		.2byte	0x1
 10486 1c5e 50       		.byte	0x50
 10487 1c5f 00000000 		.4byte	0
 10488 1c63 00000000 		.4byte	0
 10489              	.LLST210:
 10490 1c67 04050000 		.4byte	.LVL468
 10491 1c6b B2050000 		.4byte	.LVL469
 10492 1c6f 0600     		.2byte	0x6
 10493 1c71 53       		.byte	0x53
 10494 1c72 93       		.byte	0x93
 10495 1c73 04       		.uleb128 0x4
 10496 1c74 52       		.byte	0x52
 10497 1c75 93       		.byte	0x93
 10498 1c76 04       		.uleb128 0x4
 10499 1c77 00000000 		.4byte	0
 10500 1c7b 00000000 		.4byte	0
ARM GAS  C:\Users\bogur\AppData\Local\Temp\cca0k2e0.s 			page 199


 10501              	.LLST211:
 10502 1c7f B8050000 		.4byte	.LVL471
 10503 1c83 BC050000 		.4byte	.LVL472
 10504 1c87 0100     		.2byte	0x1
 10505 1c89 54       		.byte	0x54
 10506 1c8a BC050000 		.4byte	.LVL472
 10507 1c8e 58060000 		.4byte	.LVL473
 10508 1c92 0300     		.2byte	0x3
 10509 1c94 91       		.byte	0x91
 10510 1c95 BC7E     		.sleb128 -196
 10511 1c97 00000000 		.4byte	0
 10512 1c9b 00000000 		.4byte	0
 10513              	.LLST212:
 10514 1c9f B8050000 		.4byte	.LVL471
 10515 1ca3 58060000 		.4byte	.LVL473
 10516 1ca7 0400     		.2byte	0x4
 10517 1ca9 91       		.byte	0x91
 10518 1caa D87E     		.sleb128 -168
 10519 1cac 9F       		.byte	0x9f
 10520 1cad 00000000 		.4byte	0
 10521 1cb1 00000000 		.4byte	0
 10522              	.LLST213:
 10523 1cb5 00000000 		.4byte	.LVL485
 10524 1cb9 18000000 		.4byte	.LVL488
 10525 1cbd 0100     		.2byte	0x1
 10526 1cbf 50       		.byte	0x50
 10527 1cc0 18000000 		.4byte	.LVL488
 10528 1cc4 C6000000 		.4byte	.LFE19
 10529 1cc8 0100     		.2byte	0x1
 10530 1cca 57       		.byte	0x57
 10531 1ccb 00000000 		.4byte	0
 10532 1ccf 00000000 		.4byte	0
 10533              	.LLST214:
 10534 1cd3 00000000 		.4byte	.LVL485
 10535 1cd7 16000000 		.4byte	.LVL487
 10536 1cdb 0100     		.2byte	0x1
 10537 1cdd 51       		.byte	0x51
 10538 1cde 16000000 		.4byte	.LVL487
 10539 1ce2 1B000000 		.4byte	.LVL489-1
 10540 1ce6 0100     		.2byte	0x1
 10541 1ce8 52       		.byte	0x52
 10542 1ce9 1B000000 		.4byte	.LVL489-1
 10543 1ced C6000000 		.4byte	.LFE19
 10544 1cf1 0400     		.2byte	0x4
 10545 1cf3 F3       		.byte	0xf3
 10546 1cf4 01       		.uleb128 0x1
 10547 1cf5 51       		.byte	0x51
 10548 1cf6 9F       		.byte	0x9f
 10549 1cf7 00000000 		.4byte	0
 10550 1cfb 00000000 		.4byte	0
 10551              	.LLST215:
 10552 1cff 00000000 		.4byte	.LVL485
 10553 1d03 14000000 		.4byte	.LVL486
 10554 1d07 0100     		.2byte	0x1
 10555 1d09 52       		.byte	0x52
 10556 1d0a 14000000 		.4byte	.LVL486
 10557 1d0e 78000000 		.4byte	.LVL501
ARM GAS  C:\Users\bogur\AppData\Local\Temp\cca0k2e0.s 			page 200


 10558 1d12 0100     		.2byte	0x1
 10559 1d14 56       		.byte	0x56
 10560 1d15 78000000 		.4byte	.LVL501
 10561 1d19 80000000 		.4byte	.LVL502
 10562 1d1d 0300     		.2byte	0x3
 10563 1d1f 76       		.byte	0x76
 10564 1d20 7D       		.sleb128 -3
 10565 1d21 9F       		.byte	0x9f
 10566 1d22 80000000 		.4byte	.LVL502
 10567 1d26 C6000000 		.4byte	.LFE19
 10568 1d2a 0400     		.2byte	0x4
 10569 1d2c F3       		.byte	0xf3
 10570 1d2d 01       		.uleb128 0x1
 10571 1d2e 52       		.byte	0x52
 10572 1d2f 9F       		.byte	0x9f
 10573 1d30 00000000 		.4byte	0
 10574 1d34 00000000 		.4byte	0
 10575              	.LLST216:
 10576 1d38 00000000 		.4byte	.LVL485
 10577 1d3c 1B000000 		.4byte	.LVL489-1
 10578 1d40 0100     		.2byte	0x1
 10579 1d42 53       		.byte	0x53
 10580 1d43 1B000000 		.4byte	.LVL489-1
 10581 1d47 C6000000 		.4byte	.LFE19
 10582 1d4b 0100     		.2byte	0x1
 10583 1d4d 55       		.byte	0x55
 10584 1d4e 00000000 		.4byte	0
 10585 1d52 00000000 		.4byte	0
 10586              	.LLST217:
 10587 1d56 00000000 		.4byte	.LVL485
 10588 1d5a 8E000000 		.4byte	.LVL505
 10589 1d5e 0200     		.2byte	0x2
 10590 1d60 91       		.byte	0x91
 10591 1d61 00       		.sleb128 0
 10592 1d62 8E000000 		.4byte	.LVL505
 10593 1d66 B0000000 		.4byte	.LVL510
 10594 1d6a 0100     		.2byte	0x1
 10595 1d6c 54       		.byte	0x54
 10596 1d6d 00000000 		.4byte	0
 10597 1d71 00000000 		.4byte	0
 10598              	.LLST218:
 10599 1d75 AC000000 		.4byte	.LVL509
 10600 1d79 B0000000 		.4byte	.LVL510
 10601 1d7d 0200     		.2byte	0x2
 10602 1d7f 30       		.byte	0x30
 10603 1d80 9F       		.byte	0x9f
 10604 1d81 B0000000 		.4byte	.LVL510
 10605 1d85 C0000000 		.4byte	.LVL512
 10606 1d89 0100     		.2byte	0x1
 10607 1d8b 53       		.byte	0x53
 10608 1d8c 00000000 		.4byte	0
 10609 1d90 00000000 		.4byte	0
 10610              	.LLST219:
 10611 1d94 36000000 		.4byte	.LVL490
 10612 1d98 44000000 		.4byte	.LVL491
 10613 1d9c 0100     		.2byte	0x1
 10614 1d9e 56       		.byte	0x56
ARM GAS  C:\Users\bogur\AppData\Local\Temp\cca0k2e0.s 			page 201


 10615 1d9f 44000000 		.4byte	.LVL491
 10616 1da3 48000000 		.4byte	.LVL492
 10617 1da7 0100     		.2byte	0x1
 10618 1da9 53       		.byte	0x53
 10619 1daa 00000000 		.4byte	0
 10620 1dae 00000000 		.4byte	0
 10621              	.LLST220:
 10622 1db2 4C000000 		.4byte	.LVL493
 10623 1db6 54000000 		.4byte	.LVL494
 10624 1dba 0100     		.2byte	0x1
 10625 1dbc 53       		.byte	0x53
 10626 1dbd 54000000 		.4byte	.LVL494
 10627 1dc1 5A000000 		.4byte	.LVL495
 10628 1dc5 0300     		.2byte	0x3
 10629 1dc7 76       		.byte	0x76
 10630 1dc8 01       		.sleb128 1
 10631 1dc9 9F       		.byte	0x9f
 10632 1dca 5A000000 		.4byte	.LVL495
 10633 1dce 5E000000 		.4byte	.LVL496
 10634 1dd2 0100     		.2byte	0x1
 10635 1dd4 53       		.byte	0x53
 10636 1dd5 00000000 		.4byte	0
 10637 1dd9 00000000 		.4byte	0
 10638              	.LLST221:
 10639 1ddd 62000000 		.4byte	.LVL497
 10640 1de1 6A000000 		.4byte	.LVL498
 10641 1de5 0100     		.2byte	0x1
 10642 1de7 53       		.byte	0x53
 10643 1de8 6A000000 		.4byte	.LVL498
 10644 1dec 70000000 		.4byte	.LVL499
 10645 1df0 0300     		.2byte	0x3
 10646 1df2 76       		.byte	0x76
 10647 1df3 02       		.sleb128 2
 10648 1df4 9F       		.byte	0x9f
 10649 1df5 70000000 		.4byte	.LVL499
 10650 1df9 74000000 		.4byte	.LVL500
 10651 1dfd 0100     		.2byte	0x1
 10652 1dff 53       		.byte	0x53
 10653 1e00 00000000 		.4byte	0
 10654 1e04 00000000 		.4byte	0
 10655              	.LLST222:
 10656 1e08 78000000 		.4byte	.LVL501
 10657 1e0c 80000000 		.4byte	.LVL502
 10658 1e10 0100     		.2byte	0x1
 10659 1e12 56       		.byte	0x56
 10660 1e13 80000000 		.4byte	.LVL502
 10661 1e17 86000000 		.4byte	.LVL503
 10662 1e1b 0600     		.2byte	0x6
 10663 1e1d F3       		.byte	0xf3
 10664 1e1e 01       		.uleb128 0x1
 10665 1e1f 52       		.byte	0x52
 10666 1e20 23       		.byte	0x23
 10667 1e21 03       		.uleb128 0x3
 10668 1e22 9F       		.byte	0x9f
 10669 1e23 86000000 		.4byte	.LVL503
 10670 1e27 8A000000 		.4byte	.LVL504
 10671 1e2b 0100     		.2byte	0x1
ARM GAS  C:\Users\bogur\AppData\Local\Temp\cca0k2e0.s 			page 202


 10672 1e2d 56       		.byte	0x56
 10673 1e2e 00000000 		.4byte	0
 10674 1e32 00000000 		.4byte	0
 10675              	.LLST223:
 10676 1e36 00000000 		.4byte	.LVL513
 10677 1e3a 10000000 		.4byte	.LVL515
 10678 1e3e 0100     		.2byte	0x1
 10679 1e40 50       		.byte	0x50
 10680 1e41 10000000 		.4byte	.LVL515
 10681 1e45 28000000 		.4byte	.LFE20
 10682 1e49 0100     		.2byte	0x1
 10683 1e4b 55       		.byte	0x55
 10684 1e4c 00000000 		.4byte	0
 10685 1e50 00000000 		.4byte	0
 10686              	.LLST224:
 10687 1e54 00000000 		.4byte	.LVL513
 10688 1e58 0E000000 		.4byte	.LVL514
 10689 1e5c 0100     		.2byte	0x1
 10690 1e5e 51       		.byte	0x51
 10691 1e5f 0E000000 		.4byte	.LVL514
 10692 1e63 28000000 		.4byte	.LFE20
 10693 1e67 0100     		.2byte	0x1
 10694 1e69 56       		.byte	0x56
 10695 1e6a 00000000 		.4byte	0
 10696 1e6e 00000000 		.4byte	0
 10697              	.LLST225:
 10698 1e72 00000000 		.4byte	.LVL513
 10699 1e76 13000000 		.4byte	.LVL516-1
 10700 1e7a 0100     		.2byte	0x1
 10701 1e7c 52       		.byte	0x52
 10702 1e7d 13000000 		.4byte	.LVL516-1
 10703 1e81 28000000 		.4byte	.LFE20
 10704 1e85 0400     		.2byte	0x4
 10705 1e87 F3       		.byte	0xf3
 10706 1e88 01       		.uleb128 0x1
 10707 1e89 52       		.byte	0x52
 10708 1e8a 9F       		.byte	0x9f
 10709 1e8b 00000000 		.4byte	0
 10710 1e8f 00000000 		.4byte	0
 10711              	.LLST226:
 10712 1e93 00000000 		.4byte	.LVL513
 10713 1e97 13000000 		.4byte	.LVL516-1
 10714 1e9b 0100     		.2byte	0x1
 10715 1e9d 53       		.byte	0x53
 10716 1e9e 13000000 		.4byte	.LVL516-1
 10717 1ea2 28000000 		.4byte	.LFE20
 10718 1ea6 0100     		.2byte	0x1
 10719 1ea8 54       		.byte	0x54
 10720 1ea9 00000000 		.4byte	0
 10721 1ead 00000000 		.4byte	0
 10722              	.LLST227:
 10723 1eb1 00000000 		.4byte	.LVL518
 10724 1eb5 09000000 		.4byte	.LVL519-1
 10725 1eb9 0100     		.2byte	0x1
 10726 1ebb 50       		.byte	0x50
 10727 1ebc 09000000 		.4byte	.LVL519-1
 10728 1ec0 80000000 		.4byte	.LFE21
ARM GAS  C:\Users\bogur\AppData\Local\Temp\cca0k2e0.s 			page 203


 10729 1ec4 0100     		.2byte	0x1
 10730 1ec6 54       		.byte	0x54
 10731 1ec7 00000000 		.4byte	0
 10732 1ecb 00000000 		.4byte	0
 10733              	.LLST228:
 10734 1ecf 00000000 		.4byte	.LVL518
 10735 1ed3 09000000 		.4byte	.LVL519-1
 10736 1ed7 0100     		.2byte	0x1
 10737 1ed9 51       		.byte	0x51
 10738 1eda 09000000 		.4byte	.LVL519-1
 10739 1ede 80000000 		.4byte	.LFE21
 10740 1ee2 0400     		.2byte	0x4
 10741 1ee4 F3       		.byte	0xf3
 10742 1ee5 01       		.uleb128 0x1
 10743 1ee6 51       		.byte	0x51
 10744 1ee7 9F       		.byte	0x9f
 10745 1ee8 00000000 		.4byte	0
 10746 1eec 00000000 		.4byte	0
 10747              	.LLST229:
 10748 1ef0 00000000 		.4byte	.LVL518
 10749 1ef4 09000000 		.4byte	.LVL519-1
 10750 1ef8 0100     		.2byte	0x1
 10751 1efa 52       		.byte	0x52
 10752 1efb 09000000 		.4byte	.LVL519-1
 10753 1eff 80000000 		.4byte	.LFE21
 10754 1f03 0100     		.2byte	0x1
 10755 1f05 56       		.byte	0x56
 10756 1f06 00000000 		.4byte	0
 10757 1f0a 00000000 		.4byte	0
 10758              	.LLST230:
 10759 1f0e 00000000 		.4byte	.LVL521
 10760 1f12 0A000000 		.4byte	.LVL522
 10761 1f16 0100     		.2byte	0x1
 10762 1f18 50       		.byte	0x50
 10763 1f19 0A000000 		.4byte	.LVL522
 10764 1f1d 20000000 		.4byte	.LFE22
 10765 1f21 0100     		.2byte	0x1
 10766 1f23 55       		.byte	0x55
 10767 1f24 00000000 		.4byte	0
 10768 1f28 00000000 		.4byte	0
 10769              	.LLST231:
 10770 1f2c 00000000 		.4byte	.LVL521
 10771 1f30 0A000000 		.4byte	.LVL522
 10772 1f34 0100     		.2byte	0x1
 10773 1f36 51       		.byte	0x51
 10774 1f37 0A000000 		.4byte	.LVL522
 10775 1f3b 20000000 		.4byte	.LFE22
 10776 1f3f 0100     		.2byte	0x1
 10777 1f41 54       		.byte	0x54
 10778 1f42 00000000 		.4byte	0
 10779 1f46 00000000 		.4byte	0
 10780              	.LLST232:
 10781 1f4a 00000000 		.4byte	.LVL521
 10782 1f4e 0A000000 		.4byte	.LVL522
 10783 1f52 0100     		.2byte	0x1
 10784 1f54 52       		.byte	0x52
 10785 1f55 0A000000 		.4byte	.LVL522
ARM GAS  C:\Users\bogur\AppData\Local\Temp\cca0k2e0.s 			page 204


 10786 1f59 20000000 		.4byte	.LFE22
 10787 1f5d 0100     		.2byte	0x1
 10788 1f5f 56       		.byte	0x56
 10789 1f60 00000000 		.4byte	0
 10790 1f64 00000000 		.4byte	0
 10791              		.section	.debug_aranges,"",%progbits
 10792 0000 94000000 		.4byte	0x94
 10793 0004 0200     		.2byte	0x2
 10794 0006 00000000 		.4byte	.Ldebug_info0
 10795 000a 04       		.byte	0x4
 10796 000b 00       		.byte	0
 10797 000c 0000     		.2byte	0
 10798 000e 0000     		.2byte	0
 10799 0010 00000000 		.4byte	.LFB1
 10800 0014 2C000000 		.4byte	.LFE1-.LFB1
 10801 0018 00000000 		.4byte	.LFB4
 10802 001c 2A000000 		.4byte	.LFE4-.LFB4
 10803 0020 00000000 		.4byte	.LFB5
 10804 0024 04070000 		.4byte	.LFE5-.LFB5
 10805 0028 00000000 		.4byte	.LFB6
 10806 002c 06040000 		.4byte	.LFE6-.LFB6
 10807 0030 00000000 		.4byte	.LFB7
 10808 0034 44010000 		.4byte	.LFE7-.LFB7
 10809 0038 00000000 		.4byte	.LFB8
 10810 003c CA000000 		.4byte	.LFE8-.LFB8
 10811 0040 00000000 		.4byte	.LFB11
 10812 0044 04010000 		.4byte	.LFE11-.LFB11
 10813 0048 00000000 		.4byte	.LFB16
 10814 004c 2C000000 		.4byte	.LFE16-.LFB16
 10815 0050 00000000 		.4byte	.LFB9
 10816 0054 2A000000 		.4byte	.LFE9-.LFB9
 10817 0058 00000000 		.4byte	.LFB10
 10818 005c 3C010000 		.4byte	.LFE10-.LFB10
 10819 0060 00000000 		.4byte	.LFB18
 10820 0064 18000000 		.4byte	.LFE18-.LFB18
 10821 0068 00000000 		.4byte	.LFB17
 10822 006c CC060000 		.4byte	.LFE17-.LFB17
 10823 0070 00000000 		.4byte	.LFB19
 10824 0074 C6000000 		.4byte	.LFE19-.LFB19
 10825 0078 00000000 		.4byte	.LFB20
 10826 007c 28000000 		.4byte	.LFE20-.LFB20
 10827 0080 00000000 		.4byte	.LFB21
 10828 0084 80000000 		.4byte	.LFE21-.LFB21
 10829 0088 00000000 		.4byte	.LFB22
 10830 008c 20000000 		.4byte	.LFE22-.LFB22
 10831 0090 00000000 		.4byte	0
 10832 0094 00000000 		.4byte	0
 10833              		.section	.debug_ranges,"",%progbits
 10834              	.Ldebug_ranges0:
 10835 0000 00000000 		.4byte	.LFB1
 10836 0004 2C000000 		.4byte	.LFE1
 10837 0008 00000000 		.4byte	.LFB4
 10838 000c 2A000000 		.4byte	.LFE4
 10839 0010 00000000 		.4byte	.LFB5
 10840 0014 04070000 		.4byte	.LFE5
 10841 0018 00000000 		.4byte	.LFB6
 10842 001c 06040000 		.4byte	.LFE6
ARM GAS  C:\Users\bogur\AppData\Local\Temp\cca0k2e0.s 			page 205


 10843 0020 00000000 		.4byte	.LFB7
 10844 0024 44010000 		.4byte	.LFE7
 10845 0028 00000000 		.4byte	.LFB8
 10846 002c CA000000 		.4byte	.LFE8
 10847 0030 00000000 		.4byte	.LFB11
 10848 0034 04010000 		.4byte	.LFE11
 10849 0038 00000000 		.4byte	.LFB16
 10850 003c 2C000000 		.4byte	.LFE16
 10851 0040 00000000 		.4byte	.LFB9
 10852 0044 2A000000 		.4byte	.LFE9
 10853 0048 00000000 		.4byte	.LFB10
 10854 004c 3C010000 		.4byte	.LFE10
 10855 0050 00000000 		.4byte	.LFB18
 10856 0054 18000000 		.4byte	.LFE18
 10857 0058 00000000 		.4byte	.LFB17
 10858 005c CC060000 		.4byte	.LFE17
 10859 0060 00000000 		.4byte	.LFB19
 10860 0064 C6000000 		.4byte	.LFE19
 10861 0068 00000000 		.4byte	.LFB20
 10862 006c 28000000 		.4byte	.LFE20
 10863 0070 00000000 		.4byte	.LFB21
 10864 0074 80000000 		.4byte	.LFE21
 10865 0078 00000000 		.4byte	.LFB22
 10866 007c 20000000 		.4byte	.LFE22
 10867 0080 00000000 		.4byte	0
 10868 0084 00000000 		.4byte	0
 10869              		.section	.debug_line,"",%progbits
 10870              	.Ldebug_line0:
 10871 0000 D8050000 		.section	.debug_str,"MS",%progbits,1
 10871      0200B601 
 10871      00000201 
 10871      FB0E0D00 
 10871      01010101 
 10872              	.LASF25:
 10873 0000 62725F72 		.ascii	"br_range_enc32le\000"
 10873      616E6765 
 10873      5F656E63 
 10873      33326C65 
 10873      00
 10874              	.LASF24:
 10875 0011 62725F72 		.ascii	"br_range_dec32le\000"
 10875      616E6765 
 10875      5F646563 
 10875      33326C65 
 10875      00
 10876              	.LASF34:
 10877 0022 62725F61 		.ascii	"br_aes_ct64_keysched\000"
 10877      65735F63 
 10877      7436345F 
 10877      6B657973 
 10877      63686564 
 10878              	.LASF47:
 10879 0037 70716372 		.ascii	"pqcrystals_aes256ctr_ref_init\000"
 10879      79737461 
 10879      6C735F61 
 10879      65733235 
 10879      36637472 
ARM GAS  C:\Users\bogur\AppData\Local\Temp\cca0k2e0.s 			page 206


 10880              	.LASF11:
 10881 0055 756E7369 		.ascii	"unsigned int\000"
 10881      676E6564 
 10881      20696E74 
 10881      00
 10882              	.LASF20:
 10883 0062 61657332 		.ascii	"aes256ctr_ctx\000"
 10883      35366374 
 10883      725F6374 
 10883      7800
 10884              	.LASF31:
 10885 0070 736B6579 		.ascii	"skey\000"
 10885      00
 10886              	.LASF55:
 10887 0075 6D656D73 		.ascii	"memset\000"
 10887      657400
 10888              	.LASF51:
 10889 007c 474E5520 		.ascii	"GNU C11 5.4.1 20160609 (release) [ARM/embedded-5-br"
 10889      43313120 
 10889      352E342E 
 10889      31203230 
 10889      31363036 
 10890 00af 616E6368 		.ascii	"anch revision 237715] -mcpu=cortex-m4 -mfloat-abi=s"
 10890      20726576 
 10890      6973696F 
 10890      6E203233 
 10890      37373135 
 10891 00e2 6F667466 		.ascii	"oftfp -mfpu=fpv4-sp-d16 -mthumb -g -Og -ffunction-s"
 10891      70202D6D 
 10891      6670753D 
 10891      66707634 
 10891      2D73702D 
 10892 0115 65637469 		.ascii	"ections -ffat-lto-objects\000"
 10892      6F6E7320 
 10892      2D666661 
 10892      742D6C74 
 10892      6F2D6F62 
 10893              	.LASF26:
 10894 012f 62725F61 		.ascii	"br_aes_ct64_bitslice_Sbox\000"
 10894      65735F63 
 10894      7436345F 
 10894      62697473 
 10894      6C696365 
 10895              	.LASF13:
 10896 0149 75696E74 		.ascii	"uint32_t\000"
 10896      33325F74 
 10896      00
 10897              	.LASF19:
 10898 0152 736B5F65 		.ascii	"sk_exp\000"
 10898      787000
 10899              	.LASF0:
 10900 0159 6C6F6E67 		.ascii	"long long unsigned int\000"
 10900      206C6F6E 
 10900      6720756E 
 10900      7369676E 
 10900      65642069 
 10901              	.LASF48:
ARM GAS  C:\Users\bogur\AppData\Local\Temp\cca0k2e0.s 			page 207


 10902 0170 70716372 		.ascii	"pqcrystals_aes256ctr_ref_squeezeblocks\000"
 10902      79737461 
 10902      6C735F61 
 10902      65733235 
 10902      36637472 
 10903              	.LASF15:
 10904 0197 73697A65 		.ascii	"size_t\000"
 10904      5F7400
 10905              	.LASF22:
 10906 019e 726F7472 		.ascii	"rotr32\000"
 10906      333200
 10907              	.LASF33:
 10908 01a5 696E6334 		.ascii	"inc4_be\000"
 10908      5F626500 
 10909              	.LASF36:
 10910 01ad 62725F61 		.ascii	"br_aes_ct64_ctr_init\000"
 10910      65735F63 
 10910      7436345F 
 10910      6374725F 
 10910      696E6974 
 10911              	.LASF28:
 10912 01c2 62725F61 		.ascii	"br_aes_ct64_interleave_in\000"
 10912      65735F63 
 10912      7436345F 
 10912      696E7465 
 10912      726C6561 
 10913              	.LASF10:
 10914 01dc 5F5F7569 		.ascii	"__uint64_t\000"
 10914      6E743634 
 10914      5F7400
 10915              	.LASF44:
 10916 01e7 6F75746C 		.ascii	"outlen\000"
 10916      656E00
 10917              	.LASF50:
 10918 01ee 52636F6E 		.ascii	"Rcon\000"
 10918      00
 10919              	.LASF18:
 10920 01f3 63686172 		.ascii	"char\000"
 10920      00
 10921              	.LASF43:
 10922 01f8 64617461 		.ascii	"data\000"
 10922      00
 10923              	.LASF23:
 10924 01fd 62725F73 		.ascii	"br_swap32\000"
 10924      77617033 
 10924      3200
 10925              	.LASF12:
 10926 0207 75696E74 		.ascii	"uint8_t\000"
 10926      385F7400 
 10927              	.LASF9:
 10928 020f 6C6F6E67 		.ascii	"long long int\000"
 10928      206C6F6E 
 10928      6720696E 
 10928      7400
 10929              	.LASF37:
 10930 021d 62725F65 		.ascii	"br_enc32le\000"
 10930      6E633332 
ARM GAS  C:\Users\bogur\AppData\Local\Temp\cca0k2e0.s 			page 208


 10930      6C6500
 10931              	.LASF21:
 10932 0228 62725F64 		.ascii	"br_dec32le\000"
 10932      65633332 
 10932      6C6500
 10933              	.LASF38:
 10934 0233 6164645F 		.ascii	"add_round_key\000"
 10934      726F756E 
 10934      645F6B65 
 10934      7900
 10935              	.LASF30:
 10936 0241 62725F61 		.ascii	"br_aes_ct64_skey_expand\000"
 10936      65735F63 
 10936      7436345F 
 10936      736B6579 
 10936      5F657870 
 10937              	.LASF16:
 10938 0259 6C6F6E67 		.ascii	"long double\000"
 10938      20646F75 
 10938      626C6500 
 10939              	.LASF39:
 10940 0265 6D69785F 		.ascii	"mix_columns\000"
 10940      636F6C75 
 10940      6D6E7300 
 10941              	.LASF41:
 10942 0271 6165735F 		.ascii	"aes_ctr4x\000"
 10942      63747234 
 10942      7800
 10943              	.LASF46:
 10944 027b 70716372 		.ascii	"pqcrystals_aes256ctr_ref_prf\000"
 10944      79737461 
 10944      6C735F61 
 10944      65733235 
 10944      36637472 
 10945              	.LASF3:
 10946 0298 73686F72 		.ascii	"short int\000"
 10946      7420696E 
 10946      7400
 10947              	.LASF5:
 10948 02a2 6C6F6E67 		.ascii	"long int\000"
 10948      20696E74 
 10948      00
 10949              	.LASF40:
 10950 02ab 73686966 		.ascii	"shift_rows\000"
 10950      745F726F 
 10950      777300
 10951              	.LASF32:
 10952 02b6 636F6D70 		.ascii	"comp_skey\000"
 10952      5F736B65 
 10952      7900
 10953              	.LASF14:
 10954 02c0 75696E74 		.ascii	"uint64_t\000"
 10954      36345F74 
 10954      00
 10955              	.LASF45:
 10956 02c9 6E6F6E63 		.ascii	"nonce\000"
 10956      6500
ARM GAS  C:\Users\bogur\AppData\Local\Temp\cca0k2e0.s 			page 209


 10957              	.LASF6:
 10958 02cf 5F5F7569 		.ascii	"__uint8_t\000"
 10958      6E74385F 
 10958      7400
 10959              	.LASF17:
 10960 02d9 73697A65 		.ascii	"sizetype\000"
 10960      74797065 
 10960      00
 10961              	.LASF8:
 10962 02e2 6C6F6E67 		.ascii	"long unsigned int\000"
 10962      20756E73 
 10962      69676E65 
 10962      6420696E 
 10962      7400
 10963              	.LASF2:
 10964 02f4 756E7369 		.ascii	"unsigned char\000"
 10964      676E6564 
 10964      20636861 
 10964      7200
 10965              	.LASF7:
 10966 0302 5F5F7569 		.ascii	"__uint32_t\000"
 10966      6E743332 
 10966      5F7400
 10967              	.LASF52:
 10968 030d 2E2E5C61 		.ascii	"..\\aes256ctr.c\000"
 10968      65733235 
 10968      36637472 
 10968      2E6300
 10969              	.LASF35:
 10970 031c 6B65795F 		.ascii	"key_len\000"
 10970      6C656E00 
 10971              	.LASF49:
 10972 0324 6E626C6F 		.ascii	"nblocks\000"
 10972      636B7300 
 10973              	.LASF27:
 10974 032c 62725F61 		.ascii	"br_aes_ct64_ortho\000"
 10974      65735F63 
 10974      7436345F 
 10974      6F727468 
 10974      6F00
 10975              	.LASF42:
 10976 033e 62725F61 		.ascii	"br_aes_ct64_ctr_run\000"
 10976      65735F63 
 10976      7436345F 
 10976      6374725F 
 10976      72756E00 
 10977              	.LASF1:
 10978 0352 7369676E 		.ascii	"signed char\000"
 10978      65642063 
 10978      68617200 
 10979              	.LASF4:
 10980 035e 73686F72 		.ascii	"short unsigned int\000"
 10980      7420756E 
 10980      7369676E 
 10980      65642069 
 10980      6E7400
 10981              	.LASF53:
ARM GAS  C:\Users\bogur\AppData\Local\Temp\cca0k2e0.s 			page 210


 10982 0371 433A5C55 		.ascii	"C:\\Users\\bogur\\Documents\\GitHub\\TFG2\\Codigo\\"
 10982      73657273 
 10982      5C626F67 
 10982      75725C44 
 10982      6F63756D 
 10983 039d 416C676F 		.ascii	"Algoritmos postcuanticos\\PSOC\\KYBER\\Kyber\\Kyber"
 10983      7269746D 
 10983      6F732070 
 10983      6F737463 
 10983      75616E74 
 10984 03cc 2E637964 		.ascii	".cydsn\000"
 10984      736E00
 10985              	.LASF54:
 10986 03d3 7375625F 		.ascii	"sub_word\000"
 10986      776F7264 
 10986      00
 10987              	.LASF29:
 10988 03dc 62725F61 		.ascii	"br_aes_ct64_interleave_out\000"
 10988      65735F63 
 10988      7436345F 
 10988      696E7465 
 10988      726C6561 
 10989              		.ident	"GCC: (GNU Tools for ARM Embedded Processors) 5.4.1 20160609 (release) [ARM/embedded-5-bran
