ARM GAS  C:\Users\bogurad\AppData\Local\Temp\ccjp04W8.s 			page 1


   1              		.syntax unified
   2              		.cpu cortex-m4
   3              		.eabi_attribute 27, 1
   4              		.fpu fpv4-sp-d16
   5              		.eabi_attribute 20, 1
   6              		.eabi_attribute 21, 1
   7              		.eabi_attribute 23, 3
   8              		.eabi_attribute 24, 1
   9              		.eabi_attribute 25, 1
  10              		.eabi_attribute 26, 1
  11              		.eabi_attribute 30, 1
  12              		.eabi_attribute 34, 1
  13              		.eabi_attribute 18, 4
  14              		.thumb
  15              		.syntax unified
  16              		.file	"kem.c"
  17              		.text
  18              	.Ltext0:
  19              		.cfi_sections	.debug_frame
  20              		.section	.text.pqcrystals_kyber1024_ref_keypair,"ax",%progbits
  21              		.align	2
  22              		.global	pqcrystals_kyber1024_ref_keypair
  23              		.thumb
  24              		.thumb_func
  25              		.type	pqcrystals_kyber1024_ref_keypair, %function
  26              	pqcrystals_kyber1024_ref_keypair:
  27              	.LFB0:
  28              		.file 1 "..\\kem.c"
   1:..\kem.c      **** #include <stddef.h>
   2:..\kem.c      **** #include <stdint.h>
   3:..\kem.c      **** #include "kem.h"
   4:..\kem.c      **** #include "params.h"
   5:..\kem.c      **** #include "randombytes.h"
   6:..\kem.c      **** #include "symmetric.h"
   7:..\kem.c      **** #include "verify.h"
   8:..\kem.c      **** #include "indcpa.h"
   9:..\kem.c      **** 
  10:..\kem.c      **** /*************************************************
  11:..\kem.c      **** * Name:        crypto_kem_keypair
  12:..\kem.c      **** *
  13:..\kem.c      **** * Description: Generates public and private key
  14:..\kem.c      **** *              for CCA-secure Kyber key encapsulation mechanism
  15:..\kem.c      **** *
  16:..\kem.c      **** * Arguments:   - unsigned char *pk: pointer to output public key
  17:..\kem.c      **** *                (an already allocated array of CRYPTO_PUBLICKEYBYTES bytes)
  18:..\kem.c      **** *              - unsigned char *sk: pointer to output private key
  19:..\kem.c      **** *                (an already allocated array of CRYPTO_SECRETKEYBYTES bytes)
  20:..\kem.c      **** *
  21:..\kem.c      **** * Returns 0 (success)
  22:..\kem.c      **** **************************************************/
  23:..\kem.c      **** int crypto_kem_keypair(unsigned char *pk, unsigned char *sk)
  24:..\kem.c      **** {
  29              		.loc 1 24 0
  30              		.cfi_startproc
  31              		@ args = 0, pretend = 0, frame = 0
  32              		@ frame_needed = 0, uses_anonymous_args = 0
  33              	.LVL0:
ARM GAS  C:\Users\bogurad\AppData\Local\Temp\ccjp04W8.s 			page 2


  34 0000 38B5     		push	{r3, r4, r5, lr}
  35              		.cfi_def_cfa_offset 16
  36              		.cfi_offset 3, -16
  37              		.cfi_offset 4, -12
  38              		.cfi_offset 5, -8
  39              		.cfi_offset 14, -4
  40 0002 0546     		mov	r5, r0
  41 0004 0C46     		mov	r4, r1
  25:..\kem.c      ****   size_t i;
  26:..\kem.c      ****   indcpa_keypair(pk, sk);
  42              		.loc 1 26 0
  43 0006 FFF7FEFF 		bl	pqcrystals_kyber1024_ref_indcpa_keypair
  44              	.LVL1:
  27:..\kem.c      ****   for(i=0;i<KYBER_INDCPA_PUBLICKEYBYTES;i++)
  45              		.loc 1 27 0
  46 000a 0023     		movs	r3, #0
  47 000c 04E0     		b	.L2
  48              	.LVL2:
  49              	.L3:
  28:..\kem.c      ****     sk[i+KYBER_INDCPA_SECRETKEYBYTES] = pk[i];
  50              		.loc 1 28 0 discriminator 3
  51 000e 03F5C062 		add	r2, r3, #1536
  52 0012 E95C     		ldrb	r1, [r5, r3]	@ zero_extendqisi2
  53 0014 A154     		strb	r1, [r4, r2]
  27:..\kem.c      ****   for(i=0;i<KYBER_INDCPA_PUBLICKEYBYTES;i++)
  54              		.loc 1 27 0 discriminator 3
  55 0016 0133     		adds	r3, r3, #1
  56              	.LVL3:
  57              	.L2:
  27:..\kem.c      ****   for(i=0;i<KYBER_INDCPA_PUBLICKEYBYTES;i++)
  58              		.loc 1 27 0 is_stmt 0 discriminator 1
  59 0018 B3F5C46F 		cmp	r3, #1568
  60 001c F7D3     		bcc	.L3
  29:..\kem.c      ****   hash_h(sk+KYBER_SECRETKEYBYTES-2*KYBER_SYMBYTES, pk, KYBER_PUBLICKEYBYTES);
  61              		.loc 1 29 0 is_stmt 1
  62 001e 4FF4C462 		mov	r2, #1568
  63 0022 2946     		mov	r1, r5
  64 0024 04F54260 		add	r0, r4, #3104
  65 0028 FFF7FEFF 		bl	pqcrystals_fips202_ref_sha3_256
  66              	.LVL4:
  30:..\kem.c      ****   /* Value z for pseudo-random output on reject */
  31:..\kem.c      ****   randombytes(sk+KYBER_SECRETKEYBYTES-KYBER_SYMBYTES, KYBER_SYMBYTES);
  67              		.loc 1 31 0
  68 002c 2021     		movs	r1, #32
  69 002e 04F54460 		add	r0, r4, #3136
  70 0032 FFF7FEFF 		bl	randombytes
  71              	.LVL5:
  32:..\kem.c      ****   return 0;
  33:..\kem.c      **** }
  72              		.loc 1 33 0
  73 0036 0020     		movs	r0, #0
  74 0038 38BD     		pop	{r3, r4, r5, pc}
  75              		.cfi_endproc
  76              	.LFE0:
  77              		.size	pqcrystals_kyber1024_ref_keypair, .-pqcrystals_kyber1024_ref_keypair
  78 003a 00BF     		.section	.text.pqcrystals_kyber1024_ref_enc,"ax",%progbits
  79              		.align	2
ARM GAS  C:\Users\bogurad\AppData\Local\Temp\ccjp04W8.s 			page 3


  80              		.global	pqcrystals_kyber1024_ref_enc
  81              		.thumb
  82              		.thumb_func
  83              		.type	pqcrystals_kyber1024_ref_enc, %function
  84              	pqcrystals_kyber1024_ref_enc:
  85              	.LFB1:
  34:..\kem.c      **** 
  35:..\kem.c      **** /*************************************************
  36:..\kem.c      **** * Name:        crypto_kem_enc
  37:..\kem.c      **** *
  38:..\kem.c      **** * Description: Generates cipher text and shared
  39:..\kem.c      **** *              secret for given public key
  40:..\kem.c      **** *
  41:..\kem.c      **** * Arguments:   - unsigned char *ct: pointer to output cipher text
  42:..\kem.c      **** *                (an already allocated array of CRYPTO_CIPHERTEXTBYTES bytes)
  43:..\kem.c      **** *              - unsigned char *ss: pointer to output shared secret
  44:..\kem.c      **** *                (an already allocated array of CRYPTO_BYTES bytes)
  45:..\kem.c      **** *              - const unsigned char *pk: pointer to input public key
  46:..\kem.c      **** *                (an already allocated array of CRYPTO_PUBLICKEYBYTES bytes)
  47:..\kem.c      **** *
  48:..\kem.c      **** * Returns 0 (success)
  49:..\kem.c      **** **************************************************/
  50:..\kem.c      **** int crypto_kem_enc(unsigned char *ct,
  51:..\kem.c      ****                    unsigned char *ss,
  52:..\kem.c      ****                    const unsigned char *pk)
  53:..\kem.c      **** {
  86              		.loc 1 53 0
  87              		.cfi_startproc
  88              		@ args = 0, pretend = 0, frame = 128
  89              		@ frame_needed = 0, uses_anonymous_args = 0
  90              	.LVL6:
  91 0000 70B5     		push	{r4, r5, r6, lr}
  92              		.cfi_def_cfa_offset 16
  93              		.cfi_offset 4, -16
  94              		.cfi_offset 5, -12
  95              		.cfi_offset 6, -8
  96              		.cfi_offset 14, -4
  97 0002 A0B0     		sub	sp, sp, #128
  98              		.cfi_def_cfa_offset 144
  99 0004 0446     		mov	r4, r0
 100 0006 0E46     		mov	r6, r1
 101 0008 1546     		mov	r5, r2
  54:..\kem.c      ****   uint8_t buf[2*KYBER_SYMBYTES];
  55:..\kem.c      ****   /* Will contain key, coins */
  56:..\kem.c      ****   uint8_t kr[2*KYBER_SYMBYTES];
  57:..\kem.c      **** 
  58:..\kem.c      ****   randombytes(buf, KYBER_SYMBYTES);
 102              		.loc 1 58 0
 103 000a 2021     		movs	r1, #32
 104              	.LVL7:
 105 000c 10A8     		add	r0, sp, #64
 106              	.LVL8:
 107 000e FFF7FEFF 		bl	randombytes
 108              	.LVL9:
  59:..\kem.c      ****   /* Don't release system RNG output */
  60:..\kem.c      ****   hash_h(buf, buf, KYBER_SYMBYTES);
 109              		.loc 1 60 0
ARM GAS  C:\Users\bogurad\AppData\Local\Temp\ccjp04W8.s 			page 4


 110 0012 2022     		movs	r2, #32
 111 0014 10A9     		add	r1, sp, #64
 112 0016 0846     		mov	r0, r1
 113 0018 FFF7FEFF 		bl	pqcrystals_fips202_ref_sha3_256
 114              	.LVL10:
  61:..\kem.c      **** 
  62:..\kem.c      ****   /* Multitarget countermeasure for coins + contributory KEM */
  63:..\kem.c      ****   hash_h(buf+KYBER_SYMBYTES, pk, KYBER_PUBLICKEYBYTES);
 115              		.loc 1 63 0
 116 001c 4FF4C462 		mov	r2, #1568
 117 0020 2946     		mov	r1, r5
 118 0022 18A8     		add	r0, sp, #96
 119 0024 FFF7FEFF 		bl	pqcrystals_fips202_ref_sha3_256
 120              	.LVL11:
  64:..\kem.c      ****   hash_g(kr, buf, 2*KYBER_SYMBYTES);
 121              		.loc 1 64 0
 122 0028 4022     		movs	r2, #64
 123 002a 0DEB0201 		add	r1, sp, r2
 124 002e 6846     		mov	r0, sp
 125 0030 FFF7FEFF 		bl	pqcrystals_fips202_ref_sha3_512
 126              	.LVL12:
  65:..\kem.c      **** 
  66:..\kem.c      ****   /* coins are in kr+KYBER_SYMBYTES */
  67:..\kem.c      ****   indcpa_enc(ct, buf, pk, kr+KYBER_SYMBYTES);
 127              		.loc 1 67 0
 128 0034 08AB     		add	r3, sp, #32
 129 0036 2A46     		mov	r2, r5
 130 0038 10A9     		add	r1, sp, #64
 131 003a 2046     		mov	r0, r4
 132 003c FFF7FEFF 		bl	pqcrystals_kyber1024_ref_indcpa_enc
 133              	.LVL13:
  68:..\kem.c      **** 
  69:..\kem.c      ****   /* overwrite coins in kr with H(c) */
  70:..\kem.c      ****   hash_h(kr+KYBER_SYMBYTES, ct, KYBER_CIPHERTEXTBYTES);
 134              		.loc 1 70 0
 135 0040 4FF4C462 		mov	r2, #1568
 136 0044 2146     		mov	r1, r4
 137 0046 08A8     		add	r0, sp, #32
 138 0048 FFF7FEFF 		bl	pqcrystals_fips202_ref_sha3_256
 139              	.LVL14:
  71:..\kem.c      ****   /* hash concatenation of pre-k and H(c) to k */
  72:..\kem.c      ****   kdf(ss, kr, 2*KYBER_SYMBYTES);
 140              		.loc 1 72 0
 141 004c 4023     		movs	r3, #64
 142 004e 6A46     		mov	r2, sp
 143 0050 2021     		movs	r1, #32
 144 0052 3046     		mov	r0, r6
 145 0054 FFF7FEFF 		bl	pqcrystals_fips202_ref_shake256
 146              	.LVL15:
  73:..\kem.c      ****   return 0;
  74:..\kem.c      **** }
 147              		.loc 1 74 0
 148 0058 0020     		movs	r0, #0
 149 005a 20B0     		add	sp, sp, #128
 150              		.cfi_def_cfa_offset 16
 151              		@ sp needed
 152 005c 70BD     		pop	{r4, r5, r6, pc}
ARM GAS  C:\Users\bogurad\AppData\Local\Temp\ccjp04W8.s 			page 5


 153              		.cfi_endproc
 154              	.LFE1:
 155              		.size	pqcrystals_kyber1024_ref_enc, .-pqcrystals_kyber1024_ref_enc
 156 005e 00BF     		.section	.text.pqcrystals_kyber1024_ref_dec,"ax",%progbits
 157              		.align	2
 158              		.global	pqcrystals_kyber1024_ref_dec
 159              		.thumb
 160              		.thumb_func
 161              		.type	pqcrystals_kyber1024_ref_dec, %function
 162              	pqcrystals_kyber1024_ref_dec:
 163              	.LFB2:
  75:..\kem.c      **** 
  76:..\kem.c      **** /*************************************************
  77:..\kem.c      **** * Name:        crypto_kem_dec
  78:..\kem.c      **** *
  79:..\kem.c      **** * Description: Generates shared secret for given
  80:..\kem.c      **** *              cipher text and private key
  81:..\kem.c      **** *
  82:..\kem.c      **** * Arguments:   - unsigned char *ss: pointer to output shared secret
  83:..\kem.c      **** *                (an already allocated array of CRYPTO_BYTES bytes)
  84:..\kem.c      **** *              - const unsigned char *ct: pointer to input cipher text
  85:..\kem.c      **** *                (an already allocated array of CRYPTO_CIPHERTEXTBYTES bytes)
  86:..\kem.c      **** *              - const unsigned char *sk: pointer to input private key
  87:..\kem.c      **** *                (an already allocated array of CRYPTO_SECRETKEYBYTES bytes)
  88:..\kem.c      **** *
  89:..\kem.c      **** * Returns 0.
  90:..\kem.c      **** *
  91:..\kem.c      **** * On failure, ss will contain a pseudo-random value.
  92:..\kem.c      **** **************************************************/
  93:..\kem.c      **** int crypto_kem_dec(unsigned char *ss,
  94:..\kem.c      ****                    const unsigned char *ct,
  95:..\kem.c      ****                    const unsigned char *sk)
  96:..\kem.c      **** {
 164              		.loc 1 96 0
 165              		.cfi_startproc
 166              		@ args = 0, pretend = 0, frame = 1696
 167              		@ frame_needed = 0, uses_anonymous_args = 0
 168              	.LVL16:
 169 0000 F0B5     		push	{r4, r5, r6, r7, lr}
 170              		.cfi_def_cfa_offset 20
 171              		.cfi_offset 4, -20
 172              		.cfi_offset 5, -16
 173              		.cfi_offset 6, -12
 174              		.cfi_offset 7, -8
 175              		.cfi_offset 14, -4
 176 0002 ADF2A46D 		subw	sp, sp, #1700
 177              		.cfi_def_cfa_offset 1720
 178 0006 0646     		mov	r6, r0
 179 0008 0D46     		mov	r5, r1
 180 000a 1446     		mov	r4, r2
  97:..\kem.c      ****   size_t i;
  98:..\kem.c      ****   int fail;
  99:..\kem.c      ****   uint8_t buf[2*KYBER_SYMBYTES];
 100:..\kem.c      ****   /* Will contain key, coins */
 101:..\kem.c      ****   uint8_t kr[2*KYBER_SYMBYTES];
 102:..\kem.c      ****   uint8_t cmp[KYBER_CIPHERTEXTBYTES];
 103:..\kem.c      ****   const uint8_t *pk = sk+KYBER_INDCPA_SECRETKEYBYTES;
ARM GAS  C:\Users\bogurad\AppData\Local\Temp\ccjp04W8.s 			page 6


 181              		.loc 1 103 0
 182 000c 02F5C067 		add	r7, r2, #1536
 183              	.LVL17:
 104:..\kem.c      **** 
 105:..\kem.c      ****   indcpa_dec(buf, ct, sk);
 184              		.loc 1 105 0
 185 0010 0DF5CC60 		add	r0, sp, #1632
 186              	.LVL18:
 187 0014 FFF7FEFF 		bl	pqcrystals_kyber1024_ref_indcpa_dec
 188              	.LVL19:
 106:..\kem.c      **** 
 107:..\kem.c      ****   /* Multitarget countermeasure for coins + contributory KEM */
 108:..\kem.c      ****   for(i=0;i<KYBER_SYMBYTES;i++)
 189              		.loc 1 108 0
 190 0018 0023     		movs	r3, #0
 191 001a 0AE0     		b	.L8
 192              	.LVL20:
 193              	.L9:
 109:..\kem.c      ****     buf[KYBER_SYMBYTES+i] = sk[KYBER_SECRETKEYBYTES-2*KYBER_SYMBYTES+i];
 194              		.loc 1 109 0 discriminator 3
 195 001c 03F12002 		add	r2, r3, #32
 196 0020 E118     		adds	r1, r4, r3
 197 0022 91F8201C 		ldrb	r1, [r1, #3104]	@ zero_extendqisi2
 198 0026 0DF5D460 		add	r0, sp, #1696
 199 002a 0244     		add	r2, r2, r0
 200 002c 02F8401C 		strb	r1, [r2, #-64]
 108:..\kem.c      ****     buf[KYBER_SYMBYTES+i] = sk[KYBER_SECRETKEYBYTES-2*KYBER_SYMBYTES+i];
 201              		.loc 1 108 0 discriminator 3
 202 0030 0133     		adds	r3, r3, #1
 203              	.LVL21:
 204              	.L8:
 108:..\kem.c      ****     buf[KYBER_SYMBYTES+i] = sk[KYBER_SECRETKEYBYTES-2*KYBER_SYMBYTES+i];
 205              		.loc 1 108 0 is_stmt 0 discriminator 1
 206 0032 1F2B     		cmp	r3, #31
 207 0034 F2D9     		bls	.L9
 110:..\kem.c      ****   hash_g(kr, buf, 2*KYBER_SYMBYTES);
 208              		.loc 1 110 0 is_stmt 1
 209 0036 4022     		movs	r2, #64
 210 0038 0DF5CC61 		add	r1, sp, #1632
 211 003c 0DF5C460 		add	r0, sp, #1568
 212 0040 FFF7FEFF 		bl	pqcrystals_fips202_ref_sha3_512
 213              	.LVL22:
 111:..\kem.c      **** 
 112:..\kem.c      ****   /* coins are in kr+KYBER_SYMBYTES */
 113:..\kem.c      ****   indcpa_enc(cmp, buf, pk, kr+KYBER_SYMBYTES);
 214              		.loc 1 113 0
 215 0044 0DF5C863 		add	r3, sp, #1600
 216 0048 3A46     		mov	r2, r7
 217 004a 0DF5CC61 		add	r1, sp, #1632
 218 004e 6846     		mov	r0, sp
 219 0050 FFF7FEFF 		bl	pqcrystals_kyber1024_ref_indcpa_enc
 220              	.LVL23:
 114:..\kem.c      **** 
 115:..\kem.c      ****   fail = verify(ct, cmp, KYBER_CIPHERTEXTBYTES);
 221              		.loc 1 115 0
 222 0054 4FF4C462 		mov	r2, #1568
 223 0058 6946     		mov	r1, sp
ARM GAS  C:\Users\bogurad\AppData\Local\Temp\ccjp04W8.s 			page 7


 224 005a 2846     		mov	r0, r5
 225 005c FFF7FEFF 		bl	pqcrystals_kyber1024_ref_verify
 226              	.LVL24:
 227 0060 0746     		mov	r7, r0
 228              	.LVL25:
 116:..\kem.c      **** 
 117:..\kem.c      ****   /* overwrite coins in kr with H(c) */
 118:..\kem.c      ****   hash_h(kr+KYBER_SYMBYTES, ct, KYBER_CIPHERTEXTBYTES);
 229              		.loc 1 118 0
 230 0062 4FF4C462 		mov	r2, #1568
 231 0066 2946     		mov	r1, r5
 232 0068 0DF5C860 		add	r0, sp, #1600
 233              	.LVL26:
 234 006c FFF7FEFF 		bl	pqcrystals_fips202_ref_sha3_256
 235              	.LVL27:
 119:..\kem.c      **** 
 120:..\kem.c      ****   /* Overwrite pre-k with z on re-encryption failure */
 121:..\kem.c      ****   cmov(kr, sk+KYBER_SECRETKEYBYTES-KYBER_SYMBYTES, KYBER_SYMBYTES, fail);
 236              		.loc 1 121 0
 237 0070 FBB2     		uxtb	r3, r7
 238 0072 2022     		movs	r2, #32
 239 0074 04F54461 		add	r1, r4, #3136
 240 0078 0DF5C460 		add	r0, sp, #1568
 241 007c FFF7FEFF 		bl	pqcrystals_kyber1024_ref_cmov
 242              	.LVL28:
 122:..\kem.c      **** 
 123:..\kem.c      ****   /* hash concatenation of pre-k and H(c) to k */
 124:..\kem.c      ****   kdf(ss, kr, 2*KYBER_SYMBYTES);
 243              		.loc 1 124 0
 244 0080 4023     		movs	r3, #64
 245 0082 0DF5C462 		add	r2, sp, #1568
 246 0086 2021     		movs	r1, #32
 247 0088 3046     		mov	r0, r6
 248 008a FFF7FEFF 		bl	pqcrystals_fips202_ref_shake256
 249              	.LVL29:
 125:..\kem.c      ****   return 0;
 126:..\kem.c      **** }
 250              		.loc 1 126 0
 251 008e 0020     		movs	r0, #0
 252 0090 0DF2A46D 		addw	sp, sp, #1700
 253              		.cfi_def_cfa_offset 20
 254              		@ sp needed
 255 0094 F0BD     		pop	{r4, r5, r6, r7, pc}
 256              		.cfi_endproc
 257              	.LFE2:
 258              		.size	pqcrystals_kyber1024_ref_dec, .-pqcrystals_kyber1024_ref_dec
 259 0096 00BF     		.text
 260              	.Letext0:
 261              		.file 2 "c:\\program files (x86)\\cypress\\psoc creator\\4.4\\psoc creator\\import\\gnu\\arm\\5.4.
 262              		.file 3 "c:\\program files (x86)\\cypress\\psoc creator\\4.4\\psoc creator\\import\\gnu\\arm\\5.4.
 263              		.file 4 "c:\\program files (x86)\\cypress\\psoc creator\\4.4\\psoc creator\\import\\gnu\\arm\\5.4.
 264              		.file 5 "..\\indcpa.h"
 265              		.file 6 "..\\fips202.h"
 266              		.file 7 "..\\randombytes.h"
 267              		.file 8 "..\\verify.h"