ARM GAS  C:\Users\bogurad\AppData\Local\Temp\cczTV0He.s 			page 1


   1              		.syntax unified
   2              		.cpu cortex-m4
   3              		.eabi_attribute 27, 1
   4              		.fpu fpv4-sp-d16
   5              		.eabi_attribute 20, 1
   6              		.eabi_attribute 21, 1
   7              		.eabi_attribute 23, 3
   8              		.eabi_attribute 24, 1
   9              		.eabi_attribute 25, 1
  10              		.eabi_attribute 26, 1
  11              		.eabi_attribute 30, 1
  12              		.eabi_attribute 34, 1
  13              		.eabi_attribute 18, 4
  14              		.thumb
  15              		.syntax unified
  16              		.file	"kyber_wrapper.c"
  17              		.text
  18              	.Ltext0:
  19              		.cfi_sections	.debug_frame
  20              		.section	.text.kyber_init,"ax",%progbits
  21              		.align	2
  22              		.global	kyber_init
  23              		.thumb
  24              		.thumb_func
  25              		.type	kyber_init, %function
  26              	kyber_init:
  27              	.LFB0:
  28              		.file 1 "..\\kyber_wrapper.c"
   1:..\kyber_wrapper.c **** #include "kyber_wrapper.h"
   2:..\kyber_wrapper.c **** #include "params.h"
   3:..\kyber_wrapper.c **** #include "kem.h"
   4:..\kyber_wrapper.c **** #include "api.h"
   5:..\kyber_wrapper.c **** 
   6:..\kyber_wrapper.c **** // Current security level
   7:..\kyber_wrapper.c **** static kyber_security_level_t current_security_level = KYBER_SECURITY_1024;
   8:..\kyber_wrapper.c **** 
   9:..\kyber_wrapper.c **** // Static flag to indicate if the library has been initialized
  10:..\kyber_wrapper.c **** static int is_initialized = 0;
  11:..\kyber_wrapper.c **** 
  12:..\kyber_wrapper.c **** int kyber_init(kyber_security_level_t security_level) {
  29              		.loc 1 12 0
  30              		.cfi_startproc
  31              		@ args = 0, pretend = 0, frame = 0
  32              		@ frame_needed = 0, uses_anonymous_args = 0
  33              		@ link register save eliminated.
  34              	.LVL0:
  13:..\kyber_wrapper.c ****     // Validate security level
  14:..\kyber_wrapper.c ****     if (security_level != KYBER_SECURITY_512 && 
  15:..\kyber_wrapper.c ****         security_level != KYBER_SECURITY_768 && 
  35              		.loc 1 15 0
  36 0000 0238     		subs	r0, r0, #2
  37              	.LVL1:
  38 0002 C0B2     		uxtb	r0, r0
  14:..\kyber_wrapper.c ****         security_level != KYBER_SECURITY_768 && 
  39              		.loc 1 14 0
  40 0004 0228     		cmp	r0, #2
  41 0006 04D8     		bhi	.L3
ARM GAS  C:\Users\bogurad\AppData\Local\Temp\cczTV0He.s 			page 2


  16:..\kyber_wrapper.c ****         security_level != KYBER_SECURITY_1024) {
  17:..\kyber_wrapper.c ****         return -1;
  18:..\kyber_wrapper.c ****     }
  19:..\kyber_wrapper.c ****     
  20:..\kyber_wrapper.c ****     // Store security level (for runtime checking)
  21:..\kyber_wrapper.c ****     current_security_level = security_level;
  22:..\kyber_wrapper.c ****     is_initialized = 1;
  42              		.loc 1 22 0
  43 0008 0122     		movs	r2, #1
  44 000a 034B     		ldr	r3, .L4
  45 000c 1A60     		str	r2, [r3]
  23:..\kyber_wrapper.c ****     
  24:..\kyber_wrapper.c ****     return 0;
  46              		.loc 1 24 0
  47 000e 0020     		movs	r0, #0
  48 0010 7047     		bx	lr
  49              	.L3:
  17:..\kyber_wrapper.c ****     }
  50              		.loc 1 17 0
  51 0012 4FF0FF30 		mov	r0, #-1
  25:..\kyber_wrapper.c **** }
  52              		.loc 1 25 0
  53 0016 7047     		bx	lr
  54              	.L5:
  55              		.align	2
  56              	.L4:
  57 0018 00000000 		.word	.LANCHOR0
  58              		.cfi_endproc
  59              	.LFE0:
  60              		.size	kyber_init, .-kyber_init
  61              		.section	.text.kyber_get_public_key_size,"ax",%progbits
  62              		.align	2
  63              		.global	kyber_get_public_key_size
  64              		.thumb
  65              		.thumb_func
  66              		.type	kyber_get_public_key_size, %function
  67              	kyber_get_public_key_size:
  68              	.LFB1:
  26:..\kyber_wrapper.c **** 
  27:..\kyber_wrapper.c **** size_t kyber_get_public_key_size(void) {
  69              		.loc 1 27 0
  70              		.cfi_startproc
  71              		@ args = 0, pretend = 0, frame = 0
  72              		@ frame_needed = 0, uses_anonymous_args = 0
  73              		@ link register save eliminated.
  28:..\kyber_wrapper.c ****     return CRYPTO_PUBLICKEYBYTES;
  29:..\kyber_wrapper.c **** }
  74              		.loc 1 29 0
  75 0000 4FF4C460 		mov	r0, #1568
  76 0004 7047     		bx	lr
  77              		.cfi_endproc
  78              	.LFE1:
  79              		.size	kyber_get_public_key_size, .-kyber_get_public_key_size
  80 0006 00BF     		.section	.text.kyber_get_secret_key_size,"ax",%progbits
  81              		.align	2
  82              		.global	kyber_get_secret_key_size
  83              		.thumb
ARM GAS  C:\Users\bogurad\AppData\Local\Temp\cczTV0He.s 			page 3


  84              		.thumb_func
  85              		.type	kyber_get_secret_key_size, %function
  86              	kyber_get_secret_key_size:
  87              	.LFB2:
  30:..\kyber_wrapper.c **** 
  31:..\kyber_wrapper.c **** size_t kyber_get_secret_key_size(void) {
  88              		.loc 1 31 0
  89              		.cfi_startproc
  90              		@ args = 0, pretend = 0, frame = 0
  91              		@ frame_needed = 0, uses_anonymous_args = 0
  92              		@ link register save eliminated.
  32:..\kyber_wrapper.c ****     return CRYPTO_SECRETKEYBYTES;
  33:..\kyber_wrapper.c **** }
  93              		.loc 1 33 0
  94 0000 4FF44660 		mov	r0, #3168
  95 0004 7047     		bx	lr
  96              		.cfi_endproc
  97              	.LFE2:
  98              		.size	kyber_get_secret_key_size, .-kyber_get_secret_key_size
  99 0006 00BF     		.section	.text.kyber_get_ciphertext_size,"ax",%progbits
 100              		.align	2
 101              		.global	kyber_get_ciphertext_size
 102              		.thumb
 103              		.thumb_func
 104              		.type	kyber_get_ciphertext_size, %function
 105              	kyber_get_ciphertext_size:
 106              	.LFB3:
  34:..\kyber_wrapper.c **** 
  35:..\kyber_wrapper.c **** size_t kyber_get_ciphertext_size(void) {
 107              		.loc 1 35 0
 108              		.cfi_startproc
 109              		@ args = 0, pretend = 0, frame = 0
 110              		@ frame_needed = 0, uses_anonymous_args = 0
 111              		@ link register save eliminated.
  36:..\kyber_wrapper.c ****     return CRYPTO_CIPHERTEXTBYTES;
  37:..\kyber_wrapper.c **** }
 112              		.loc 1 37 0
 113 0000 4FF4C460 		mov	r0, #1568
 114 0004 7047     		bx	lr
 115              		.cfi_endproc
 116              	.LFE3:
 117              		.size	kyber_get_ciphertext_size, .-kyber_get_ciphertext_size
 118 0006 00BF     		.section	.text.kyber_get_shared_secret_size,"ax",%progbits
 119              		.align	2
 120              		.global	kyber_get_shared_secret_size
 121              		.thumb
 122              		.thumb_func
 123              		.type	kyber_get_shared_secret_size, %function
 124              	kyber_get_shared_secret_size:
 125              	.LFB4:
  38:..\kyber_wrapper.c **** 
  39:..\kyber_wrapper.c **** size_t kyber_get_shared_secret_size(void) {
 126              		.loc 1 39 0
 127              		.cfi_startproc
 128              		@ args = 0, pretend = 0, frame = 0
 129              		@ frame_needed = 0, uses_anonymous_args = 0
 130              		@ link register save eliminated.
ARM GAS  C:\Users\bogurad\AppData\Local\Temp\cczTV0He.s 			page 4


  40:..\kyber_wrapper.c ****     return CRYPTO_BYTES;
  41:..\kyber_wrapper.c **** }
 131              		.loc 1 41 0
 132 0000 2020     		movs	r0, #32
 133 0002 7047     		bx	lr
 134              		.cfi_endproc
 135              	.LFE4:
 136              		.size	kyber_get_shared_secret_size, .-kyber_get_shared_secret_size
 137              		.section	.text.kyber_keypair,"ax",%progbits
 138              		.align	2
 139              		.global	kyber_keypair
 140              		.thumb
 141              		.thumb_func
 142              		.type	kyber_keypair, %function
 143              	kyber_keypair:
 144              	.LFB5:
  42:..\kyber_wrapper.c **** 
  43:..\kyber_wrapper.c **** int kyber_keypair(unsigned char *pk, unsigned char *sk) {
 145              		.loc 1 43 0
 146              		.cfi_startproc
 147              		@ args = 0, pretend = 0, frame = 0
 148              		@ frame_needed = 0, uses_anonymous_args = 0
 149              	.LVL2:
 150 0000 08B5     		push	{r3, lr}
 151              		.cfi_def_cfa_offset 8
 152              		.cfi_offset 3, -8
 153              		.cfi_offset 14, -4
  44:..\kyber_wrapper.c ****     if (!is_initialized) return -1;
 154              		.loc 1 44 0
 155 0002 044B     		ldr	r3, .L14
 156 0004 1B68     		ldr	r3, [r3]
 157 0006 13B1     		cbz	r3, .L12
  45:..\kyber_wrapper.c ****     return crypto_kem_keypair(pk, sk);
 158              		.loc 1 45 0
 159 0008 FFF7FEFF 		bl	pqcrystals_kyber1024_ref_keypair
 160              	.LVL3:
 161 000c 08BD     		pop	{r3, pc}
 162              	.LVL4:
 163              	.L12:
  44:..\kyber_wrapper.c ****     if (!is_initialized) return -1;
 164              		.loc 1 44 0
 165 000e 4FF0FF30 		mov	r0, #-1
 166              	.LVL5:
  46:..\kyber_wrapper.c **** }
 167              		.loc 1 46 0
 168 0012 08BD     		pop	{r3, pc}
 169              	.L15:
 170              		.align	2
 171              	.L14:
 172 0014 00000000 		.word	.LANCHOR0
 173              		.cfi_endproc
 174              	.LFE5:
 175              		.size	kyber_keypair, .-kyber_keypair
 176              		.section	.text.kyber_encapsulate,"ax",%progbits
 177              		.align	2
 178              		.global	kyber_encapsulate
 179              		.thumb
ARM GAS  C:\Users\bogurad\AppData\Local\Temp\cczTV0He.s 			page 5


 180              		.thumb_func
 181              		.type	kyber_encapsulate, %function
 182              	kyber_encapsulate:
 183              	.LFB6:
  47:..\kyber_wrapper.c **** 
  48:..\kyber_wrapper.c **** int kyber_encapsulate(unsigned char *ct, unsigned char *ss, const unsigned char *pk) {
 184              		.loc 1 48 0
 185              		.cfi_startproc
 186              		@ args = 0, pretend = 0, frame = 0
 187              		@ frame_needed = 0, uses_anonymous_args = 0
 188              	.LVL6:
 189 0000 08B5     		push	{r3, lr}
 190              		.cfi_def_cfa_offset 8
 191              		.cfi_offset 3, -8
 192              		.cfi_offset 14, -4
  49:..\kyber_wrapper.c ****     if (!is_initialized) return -1;
 193              		.loc 1 49 0
 194 0002 044B     		ldr	r3, .L20
 195 0004 1B68     		ldr	r3, [r3]
 196 0006 13B1     		cbz	r3, .L18
  50:..\kyber_wrapper.c ****     return crypto_kem_enc(ct, ss, pk);
 197              		.loc 1 50 0
 198 0008 FFF7FEFF 		bl	pqcrystals_kyber1024_ref_enc
 199              	.LVL7:
 200 000c 08BD     		pop	{r3, pc}
 201              	.LVL8:
 202              	.L18:
  49:..\kyber_wrapper.c ****     if (!is_initialized) return -1;
 203              		.loc 1 49 0
 204 000e 4FF0FF30 		mov	r0, #-1
 205              	.LVL9:
  51:..\kyber_wrapper.c **** }
 206              		.loc 1 51 0
 207 0012 08BD     		pop	{r3, pc}
 208              	.L21:
 209              		.align	2
 210              	.L20:
 211 0014 00000000 		.word	.LANCHOR0
 212              		.cfi_endproc
 213              	.LFE6:
 214              		.size	kyber_encapsulate, .-kyber_encapsulate
 215              		.section	.text.kyber_decapsulate,"ax",%progbits
 216              		.align	2
 217              		.global	kyber_decapsulate
 218              		.thumb
 219              		.thumb_func
 220              		.type	kyber_decapsulate, %function
 221              	kyber_decapsulate:
 222              	.LFB7:
  52:..\kyber_wrapper.c **** 
  53:..\kyber_wrapper.c **** int kyber_decapsulate(unsigned char *ss, const unsigned char *ct, const unsigned char *sk) {
 223              		.loc 1 53 0
 224              		.cfi_startproc
 225              		@ args = 0, pretend = 0, frame = 0
 226              		@ frame_needed = 0, uses_anonymous_args = 0
 227              	.LVL10:
 228 0000 08B5     		push	{r3, lr}
ARM GAS  C:\Users\bogurad\AppData\Local\Temp\cczTV0He.s 			page 6


 229              		.cfi_def_cfa_offset 8
 230              		.cfi_offset 3, -8
 231              		.cfi_offset 14, -4
  54:..\kyber_wrapper.c ****     if (!is_initialized) return -1;
 232              		.loc 1 54 0
 233 0002 044B     		ldr	r3, .L26
 234 0004 1B68     		ldr	r3, [r3]
 235 0006 13B1     		cbz	r3, .L24
  55:..\kyber_wrapper.c ****     return crypto_kem_dec(ss, ct, sk);
 236              		.loc 1 55 0
 237 0008 FFF7FEFF 		bl	pqcrystals_kyber1024_ref_dec
 238              	.LVL11:
 239 000c 08BD     		pop	{r3, pc}
 240              	.LVL12:
 241              	.L24:
  54:..\kyber_wrapper.c ****     if (!is_initialized) return -1;
 242              		.loc 1 54 0
 243 000e 4FF0FF30 		mov	r0, #-1
 244              	.LVL13:
  56:..\kyber_wrapper.c **** }
 245              		.loc 1 56 0
 246 0012 08BD     		pop	{r3, pc}
 247              	.L27:
 248              		.align	2
 249              	.L26:
 250 0014 00000000 		.word	.LANCHOR0
 251              		.cfi_endproc
 252              	.LFE7:
 253              		.size	kyber_decapsulate, .-kyber_decapsulate
 254              		.bss
 255              		.align	2
 256              		.set	.LANCHOR0,. + 0
 257              		.type	is_initialized, %object
 258              		.size	is_initialized, 4
 259              	is_initialized:
 260 0000 00000000 		.space	4
 261              		.text
 262              	.Letext0:
 263              		.file 2 "c:\\program files (x86)\\cypress\\psoc creator\\4.4\\psoc creator\\import\\gnu\\arm\\5.4.
 264              		.file 3 "..\\kyber_wrapper.h"
 265              		.file 4 "..\\api.h"