ARM GAS  C:\Users\bogurad\AppData\Local\Temp\ccZUqOTK.s 			page 1


   1              		.syntax unified
   2              		.cpu cortex-m4
   3              		.eabi_attribute 27, 1
   4              		.fpu fpv4-sp-d16
   5              		.eabi_attribute 20, 1
   6              		.eabi_attribute 21, 1
   7              		.eabi_attribute 23, 3
   8              		.eabi_attribute 24, 1
   9              		.eabi_attribute 25, 1
  10              		.eabi_attribute 26, 1
  11              		.eabi_attribute 30, 1
  12              		.eabi_attribute 34, 1
  13              		.eabi_attribute 18, 4
  14              		.thumb
  15              		.syntax unified
  16              		.file	"mainTask.c"
  17              		.text
  18              	.Ltext0:
  19              		.cfi_sections	.debug_frame
  20              		.section	.text.mainTask,"ax",%progbits
  21              		.align	2
  22              		.global	mainTask
  23              		.thumb
  24              		.thumb_func
  25              		.type	mainTask, %function
  26              	mainTask:
  27              	.LFB485:
  28              		.file 1 "mainTask.c"
   1:mainTask.c    **** /* ========================================
   2:mainTask.c    ****  *
   3:mainTask.c    ****  * Copyright YOUR COMPANY, THE YEAR
   4:mainTask.c    ****  * All Rights Reserved
   5:mainTask.c    ****  * UNPUBLISHED, LICENSED SOFTWARE.
   6:mainTask.c    ****  *
   7:mainTask.c    ****  * CONFIDENTIAL AND PROPRIETARY INFORMATION
   8:mainTask.c    ****  * WHICH IS THE PROPERTY OF your company.
   9:mainTask.c    ****  *
  10:mainTask.c    ****  * ========================================
  11:mainTask.c    **** */
  12:mainTask.c    **** 
  13:mainTask.c    **** #include "project.h"
  14:mainTask.c    **** #include "FreeRTOS.h"
  15:mainTask.c    **** #include "task.h"
  16:mainTask.c    **** #include "semphr.h"
  17:mainTask.c    **** #include <stdio.h>
  18:mainTask.c    **** #include <stdlib.h>
  19:mainTask.c    **** #include "../kyber_wrapper.h"
  20:mainTask.c    **** 
  21:mainTask.c    **** unsigned char *sk = NULL;
  22:mainTask.c    **** unsigned char *pk = NULL;
  23:mainTask.c    **** unsigned char *ct = NULL;
  24:mainTask.c    **** unsigned char *ss = NULL;
  25:mainTask.c    **** 
  26:mainTask.c    **** // External semaphore from UART task
  27:mainTask.c    **** extern SemaphoreHandle_t uartReadySemaphore;
  28:mainTask.c    **** 
  29:mainTask.c    **** 
ARM GAS  C:\Users\bogurad\AppData\Local\Temp\ccZUqOTK.s 			page 2


  30:mainTask.c    **** void mainTask(void *arg)
  31:mainTask.c    **** {
  29              		.loc 1 31 0
  30              		.cfi_startproc
  31              		@ args = 0, pretend = 0, frame = 0
  32              		@ frame_needed = 0, uses_anonymous_args = 0
  33              	.LVL0:
  34 0000 2DE9F041 		push	{r4, r5, r6, r7, r8, lr}
  35              		.cfi_def_cfa_offset 24
  36              		.cfi_offset 4, -24
  37              		.cfi_offset 5, -20
  38              		.cfi_offset 6, -16
  39              		.cfi_offset 7, -12
  40              		.cfi_offset 8, -8
  41              		.cfi_offset 14, -4
  32:mainTask.c    ****     (void)arg;
  33:mainTask.c    ****     
  34:mainTask.c    ****     // Wait for UART to be ready (block until semaphore is given)
  35:mainTask.c    ****     xSemaphoreTake(uartReadySemaphore, portMAX_DELAY);
  42              		.loc 1 35 0
  43 0004 4FF0FF31 		mov	r1, #-1
  44 0008 2D4B     		ldr	r3, .L10
  45 000a 1868     		ldr	r0, [r3]
  46              	.LVL1:
  47 000c FFF7FEFF 		bl	xQueueSemaphoreTake
  48              	.LVL2:
  36:mainTask.c    ****     
  37:mainTask.c    ****     printf("Main task started - UART is ready\r\n");
  49              		.loc 1 37 0
  50 0010 2C48     		ldr	r0, .L10+4
  51 0012 FFF7FEFF 		bl	puts
  52              	.LVL3:
  38:mainTask.c    ****     
  39:mainTask.c    ****     //Initialize SABER
  40:mainTask.c    ****     if (kyber_init(KYBER_SECURITY_1024) != 0) {
  53              		.loc 1 40 0
  54 0016 0420     		movs	r0, #4
  55 0018 FFF7FEFF 		bl	kyber_init
  56              	.LVL4:
  57 001c 10B1     		cbz	r0, .L2
  41:mainTask.c    ****         printf("Kyber init failed\n");
  58              		.loc 1 41 0
  59 001e 2A48     		ldr	r0, .L10+8
  60 0020 FFF7FEFF 		bl	puts
  61              	.LVL5:
  62              	.L2:
  42:mainTask.c    ****     }
  43:mainTask.c    ****     
  44:mainTask.c    ****     // Allocate memory
  45:mainTask.c    ****     const size_t BYTES_SK = kyber_get_secret_key_size();
  63              		.loc 1 45 0
  64 0024 FFF7FEFF 		bl	kyber_get_secret_key_size
  65              	.LVL6:
  66 0028 0446     		mov	r4, r0
  67              	.LVL7:
  46:mainTask.c    ****     const size_t BYTES_PK = kyber_get_public_key_size();
  68              		.loc 1 46 0
ARM GAS  C:\Users\bogurad\AppData\Local\Temp\ccZUqOTK.s 			page 3


  69 002a FFF7FEFF 		bl	kyber_get_public_key_size
  70              	.LVL8:
  71 002e 0646     		mov	r6, r0
  72              	.LVL9:
  47:mainTask.c    ****     const size_t BYTES_CT = kyber_get_ciphertext_size();
  73              		.loc 1 47 0
  74 0030 FFF7FEFF 		bl	kyber_get_ciphertext_size
  75              	.LVL10:
  76 0034 0546     		mov	r5, r0
  77              	.LVL11:
  48:mainTask.c    ****     const size_t BYTES_SS = kyber_get_shared_secret_size();
  78              		.loc 1 48 0
  79 0036 FFF7FEFF 		bl	kyber_get_shared_secret_size
  80              	.LVL12:
  81 003a 8046     		mov	r8, r0
  82              	.LVL13:
  49:mainTask.c    ****     
  50:mainTask.c    ****     sk = (unsigned char *) calloc(BYTES_SK, sizeof(unsigned char));
  83              		.loc 1 50 0
  84 003c 0121     		movs	r1, #1
  85 003e 2046     		mov	r0, r4
  86              	.LVL14:
  87 0040 FFF7FEFF 		bl	calloc
  88              	.LVL15:
  89 0044 0746     		mov	r7, r0
  90 0046 214C     		ldr	r4, .L10+12
  91              	.LVL16:
  92 0048 2060     		str	r0, [r4]
  51:mainTask.c    ****     pk = (unsigned char *) calloc(BYTES_PK, sizeof(unsigned char));
  93              		.loc 1 51 0
  94 004a 0121     		movs	r1, #1
  95 004c 3046     		mov	r0, r6
  96 004e FFF7FEFF 		bl	calloc
  97              	.LVL17:
  98 0052 0646     		mov	r6, r0
  99              	.LVL18:
 100 0054 6060     		str	r0, [r4, #4]
  52:mainTask.c    ****     ct = (unsigned char *) calloc(BYTES_CT, sizeof(unsigned char));
 101              		.loc 1 52 0
 102 0056 0121     		movs	r1, #1
 103 0058 2846     		mov	r0, r5
 104 005a FFF7FEFF 		bl	calloc
 105              	.LVL19:
 106 005e 0546     		mov	r5, r0
 107              	.LVL20:
 108 0060 A060     		str	r0, [r4, #8]
  53:mainTask.c    ****     ss = (unsigned char *) calloc(BYTES_SS, sizeof(unsigned char));
 109              		.loc 1 53 0
 110 0062 0121     		movs	r1, #1
 111 0064 4046     		mov	r0, r8
 112 0066 FFF7FEFF 		bl	calloc
 113              	.LVL21:
 114 006a E060     		str	r0, [r4, #12]
  54:mainTask.c    **** 
  55:mainTask.c    ****     if (!sk || !pk || !ct || !ss) {
 115              		.loc 1 55 0
 116 006c 17B1     		cbz	r7, .L3
ARM GAS  C:\Users\bogurad\AppData\Local\Temp\ccZUqOTK.s 			page 4


 117              		.loc 1 55 0 is_stmt 0 discriminator 1
 118 006e 0EB1     		cbz	r6, .L3
 119              		.loc 1 55 0 discriminator 2
 120 0070 05B1     		cbz	r5, .L3
 121              		.loc 1 55 0 discriminator 3
 122 0072 18B9     		cbnz	r0, .L4
 123              	.L3:
  56:mainTask.c    ****         printf("Memory allocation failed\r\n");
 124              		.loc 1 56 0 is_stmt 1
 125 0074 1648     		ldr	r0, .L10+16
 126 0076 FFF7FEFF 		bl	puts
 127              	.LVL22:
 128 007a 02E0     		b	.L5
 129              	.L4:
  57:mainTask.c    ****     }
  58:mainTask.c    ****     else{
  59:mainTask.c    ****         printf("Correct memory allocation\r\n");
 130              		.loc 1 59 0
 131 007c 1548     		ldr	r0, .L10+20
 132 007e FFF7FEFF 		bl	puts
 133              	.LVL23:
 134              	.L5:
  60:mainTask.c    ****     }
  61:mainTask.c    ****     
  62:mainTask.c    ****     if (kyber_keypair(pk, sk) != 0) printf("Keypair generation failed\n");
 135              		.loc 1 62 0
 136 0082 124B     		ldr	r3, .L10+12
 137 0084 1968     		ldr	r1, [r3]
 138 0086 5868     		ldr	r0, [r3, #4]
 139 0088 FFF7FEFF 		bl	kyber_keypair
 140              	.LVL24:
 141 008c 10B1     		cbz	r0, .L6
 142              		.loc 1 62 0 is_stmt 0 discriminator 1
 143 008e 1248     		ldr	r0, .L10+24
 144 0090 FFF7FEFF 		bl	puts
 145              	.LVL25:
 146              	.L6:
  63:mainTask.c    ****     if (kyber_encapsulate(ct, ss, pk) != 0) printf("Encapsulation failed\n"); 
 147              		.loc 1 63 0 is_stmt 1
 148 0094 0D4B     		ldr	r3, .L10+12
 149 0096 5A68     		ldr	r2, [r3, #4]
 150 0098 D968     		ldr	r1, [r3, #12]
 151 009a 9868     		ldr	r0, [r3, #8]
 152 009c FFF7FEFF 		bl	kyber_encapsulate
 153              	.LVL26:
 154 00a0 10B1     		cbz	r0, .L7
 155              		.loc 1 63 0 is_stmt 0 discriminator 1
 156 00a2 0E48     		ldr	r0, .L10+28
 157 00a4 FFF7FEFF 		bl	puts
 158              	.LVL27:
 159              	.L7:
  64:mainTask.c    ****     if (kyber_decapsulate(ss, ct, sk) != 0) printf("Encapsulation failed\n");
 160              		.loc 1 64 0 is_stmt 1
 161 00a8 084B     		ldr	r3, .L10+12
 162 00aa 1A68     		ldr	r2, [r3]
 163 00ac 9968     		ldr	r1, [r3, #8]
 164 00ae D868     		ldr	r0, [r3, #12]
ARM GAS  C:\Users\bogurad\AppData\Local\Temp\ccZUqOTK.s 			page 5


 165 00b0 FFF7FEFF 		bl	kyber_decapsulate
 166              	.LVL28:
 167 00b4 10B1     		cbz	r0, .L8
 168              		.loc 1 64 0 is_stmt 0 discriminator 1
 169 00b6 0948     		ldr	r0, .L10+28
 170 00b8 FFF7FEFF 		bl	puts
 171              	.LVL29:
 172              	.L8:
 173 00bc FEE7     		b	.L8
 174              	.L11:
 175 00be 00BF     		.align	2
 176              	.L10:
 177 00c0 00000000 		.word	uartReadySemaphore
 178 00c4 00000000 		.word	.LC0
 179 00c8 24000000 		.word	.LC1
 180 00cc 00000000 		.word	.LANCHOR0
 181 00d0 38000000 		.word	.LC2
 182 00d4 54000000 		.word	.LC3
 183 00d8 70000000 		.word	.LC4
 184 00dc 8C000000 		.word	.LC5
 185              		.cfi_endproc
 186              	.LFE485:
 187              		.size	mainTask, .-mainTask
 188              		.global	ss
 189              		.global	ct
 190              		.global	pk
 191              		.global	sk
 192              		.section	.rodata.str1.4,"aMS",%progbits,1
 193              		.align	2
 194              	.LC0:
 195 0000 4D61696E 		.ascii	"Main task started - UART is ready\015\000"
 195      20746173 
 195      6B207374 
 195      61727465 
 195      64202D20 
 196 0023 00       		.space	1
 197              	.LC1:
 198 0024 4B796265 		.ascii	"Kyber init failed\000"
 198      7220696E 
 198      69742066 
 198      61696C65 
 198      6400
 199 0036 0000     		.space	2
 200              	.LC2:
 201 0038 4D656D6F 		.ascii	"Memory allocation failed\015\000"
 201      72792061 
 201      6C6C6F63 
 201      6174696F 
 201      6E206661 
 202 0052 0000     		.space	2
 203              	.LC3:
 204 0054 436F7272 		.ascii	"Correct memory allocation\015\000"
 204      65637420 
 204      6D656D6F 
 204      72792061 
 204      6C6C6F63 
 205 006f 00       		.space	1
ARM GAS  C:\Users\bogurad\AppData\Local\Temp\ccZUqOTK.s 			page 6


 206              	.LC4:
 207 0070 4B657970 		.ascii	"Keypair generation failed\000"
 207      61697220 
 207      67656E65 
 207      72617469 
 207      6F6E2066 
 208 008a 0000     		.space	2
 209              	.LC5:
 210 008c 456E6361 		.ascii	"Encapsulation failed\000"
 210      7073756C 
 210      6174696F 
 210      6E206661 
 210      696C6564 
 211              		.bss
 212              		.align	2
 213              		.set	.LANCHOR0,. + 0
 214              		.type	sk, %object
 215              		.size	sk, 4
 216              	sk:
 217 0000 00000000 		.space	4
 218              		.type	pk, %object
 219              		.size	pk, 4
 220              	pk:
 221 0004 00000000 		.space	4
 222              		.type	ct, %object
 223              		.size	ct, 4
 224              	ct:
 225 0008 00000000 		.space	4
 226              		.type	ss, %object
 227              		.size	ss, 4
 228              	ss:
 229 000c 00000000 		.space	4
 230              		.text
 231              	.Letext0:
 232              		.file 2 "c:\\program files (x86)\\cypress\\psoc creator\\4.4\\psoc creator\\import\\gnu\\arm\\5.4.
 233              		.file 3 "c:\\program files (x86)\\cypress\\psoc creator\\4.4\\psoc creator\\import\\gnu\\arm\\5.4.
 234              		.file 4 "c:\\program files (x86)\\cypress\\psoc creator\\4.4\\psoc creator\\import\\gnu\\arm\\5.4.
 235              		.file 5 "Generated_Source\\PSoC6\\pdl\\drivers/peripheral/device/cy_device.h"
 236              		.file 6 "Generated_Source\\PSoC6\\pdl\\drivers/peripheral/scb/cy_scb_uart.h"
 237              		.file 7 "Generated_Source\\PSoC6\\pdl\\rtos/FreeRTOS/10.0.1/Source/portable/GCC/CM4F/portmacro.h"
 238              		.file 8 "Generated_Source\\PSoC6\\pdl\\rtos/FreeRTOS/10.0.1/Source/include/queue.h"
 239              		.file 9 "Generated_Source\\PSoC6\\pdl\\rtos/FreeRTOS/10.0.1/Source/include/semphr.h"
 240              		.file 10 "Generated_Source\\PSoC6\\pdl\\cmsis/include/core_cm4.h"
 241              		.file 11 "Generated_Source\\PSoC6/UART.h"
 242              		.file 12 "../kyber_wrapper.h"
 243              		.file 13 "c:\\program files (x86)\\cypress\\psoc creator\\4.4\\psoc creator\\import\\gnu\\arm\\5.4
 244              		.file 14 "<built-in>"