ARM GAS  C:\Users\bogur\AppData\Local\Temp\cci0ahpC.s 			page 1


   1              		.syntax unified
   2              		.cpu cortex-m4
   3              		.eabi_attribute 27, 1
   4              		.fpu fpv4-sp-d16
   5              		.eabi_attribute 20, 1
   6              		.eabi_attribute 21, 1
   7              		.eabi_attribute 23, 3
   8              		.eabi_attribute 24, 1
   9              		.eabi_attribute 25, 1
  10              		.eabi_attribute 26, 1
  11              		.eabi_attribute 30, 1
  12              		.eabi_attribute 34, 1
  13              		.eabi_attribute 18, 4
  14              		.thumb
  15              		.syntax unified
  16              		.file	"ntt.c"
  17              		.text
  18              	.Ltext0:
  19              		.cfi_sections	.debug_frame
  20              		.section	.text.fqmul,"ax",%progbits
  21              		.align	2
  22              		.thumb
  23              		.thumb_func
  24              		.type	fqmul, %function
  25              	fqmul:
  26              	.LFB0:
  27              		.file 1 "..\\ntt.c"
   1:..\ntt.c      **** #include <stdint.h>
   2:..\ntt.c      **** #include "params.h"
   3:..\ntt.c      **** #include "ntt.h"
   4:..\ntt.c      **** #include "reduce.h"
   5:..\ntt.c      **** 
   6:..\ntt.c      **** /* Code to generate zetas and zetas_inv used in the number-theoretic transform:
   7:..\ntt.c      **** 
   8:..\ntt.c      **** #define KYBER_ROOT_OF_UNITY 17
   9:..\ntt.c      **** 
  10:..\ntt.c      **** static const uint16_t tree[128] = {
  11:..\ntt.c      ****   0, 64, 32, 96, 16, 80, 48, 112, 8, 72, 40, 104, 24, 88, 56, 120,
  12:..\ntt.c      ****   4, 68, 36, 100, 20, 84, 52, 116, 12, 76, 44, 108, 28, 92, 60, 124,
  13:..\ntt.c      ****   2, 66, 34, 98, 18, 82, 50, 114, 10, 74, 42, 106, 26, 90, 58, 122,
  14:..\ntt.c      ****   6, 70, 38, 102, 22, 86, 54, 118, 14, 78, 46, 110, 30, 94, 62, 126,
  15:..\ntt.c      ****   1, 65, 33, 97, 17, 81, 49, 113, 9, 73, 41, 105, 25, 89, 57, 121,
  16:..\ntt.c      ****   5, 69, 37, 101, 21, 85, 53, 117, 13, 77, 45, 109, 29, 93, 61, 125,
  17:..\ntt.c      ****   3, 67, 35, 99, 19, 83, 51, 115, 11, 75, 43, 107, 27, 91, 59, 123,
  18:..\ntt.c      ****   7, 71, 39, 103, 23, 87, 55, 119, 15, 79, 47, 111, 31, 95, 63, 127
  19:..\ntt.c      **** };
  20:..\ntt.c      **** 
  21:..\ntt.c      **** void init_ntt() {
  22:..\ntt.c      ****   unsigned int i, j, k;
  23:..\ntt.c      ****   int16_t tmp[128];
  24:..\ntt.c      **** 
  25:..\ntt.c      ****   tmp[0] = MONT;
  26:..\ntt.c      ****   for(i = 1; i < 128; ++i)
  27:..\ntt.c      ****     tmp[i] = fqmul(tmp[i-1], KYBER_ROOT_OF_UNITY*MONT % KYBER_Q);
  28:..\ntt.c      **** 
  29:..\ntt.c      ****   for(i = 0; i < 128; ++i)
  30:..\ntt.c      ****     zetas[i] = tmp[tree[i]];
ARM GAS  C:\Users\bogur\AppData\Local\Temp\cci0ahpC.s 			page 2


  31:..\ntt.c      **** 
  32:..\ntt.c      ****   k = 0;
  33:..\ntt.c      ****   for(i = 64; i >= 1; i >>= 1)
  34:..\ntt.c      ****     for(j = i; j < 2*i; ++j)
  35:..\ntt.c      ****       zetas_inv[k++] = -tmp[128 - tree[j]];
  36:..\ntt.c      **** 
  37:..\ntt.c      ****   zetas_inv[127] = MONT * (MONT * (KYBER_Q - 1) * ((KYBER_Q - 1)/128) % KYBER_Q) % KYBER_Q;
  38:..\ntt.c      **** }
  39:..\ntt.c      **** 
  40:..\ntt.c      **** */
  41:..\ntt.c      **** 
  42:..\ntt.c      **** const int16_t zetas[128] = {
  43:..\ntt.c      ****   2285, 2571, 2970, 1812, 1493, 1422, 287, 202, 3158, 622, 1577, 182, 962,
  44:..\ntt.c      ****   2127, 1855, 1468, 573, 2004, 264, 383, 2500, 1458, 1727, 3199, 2648, 1017,
  45:..\ntt.c      ****   732, 608, 1787, 411, 3124, 1758, 1223, 652, 2777, 1015, 2036, 1491, 3047,
  46:..\ntt.c      ****   1785, 516, 3321, 3009, 2663, 1711, 2167, 126, 1469, 2476, 3239, 3058, 830,
  47:..\ntt.c      ****   107, 1908, 3082, 2378, 2931, 961, 1821, 2604, 448, 2264, 677, 2054, 2226,
  48:..\ntt.c      ****   430, 555, 843, 2078, 871, 1550, 105, 422, 587, 177, 3094, 3038, 2869, 1574,
  49:..\ntt.c      ****   1653, 3083, 778, 1159, 3182, 2552, 1483, 2727, 1119, 1739, 644, 2457, 349,
  50:..\ntt.c      ****   418, 329, 3173, 3254, 817, 1097, 603, 610, 1322, 2044, 1864, 384, 2114, 3193,
  51:..\ntt.c      ****   1218, 1994, 2455, 220, 2142, 1670, 2144, 1799, 2051, 794, 1819, 2475, 2459,
  52:..\ntt.c      ****   478, 3221, 3021, 996, 991, 958, 1869, 1522, 1628
  53:..\ntt.c      **** };
  54:..\ntt.c      **** 
  55:..\ntt.c      **** const int16_t zetas_inv[128] = {
  56:..\ntt.c      ****   1701, 1807, 1460, 2371, 2338, 2333, 308, 108, 2851, 870, 854, 1510, 2535,
  57:..\ntt.c      ****   1278, 1530, 1185, 1659, 1187, 3109, 874, 1335, 2111, 136, 1215, 2945, 1465,
  58:..\ntt.c      ****   1285, 2007, 2719, 2726, 2232, 2512, 75, 156, 3000, 2911, 2980, 872, 2685,
  59:..\ntt.c      ****   1590, 2210, 602, 1846, 777, 147, 2170, 2551, 246, 1676, 1755, 460, 291, 235,
  60:..\ntt.c      ****   3152, 2742, 2907, 3224, 1779, 2458, 1251, 2486, 2774, 2899, 1103, 1275, 2652,
  61:..\ntt.c      ****   1065, 2881, 725, 1508, 2368, 398, 951, 247, 1421, 3222, 2499, 271, 90, 853,
  62:..\ntt.c      ****   1860, 3203, 1162, 1618, 666, 320, 8, 2813, 1544, 282, 1838, 1293, 2314, 552,
  63:..\ntt.c      ****   2677, 2106, 1571, 205, 2918, 1542, 2721, 2597, 2312, 681, 130, 1602, 1871,
  64:..\ntt.c      ****   829, 2946, 3065, 1325, 2756, 1861, 1474, 1202, 2367, 3147, 1752, 2707, 171,
  65:..\ntt.c      ****   3127, 3042, 1907, 1836, 1517, 359, 758, 1441
  66:..\ntt.c      **** };
  67:..\ntt.c      **** 
  68:..\ntt.c      **** /*************************************************
  69:..\ntt.c      **** * Name:        fqmul
  70:..\ntt.c      **** *
  71:..\ntt.c      **** * Description: Multiplication followed by Montgomery reduction
  72:..\ntt.c      **** *
  73:..\ntt.c      **** * Arguments:   - int16_t a: first factor
  74:..\ntt.c      **** *              - int16_t b: second factor
  75:..\ntt.c      **** *
  76:..\ntt.c      **** * Returns 16-bit integer congruent to a*b*R^{-1} mod q
  77:..\ntt.c      **** **************************************************/
  78:..\ntt.c      **** static int16_t fqmul(int16_t a, int16_t b) {
  28              		.loc 1 78 0
  29              		.cfi_startproc
  30              		@ args = 0, pretend = 0, frame = 0
  31              		@ frame_needed = 0, uses_anonymous_args = 0
  32              	.LVL0:
  33 0000 08B5     		push	{r3, lr}
  34              		.cfi_def_cfa_offset 8
  35              		.cfi_offset 3, -8
  36              		.cfi_offset 14, -4
ARM GAS  C:\Users\bogur\AppData\Local\Temp\cci0ahpC.s 			page 3


  79:..\ntt.c      ****   return montgomery_reduce((int32_t)a*b);
  37              		.loc 1 79 0
  38 0002 00FB01F0 		mul	r0, r0, r1
  39              	.LVL1:
  40 0006 FFF7FEFF 		bl	pqcrystals_kyber1024_ref_montgomery_reduce
  41              	.LVL2:
  80:..\ntt.c      **** }
  42              		.loc 1 80 0
  43 000a 08BD     		pop	{r3, pc}
  44              		.cfi_endproc
  45              	.LFE0:
  46              		.size	fqmul, .-fqmul
  47              		.section	.text.pqcrystals_kyber1024_ref_ntt,"ax",%progbits
  48              		.align	2
  49              		.global	pqcrystals_kyber1024_ref_ntt
  50              		.thumb
  51              		.thumb_func
  52              		.type	pqcrystals_kyber1024_ref_ntt, %function
  53              	pqcrystals_kyber1024_ref_ntt:
  54              	.LFB1:
  81:..\ntt.c      **** 
  82:..\ntt.c      **** /*************************************************
  83:..\ntt.c      **** * Name:        ntt
  84:..\ntt.c      **** *
  85:..\ntt.c      **** * Description: Inplace number-theoretic transform (NTT) in Rq
  86:..\ntt.c      **** *              input is in standard order, output is in bitreversed order
  87:..\ntt.c      **** *
  88:..\ntt.c      **** * Arguments:   - int16_t r[256]: pointer to input/output vector of elements
  89:..\ntt.c      **** *                                of Zq
  90:..\ntt.c      **** **************************************************/
  91:..\ntt.c      **** void ntt(int16_t r[256]) {
  55              		.loc 1 91 0
  56              		.cfi_startproc
  57              		@ args = 0, pretend = 0, frame = 0
  58              		@ frame_needed = 0, uses_anonymous_args = 0
  59              	.LVL3:
  60 0000 2DE9F047 		push	{r4, r5, r6, r7, r8, r9, r10, lr}
  61              		.cfi_def_cfa_offset 32
  62              		.cfi_offset 4, -32
  63              		.cfi_offset 5, -28
  64              		.cfi_offset 6, -24
  65              		.cfi_offset 7, -20
  66              		.cfi_offset 8, -16
  67              		.cfi_offset 9, -12
  68              		.cfi_offset 10, -8
  69              		.cfi_offset 14, -4
  70 0004 0546     		mov	r5, r0
  71              	.LVL4:
  92:..\ntt.c      ****   unsigned int len, start, j, k;
  93:..\ntt.c      ****   int16_t t, zeta;
  94:..\ntt.c      **** 
  95:..\ntt.c      ****   k = 1;
  72              		.loc 1 95 0
  73 0006 0123     		movs	r3, #1
  96:..\ntt.c      ****   for(len = 128; len >= 2; len >>= 1) {
  74              		.loc 1 96 0
  75 0008 8026     		movs	r6, #128
ARM GAS  C:\Users\bogur\AppData\Local\Temp\cci0ahpC.s 			page 4


  76 000a 23E0     		b	.L4
  77              	.LVL5:
  78              	.L7:
  97:..\ntt.c      ****     for(start = 0; start < 256; start = j + len) {
  98:..\ntt.c      ****       zeta = zetas[k++];
  79              		.loc 1 98 0
  80 000c 03F10109 		add	r9, r3, #1
  81              	.LVL6:
  82 0010 124A     		ldr	r2, .L11
  83 0012 32F91380 		ldrsh	r8, [r2, r3, lsl #1]
  84              	.LVL7:
  99:..\ntt.c      ****       for(j = start; j < start + len; ++j) {
  85              		.loc 1 99 0
  86 0016 3C46     		mov	r4, r7
  87 0018 12E0     		b	.L5
  88              	.LVL8:
  89              	.L6:
 100:..\ntt.c      ****         t = fqmul(zeta, r[j + len]);
  90              		.loc 1 100 0 discriminator 3
  91 001a 06EB040A 		add	r10, r6, r4
  92 001e 35F91A10 		ldrsh	r1, [r5, r10, lsl #1]
  93 0022 4046     		mov	r0, r8
  94 0024 FFF7FEFF 		bl	fqmul
  95              	.LVL9:
 101:..\ntt.c      ****         r[j + len] = r[j] - t;
  96              		.loc 1 101 0 discriminator 3
  97 0028 35F91430 		ldrsh	r3, [r5, r4, lsl #1]
  98 002c 80B2     		uxth	r0, r0
  99 002e 1B1A     		subs	r3, r3, r0
 100 0030 25F81A30 		strh	r3, [r5, r10, lsl #1]	@ movhi
 102:..\ntt.c      ****         r[j] = r[j] + t;
 101              		.loc 1 102 0 discriminator 3
 102 0034 35F91430 		ldrsh	r3, [r5, r4, lsl #1]
 103 0038 1844     		add	r0, r0, r3
 104              	.LVL10:
 105 003a 25F81400 		strh	r0, [r5, r4, lsl #1]	@ movhi
  99:..\ntt.c      ****         t = fqmul(zeta, r[j + len]);
 106              		.loc 1 99 0 discriminator 3
 107 003e 0134     		adds	r4, r4, #1
 108              	.LVL11:
 109              	.L5:
  99:..\ntt.c      ****         t = fqmul(zeta, r[j + len]);
 110              		.loc 1 99 0 is_stmt 0 discriminator 1
 111 0040 F319     		adds	r3, r6, r7
 112 0042 9C42     		cmp	r4, r3
 113 0044 E9D3     		bcc	.L6
  97:..\ntt.c      ****       zeta = zetas[k++];
 114              		.loc 1 97 0 is_stmt 1 discriminator 2
 115 0046 3719     		adds	r7, r6, r4
 116              	.LVL12:
  98:..\ntt.c      ****       for(j = start; j < start + len; ++j) {
 117              		.loc 1 98 0 discriminator 2
 118 0048 4B46     		mov	r3, r9
 119 004a 00E0     		b	.L8
 120              	.LVL13:
 121              	.L9:
 122 004c 0027     		movs	r7, #0
ARM GAS  C:\Users\bogur\AppData\Local\Temp\cci0ahpC.s 			page 5


 123              	.L8:
 124              	.LVL14:
  97:..\ntt.c      ****       zeta = zetas[k++];
 125              		.loc 1 97 0 discriminator 1
 126 004e FF2F     		cmp	r7, #255
 127 0050 DCD9     		bls	.L7
  96:..\ntt.c      ****     for(start = 0; start < 256; start = j + len) {
 128              		.loc 1 96 0 discriminator 2
 129 0052 7608     		lsrs	r6, r6, #1
 130              	.LVL15:
 131              	.L4:
  96:..\ntt.c      ****     for(start = 0; start < 256; start = j + len) {
 132              		.loc 1 96 0 is_stmt 0 discriminator 1
 133 0054 012E     		cmp	r6, #1
 134 0056 F9D8     		bhi	.L9
 103:..\ntt.c      ****       }
 104:..\ntt.c      ****     }
 105:..\ntt.c      ****   }
 106:..\ntt.c      **** }
 135              		.loc 1 106 0 is_stmt 1
 136 0058 BDE8F087 		pop	{r4, r5, r6, r7, r8, r9, r10, pc}
 137              	.LVL16:
 138              	.L12:
 139              		.align	2
 140              	.L11:
 141 005c 00000000 		.word	.LANCHOR0
 142              		.cfi_endproc
 143              	.LFE1:
 144              		.size	pqcrystals_kyber1024_ref_ntt, .-pqcrystals_kyber1024_ref_ntt
 145              		.section	.text.pqcrystals_kyber1024_ref_invntt,"ax",%progbits
 146              		.align	2
 147              		.global	pqcrystals_kyber1024_ref_invntt
 148              		.thumb
 149              		.thumb_func
 150              		.type	pqcrystals_kyber1024_ref_invntt, %function
 151              	pqcrystals_kyber1024_ref_invntt:
 152              	.LFB2:
 107:..\ntt.c      **** 
 108:..\ntt.c      **** /*************************************************
 109:..\ntt.c      **** * Name:        invntt_tomont
 110:..\ntt.c      **** *
 111:..\ntt.c      **** * Description: Inplace inverse number-theoretic transform in Rq and
 112:..\ntt.c      **** *              multiplication by Montgomery factor 2^16.
 113:..\ntt.c      **** *              Input is in bitreversed order, output is in standard order
 114:..\ntt.c      **** *
 115:..\ntt.c      **** * Arguments:   - int16_t r[256]: pointer to input/output vector of elements
 116:..\ntt.c      **** *                                of Zq
 117:..\ntt.c      **** **************************************************/
 118:..\ntt.c      **** void invntt(int16_t r[256]) {
 153              		.loc 1 118 0
 154              		.cfi_startproc
 155              		@ args = 0, pretend = 0, frame = 0
 156              		@ frame_needed = 0, uses_anonymous_args = 0
 157              	.LVL17:
 158 0000 2DE9F84F 		push	{r3, r4, r5, r6, r7, r8, r9, r10, fp, lr}
 159              		.cfi_def_cfa_offset 40
 160              		.cfi_offset 3, -40
ARM GAS  C:\Users\bogur\AppData\Local\Temp\cci0ahpC.s 			page 6


 161              		.cfi_offset 4, -36
 162              		.cfi_offset 5, -32
 163              		.cfi_offset 6, -28
 164              		.cfi_offset 7, -24
 165              		.cfi_offset 8, -20
 166              		.cfi_offset 9, -16
 167              		.cfi_offset 10, -12
 168              		.cfi_offset 11, -8
 169              		.cfi_offset 14, -4
 170 0004 0646     		mov	r6, r0
 171              	.LVL18:
 119:..\ntt.c      ****   unsigned int start, len, j, k;
 120:..\ntt.c      ****   int16_t t, zeta;
 121:..\ntt.c      **** 
 122:..\ntt.c      ****   k = 0;
 172              		.loc 1 122 0
 173 0006 0022     		movs	r2, #0
 123:..\ntt.c      ****   for(len = 2; len <= 128; len <<= 1) {
 174              		.loc 1 123 0
 175 0008 4FF00208 		mov	r8, #2
 176 000c 2FE0     		b	.L14
 177              	.LVL19:
 178              	.L17:
 124:..\ntt.c      ****     for(start = 0; start < 256; start = j + len) {
 125:..\ntt.c      ****       zeta = zetas_inv[k++];
 179              		.loc 1 125 0
 180 000e 02F1010B 		add	fp, r2, #1
 181              	.LVL20:
 182 0012 204B     		ldr	r3, .L23
 183 0014 03EB4203 		add	r3, r3, r2, lsl #1
 184 0018 B3F900A1 		ldrsh	r10, [r3, #256]
 185              	.LVL21:
 126:..\ntt.c      ****       for(j = start; j < start + len; ++j) {
 186              		.loc 1 126 0
 187 001c 4D46     		mov	r5, r9
 188 001e 17E0     		b	.L15
 189              	.LVL22:
 190              	.L16:
 127:..\ntt.c      ****         t = r[j];
 128:..\ntt.c      ****         r[j] = barrett_reduce(t + r[j + len]);
 191              		.loc 1 128 0 discriminator 3
 192 0020 08EB0507 		add	r7, r8, r5
 193 0024 36F91700 		ldrsh	r0, [r6, r7, lsl #1]
 194 0028 36F81540 		ldrh	r4, [r6, r5, lsl #1]
 195 002c 2044     		add	r0, r0, r4
 196 002e 00B2     		sxth	r0, r0
 197 0030 FFF7FEFF 		bl	pqcrystals_kyber1024_ref_barrett_reduce
 198              	.LVL23:
 199 0034 26F81500 		strh	r0, [r6, r5, lsl #1]	@ movhi
 129:..\ntt.c      ****         r[j + len] = t - r[j + len];
 200              		.loc 1 129 0 discriminator 3
 201 0038 36F91710 		ldrsh	r1, [r6, r7, lsl #1]
 202 003c 611A     		subs	r1, r4, r1
 203 003e 09B2     		sxth	r1, r1
 204 0040 26F81710 		strh	r1, [r6, r7, lsl #1]	@ movhi
 130:..\ntt.c      ****         r[j + len] = fqmul(zeta, r[j + len]);
 205              		.loc 1 130 0 discriminator 3
ARM GAS  C:\Users\bogur\AppData\Local\Temp\cci0ahpC.s 			page 7


 206 0044 5046     		mov	r0, r10
 207 0046 FFF7FEFF 		bl	fqmul
 208              	.LVL24:
 209 004a 26F81700 		strh	r0, [r6, r7, lsl #1]	@ movhi
 126:..\ntt.c      ****         t = r[j];
 210              		.loc 1 126 0 discriminator 3
 211 004e 0135     		adds	r5, r5, #1
 212              	.LVL25:
 213              	.L15:
 126:..\ntt.c      ****         t = r[j];
 214              		.loc 1 126 0 is_stmt 0 discriminator 1
 215 0050 09EB0803 		add	r3, r9, r8
 216 0054 9D42     		cmp	r5, r3
 217 0056 E3D3     		bcc	.L16
 124:..\ntt.c      ****       zeta = zetas_inv[k++];
 218              		.loc 1 124 0 is_stmt 1 discriminator 2
 219 0058 08EB0509 		add	r9, r8, r5
 220              	.LVL26:
 125:..\ntt.c      ****       for(j = start; j < start + len; ++j) {
 221              		.loc 1 125 0 discriminator 2
 222 005c 5A46     		mov	r2, fp
 223 005e 01E0     		b	.L18
 224              	.LVL27:
 225              	.L21:
 226 0060 4FF00009 		mov	r9, #0
 227              	.L18:
 228              	.LVL28:
 124:..\ntt.c      ****       zeta = zetas_inv[k++];
 229              		.loc 1 124 0 discriminator 1
 230 0064 B9F1FF0F 		cmp	r9, #255
 231 0068 D1D9     		bls	.L17
 123:..\ntt.c      ****     for(start = 0; start < 256; start = j + len) {
 232              		.loc 1 123 0 discriminator 2
 233 006a 4FEA4808 		lsl	r8, r8, #1
 234              	.LVL29:
 235              	.L14:
 123:..\ntt.c      ****     for(start = 0; start < 256; start = j + len) {
 236              		.loc 1 123 0 is_stmt 0 discriminator 1
 237 006e B8F1800F 		cmp	r8, #128
 238 0072 F5D9     		bls	.L21
 239 0074 0024     		movs	r4, #0
 240 0076 08E0     		b	.L19
 241              	.LVL30:
 242              	.L20:
 131:..\ntt.c      ****       }
 132:..\ntt.c      ****     }
 133:..\ntt.c      ****   }
 134:..\ntt.c      **** 
 135:..\ntt.c      ****   for(j = 0; j < 256; ++j)
 136:..\ntt.c      ****     r[j] = fqmul(r[j], zetas_inv[127]);
 243              		.loc 1 136 0 is_stmt 1 discriminator 3
 244 0078 40F2A151 		movw	r1, #1441
 245 007c 36F91400 		ldrsh	r0, [r6, r4, lsl #1]
 246 0080 FFF7FEFF 		bl	fqmul
 247              	.LVL31:
 248 0084 26F81400 		strh	r0, [r6, r4, lsl #1]	@ movhi
 135:..\ntt.c      ****     r[j] = fqmul(r[j], zetas_inv[127]);
ARM GAS  C:\Users\bogur\AppData\Local\Temp\cci0ahpC.s 			page 8


 249              		.loc 1 135 0 discriminator 3
 250 0088 0134     		adds	r4, r4, #1
 251              	.LVL32:
 252              	.L19:
 135:..\ntt.c      ****     r[j] = fqmul(r[j], zetas_inv[127]);
 253              		.loc 1 135 0 is_stmt 0 discriminator 1
 254 008a FF2C     		cmp	r4, #255
 255 008c F4D9     		bls	.L20
 137:..\ntt.c      **** }
 256              		.loc 1 137 0 is_stmt 1
 257 008e BDE8F88F 		pop	{r3, r4, r5, r6, r7, r8, r9, r10, fp, pc}
 258              	.LVL33:
 259              	.L24:
 260 0092 00BF     		.align	2
 261              	.L23:
 262 0094 00000000 		.word	.LANCHOR0
 263              		.cfi_endproc
 264              	.LFE2:
 265              		.size	pqcrystals_kyber1024_ref_invntt, .-pqcrystals_kyber1024_ref_invntt
 266              		.section	.text.pqcrystals_kyber1024_ref_basemul,"ax",%progbits
 267              		.align	2
 268              		.global	pqcrystals_kyber1024_ref_basemul
 269              		.thumb
 270              		.thumb_func
 271              		.type	pqcrystals_kyber1024_ref_basemul, %function
 272              	pqcrystals_kyber1024_ref_basemul:
 273              	.LFB3:
 138:..\ntt.c      **** 
 139:..\ntt.c      **** /*************************************************
 140:..\ntt.c      **** * Name:        basemul
 141:..\ntt.c      **** *
 142:..\ntt.c      **** * Description: Multiplication of polynomials in Zq[X]/(X^2-zeta)
 143:..\ntt.c      **** *              used for multiplication of elements in Rq in NTT domain
 144:..\ntt.c      **** *
 145:..\ntt.c      **** * Arguments:   - int16_t r[2]:       pointer to the output polynomial
 146:..\ntt.c      **** *              - const int16_t a[2]: pointer to the first factor
 147:..\ntt.c      **** *              - const int16_t b[2]: pointer to the second factor
 148:..\ntt.c      **** *              - int16_t zeta:       integer defining the reduction polynomial
 149:..\ntt.c      **** **************************************************/
 150:..\ntt.c      **** void basemul(int16_t r[2],
 151:..\ntt.c      ****              const int16_t a[2],
 152:..\ntt.c      ****              const int16_t b[2],
 153:..\ntt.c      ****              int16_t zeta)
 154:..\ntt.c      **** {
 274              		.loc 1 154 0
 275              		.cfi_startproc
 276              		@ args = 0, pretend = 0, frame = 0
 277              		@ frame_needed = 0, uses_anonymous_args = 0
 278              	.LVL34:
 279 0000 F8B5     		push	{r3, r4, r5, r6, r7, lr}
 280              		.cfi_def_cfa_offset 24
 281              		.cfi_offset 3, -24
 282              		.cfi_offset 4, -20
 283              		.cfi_offset 5, -16
 284              		.cfi_offset 6, -12
 285              		.cfi_offset 7, -8
 286              		.cfi_offset 14, -4
ARM GAS  C:\Users\bogur\AppData\Local\Temp\cci0ahpC.s 			page 9


 287 0002 0446     		mov	r4, r0
 288 0004 0D46     		mov	r5, r1
 289 0006 1646     		mov	r6, r2
 290 0008 1F46     		mov	r7, r3
 155:..\ntt.c      ****   r[0]  = fqmul(a[1], b[1]);
 291              		.loc 1 155 0
 292 000a B2F90210 		ldrsh	r1, [r2, #2]
 293              	.LVL35:
 294 000e B5F90200 		ldrsh	r0, [r5, #2]
 295              	.LVL36:
 296 0012 FFF7FEFF 		bl	fqmul
 297              	.LVL37:
 298 0016 2080     		strh	r0, [r4]	@ movhi
 156:..\ntt.c      ****   r[0]  = fqmul(r[0], zeta);
 299              		.loc 1 156 0
 300 0018 3946     		mov	r1, r7
 301 001a FFF7FEFF 		bl	fqmul
 302              	.LVL38:
 303 001e 2080     		strh	r0, [r4]	@ movhi
 157:..\ntt.c      ****   r[0] += fqmul(a[0], b[0]);
 304              		.loc 1 157 0
 305 0020 B6F90010 		ldrsh	r1, [r6]
 306 0024 B5F90000 		ldrsh	r0, [r5]
 307 0028 FFF7FEFF 		bl	fqmul
 308              	.LVL39:
 309 002c 2388     		ldrh	r3, [r4]
 310 002e 1844     		add	r0, r0, r3
 311 0030 2080     		strh	r0, [r4]	@ movhi
 158:..\ntt.c      **** 
 159:..\ntt.c      ****   r[1]  = fqmul(a[0], b[1]);
 312              		.loc 1 159 0
 313 0032 B6F90210 		ldrsh	r1, [r6, #2]
 314 0036 B5F90000 		ldrsh	r0, [r5]
 315 003a FFF7FEFF 		bl	fqmul
 316              	.LVL40:
 317 003e 6080     		strh	r0, [r4, #2]	@ movhi
 160:..\ntt.c      ****   r[1] += fqmul(a[1], b[0]);
 318              		.loc 1 160 0
 319 0040 B6F90010 		ldrsh	r1, [r6]
 320 0044 B5F90200 		ldrsh	r0, [r5, #2]
 321 0048 FFF7FEFF 		bl	fqmul
 322              	.LVL41:
 323 004c 6388     		ldrh	r3, [r4, #2]
 324 004e 1844     		add	r0, r0, r3
 325 0050 6080     		strh	r0, [r4, #2]	@ movhi
 326 0052 F8BD     		pop	{r3, r4, r5, r6, r7, pc}
 327              		.cfi_endproc
 328              	.LFE3:
 329              		.size	pqcrystals_kyber1024_ref_basemul, .-pqcrystals_kyber1024_ref_basemul
 330              		.global	pqcrystals_kyber1024_ref_zetas_inv
 331              		.global	pqcrystals_kyber1024_ref_zetas
 332              		.section	.rodata
 333              		.align	2
 334              		.set	.LANCHOR0,. + 0
 335              		.type	pqcrystals_kyber1024_ref_zetas, %object
 336              		.size	pqcrystals_kyber1024_ref_zetas, 256
 337              	pqcrystals_kyber1024_ref_zetas:
ARM GAS  C:\Users\bogur\AppData\Local\Temp\cci0ahpC.s 			page 10


 338 0000 ED08     		.short	2285
 339 0002 0B0A     		.short	2571
 340 0004 9A0B     		.short	2970
 341 0006 1407     		.short	1812
 342 0008 D505     		.short	1493
 343 000a 8E05     		.short	1422
 344 000c 1F01     		.short	287
 345 000e CA00     		.short	202
 346 0010 560C     		.short	3158
 347 0012 6E02     		.short	622
 348 0014 2906     		.short	1577
 349 0016 B600     		.short	182
 350 0018 C203     		.short	962
 351 001a 4F08     		.short	2127
 352 001c 3F07     		.short	1855
 353 001e BC05     		.short	1468
 354 0020 3D02     		.short	573
 355 0022 D407     		.short	2004
 356 0024 0801     		.short	264
 357 0026 7F01     		.short	383
 358 0028 C409     		.short	2500
 359 002a B205     		.short	1458
 360 002c BF06     		.short	1727
 361 002e 7F0C     		.short	3199
 362 0030 580A     		.short	2648
 363 0032 F903     		.short	1017
 364 0034 DC02     		.short	732
 365 0036 6002     		.short	608
 366 0038 FB06     		.short	1787
 367 003a 9B01     		.short	411
 368 003c 340C     		.short	3124
 369 003e DE06     		.short	1758
 370 0040 C704     		.short	1223
 371 0042 8C02     		.short	652
 372 0044 D90A     		.short	2777
 373 0046 F703     		.short	1015
 374 0048 F407     		.short	2036
 375 004a D305     		.short	1491
 376 004c E70B     		.short	3047
 377 004e F906     		.short	1785
 378 0050 0402     		.short	516
 379 0052 F90C     		.short	3321
 380 0054 C10B     		.short	3009
 381 0056 670A     		.short	2663
 382 0058 AF06     		.short	1711
 383 005a 7708     		.short	2167
 384 005c 7E00     		.short	126
 385 005e BD05     		.short	1469
 386 0060 AC09     		.short	2476
 387 0062 A70C     		.short	3239
 388 0064 F20B     		.short	3058
 389 0066 3E03     		.short	830
 390 0068 6B00     		.short	107
 391 006a 7407     		.short	1908
 392 006c 0A0C     		.short	3082
 393 006e 4A09     		.short	2378
 394 0070 730B     		.short	2931
ARM GAS  C:\Users\bogur\AppData\Local\Temp\cci0ahpC.s 			page 11


 395 0072 C103     		.short	961
 396 0074 1D07     		.short	1821
 397 0076 2C0A     		.short	2604
 398 0078 C001     		.short	448
 399 007a D808     		.short	2264
 400 007c A502     		.short	677
 401 007e 0608     		.short	2054
 402 0080 B208     		.short	2226
 403 0082 AE01     		.short	430
 404 0084 2B02     		.short	555
 405 0086 4B03     		.short	843
 406 0088 1E08     		.short	2078
 407 008a 6703     		.short	871
 408 008c 0E06     		.short	1550
 409 008e 6900     		.short	105
 410 0090 A601     		.short	422
 411 0092 4B02     		.short	587
 412 0094 B100     		.short	177
 413 0096 160C     		.short	3094
 414 0098 DE0B     		.short	3038
 415 009a 350B     		.short	2869
 416 009c 2606     		.short	1574
 417 009e 7506     		.short	1653
 418 00a0 0B0C     		.short	3083
 419 00a2 0A03     		.short	778
 420 00a4 8704     		.short	1159
 421 00a6 6E0C     		.short	3182
 422 00a8 F809     		.short	2552
 423 00aa CB05     		.short	1483
 424 00ac A70A     		.short	2727
 425 00ae 5F04     		.short	1119
 426 00b0 CB06     		.short	1739
 427 00b2 8402     		.short	644
 428 00b4 9909     		.short	2457
 429 00b6 5D01     		.short	349
 430 00b8 A201     		.short	418
 431 00ba 4901     		.short	329
 432 00bc 650C     		.short	3173
 433 00be B60C     		.short	3254
 434 00c0 3103     		.short	817
 435 00c2 4904     		.short	1097
 436 00c4 5B02     		.short	603
 437 00c6 6202     		.short	610
 438 00c8 2A05     		.short	1322
 439 00ca FC07     		.short	2044
 440 00cc 4807     		.short	1864
 441 00ce 8001     		.short	384
 442 00d0 4208     		.short	2114
 443 00d2 790C     		.short	3193
 444 00d4 C204     		.short	1218
 445 00d6 CA07     		.short	1994
 446 00d8 9709     		.short	2455
 447 00da DC00     		.short	220
 448 00dc 5E08     		.short	2142
 449 00de 8606     		.short	1670
 450 00e0 6008     		.short	2144
 451 00e2 0707     		.short	1799
ARM GAS  C:\Users\bogur\AppData\Local\Temp\cci0ahpC.s 			page 12


 452 00e4 0308     		.short	2051
 453 00e6 1A03     		.short	794
 454 00e8 1B07     		.short	1819
 455 00ea AB09     		.short	2475
 456 00ec 9B09     		.short	2459
 457 00ee DE01     		.short	478
 458 00f0 950C     		.short	3221
 459 00f2 CD0B     		.short	3021
 460 00f4 E403     		.short	996
 461 00f6 DF03     		.short	991
 462 00f8 BE03     		.short	958
 463 00fa 4D07     		.short	1869
 464 00fc F205     		.short	1522
 465 00fe 5C06     		.short	1628
 466              		.type	pqcrystals_kyber1024_ref_zetas_inv, %object
 467              		.size	pqcrystals_kyber1024_ref_zetas_inv, 256
 468              	pqcrystals_kyber1024_ref_zetas_inv:
 469 0100 A506     		.short	1701
 470 0102 0F07     		.short	1807
 471 0104 B405     		.short	1460
 472 0106 4309     		.short	2371
 473 0108 2209     		.short	2338
 474 010a 1D09     		.short	2333
 475 010c 3401     		.short	308
 476 010e 6C00     		.short	108
 477 0110 230B     		.short	2851
 478 0112 6603     		.short	870
 479 0114 5603     		.short	854
 480 0116 E605     		.short	1510
 481 0118 E709     		.short	2535
 482 011a FE04     		.short	1278
 483 011c FA05     		.short	1530
 484 011e A104     		.short	1185
 485 0120 7B06     		.short	1659
 486 0122 A304     		.short	1187
 487 0124 250C     		.short	3109
 488 0126 6A03     		.short	874
 489 0128 3705     		.short	1335
 490 012a 3F08     		.short	2111
 491 012c 8800     		.short	136
 492 012e BF04     		.short	1215
 493 0130 810B     		.short	2945
 494 0132 B905     		.short	1465
 495 0134 0505     		.short	1285
 496 0136 D707     		.short	2007
 497 0138 9F0A     		.short	2719
 498 013a A60A     		.short	2726
 499 013c B808     		.short	2232
 500 013e D009     		.short	2512
 501 0140 4B00     		.short	75
 502 0142 9C00     		.short	156
 503 0144 B80B     		.short	3000
 504 0146 5F0B     		.short	2911
 505 0148 A40B     		.short	2980
 506 014a 6803     		.short	872
 507 014c 7D0A     		.short	2685
 508 014e 3606     		.short	1590
ARM GAS  C:\Users\bogur\AppData\Local\Temp\cci0ahpC.s 			page 13


 509 0150 A208     		.short	2210
 510 0152 5A02     		.short	602
 511 0154 3607     		.short	1846
 512 0156 0903     		.short	777
 513 0158 9300     		.short	147
 514 015a 7A08     		.short	2170
 515 015c F709     		.short	2551
 516 015e F600     		.short	246
 517 0160 8C06     		.short	1676
 518 0162 DB06     		.short	1755
 519 0164 CC01     		.short	460
 520 0166 2301     		.short	291
 521 0168 EB00     		.short	235
 522 016a 500C     		.short	3152
 523 016c B60A     		.short	2742
 524 016e 5B0B     		.short	2907
 525 0170 980C     		.short	3224
 526 0172 F306     		.short	1779
 527 0174 9A09     		.short	2458
 528 0176 E304     		.short	1251
 529 0178 B609     		.short	2486
 530 017a D60A     		.short	2774
 531 017c 530B     		.short	2899
 532 017e 4F04     		.short	1103
 533 0180 FB04     		.short	1275
 534 0182 5C0A     		.short	2652
 535 0184 2904     		.short	1065
 536 0186 410B     		.short	2881
 537 0188 D502     		.short	725
 538 018a E405     		.short	1508
 539 018c 4009     		.short	2368
 540 018e 8E01     		.short	398
 541 0190 B703     		.short	951
 542 0192 F700     		.short	247
 543 0194 8D05     		.short	1421
 544 0196 960C     		.short	3222
 545 0198 C309     		.short	2499
 546 019a 0F01     		.short	271
 547 019c 5A00     		.short	90
 548 019e 5503     		.short	853
 549 01a0 4407     		.short	1860
 550 01a2 830C     		.short	3203
 551 01a4 8A04     		.short	1162
 552 01a6 5206     		.short	1618
 553 01a8 9A02     		.short	666
 554 01aa 4001     		.short	320
 555 01ac 0800     		.short	8
 556 01ae FD0A     		.short	2813
 557 01b0 0806     		.short	1544
 558 01b2 1A01     		.short	282
 559 01b4 2E07     		.short	1838
 560 01b6 0D05     		.short	1293
 561 01b8 0A09     		.short	2314
 562 01ba 2802     		.short	552
 563 01bc 750A     		.short	2677
 564 01be 3A08     		.short	2106
 565 01c0 2306     		.short	1571
ARM GAS  C:\Users\bogur\AppData\Local\Temp\cci0ahpC.s 			page 14


 566 01c2 CD00     		.short	205
 567 01c4 660B     		.short	2918
 568 01c6 0606     		.short	1542
 569 01c8 A10A     		.short	2721
 570 01ca 250A     		.short	2597
 571 01cc 0809     		.short	2312
 572 01ce A902     		.short	681
 573 01d0 8200     		.short	130
 574 01d2 4206     		.short	1602
 575 01d4 4F07     		.short	1871
 576 01d6 3D03     		.short	829
 577 01d8 820B     		.short	2946
 578 01da F90B     		.short	3065
 579 01dc 2D05     		.short	1325
 580 01de C40A     		.short	2756
 581 01e0 4507     		.short	1861
 582 01e2 C205     		.short	1474
 583 01e4 B204     		.short	1202
 584 01e6 3F09     		.short	2367
 585 01e8 4B0C     		.short	3147
 586 01ea D806     		.short	1752
 587 01ec 930A     		.short	2707
 588 01ee AB00     		.short	171
 589 01f0 370C     		.short	3127
 590 01f2 E20B     		.short	3042
 591 01f4 7307     		.short	1907
 592 01f6 2C07     		.short	1836
 593 01f8 ED05     		.short	1517
 594 01fa 6701     		.short	359
 595 01fc F602     		.short	758
 596 01fe A105     		.short	1441
 597              		.text
 598              	.Letext0:
 599              		.file 2 "c:\\program files (x86)\\cypress\\psoc creator\\4.4\\psoc creator\\import\\gnu\\arm\\5.4.
 600              		.file 3 "c:\\program files (x86)\\cypress\\psoc creator\\4.4\\psoc creator\\import\\gnu\\arm\\5.4.
 601              		.file 4 "..\\reduce.h"