ARM GAS  C:\Users\bogurad\AppData\Local\Temp\ccuet7dk.s 			page 1


   1              		.syntax unified
   2              		.cpu cortex-m4
   3              		.eabi_attribute 27, 1
   4              		.fpu fpv4-sp-d16
   5              		.eabi_attribute 20, 1
   6              		.eabi_attribute 21, 1
   7              		.eabi_attribute 23, 3
   8              		.eabi_attribute 24, 1
   9              		.eabi_attribute 25, 1
  10              		.eabi_attribute 26, 1
  11              		.eabi_attribute 30, 1
  12              		.eabi_attribute 34, 1
  13              		.eabi_attribute 18, 4
  14              		.thumb
  15              		.syntax unified
  16              		.file	"poly.c"
  17              		.text
  18              	.Ltext0:
  19              		.cfi_sections	.debug_frame
  20              		.section	.text.pqcrystals_kyber1024_ref_poly_decompress,"ax",%progbits
  21              		.align	2
  22              		.global	pqcrystals_kyber1024_ref_poly_decompress
  23              		.thumb
  24              		.thumb_func
  25              		.type	pqcrystals_kyber1024_ref_poly_decompress, %function
  26              	pqcrystals_kyber1024_ref_poly_decompress:
  27              	.LFB1:
  28              		.file 1 "..\\poly.c"
   1:..\poly.c     **** #include <stdint.h>
   2:..\poly.c     **** #include "params.h"
   3:..\poly.c     **** #include "poly.h"
   4:..\poly.c     **** #include "ntt.h"
   5:..\poly.c     **** #include "reduce.h"
   6:..\poly.c     **** #include "cbd.h"
   7:..\poly.c     **** #include "symmetric.h"
   8:..\poly.c     **** 
   9:..\poly.c     **** /*************************************************
  10:..\poly.c     **** * Name:        poly_compress
  11:..\poly.c     **** *
  12:..\poly.c     **** * Description: Compression and subsequent serialization of a polynomial
  13:..\poly.c     **** *
  14:..\poly.c     **** * Arguments:   - uint8_t *r: pointer to output byte array
  15:..\poly.c     **** *                            (of length KYBER_POLYCOMPRESSEDBYTES)
  16:..\poly.c     **** *              - poly *a:    pointer to input polynomial
  17:..\poly.c     **** **************************************************/
  18:..\poly.c     **** void poly_compress(uint8_t r[KYBER_POLYCOMPRESSEDBYTES], poly *a)
  19:..\poly.c     **** {
  20:..\poly.c     ****   unsigned int i,j;
  21:..\poly.c     ****   uint8_t t[8];
  22:..\poly.c     **** 
  23:..\poly.c     ****   poly_csubq(a);
  24:..\poly.c     **** 
  25:..\poly.c     **** #if (KYBER_POLYCOMPRESSEDBYTES == 128)
  26:..\poly.c     ****   for(i=0;i<KYBER_N/8;i++) {
  27:..\poly.c     ****     for(j=0;j<8;j++)
  28:..\poly.c     ****       t[j] = ((((uint16_t)a->coeffs[8*i+j] << 4) + KYBER_Q/2)/KYBER_Q) & 15;
  29:..\poly.c     **** 
ARM GAS  C:\Users\bogurad\AppData\Local\Temp\ccuet7dk.s 			page 2


  30:..\poly.c     ****     r[0] = t[0] | (t[1] << 4);
  31:..\poly.c     ****     r[1] = t[2] | (t[3] << 4);
  32:..\poly.c     ****     r[2] = t[4] | (t[5] << 4);
  33:..\poly.c     ****     r[3] = t[6] | (t[7] << 4);
  34:..\poly.c     ****     r += 4;
  35:..\poly.c     ****   }
  36:..\poly.c     **** #elif (KYBER_POLYCOMPRESSEDBYTES == 160)
  37:..\poly.c     ****   for(i=0;i<KYBER_N/8;i++) {
  38:..\poly.c     ****     for(j=0;j<8;j++)
  39:..\poly.c     ****       t[j] = ((((uint32_t)a->coeffs[8*i+j] << 5) + KYBER_Q/2)/KYBER_Q) & 31;
  40:..\poly.c     **** 
  41:..\poly.c     ****     r[0] = (t[0] >> 0) | (t[1] << 5);
  42:..\poly.c     ****     r[1] = (t[1] >> 3) | (t[2] << 2) | (t[3] << 7);
  43:..\poly.c     ****     r[2] = (t[3] >> 1) | (t[4] << 4);
  44:..\poly.c     ****     r[3] = (t[4] >> 4) | (t[5] << 1) | (t[6] << 6);
  45:..\poly.c     ****     r[4] = (t[6] >> 2) | (t[7] << 3);
  46:..\poly.c     ****     r += 5;
  47:..\poly.c     ****   }
  48:..\poly.c     **** #else
  49:..\poly.c     **** #error "KYBER_POLYCOMPRESSEDBYTES needs to be in {128, 160}"
  50:..\poly.c     **** #endif
  51:..\poly.c     **** }
  52:..\poly.c     **** 
  53:..\poly.c     **** /*************************************************
  54:..\poly.c     **** * Name:        poly_decompress
  55:..\poly.c     **** *
  56:..\poly.c     **** * Description: De-serialization and subsequent decompression of a polynomial;
  57:..\poly.c     **** *              approximate inverse of poly_compress
  58:..\poly.c     **** *
  59:..\poly.c     **** * Arguments:   - poly *r:          pointer to output polynomial
  60:..\poly.c     **** *              - const uint8_t *a: pointer to input byte array
  61:..\poly.c     **** *                                  (of length KYBER_POLYCOMPRESSEDBYTES bytes)
  62:..\poly.c     **** **************************************************/
  63:..\poly.c     **** void poly_decompress(poly *r, const uint8_t a[KYBER_POLYCOMPRESSEDBYTES])
  64:..\poly.c     **** {
  29              		.loc 1 64 0
  30              		.cfi_startproc
  31              		@ args = 0, pretend = 0, frame = 8
  32              		@ frame_needed = 0, uses_anonymous_args = 0
  33              		@ link register save eliminated.
  34              	.LVL0:
  35 0000 70B4     		push	{r4, r5, r6}
  36              		.cfi_def_cfa_offset 12
  37              		.cfi_offset 4, -12
  38              		.cfi_offset 5, -8
  39              		.cfi_offset 6, -4
  40 0002 83B0     		sub	sp, sp, #12
  41              		.cfi_def_cfa_offset 24
  42              	.LVL1:
  65:..\poly.c     ****   unsigned int i;
  66:..\poly.c     **** 
  67:..\poly.c     **** #if (KYBER_POLYCOMPRESSEDBYTES == 128)
  68:..\poly.c     ****   for(i=0;i<KYBER_N/2;i++) {
  69:..\poly.c     ****     r->coeffs[2*i+0] = (((uint16_t)(a[0] & 15)*KYBER_Q) + 8) >> 4;
  70:..\poly.c     ****     r->coeffs[2*i+1] = (((uint16_t)(a[0] >> 4)*KYBER_Q) + 8) >> 4;
  71:..\poly.c     ****     a += 1;
  72:..\poly.c     ****   }
ARM GAS  C:\Users\bogurad\AppData\Local\Temp\ccuet7dk.s 			page 3


  73:..\poly.c     **** #elif (KYBER_POLYCOMPRESSEDBYTES == 160)
  74:..\poly.c     ****   unsigned int j;
  75:..\poly.c     ****   uint8_t t[8];
  76:..\poly.c     ****   for(i=0;i<KYBER_N/8;i++) {
  43              		.loc 1 76 0
  44 0004 0026     		movs	r6, #0
  45 0006 3AE0     		b	.L2
  46              	.LVL2:
  47              	.L5:
  77:..\poly.c     ****     t[0] = (a[0] >> 0);
  48              		.loc 1 77 0
  49 0008 0A78     		ldrb	r2, [r1]	@ zero_extendqisi2
  50 000a 8DF80020 		strb	r2, [sp]
  78:..\poly.c     ****     t[1] = (a[0] >> 5) | (a[1] << 3);
  51              		.loc 1 78 0
  52 000e 4B78     		ldrb	r3, [r1, #1]	@ zero_extendqisi2
  53 0010 5209     		lsrs	r2, r2, #5
  54 0012 42EAC302 		orr	r2, r2, r3, lsl #3
  55 0016 8DF80120 		strb	r2, [sp, #1]
  79:..\poly.c     ****     t[2] = (a[1] >> 2);
  56              		.loc 1 79 0
  57 001a 9A08     		lsrs	r2, r3, #2
  58 001c 8DF80220 		strb	r2, [sp, #2]
  80:..\poly.c     ****     t[3] = (a[1] >> 7) | (a[2] << 1);
  59              		.loc 1 80 0
  60 0020 8A78     		ldrb	r2, [r1, #2]	@ zero_extendqisi2
  61 0022 DB09     		lsrs	r3, r3, #7
  62 0024 43EA4203 		orr	r3, r3, r2, lsl #1
  63 0028 8DF80330 		strb	r3, [sp, #3]
  81:..\poly.c     ****     t[4] = (a[2] >> 4) | (a[3] << 4);
  64              		.loc 1 81 0
  65 002c CB78     		ldrb	r3, [r1, #3]	@ zero_extendqisi2
  66 002e 1209     		lsrs	r2, r2, #4
  67 0030 42EA0312 		orr	r2, r2, r3, lsl #4
  68 0034 8DF80420 		strb	r2, [sp, #4]
  82:..\poly.c     ****     t[5] = (a[3] >> 1);
  69              		.loc 1 82 0
  70 0038 5A08     		lsrs	r2, r3, #1
  71 003a 8DF80520 		strb	r2, [sp, #5]
  83:..\poly.c     ****     t[6] = (a[3] >> 6) | (a[4] << 2);
  72              		.loc 1 83 0
  73 003e 0A79     		ldrb	r2, [r1, #4]	@ zero_extendqisi2
  74 0040 9B09     		lsrs	r3, r3, #6
  75 0042 43EA8203 		orr	r3, r3, r2, lsl #2
  76 0046 8DF80630 		strb	r3, [sp, #6]
  84:..\poly.c     ****     t[7] = (a[4] >> 3);
  77              		.loc 1 84 0
  78 004a D208     		lsrs	r2, r2, #3
  79 004c 8DF80720 		strb	r2, [sp, #7]
  85:..\poly.c     ****     a += 5;
  80              		.loc 1 85 0
  81 0050 0531     		adds	r1, r1, #5
  82              	.LVL3:
  86:..\poly.c     **** 
  87:..\poly.c     ****     for(j=0;j<8;j++)
  83              		.loc 1 87 0
  84 0052 0024     		movs	r4, #0
ARM GAS  C:\Users\bogurad\AppData\Local\Temp\ccuet7dk.s 			page 4


  85 0054 10E0     		b	.L3
  86              	.LVL4:
  87              	.L4:
  88:..\poly.c     ****       r->coeffs[8*i+j] = ((uint32_t)(t[j] & 31)*KYBER_Q + 16) >> 5;
  88              		.loc 1 88 0 discriminator 3
  89 0056 04EBC605 		add	r5, r4, r6, lsl #3
  90 005a 02AB     		add	r3, sp, #8
  91 005c 2344     		add	r3, r3, r4
  92 005e 13F8083C 		ldrb	r3, [r3, #-8]	@ zero_extendqisi2
  93 0062 03F01F03 		and	r3, r3, #31
  94 0066 40F60152 		movw	r2, #3329
  95 006a 02FB03F3 		mul	r3, r2, r3
  96 006e 1033     		adds	r3, r3, #16
  97 0070 5B09     		lsrs	r3, r3, #5
  98 0072 20F81530 		strh	r3, [r0, r5, lsl #1]	@ movhi
  87:..\poly.c     ****       r->coeffs[8*i+j] = ((uint32_t)(t[j] & 31)*KYBER_Q + 16) >> 5;
  99              		.loc 1 87 0 discriminator 3
 100 0076 0134     		adds	r4, r4, #1
 101              	.LVL5:
 102              	.L3:
  87:..\poly.c     ****       r->coeffs[8*i+j] = ((uint32_t)(t[j] & 31)*KYBER_Q + 16) >> 5;
 103              		.loc 1 87 0 is_stmt 0 discriminator 1
 104 0078 072C     		cmp	r4, #7
 105 007a ECD9     		bls	.L4
  76:..\poly.c     ****     t[0] = (a[0] >> 0);
 106              		.loc 1 76 0 is_stmt 1 discriminator 2
 107 007c 0136     		adds	r6, r6, #1
 108              	.LVL6:
 109              	.L2:
  76:..\poly.c     ****     t[0] = (a[0] >> 0);
 110              		.loc 1 76 0 is_stmt 0 discriminator 1
 111 007e 1F2E     		cmp	r6, #31
 112 0080 C2D9     		bls	.L5
  89:..\poly.c     ****   }
  90:..\poly.c     **** #else
  91:..\poly.c     **** #error "KYBER_POLYCOMPRESSEDBYTES needs to be in {128, 160}"
  92:..\poly.c     **** #endif
  93:..\poly.c     **** }
 113              		.loc 1 93 0 is_stmt 1
 114 0082 03B0     		add	sp, sp, #12
 115              		.cfi_def_cfa_offset 12
 116              		@ sp needed
 117 0084 70BC     		pop	{r4, r5, r6}
 118              		.cfi_restore 6
 119              		.cfi_restore 5
 120              		.cfi_restore 4
 121              		.cfi_def_cfa_offset 0
 122              	.LVL7:
 123 0086 7047     		bx	lr
 124              		.cfi_endproc
 125              	.LFE1:
 126              		.size	pqcrystals_kyber1024_ref_poly_decompress, .-pqcrystals_kyber1024_ref_poly_decompress
 127              		.section	.text.pqcrystals_kyber1024_ref_poly_frombytes,"ax",%progbits
 128              		.align	2
 129              		.global	pqcrystals_kyber1024_ref_poly_frombytes
 130              		.thumb
 131              		.thumb_func
ARM GAS  C:\Users\bogurad\AppData\Local\Temp\ccuet7dk.s 			page 5


 132              		.type	pqcrystals_kyber1024_ref_poly_frombytes, %function
 133              	pqcrystals_kyber1024_ref_poly_frombytes:
 134              	.LFB3:
  94:..\poly.c     **** 
  95:..\poly.c     **** /*************************************************
  96:..\poly.c     **** * Name:        poly_tobytes
  97:..\poly.c     **** *
  98:..\poly.c     **** * Description: Serialization of a polynomial
  99:..\poly.c     **** *
 100:..\poly.c     **** * Arguments:   - uint8_t *r: pointer to output byte array
 101:..\poly.c     **** *                            (needs space for KYBER_POLYBYTES bytes)
 102:..\poly.c     **** *              - poly *a:    pointer to input polynomial
 103:..\poly.c     **** **************************************************/
 104:..\poly.c     **** void poly_tobytes(uint8_t r[KYBER_POLYBYTES], poly *a)
 105:..\poly.c     **** {
 106:..\poly.c     ****   unsigned int i;
 107:..\poly.c     ****   uint16_t t0, t1;
 108:..\poly.c     **** 
 109:..\poly.c     ****   poly_csubq(a);
 110:..\poly.c     **** 
 111:..\poly.c     ****   for(i=0;i<KYBER_N/2;i++) {
 112:..\poly.c     ****     t0 = a->coeffs[2*i];
 113:..\poly.c     ****     t1 = a->coeffs[2*i+1];
 114:..\poly.c     ****     r[3*i+0] = (t0 >> 0);
 115:..\poly.c     ****     r[3*i+1] = (t0 >> 8) | (t1 << 4);
 116:..\poly.c     ****     r[3*i+2] = (t1 >> 4);
 117:..\poly.c     ****   }
 118:..\poly.c     **** }
 119:..\poly.c     **** 
 120:..\poly.c     **** /*************************************************
 121:..\poly.c     **** * Name:        poly_frombytes
 122:..\poly.c     **** *
 123:..\poly.c     **** * Description: De-serialization of a polynomial;
 124:..\poly.c     **** *              inverse of poly_tobytes
 125:..\poly.c     **** *
 126:..\poly.c     **** * Arguments:   - poly *r:          pointer to output polynomial
 127:..\poly.c     **** *              - const uint8_t *a: pointer to input byte array
 128:..\poly.c     **** *                                  (of KYBER_POLYBYTES bytes)
 129:..\poly.c     **** **************************************************/
 130:..\poly.c     **** void poly_frombytes(poly *r, const uint8_t a[KYBER_POLYBYTES])
 131:..\poly.c     **** {
 135              		.loc 1 131 0
 136              		.cfi_startproc
 137              		@ args = 0, pretend = 0, frame = 0
 138              		@ frame_needed = 0, uses_anonymous_args = 0
 139              		@ link register save eliminated.
 140              	.LVL8:
 141 0000 F0B4     		push	{r4, r5, r6, r7}
 142              		.cfi_def_cfa_offset 16
 143              		.cfi_offset 4, -16
 144              		.cfi_offset 5, -12
 145              		.cfi_offset 6, -8
 146              		.cfi_offset 7, -4
 147              	.LVL9:
 132:..\poly.c     ****   unsigned int i;
 133:..\poly.c     ****   for(i=0;i<KYBER_N/2;i++) {
 148              		.loc 1 133 0
ARM GAS  C:\Users\bogurad\AppData\Local\Temp\ccuet7dk.s 			page 6


 149 0002 0025     		movs	r5, #0
 150 0004 14E0     		b	.L8
 151              	.LVL10:
 152              	.L9:
 134:..\poly.c     ****     r->coeffs[2*i]   = ((a[3*i+0] >> 0) | ((uint16_t)a[3*i+1] << 8)) & 0xFFF;
 153              		.loc 1 134 0 discriminator 3
 154 0006 6B00     		lsls	r3, r5, #1
 155 0008 5C19     		adds	r4, r3, r5
 156 000a 0A5D     		ldrb	r2, [r1, r4]	@ zero_extendqisi2
 157 000c 661C     		adds	r6, r4, #1
 158 000e 8F5D     		ldrb	r7, [r1, r6]	@ zero_extendqisi2
 159 0010 42EA0722 		orr	r2, r2, r7, lsl #8
 160 0014 C2F30B02 		ubfx	r2, r2, #0, #12
 161 0018 20F81320 		strh	r2, [r0, r3, lsl #1]	@ movhi
 135:..\poly.c     ****     r->coeffs[2*i+1] = ((a[3*i+1] >> 4) | ((uint16_t)a[3*i+2] << 4)) & 0xFFF;
 162              		.loc 1 135 0 discriminator 3
 163 001c 0133     		adds	r3, r3, #1
 164 001e 8A5D     		ldrb	r2, [r1, r6]	@ zero_extendqisi2
 165 0020 0C44     		add	r4, r4, r1
 166 0022 A478     		ldrb	r4, [r4, #2]	@ zero_extendqisi2
 167 0024 1209     		lsrs	r2, r2, #4
 168 0026 42EA0412 		orr	r2, r2, r4, lsl #4
 169 002a 20F81320 		strh	r2, [r0, r3, lsl #1]	@ movhi
 133:..\poly.c     ****     r->coeffs[2*i]   = ((a[3*i+0] >> 0) | ((uint16_t)a[3*i+1] << 8)) & 0xFFF;
 170              		.loc 1 133 0 discriminator 3
 171 002e 0135     		adds	r5, r5, #1
 172              	.LVL11:
 173              	.L8:
 133:..\poly.c     ****     r->coeffs[2*i]   = ((a[3*i+0] >> 0) | ((uint16_t)a[3*i+1] << 8)) & 0xFFF;
 174              		.loc 1 133 0 is_stmt 0 discriminator 1
 175 0030 7F2D     		cmp	r5, #127
 176 0032 E8D9     		bls	.L9
 136:..\poly.c     ****   }
 137:..\poly.c     **** }
 177              		.loc 1 137 0 is_stmt 1
 178 0034 F0BC     		pop	{r4, r5, r6, r7}
 179              		.cfi_restore 7
 180              		.cfi_restore 6
 181              		.cfi_restore 5
 182              		.cfi_restore 4
 183              		.cfi_def_cfa_offset 0
 184              	.LVL12:
 185 0036 7047     		bx	lr
 186              		.cfi_endproc
 187              	.LFE3:
 188              		.size	pqcrystals_kyber1024_ref_poly_frombytes, .-pqcrystals_kyber1024_ref_poly_frombytes
 189              		.section	.text.pqcrystals_kyber1024_ref_poly_frommsg,"ax",%progbits
 190              		.align	2
 191              		.global	pqcrystals_kyber1024_ref_poly_frommsg
 192              		.thumb
 193              		.thumb_func
 194              		.type	pqcrystals_kyber1024_ref_poly_frommsg, %function
 195              	pqcrystals_kyber1024_ref_poly_frommsg:
 196              	.LFB4:
 138:..\poly.c     **** 
 139:..\poly.c     **** /*************************************************
 140:..\poly.c     **** * Name:        poly_frommsg
ARM GAS  C:\Users\bogurad\AppData\Local\Temp\ccuet7dk.s 			page 7


 141:..\poly.c     **** *
 142:..\poly.c     **** * Description: Convert 32-byte message to polynomial
 143:..\poly.c     **** *
 144:..\poly.c     **** * Arguments:   - poly *r:            pointer to output polynomial
 145:..\poly.c     **** *              - const uint8_t *msg: pointer to input message
 146:..\poly.c     **** **************************************************/
 147:..\poly.c     **** void poly_frommsg(poly *r, const uint8_t msg[KYBER_INDCPA_MSGBYTES])
 148:..\poly.c     **** {
 197              		.loc 1 148 0
 198              		.cfi_startproc
 199              		@ args = 0, pretend = 0, frame = 0
 200              		@ frame_needed = 0, uses_anonymous_args = 0
 201              		@ link register save eliminated.
 202              	.LVL13:
 203 0000 30B4     		push	{r4, r5}
 204              		.cfi_def_cfa_offset 8
 205              		.cfi_offset 4, -8
 206              		.cfi_offset 5, -4
 207              	.LVL14:
 149:..\poly.c     ****   unsigned int i,j;
 150:..\poly.c     ****   int16_t mask;
 151:..\poly.c     **** 
 152:..\poly.c     **** #if (KYBER_INDCPA_MSGBYTES != KYBER_N/8)
 153:..\poly.c     **** #error "KYBER_INDCPA_MSGBYTES must be equal to KYBER_N/8 bytes!"
 154:..\poly.c     **** #endif
 155:..\poly.c     **** 
 156:..\poly.c     ****   for(i=0;i<KYBER_N/8;i++) {
 208              		.loc 1 156 0
 209 0002 0024     		movs	r4, #0
 210 0004 11E0     		b	.L12
 211              	.LVL15:
 212              	.L13:
 157:..\poly.c     ****     for(j=0;j<8;j++) {
 158:..\poly.c     ****       mask = -(int16_t)((msg[i] >> j)&1);
 213              		.loc 1 158 0 discriminator 3
 214 0006 0B5D     		ldrb	r3, [r1, r4]	@ zero_extendqisi2
 215 0008 1341     		asrs	r3, r3, r2
 216 000a 43F30003 		sbfx	r3, r3, #0, #1
 217              	.LVL16:
 159:..\poly.c     ****       r->coeffs[8*i+j] = mask & ((KYBER_Q+1)/2);
 218              		.loc 1 159 0 discriminator 3
 219 000e 02EBC405 		add	r5, r2, r4, lsl #3
 220 0012 23F4BF73 		bic	r3, r3, #382
 221              	.LVL17:
 222 0016 5B05     		lsls	r3, r3, #21
 223 0018 5B0D     		lsrs	r3, r3, #21
 224 001a 20F81530 		strh	r3, [r0, r5, lsl #1]	@ movhi
 225              	.LVL18:
 157:..\poly.c     ****     for(j=0;j<8;j++) {
 226              		.loc 1 157 0 discriminator 3
 227 001e 0132     		adds	r2, r2, #1
 228              	.LVL19:
 229 0020 00E0     		b	.L14
 230              	.LVL20:
 231              	.L15:
 232 0022 0022     		movs	r2, #0
 233              	.L14:
ARM GAS  C:\Users\bogurad\AppData\Local\Temp\ccuet7dk.s 			page 8


 234              	.LVL21:
 157:..\poly.c     ****     for(j=0;j<8;j++) {
 235              		.loc 1 157 0 is_stmt 0 discriminator 1
 236 0024 072A     		cmp	r2, #7
 237 0026 EED9     		bls	.L13
 156:..\poly.c     ****     for(j=0;j<8;j++) {
 238              		.loc 1 156 0 is_stmt 1 discriminator 2
 239 0028 0134     		adds	r4, r4, #1
 240              	.LVL22:
 241              	.L12:
 156:..\poly.c     ****     for(j=0;j<8;j++) {
 242              		.loc 1 156 0 is_stmt 0 discriminator 1
 243 002a 1F2C     		cmp	r4, #31
 244 002c F9D9     		bls	.L15
 160:..\poly.c     ****     }
 161:..\poly.c     ****   }
 162:..\poly.c     **** }
 245              		.loc 1 162 0 is_stmt 1
 246 002e 30BC     		pop	{r4, r5}
 247              		.cfi_restore 5
 248              		.cfi_restore 4
 249              		.cfi_def_cfa_offset 0
 250              	.LVL23:
 251 0030 7047     		bx	lr
 252              		.cfi_endproc
 253              	.LFE4:
 254              		.size	pqcrystals_kyber1024_ref_poly_frommsg, .-pqcrystals_kyber1024_ref_poly_frommsg
 255 0032 00BF     		.section	.text.pqcrystals_kyber1024_ref_poly_getnoise_eta1,"ax",%progbits
 256              		.align	2
 257              		.global	pqcrystals_kyber1024_ref_poly_getnoise_eta1
 258              		.thumb
 259              		.thumb_func
 260              		.type	pqcrystals_kyber1024_ref_poly_getnoise_eta1, %function
 261              	pqcrystals_kyber1024_ref_poly_getnoise_eta1:
 262              	.LFB6:
 163:..\poly.c     **** 
 164:..\poly.c     **** /*************************************************
 165:..\poly.c     **** * Name:        poly_tomsg
 166:..\poly.c     **** *
 167:..\poly.c     **** * Description: Convert polynomial to 32-byte message
 168:..\poly.c     **** *
 169:..\poly.c     **** * Arguments:   - uint8_t *msg: pointer to output message
 170:..\poly.c     **** *              - poly *a:      pointer to input polynomial
 171:..\poly.c     **** **************************************************/
 172:..\poly.c     **** void poly_tomsg(uint8_t msg[KYBER_INDCPA_MSGBYTES], poly *a)
 173:..\poly.c     **** {
 174:..\poly.c     ****   unsigned int i,j;
 175:..\poly.c     ****   uint16_t t;
 176:..\poly.c     **** 
 177:..\poly.c     ****   poly_csubq(a);
 178:..\poly.c     **** 
 179:..\poly.c     ****   for(i=0;i<KYBER_N/8;i++) {
 180:..\poly.c     ****     msg[i] = 0;
 181:..\poly.c     ****     for(j=0;j<8;j++) {
 182:..\poly.c     ****       t = ((((uint16_t)a->coeffs[8*i+j] << 1) + KYBER_Q/2)/KYBER_Q) & 1;
 183:..\poly.c     ****       msg[i] |= t << j;
 184:..\poly.c     ****     }
ARM GAS  C:\Users\bogurad\AppData\Local\Temp\ccuet7dk.s 			page 9


 185:..\poly.c     ****   }
 186:..\poly.c     **** }
 187:..\poly.c     **** 
 188:..\poly.c     **** /*************************************************
 189:..\poly.c     **** * Name:        poly_getnoise_eta1
 190:..\poly.c     **** *
 191:..\poly.c     **** * Description: Sample a polynomial deterministically from a seed and a nonce,
 192:..\poly.c     **** *              with output polynomial close to centered binomial distribution
 193:..\poly.c     **** *              with parameter KYBER_ETA1
 194:..\poly.c     **** *
 195:..\poly.c     **** * Arguments:   - poly *r:             pointer to output polynomial
 196:..\poly.c     **** *              - const uint8_t *seed: pointer to input seed
 197:..\poly.c     **** *                                     (of length KYBER_SYMBYTES bytes)
 198:..\poly.c     **** *              - uint8_t nonce:       one-byte input nonce
 199:..\poly.c     **** **************************************************/
 200:..\poly.c     **** void poly_getnoise_eta1(poly *r, const uint8_t seed[KYBER_SYMBYTES], uint8_t nonce)
 201:..\poly.c     **** {
 263              		.loc 1 201 0
 264              		.cfi_startproc
 265              		@ args = 0, pretend = 0, frame = 128
 266              		@ frame_needed = 0, uses_anonymous_args = 0
 267              	.LVL24:
 268 0000 10B5     		push	{r4, lr}
 269              		.cfi_def_cfa_offset 8
 270              		.cfi_offset 4, -8
 271              		.cfi_offset 14, -4
 272 0002 A0B0     		sub	sp, sp, #128
 273              		.cfi_def_cfa_offset 136
 274 0004 0446     		mov	r4, r0
 202:..\poly.c     ****   uint8_t buf[KYBER_ETA1*KYBER_N/4];
 203:..\poly.c     ****   prf(buf, sizeof(buf), seed, nonce);
 275              		.loc 1 203 0
 276 0006 1346     		mov	r3, r2
 277 0008 0A46     		mov	r2, r1
 278              	.LVL25:
 279 000a 8021     		movs	r1, #128
 280              	.LVL26:
 281 000c 6846     		mov	r0, sp
 282              	.LVL27:
 283 000e FFF7FEFF 		bl	pqcrystals_kyber1024_ref_kyber_shake256_prf
 284              	.LVL28:
 204:..\poly.c     ****   cbd_eta1(r, buf);
 285              		.loc 1 204 0
 286 0012 6946     		mov	r1, sp
 287 0014 2046     		mov	r0, r4
 288 0016 FFF7FEFF 		bl	pqcrystals_kyber1024_ref_cbd_eta1
 289              	.LVL29:
 205:..\poly.c     **** }
 290              		.loc 1 205 0
 291 001a 20B0     		add	sp, sp, #128
 292              		.cfi_def_cfa_offset 8
 293              		@ sp needed
 294 001c 10BD     		pop	{r4, pc}
 295              		.cfi_endproc
 296              	.LFE6:
 297              		.size	pqcrystals_kyber1024_ref_poly_getnoise_eta1, .-pqcrystals_kyber1024_ref_poly_getnoise_eta1
 298 001e 00BF     		.section	.text.pqcrystals_kyber1024_ref_poly_getnoise_eta2,"ax",%progbits
ARM GAS  C:\Users\bogurad\AppData\Local\Temp\ccuet7dk.s 			page 10


 299              		.align	2
 300              		.global	pqcrystals_kyber1024_ref_poly_getnoise_eta2
 301              		.thumb
 302              		.thumb_func
 303              		.type	pqcrystals_kyber1024_ref_poly_getnoise_eta2, %function
 304              	pqcrystals_kyber1024_ref_poly_getnoise_eta2:
 305              	.LFB7:
 206:..\poly.c     **** 
 207:..\poly.c     **** /*************************************************
 208:..\poly.c     **** * Name:        poly_getnoise_eta2
 209:..\poly.c     **** *
 210:..\poly.c     **** * Description: Sample a polynomial deterministically from a seed and a nonce,
 211:..\poly.c     **** *              with output polynomial close to centered binomial distribution
 212:..\poly.c     **** *              with parameter KYBER_ETA2
 213:..\poly.c     **** *
 214:..\poly.c     **** * Arguments:   - poly *r:             pointer to output polynomial
 215:..\poly.c     **** *              - const uint8_t *seed: pointer to input seed
 216:..\poly.c     **** *                                     (of length KYBER_SYMBYTES bytes)
 217:..\poly.c     **** *              - uint8_t nonce:       one-byte input nonce
 218:..\poly.c     **** **************************************************/
 219:..\poly.c     **** void poly_getnoise_eta2(poly *r, const uint8_t seed[KYBER_SYMBYTES], uint8_t nonce)
 220:..\poly.c     **** {
 306              		.loc 1 220 0
 307              		.cfi_startproc
 308              		@ args = 0, pretend = 0, frame = 128
 309              		@ frame_needed = 0, uses_anonymous_args = 0
 310              	.LVL30:
 311 0000 10B5     		push	{r4, lr}
 312              		.cfi_def_cfa_offset 8
 313              		.cfi_offset 4, -8
 314              		.cfi_offset 14, -4
 315 0002 A0B0     		sub	sp, sp, #128
 316              		.cfi_def_cfa_offset 136
 317 0004 0446     		mov	r4, r0
 221:..\poly.c     ****   uint8_t buf[KYBER_ETA2*KYBER_N/4];
 222:..\poly.c     ****   prf(buf, sizeof(buf), seed, nonce);
 318              		.loc 1 222 0
 319 0006 1346     		mov	r3, r2
 320 0008 0A46     		mov	r2, r1
 321              	.LVL31:
 322 000a 8021     		movs	r1, #128
 323              	.LVL32:
 324 000c 6846     		mov	r0, sp
 325              	.LVL33:
 326 000e FFF7FEFF 		bl	pqcrystals_kyber1024_ref_kyber_shake256_prf
 327              	.LVL34:
 223:..\poly.c     ****   cbd_eta2(r, buf);
 328              		.loc 1 223 0
 329 0012 6946     		mov	r1, sp
 330 0014 2046     		mov	r0, r4
 331 0016 FFF7FEFF 		bl	pqcrystals_kyber1024_ref_cbd_eta2
 332              	.LVL35:
 224:..\poly.c     **** }
 333              		.loc 1 224 0
 334 001a 20B0     		add	sp, sp, #128
 335              		.cfi_def_cfa_offset 8
 336              		@ sp needed
ARM GAS  C:\Users\bogurad\AppData\Local\Temp\ccuet7dk.s 			page 11


 337 001c 10BD     		pop	{r4, pc}
 338              		.cfi_endproc
 339              	.LFE7:
 340              		.size	pqcrystals_kyber1024_ref_poly_getnoise_eta2, .-pqcrystals_kyber1024_ref_poly_getnoise_eta2
 341 001e 00BF     		.section	.text.pqcrystals_kyber1024_ref_poly_invntt_tomont,"ax",%progbits
 342              		.align	2
 343              		.global	pqcrystals_kyber1024_ref_poly_invntt_tomont
 344              		.thumb
 345              		.thumb_func
 346              		.type	pqcrystals_kyber1024_ref_poly_invntt_tomont, %function
 347              	pqcrystals_kyber1024_ref_poly_invntt_tomont:
 348              	.LFB9:
 225:..\poly.c     **** 
 226:..\poly.c     **** 
 227:..\poly.c     **** /*************************************************
 228:..\poly.c     **** * Name:        poly_ntt
 229:..\poly.c     **** *
 230:..\poly.c     **** * Description: Computes negacyclic number-theoretic transform (NTT) of
 231:..\poly.c     **** *              a polynomial in place;
 232:..\poly.c     **** *              inputs assumed to be in normal order, output in bitreversed order
 233:..\poly.c     **** *
 234:..\poly.c     **** * Arguments:   - uint16_t *r: pointer to in/output polynomial
 235:..\poly.c     **** **************************************************/
 236:..\poly.c     **** void poly_ntt(poly *r)
 237:..\poly.c     **** {
 238:..\poly.c     ****   ntt(r->coeffs);
 239:..\poly.c     ****   poly_reduce(r);
 240:..\poly.c     **** }
 241:..\poly.c     **** 
 242:..\poly.c     **** /*************************************************
 243:..\poly.c     **** * Name:        poly_invntt_tomont
 244:..\poly.c     **** *
 245:..\poly.c     **** * Description: Computes inverse of negacyclic number-theoretic transform (NTT)
 246:..\poly.c     **** *              of a polynomial in place;
 247:..\poly.c     **** *              inputs assumed to be in bitreversed order, output in normal order
 248:..\poly.c     **** *
 249:..\poly.c     **** * Arguments:   - uint16_t *a: pointer to in/output polynomial
 250:..\poly.c     **** **************************************************/
 251:..\poly.c     **** void poly_invntt_tomont(poly *r)
 252:..\poly.c     **** {
 349              		.loc 1 252 0
 350              		.cfi_startproc
 351              		@ args = 0, pretend = 0, frame = 0
 352              		@ frame_needed = 0, uses_anonymous_args = 0
 353              	.LVL36:
 354 0000 08B5     		push	{r3, lr}
 355              		.cfi_def_cfa_offset 8
 356              		.cfi_offset 3, -8
 357              		.cfi_offset 14, -4
 253:..\poly.c     ****   invntt(r->coeffs);
 358              		.loc 1 253 0
 359 0002 FFF7FEFF 		bl	pqcrystals_kyber1024_ref_invntt
 360              	.LVL37:
 361 0006 08BD     		pop	{r3, pc}
 362              		.cfi_endproc
 363              	.LFE9:
 364              		.size	pqcrystals_kyber1024_ref_poly_invntt_tomont, .-pqcrystals_kyber1024_ref_poly_invntt_tomont
ARM GAS  C:\Users\bogurad\AppData\Local\Temp\ccuet7dk.s 			page 12


 365              		.section	.text.pqcrystals_kyber1024_ref_poly_basemul_montgomery,"ax",%progbits
 366              		.align	2
 367              		.global	pqcrystals_kyber1024_ref_poly_basemul_montgomery
 368              		.thumb
 369              		.thumb_func
 370              		.type	pqcrystals_kyber1024_ref_poly_basemul_montgomery, %function
 371              	pqcrystals_kyber1024_ref_poly_basemul_montgomery:
 372              	.LFB10:
 254:..\poly.c     **** }
 255:..\poly.c     **** 
 256:..\poly.c     **** /*************************************************
 257:..\poly.c     **** * Name:        poly_basemul_montgomery
 258:..\poly.c     **** *
 259:..\poly.c     **** * Description: Multiplication of two polynomials in NTT domain
 260:..\poly.c     **** *
 261:..\poly.c     **** * Arguments:   - poly *r:       pointer to output polynomial
 262:..\poly.c     **** *              - const poly *a: pointer to first input polynomial
 263:..\poly.c     **** *              - const poly *b: pointer to second input polynomial
 264:..\poly.c     **** **************************************************/
 265:..\poly.c     **** void poly_basemul_montgomery(poly *r, const poly *a, const poly *b)
 266:..\poly.c     **** {
 373              		.loc 1 266 0
 374              		.cfi_startproc
 375              		@ args = 0, pretend = 0, frame = 0
 376              		@ frame_needed = 0, uses_anonymous_args = 0
 377              	.LVL38:
 378 0000 2DE9F843 		push	{r3, r4, r5, r6, r7, r8, r9, lr}
 379              		.cfi_def_cfa_offset 32
 380              		.cfi_offset 3, -32
 381              		.cfi_offset 4, -28
 382              		.cfi_offset 5, -24
 383              		.cfi_offset 6, -20
 384              		.cfi_offset 7, -16
 385              		.cfi_offset 8, -12
 386              		.cfi_offset 9, -8
 387              		.cfi_offset 14, -4
 388 0004 8146     		mov	r9, r0
 389 0006 8846     		mov	r8, r1
 390 0008 1746     		mov	r7, r2
 391              	.LVL39:
 267:..\poly.c     ****   unsigned int i;
 268:..\poly.c     ****   for(i=0;i<KYBER_N/4;i++) {
 392              		.loc 1 268 0
 393 000a 0025     		movs	r5, #0
 394 000c 18E0     		b	.L24
 395              	.LVL40:
 396              	.L25:
 269:..\poly.c     ****     basemul(&r->coeffs[4*i], &a->coeffs[4*i], &b->coeffs[4*i], zetas[64+i]);
 397              		.loc 1 269 0 discriminator 3
 398 000e AC00     		lsls	r4, r5, #2
 399 0010 05F14002 		add	r2, r5, #64
 400 0014 0C4B     		ldr	r3, .L27
 401 0016 33F91260 		ldrsh	r6, [r3, r2, lsl #1]
 402 001a E800     		lsls	r0, r5, #3
 403 001c 3346     		mov	r3, r6
 404 001e 3A18     		adds	r2, r7, r0
 405 0020 08EB0001 		add	r1, r8, r0
ARM GAS  C:\Users\bogurad\AppData\Local\Temp\ccuet7dk.s 			page 13


 406 0024 4844     		add	r0, r0, r9
 407 0026 FFF7FEFF 		bl	pqcrystals_kyber1024_ref_basemul
 408              	.LVL41:
 270:..\poly.c     ****     basemul(&r->coeffs[4*i+2], &a->coeffs[4*i+2], &b->coeffs[4*i+2],
 409              		.loc 1 270 0 discriminator 3
 410 002a A01C     		adds	r0, r4, #2
 411 002c 7342     		negs	r3, r6
 412 002e 4000     		lsls	r0, r0, #1
 413 0030 1BB2     		sxth	r3, r3
 414 0032 3A18     		adds	r2, r7, r0
 415 0034 08EB0001 		add	r1, r8, r0
 416 0038 4844     		add	r0, r0, r9
 417 003a FFF7FEFF 		bl	pqcrystals_kyber1024_ref_basemul
 418              	.LVL42:
 268:..\poly.c     ****     basemul(&r->coeffs[4*i], &a->coeffs[4*i], &b->coeffs[4*i], zetas[64+i]);
 419              		.loc 1 268 0 discriminator 3
 420 003e 0135     		adds	r5, r5, #1
 421              	.LVL43:
 422              	.L24:
 268:..\poly.c     ****     basemul(&r->coeffs[4*i], &a->coeffs[4*i], &b->coeffs[4*i], zetas[64+i]);
 423              		.loc 1 268 0 is_stmt 0 discriminator 1
 424 0040 3F2D     		cmp	r5, #63
 425 0042 E4D9     		bls	.L25
 271:..\poly.c     ****             -zetas[64+i]);
 272:..\poly.c     ****   }
 273:..\poly.c     **** }
 426              		.loc 1 273 0 is_stmt 1
 427 0044 BDE8F883 		pop	{r3, r4, r5, r6, r7, r8, r9, pc}
 428              	.LVL44:
 429              	.L28:
 430              		.align	2
 431              	.L27:
 432 0048 00000000 		.word	pqcrystals_kyber1024_ref_zetas
 433              		.cfi_endproc
 434              	.LFE10:
 435              		.size	pqcrystals_kyber1024_ref_poly_basemul_montgomery, .-pqcrystals_kyber1024_ref_poly_basemul_mo
 436              		.section	.text.pqcrystals_kyber1024_ref_poly_tomont,"ax",%progbits
 437              		.align	2
 438              		.global	pqcrystals_kyber1024_ref_poly_tomont
 439              		.thumb
 440              		.thumb_func
 441              		.type	pqcrystals_kyber1024_ref_poly_tomont, %function
 442              	pqcrystals_kyber1024_ref_poly_tomont:
 443              	.LFB11:
 274:..\poly.c     **** 
 275:..\poly.c     **** /*************************************************
 276:..\poly.c     **** * Name:        poly_tomont
 277:..\poly.c     **** *
 278:..\poly.c     **** * Description: Inplace conversion of all coefficients of a polynomial
 279:..\poly.c     **** *              from normal domain to Montgomery domain
 280:..\poly.c     **** *
 281:..\poly.c     **** * Arguments:   - poly *r: pointer to input/output polynomial
 282:..\poly.c     **** **************************************************/
 283:..\poly.c     **** void poly_tomont(poly *r)
 284:..\poly.c     **** {
 444              		.loc 1 284 0
 445              		.cfi_startproc
ARM GAS  C:\Users\bogurad\AppData\Local\Temp\ccuet7dk.s 			page 14


 446              		@ args = 0, pretend = 0, frame = 0
 447              		@ frame_needed = 0, uses_anonymous_args = 0
 448              	.LVL45:
 449 0000 38B5     		push	{r3, r4, r5, lr}
 450              		.cfi_def_cfa_offset 16
 451              		.cfi_offset 3, -16
 452              		.cfi_offset 4, -12
 453              		.cfi_offset 5, -8
 454              		.cfi_offset 14, -4
 455 0002 0546     		mov	r5, r0
 456              	.LVL46:
 285:..\poly.c     ****   unsigned int i;
 286:..\poly.c     ****   const int16_t f = (1ULL << 32) % KYBER_Q;
 287:..\poly.c     ****   for(i=0;i<KYBER_N;i++)
 457              		.loc 1 287 0
 458 0004 0024     		movs	r4, #0
 459 0006 0AE0     		b	.L30
 460              	.LVL47:
 461              	.L31:
 288:..\poly.c     ****     r->coeffs[i] = montgomery_reduce((int32_t)r->coeffs[i]*f);
 462              		.loc 1 288 0 discriminator 3
 463 0008 35F91430 		ldrsh	r3, [r5, r4, lsl #1]
 464 000c 40F24950 		movw	r0, #1353
 465 0010 00FB03F0 		mul	r0, r0, r3
 466 0014 FFF7FEFF 		bl	pqcrystals_kyber1024_ref_montgomery_reduce
 467              	.LVL48:
 468 0018 25F81400 		strh	r0, [r5, r4, lsl #1]	@ movhi
 287:..\poly.c     ****     r->coeffs[i] = montgomery_reduce((int32_t)r->coeffs[i]*f);
 469              		.loc 1 287 0 discriminator 3
 470 001c 0134     		adds	r4, r4, #1
 471              	.LVL49:
 472              	.L30:
 287:..\poly.c     ****     r->coeffs[i] = montgomery_reduce((int32_t)r->coeffs[i]*f);
 473              		.loc 1 287 0 is_stmt 0 discriminator 1
 474 001e FF2C     		cmp	r4, #255
 475 0020 F2D9     		bls	.L31
 289:..\poly.c     **** }
 476              		.loc 1 289 0 is_stmt 1
 477 0022 38BD     		pop	{r3, r4, r5, pc}
 478              		.cfi_endproc
 479              	.LFE11:
 480              		.size	pqcrystals_kyber1024_ref_poly_tomont, .-pqcrystals_kyber1024_ref_poly_tomont
 481              		.section	.text.pqcrystals_kyber1024_ref_poly_reduce,"ax",%progbits
 482              		.align	2
 483              		.global	pqcrystals_kyber1024_ref_poly_reduce
 484              		.thumb
 485              		.thumb_func
 486              		.type	pqcrystals_kyber1024_ref_poly_reduce, %function
 487              	pqcrystals_kyber1024_ref_poly_reduce:
 488              	.LFB12:
 290:..\poly.c     **** 
 291:..\poly.c     **** /*************************************************
 292:..\poly.c     **** * Name:        poly_reduce
 293:..\poly.c     **** *
 294:..\poly.c     **** * Description: Applies Barrett reduction to all coefficients of a polynomial
 295:..\poly.c     **** *              for details of the Barrett reduction see comments in reduce.c
 296:..\poly.c     **** *
ARM GAS  C:\Users\bogurad\AppData\Local\Temp\ccuet7dk.s 			page 15


 297:..\poly.c     **** * Arguments:   - poly *r: pointer to input/output polynomial
 298:..\poly.c     **** **************************************************/
 299:..\poly.c     **** void poly_reduce(poly *r)
 300:..\poly.c     **** {
 489              		.loc 1 300 0
 490              		.cfi_startproc
 491              		@ args = 0, pretend = 0, frame = 0
 492              		@ frame_needed = 0, uses_anonymous_args = 0
 493              	.LVL50:
 494 0000 38B5     		push	{r3, r4, r5, lr}
 495              		.cfi_def_cfa_offset 16
 496              		.cfi_offset 3, -16
 497              		.cfi_offset 4, -12
 498              		.cfi_offset 5, -8
 499              		.cfi_offset 14, -4
 500 0002 0546     		mov	r5, r0
 501              	.LVL51:
 301:..\poly.c     ****   unsigned int i;
 302:..\poly.c     ****   for(i=0;i<KYBER_N;i++)
 502              		.loc 1 302 0
 503 0004 0024     		movs	r4, #0
 504 0006 06E0     		b	.L34
 505              	.LVL52:
 506              	.L35:
 303:..\poly.c     ****     r->coeffs[i] = barrett_reduce(r->coeffs[i]);
 507              		.loc 1 303 0 discriminator 3
 508 0008 35F91400 		ldrsh	r0, [r5, r4, lsl #1]
 509 000c FFF7FEFF 		bl	pqcrystals_kyber1024_ref_barrett_reduce
 510              	.LVL53:
 511 0010 25F81400 		strh	r0, [r5, r4, lsl #1]	@ movhi
 302:..\poly.c     ****     r->coeffs[i] = barrett_reduce(r->coeffs[i]);
 512              		.loc 1 302 0 discriminator 3
 513 0014 0134     		adds	r4, r4, #1
 514              	.LVL54:
 515              	.L34:
 302:..\poly.c     ****     r->coeffs[i] = barrett_reduce(r->coeffs[i]);
 516              		.loc 1 302 0 is_stmt 0 discriminator 1
 517 0016 FF2C     		cmp	r4, #255
 518 0018 F6D9     		bls	.L35
 304:..\poly.c     **** }
 519              		.loc 1 304 0 is_stmt 1
 520 001a 38BD     		pop	{r3, r4, r5, pc}
 521              		.cfi_endproc
 522              	.LFE12:
 523              		.size	pqcrystals_kyber1024_ref_poly_reduce, .-pqcrystals_kyber1024_ref_poly_reduce
 524              		.section	.text.pqcrystals_kyber1024_ref_poly_ntt,"ax",%progbits
 525              		.align	2
 526              		.global	pqcrystals_kyber1024_ref_poly_ntt
 527              		.thumb
 528              		.thumb_func
 529              		.type	pqcrystals_kyber1024_ref_poly_ntt, %function
 530              	pqcrystals_kyber1024_ref_poly_ntt:
 531              	.LFB8:
 237:..\poly.c     ****   ntt(r->coeffs);
 532              		.loc 1 237 0
 533              		.cfi_startproc
 534              		@ args = 0, pretend = 0, frame = 0
ARM GAS  C:\Users\bogurad\AppData\Local\Temp\ccuet7dk.s 			page 16


 535              		@ frame_needed = 0, uses_anonymous_args = 0
 536              	.LVL55:
 537 0000 10B5     		push	{r4, lr}
 538              		.cfi_def_cfa_offset 8
 539              		.cfi_offset 4, -8
 540              		.cfi_offset 14, -4
 541 0002 0446     		mov	r4, r0
 238:..\poly.c     ****   poly_reduce(r);
 542              		.loc 1 238 0
 543 0004 FFF7FEFF 		bl	pqcrystals_kyber1024_ref_ntt
 544              	.LVL56:
 239:..\poly.c     **** }
 545              		.loc 1 239 0
 546 0008 2046     		mov	r0, r4
 547 000a FFF7FEFF 		bl	pqcrystals_kyber1024_ref_poly_reduce
 548              	.LVL57:
 549 000e 10BD     		pop	{r4, pc}
 550              		.cfi_endproc
 551              	.LFE8:
 552              		.size	pqcrystals_kyber1024_ref_poly_ntt, .-pqcrystals_kyber1024_ref_poly_ntt
 553              		.section	.text.pqcrystals_kyber1024_ref_poly_csubq,"ax",%progbits
 554              		.align	2
 555              		.global	pqcrystals_kyber1024_ref_poly_csubq
 556              		.thumb
 557              		.thumb_func
 558              		.type	pqcrystals_kyber1024_ref_poly_csubq, %function
 559              	pqcrystals_kyber1024_ref_poly_csubq:
 560              	.LFB13:
 305:..\poly.c     **** 
 306:..\poly.c     **** /*************************************************
 307:..\poly.c     **** * Name:        poly_csubq
 308:..\poly.c     **** *
 309:..\poly.c     **** * Description: Applies conditional subtraction of q to each coefficient
 310:..\poly.c     **** *              of a polynomial. For details of conditional subtraction
 311:..\poly.c     **** *              of q see comments in reduce.c
 312:..\poly.c     **** *
 313:..\poly.c     **** * Arguments:   - poly *r: pointer to input/output polynomial
 314:..\poly.c     **** **************************************************/
 315:..\poly.c     **** void poly_csubq(poly *r)
 316:..\poly.c     **** {
 561              		.loc 1 316 0
 562              		.cfi_startproc
 563              		@ args = 0, pretend = 0, frame = 0
 564              		@ frame_needed = 0, uses_anonymous_args = 0
 565              	.LVL58:
 566 0000 38B5     		push	{r3, r4, r5, lr}
 567              		.cfi_def_cfa_offset 16
 568              		.cfi_offset 3, -16
 569              		.cfi_offset 4, -12
 570              		.cfi_offset 5, -8
 571              		.cfi_offset 14, -4
 572 0002 0546     		mov	r5, r0
 573              	.LVL59:
 317:..\poly.c     ****   unsigned int i;
 318:..\poly.c     ****   for(i=0;i<KYBER_N;i++)
 574              		.loc 1 318 0
 575 0004 0024     		movs	r4, #0
ARM GAS  C:\Users\bogurad\AppData\Local\Temp\ccuet7dk.s 			page 17


 576 0006 06E0     		b	.L40
 577              	.LVL60:
 578              	.L41:
 319:..\poly.c     ****     r->coeffs[i] = csubq(r->coeffs[i]);
 579              		.loc 1 319 0 discriminator 3
 580 0008 35F91400 		ldrsh	r0, [r5, r4, lsl #1]
 581 000c FFF7FEFF 		bl	pqcrystals_kyber1024_ref_csubq
 582              	.LVL61:
 583 0010 25F81400 		strh	r0, [r5, r4, lsl #1]	@ movhi
 318:..\poly.c     ****     r->coeffs[i] = csubq(r->coeffs[i]);
 584              		.loc 1 318 0 discriminator 3
 585 0014 0134     		adds	r4, r4, #1
 586              	.LVL62:
 587              	.L40:
 318:..\poly.c     ****     r->coeffs[i] = csubq(r->coeffs[i]);
 588              		.loc 1 318 0 is_stmt 0 discriminator 1
 589 0016 FF2C     		cmp	r4, #255
 590 0018 F6D9     		bls	.L41
 320:..\poly.c     **** }
 591              		.loc 1 320 0 is_stmt 1
 592 001a 38BD     		pop	{r3, r4, r5, pc}
 593              		.cfi_endproc
 594              	.LFE13:
 595              		.size	pqcrystals_kyber1024_ref_poly_csubq, .-pqcrystals_kyber1024_ref_poly_csubq
 596              		.section	.text.pqcrystals_kyber1024_ref_poly_compress,"ax",%progbits
 597              		.align	2
 598              		.global	pqcrystals_kyber1024_ref_poly_compress
 599              		.thumb
 600              		.thumb_func
 601              		.type	pqcrystals_kyber1024_ref_poly_compress, %function
 602              	pqcrystals_kyber1024_ref_poly_compress:
 603              	.LFB0:
  19:..\poly.c     ****   unsigned int i,j;
 604              		.loc 1 19 0
 605              		.cfi_startproc
 606              		@ args = 0, pretend = 0, frame = 8
 607              		@ frame_needed = 0, uses_anonymous_args = 0
 608              	.LVL63:
 609 0000 30B5     		push	{r4, r5, lr}
 610              		.cfi_def_cfa_offset 12
 611              		.cfi_offset 4, -12
 612              		.cfi_offset 5, -8
 613              		.cfi_offset 14, -4
 614 0002 83B0     		sub	sp, sp, #12
 615              		.cfi_def_cfa_offset 24
 616 0004 0546     		mov	r5, r0
 617 0006 0C46     		mov	r4, r1
  23:..\poly.c     **** 
 618              		.loc 1 23 0
 619 0008 0846     		mov	r0, r1
 620              	.LVL64:
 621 000a FFF7FEFF 		bl	pqcrystals_kyber1024_ref_poly_csubq
 622              	.LVL65:
  37:..\poly.c     ****     for(j=0;j<8;j++)
 623              		.loc 1 37 0
 624 000e 0020     		movs	r0, #0
 625 0010 40E0     		b	.L44
ARM GAS  C:\Users\bogurad\AppData\Local\Temp\ccuet7dk.s 			page 18


 626              	.LVL66:
 627              	.L45:
  39:..\poly.c     **** 
 628              		.loc 1 39 0 discriminator 3
 629 0012 01EBC003 		add	r3, r1, r0, lsl #3
 630 0016 34F91320 		ldrsh	r2, [r4, r3, lsl #1]
 631 001a 5201     		lsls	r2, r2, #5
 632 001c 02F5D062 		add	r2, r2, #1664
 633 0020 1E4B     		ldr	r3, .L49
 634 0022 A3FB02E3 		umull	lr, r3, r3, r2
 635 0026 D21A     		subs	r2, r2, r3
 636 0028 03EB5203 		add	r3, r3, r2, lsr #1
 637 002c 02AA     		add	r2, sp, #8
 638 002e 0A44     		add	r2, r2, r1
 639 0030 C3F3C423 		ubfx	r3, r3, #11, #5
 640 0034 02F8083C 		strb	r3, [r2, #-8]
  38:..\poly.c     ****       t[j] = ((((uint32_t)a->coeffs[8*i+j] << 5) + KYBER_Q/2)/KYBER_Q) & 31;
 641              		.loc 1 38 0 discriminator 3
 642 0038 0131     		adds	r1, r1, #1
 643              	.LVL67:
 644 003a 00E0     		b	.L46
 645              	.LVL68:
 646              	.L47:
 647 003c 0021     		movs	r1, #0
 648              	.L46:
 649              	.LVL69:
  38:..\poly.c     ****       t[j] = ((((uint32_t)a->coeffs[8*i+j] << 5) + KYBER_Q/2)/KYBER_Q) & 31;
 650              		.loc 1 38 0 is_stmt 0 discriminator 1
 651 003e 0729     		cmp	r1, #7
 652 0040 E7D9     		bls	.L45
  41:..\poly.c     ****     r[1] = (t[1] >> 3) | (t[2] << 2) | (t[3] << 7);
 653              		.loc 1 41 0 is_stmt 1 discriminator 2
 654 0042 9DF80020 		ldrb	r2, [sp]	@ zero_extendqisi2
 655 0046 9DF80130 		ldrb	r3, [sp, #1]	@ zero_extendqisi2
 656 004a 42EA4312 		orr	r2, r2, r3, lsl #5
 657 004e 2A70     		strb	r2, [r5]
  42:..\poly.c     ****     r[2] = (t[3] >> 1) | (t[4] << 4);
 658              		.loc 1 42 0 discriminator 2
 659 0050 9DF80210 		ldrb	r1, [sp, #2]	@ zero_extendqisi2
 660              	.LVL70:
 661 0054 9DF80320 		ldrb	r2, [sp, #3]	@ zero_extendqisi2
 662 0058 DB08     		lsrs	r3, r3, #3
 663 005a 43EA8103 		orr	r3, r3, r1, lsl #2
 664 005e 43EAC213 		orr	r3, r3, r2, lsl #7
 665 0062 6B70     		strb	r3, [r5, #1]
  43:..\poly.c     ****     r[3] = (t[4] >> 4) | (t[5] << 1) | (t[6] << 6);
 666              		.loc 1 43 0 discriminator 2
 667 0064 9DF80430 		ldrb	r3, [sp, #4]	@ zero_extendqisi2
 668 0068 5208     		lsrs	r2, r2, #1
 669 006a 42EA0312 		orr	r2, r2, r3, lsl #4
 670 006e AA70     		strb	r2, [r5, #2]
  44:..\poly.c     ****     r[4] = (t[6] >> 2) | (t[7] << 3);
 671              		.loc 1 44 0 discriminator 2
 672 0070 9DF80510 		ldrb	r1, [sp, #5]	@ zero_extendqisi2
 673 0074 9DF80620 		ldrb	r2, [sp, #6]	@ zero_extendqisi2
 674 0078 1B09     		lsrs	r3, r3, #4
 675 007a 43EA4103 		orr	r3, r3, r1, lsl #1
ARM GAS  C:\Users\bogurad\AppData\Local\Temp\ccuet7dk.s 			page 19


 676 007e 43EA8213 		orr	r3, r3, r2, lsl #6
 677 0082 EB70     		strb	r3, [r5, #3]
  45:..\poly.c     ****     r += 5;
 678              		.loc 1 45 0 discriminator 2
 679 0084 9DF80730 		ldrb	r3, [sp, #7]	@ zero_extendqisi2
 680 0088 9208     		lsrs	r2, r2, #2
 681 008a 42EAC302 		orr	r2, r2, r3, lsl #3
 682 008e 2A71     		strb	r2, [r5, #4]
  46:..\poly.c     ****   }
 683              		.loc 1 46 0 discriminator 2
 684 0090 0535     		adds	r5, r5, #5
 685              	.LVL71:
  37:..\poly.c     ****     for(j=0;j<8;j++)
 686              		.loc 1 37 0 discriminator 2
 687 0092 0130     		adds	r0, r0, #1
 688              	.LVL72:
 689              	.L44:
  37:..\poly.c     ****     for(j=0;j<8;j++)
 690              		.loc 1 37 0 is_stmt 0 discriminator 1
 691 0094 1F28     		cmp	r0, #31
 692 0096 D1D9     		bls	.L47
  51:..\poly.c     **** 
 693              		.loc 1 51 0 is_stmt 1
 694 0098 03B0     		add	sp, sp, #12
 695              		.cfi_def_cfa_offset 12
 696              		@ sp needed
 697 009a 30BD     		pop	{r4, r5, pc}
 698              	.LVL73:
 699              	.L50:
 700              		.align	2
 701              	.L49:
 702 009c 8176FB3A 		.word	989558401
 703              		.cfi_endproc
 704              	.LFE0:
 705              		.size	pqcrystals_kyber1024_ref_poly_compress, .-pqcrystals_kyber1024_ref_poly_compress
 706              		.section	.text.pqcrystals_kyber1024_ref_poly_tobytes,"ax",%progbits
 707              		.align	2
 708              		.global	pqcrystals_kyber1024_ref_poly_tobytes
 709              		.thumb
 710              		.thumb_func
 711              		.type	pqcrystals_kyber1024_ref_poly_tobytes, %function
 712              	pqcrystals_kyber1024_ref_poly_tobytes:
 713              	.LFB2:
 105:..\poly.c     ****   unsigned int i;
 714              		.loc 1 105 0
 715              		.cfi_startproc
 716              		@ args = 0, pretend = 0, frame = 0
 717              		@ frame_needed = 0, uses_anonymous_args = 0
 718              	.LVL74:
 719 0000 70B5     		push	{r4, r5, r6, lr}
 720              		.cfi_def_cfa_offset 16
 721              		.cfi_offset 4, -16
 722              		.cfi_offset 5, -12
 723              		.cfi_offset 6, -8
 724              		.cfi_offset 14, -4
 725 0002 0446     		mov	r4, r0
 726 0004 0D46     		mov	r5, r1
ARM GAS  C:\Users\bogurad\AppData\Local\Temp\ccuet7dk.s 			page 20


 109:..\poly.c     **** 
 727              		.loc 1 109 0
 728 0006 0846     		mov	r0, r1
 729              	.LVL75:
 730 0008 FFF7FEFF 		bl	pqcrystals_kyber1024_ref_poly_csubq
 731              	.LVL76:
 111:..\poly.c     ****     t0 = a->coeffs[2*i];
 732              		.loc 1 111 0
 733 000c 0021     		movs	r1, #0
 734 000e 11E0     		b	.L52
 735              	.LVL77:
 736              	.L53:
 112:..\poly.c     ****     t1 = a->coeffs[2*i+1];
 737              		.loc 1 112 0 discriminator 3
 738 0010 4B00     		lsls	r3, r1, #1
 739 0012 35F91320 		ldrsh	r2, [r5, r3, lsl #1]
 740              	.LVL78:
 113:..\poly.c     ****     r[3*i+0] = (t0 >> 0);
 741              		.loc 1 113 0 discriminator 3
 742 0016 581C     		adds	r0, r3, #1
 743 0018 35F81000 		ldrh	r0, [r5, r0, lsl #1]
 744              	.LVL79:
 114:..\poly.c     ****     r[3*i+1] = (t0 >> 8) | (t1 << 4);
 745              		.loc 1 114 0 discriminator 3
 746 001c 0B44     		add	r3, r3, r1
 747 001e E254     		strb	r2, [r4, r3]
 115:..\poly.c     ****     r[3*i+2] = (t1 >> 4);
 748              		.loc 1 115 0 discriminator 3
 749 0020 5E1C     		adds	r6, r3, #1
 750 0022 C2F30722 		ubfx	r2, r2, #8, #8
 751              	.LVL80:
 752 0026 42EA0012 		orr	r2, r2, r0, lsl #4
 753 002a A255     		strb	r2, [r4, r6]
 116:..\poly.c     ****   }
 754              		.loc 1 116 0 discriminator 3
 755 002c 0233     		adds	r3, r3, #2
 756 002e 0009     		lsrs	r0, r0, #4
 757              	.LVL81:
 758 0030 E054     		strb	r0, [r4, r3]
 111:..\poly.c     ****     t0 = a->coeffs[2*i];
 759              		.loc 1 111 0 discriminator 3
 760 0032 0131     		adds	r1, r1, #1
 761              	.LVL82:
 762              	.L52:
 111:..\poly.c     ****     t0 = a->coeffs[2*i];
 763              		.loc 1 111 0 is_stmt 0 discriminator 1
 764 0034 7F29     		cmp	r1, #127
 765 0036 EBD9     		bls	.L53
 118:..\poly.c     **** 
 766              		.loc 1 118 0 is_stmt 1
 767 0038 70BD     		pop	{r4, r5, r6, pc}
 768              		.cfi_endproc
 769              	.LFE2:
 770              		.size	pqcrystals_kyber1024_ref_poly_tobytes, .-pqcrystals_kyber1024_ref_poly_tobytes
 771 003a 00BF     		.section	.text.pqcrystals_kyber1024_ref_poly_tomsg,"ax",%progbits
 772              		.align	2
 773              		.global	pqcrystals_kyber1024_ref_poly_tomsg
ARM GAS  C:\Users\bogurad\AppData\Local\Temp\ccuet7dk.s 			page 21


 774              		.thumb
 775              		.thumb_func
 776              		.type	pqcrystals_kyber1024_ref_poly_tomsg, %function
 777              	pqcrystals_kyber1024_ref_poly_tomsg:
 778              	.LFB5:
 173:..\poly.c     ****   unsigned int i,j;
 779              		.loc 1 173 0
 780              		.cfi_startproc
 781              		@ args = 0, pretend = 0, frame = 0
 782              		@ frame_needed = 0, uses_anonymous_args = 0
 783              	.LVL83:
 784 0000 70B5     		push	{r4, r5, r6, lr}
 785              		.cfi_def_cfa_offset 16
 786              		.cfi_offset 4, -16
 787              		.cfi_offset 5, -12
 788              		.cfi_offset 6, -8
 789              		.cfi_offset 14, -4
 790 0002 0546     		mov	r5, r0
 791 0004 0C46     		mov	r4, r1
 177:..\poly.c     **** 
 792              		.loc 1 177 0
 793 0006 0846     		mov	r0, r1
 794              	.LVL84:
 795 0008 FFF7FEFF 		bl	pqcrystals_kyber1024_ref_poly_csubq
 796              	.LVL85:
 179:..\poly.c     ****     msg[i] = 0;
 797              		.loc 1 179 0
 798 000c 0026     		movs	r6, #0
 799 000e 1BE0     		b	.L56
 800              	.LVL86:
 801              	.L59:
 180:..\poly.c     ****     for(j=0;j<8;j++) {
 802              		.loc 1 180 0
 803 0010 A819     		adds	r0, r5, r6
 804 0012 0021     		movs	r1, #0
 805 0014 A955     		strb	r1, [r5, r6]
 806              	.LVL87:
 181:..\poly.c     ****       t = ((((uint16_t)a->coeffs[8*i+j] << 1) + KYBER_Q/2)/KYBER_Q) & 1;
 807              		.loc 1 181 0
 808 0016 14E0     		b	.L57
 809              	.LVL88:
 810              	.L58:
 182:..\poly.c     ****       msg[i] |= t << j;
 811              		.loc 1 182 0 discriminator 3
 812 0018 01EBC603 		add	r3, r1, r6, lsl #3
 813 001c 34F81330 		ldrh	r3, [r4, r3, lsl #1]
 814 0020 5B00     		lsls	r3, r3, #1
 815 0022 03F5D063 		add	r3, r3, #1664
 816 0026 0A4A     		ldr	r2, .L61
 817 0028 82FB03E2 		smull	lr, r2, r2, r3
 818 002c 1A44     		add	r2, r2, r3
 819 002e DB17     		asrs	r3, r3, #31
 820 0030 C3EBE223 		rsb	r3, r3, r2, asr #11
 821 0034 03F00103 		and	r3, r3, #1
 822              	.LVL89:
 183:..\poly.c     ****     }
 823              		.loc 1 183 0 discriminator 3
ARM GAS  C:\Users\bogurad\AppData\Local\Temp\ccuet7dk.s 			page 22


 824 0038 8B40     		lsls	r3, r3, r1
 825              	.LVL90:
 826 003a 0278     		ldrb	r2, [r0]	@ zero_extendqisi2
 827              	.LVL91:
 828 003c 1343     		orrs	r3, r3, r2
 829 003e 0370     		strb	r3, [r0]
 830              	.LVL92:
 181:..\poly.c     ****       t = ((((uint16_t)a->coeffs[8*i+j] << 1) + KYBER_Q/2)/KYBER_Q) & 1;
 831              		.loc 1 181 0 discriminator 3
 832 0040 0131     		adds	r1, r1, #1
 833              	.LVL93:
 834              	.L57:
 181:..\poly.c     ****       t = ((((uint16_t)a->coeffs[8*i+j] << 1) + KYBER_Q/2)/KYBER_Q) & 1;
 835              		.loc 1 181 0 is_stmt 0 discriminator 1
 836 0042 0729     		cmp	r1, #7
 837 0044 E8D9     		bls	.L58
 179:..\poly.c     ****     msg[i] = 0;
 838              		.loc 1 179 0 is_stmt 1 discriminator 2
 839 0046 0136     		adds	r6, r6, #1
 840              	.LVL94:
 841              	.L56:
 179:..\poly.c     ****     msg[i] = 0;
 842              		.loc 1 179 0 is_stmt 0 discriminator 1
 843 0048 1F2E     		cmp	r6, #31
 844 004a E1D9     		bls	.L59
 186:..\poly.c     **** 
 845              		.loc 1 186 0 is_stmt 1
 846 004c 70BD     		pop	{r4, r5, r6, pc}
 847              	.LVL95:
 848              	.L62:
 849 004e 00BF     		.align	2
 850              	.L61:
 851 0050 41BB7D9D 		.word	-1652704447
 852              		.cfi_endproc
 853              	.LFE5:
 854              		.size	pqcrystals_kyber1024_ref_poly_tomsg, .-pqcrystals_kyber1024_ref_poly_tomsg
 855              		.section	.text.pqcrystals_kyber1024_ref_poly_add,"ax",%progbits
 856              		.align	2
 857              		.global	pqcrystals_kyber1024_ref_poly_add
 858              		.thumb
 859              		.thumb_func
 860              		.type	pqcrystals_kyber1024_ref_poly_add, %function
 861              	pqcrystals_kyber1024_ref_poly_add:
 862              	.LFB14:
 321:..\poly.c     **** 
 322:..\poly.c     **** /*************************************************
 323:..\poly.c     **** * Name:        poly_add
 324:..\poly.c     **** *
 325:..\poly.c     **** * Description: Add two polynomials
 326:..\poly.c     **** *
 327:..\poly.c     **** * Arguments: - poly *r:       pointer to output polynomial
 328:..\poly.c     **** *            - const poly *a: pointer to first input polynomial
 329:..\poly.c     **** *            - const poly *b: pointer to second input polynomial
 330:..\poly.c     **** **************************************************/
 331:..\poly.c     **** void poly_add(poly *r, const poly *a, const poly *b)
 332:..\poly.c     **** {
 863              		.loc 1 332 0
ARM GAS  C:\Users\bogurad\AppData\Local\Temp\ccuet7dk.s 			page 23


 864              		.cfi_startproc
 865              		@ args = 0, pretend = 0, frame = 0
 866              		@ frame_needed = 0, uses_anonymous_args = 0
 867              		@ link register save eliminated.
 868              	.LVL96:
 869 0000 30B4     		push	{r4, r5}
 870              		.cfi_def_cfa_offset 8
 871              		.cfi_offset 4, -8
 872              		.cfi_offset 5, -4
 873              	.LVL97:
 333:..\poly.c     ****   unsigned int i;
 334:..\poly.c     ****   for(i=0;i<KYBER_N;i++)
 874              		.loc 1 334 0
 875 0002 0023     		movs	r3, #0
 876 0004 07E0     		b	.L64
 877              	.LVL98:
 878              	.L65:
 335:..\poly.c     ****     r->coeffs[i] = a->coeffs[i] + b->coeffs[i];
 879              		.loc 1 335 0 discriminator 3
 880 0006 31F91350 		ldrsh	r5, [r1, r3, lsl #1]
 881 000a 32F91340 		ldrsh	r4, [r2, r3, lsl #1]
 882 000e 2C44     		add	r4, r4, r5
 883 0010 20F81340 		strh	r4, [r0, r3, lsl #1]	@ movhi
 334:..\poly.c     ****     r->coeffs[i] = a->coeffs[i] + b->coeffs[i];
 884              		.loc 1 334 0 discriminator 3
 885 0014 0133     		adds	r3, r3, #1
 886              	.LVL99:
 887              	.L64:
 334:..\poly.c     ****     r->coeffs[i] = a->coeffs[i] + b->coeffs[i];
 888              		.loc 1 334 0 is_stmt 0 discriminator 1
 889 0016 FF2B     		cmp	r3, #255
 890 0018 F5D9     		bls	.L65
 336:..\poly.c     **** }
 891              		.loc 1 336 0 is_stmt 1
 892 001a 30BC     		pop	{r4, r5}
 893              		.cfi_restore 5
 894              		.cfi_restore 4
 895              		.cfi_def_cfa_offset 0
 896 001c 7047     		bx	lr
 897              		.cfi_endproc
 898              	.LFE14:
 899              		.size	pqcrystals_kyber1024_ref_poly_add, .-pqcrystals_kyber1024_ref_poly_add
 900 001e 00BF     		.section	.text.pqcrystals_kyber1024_ref_poly_sub,"ax",%progbits
 901              		.align	2
 902              		.global	pqcrystals_kyber1024_ref_poly_sub
 903              		.thumb
 904              		.thumb_func
 905              		.type	pqcrystals_kyber1024_ref_poly_sub, %function
 906              	pqcrystals_kyber1024_ref_poly_sub:
 907              	.LFB15:
 337:..\poly.c     **** 
 338:..\poly.c     **** /*************************************************
 339:..\poly.c     **** * Name:        poly_sub
 340:..\poly.c     **** *
 341:..\poly.c     **** * Description: Subtract two polynomials
 342:..\poly.c     **** *
 343:..\poly.c     **** * Arguments: - poly *r:       pointer to output polynomial
ARM GAS  C:\Users\bogurad\AppData\Local\Temp\ccuet7dk.s 			page 24


 344:..\poly.c     **** *            - const poly *a: pointer to first input polynomial
 345:..\poly.c     **** *            - const poly *b: pointer to second input polynomial
 346:..\poly.c     **** **************************************************/
 347:..\poly.c     **** void poly_sub(poly *r, const poly *a, const poly *b)
 348:..\poly.c     **** {
 908              		.loc 1 348 0
 909              		.cfi_startproc
 910              		@ args = 0, pretend = 0, frame = 0
 911              		@ frame_needed = 0, uses_anonymous_args = 0
 912              		@ link register save eliminated.
 913              	.LVL100:
 914 0000 30B4     		push	{r4, r5}
 915              		.cfi_def_cfa_offset 8
 916              		.cfi_offset 4, -8
 917              		.cfi_offset 5, -4
 918              	.LVL101:
 349:..\poly.c     ****   unsigned int i;
 350:..\poly.c     ****   for(i=0;i<KYBER_N;i++)
 919              		.loc 1 350 0
 920 0002 0023     		movs	r3, #0
 921 0004 07E0     		b	.L68
 922              	.LVL102:
 923              	.L69:
 351:..\poly.c     ****     r->coeffs[i] = a->coeffs[i] - b->coeffs[i];
 924              		.loc 1 351 0 discriminator 3
 925 0006 31F91340 		ldrsh	r4, [r1, r3, lsl #1]
 926 000a 32F91350 		ldrsh	r5, [r2, r3, lsl #1]
 927 000e 641B     		subs	r4, r4, r5
 928 0010 20F81340 		strh	r4, [r0, r3, lsl #1]	@ movhi
 350:..\poly.c     ****     r->coeffs[i] = a->coeffs[i] - b->coeffs[i];
 929              		.loc 1 350 0 discriminator 3
 930 0014 0133     		adds	r3, r3, #1
 931              	.LVL103:
 932              	.L68:
 350:..\poly.c     ****     r->coeffs[i] = a->coeffs[i] - b->coeffs[i];
 933              		.loc 1 350 0 is_stmt 0 discriminator 1
 934 0016 FF2B     		cmp	r3, #255
 935 0018 F5D9     		bls	.L69
 352:..\poly.c     **** }
 936              		.loc 1 352 0 is_stmt 1
 937 001a 30BC     		pop	{r4, r5}
 938              		.cfi_restore 5
 939              		.cfi_restore 4
 940              		.cfi_def_cfa_offset 0
 941 001c 7047     		bx	lr
 942              		.cfi_endproc
 943              	.LFE15:
 944              		.size	pqcrystals_kyber1024_ref_poly_sub, .-pqcrystals_kyber1024_ref_poly_sub
 945 001e 00BF     		.text
 946              	.Letext0:
 947              		.file 2 "c:\\program files (x86)\\cypress\\psoc creator\\4.4\\psoc creator\\import\\gnu\\arm\\5.4.
 948              		.file 3 "c:\\program files (x86)\\cypress\\psoc creator\\4.4\\psoc creator\\import\\gnu\\arm\\5.4.
 949              		.file 4 "..\\poly.h"
 950              		.file 5 "..\\symmetric.h"
 951              		.file 6 "..\\cbd.h"
 952              		.file 7 "..\\ntt.h"
 953              		.file 8 "..\\reduce.h"
ARM GAS  C:\Users\bogurad\AppData\Local\Temp\ccuet7dk.s 			page 25

