ARM GAS  C:\Users\bogurad\AppData\Local\Temp\cc8ew7ax.s 			page 1


   1              		.syntax unified
   2              		.cpu cortex-m4
   3              		.eabi_attribute 27, 1
   4              		.fpu fpv4-sp-d16
   5              		.eabi_attribute 20, 1
   6              		.eabi_attribute 21, 1
   7              		.eabi_attribute 23, 3
   8              		.eabi_attribute 24, 1
   9              		.eabi_attribute 25, 1
  10              		.eabi_attribute 26, 1
  11              		.eabi_attribute 30, 1
  12              		.eabi_attribute 34, 1
  13              		.eabi_attribute 18, 4
  14              		.thumb
  15              		.syntax unified
  16              		.file	"polyvec.c"
  17              		.text
  18              	.Ltext0:
  19              		.cfi_sections	.debug_frame
  20              		.section	.text.pqcrystals_kyber1024_ref_polyvec_decompress,"ax",%progbits
  21              		.align	2
  22              		.global	pqcrystals_kyber1024_ref_polyvec_decompress
  23              		.thumb
  24              		.thumb_func
  25              		.type	pqcrystals_kyber1024_ref_polyvec_decompress, %function
  26              	pqcrystals_kyber1024_ref_polyvec_decompress:
  27              	.LFB1:
  28              		.file 1 "..\\polyvec.c"
   1:..\polyvec.c  **** #include <stdint.h>
   2:..\polyvec.c  **** #include "params.h"
   3:..\polyvec.c  **** #include "poly.h"
   4:..\polyvec.c  **** #include "polyvec.h"
   5:..\polyvec.c  **** 
   6:..\polyvec.c  **** /*************************************************
   7:..\polyvec.c  **** * Name:        polyvec_compress
   8:..\polyvec.c  **** *
   9:..\polyvec.c  **** * Description: Compress and serialize vector of polynomials
  10:..\polyvec.c  **** *
  11:..\polyvec.c  **** * Arguments:   - uint8_t *r: pointer to output byte array
  12:..\polyvec.c  **** *                            (needs space for KYBER_POLYVECCOMPRESSEDBYTES)
  13:..\polyvec.c  **** *              - polyvec *a: pointer to input vector of polynomials
  14:..\polyvec.c  **** **************************************************/
  15:..\polyvec.c  **** void polyvec_compress(uint8_t r[KYBER_POLYVECCOMPRESSEDBYTES], polyvec *a)
  16:..\polyvec.c  **** {
  17:..\polyvec.c  ****   unsigned int i,j,k;
  18:..\polyvec.c  **** 
  19:..\polyvec.c  ****   polyvec_csubq(a);
  20:..\polyvec.c  **** 
  21:..\polyvec.c  **** #if (KYBER_POLYVECCOMPRESSEDBYTES == (KYBER_K * 352))
  22:..\polyvec.c  ****   uint16_t t[8];
  23:..\polyvec.c  ****   for(i=0;i<KYBER_K;i++) {
  24:..\polyvec.c  ****     for(j=0;j<KYBER_N/8;j++) {
  25:..\polyvec.c  ****       for(k=0;k<8;k++)
  26:..\polyvec.c  ****         t[k] = ((((uint32_t)a->vec[i].coeffs[8*j+k] << 11) + KYBER_Q/2)
  27:..\polyvec.c  ****                 /KYBER_Q) & 0x7ff;
  28:..\polyvec.c  **** 
  29:..\polyvec.c  ****       r[ 0] = (t[0] >>  0);
ARM GAS  C:\Users\bogurad\AppData\Local\Temp\cc8ew7ax.s 			page 2


  30:..\polyvec.c  ****       r[ 1] = (t[0] >>  8) | (t[1] << 3);
  31:..\polyvec.c  ****       r[ 2] = (t[1] >>  5) | (t[2] << 6);
  32:..\polyvec.c  ****       r[ 3] = (t[2] >>  2);
  33:..\polyvec.c  ****       r[ 4] = (t[2] >> 10) | (t[3] << 1);
  34:..\polyvec.c  ****       r[ 5] = (t[3] >>  7) | (t[4] << 4);
  35:..\polyvec.c  ****       r[ 6] = (t[4] >>  4) | (t[5] << 7);
  36:..\polyvec.c  ****       r[ 7] = (t[5] >>  1);
  37:..\polyvec.c  ****       r[ 8] = (t[5] >>  9) | (t[6] << 2);
  38:..\polyvec.c  ****       r[ 9] = (t[6] >>  6) | (t[7] << 5);
  39:..\polyvec.c  ****       r[10] = (t[7] >>  3);
  40:..\polyvec.c  ****       r += 11;
  41:..\polyvec.c  ****     }
  42:..\polyvec.c  ****   }
  43:..\polyvec.c  **** #elif (KYBER_POLYVECCOMPRESSEDBYTES == (KYBER_K * 320))
  44:..\polyvec.c  ****   uint16_t t[4];
  45:..\polyvec.c  ****   for(i=0;i<KYBER_K;i++) {
  46:..\polyvec.c  ****     for(j=0;j<KYBER_N/4;j++) {
  47:..\polyvec.c  ****       for(k=0;k<4;k++)
  48:..\polyvec.c  ****         t[k] = ((((uint32_t)a->vec[i].coeffs[4*j+k] << 10) + KYBER_Q/2)
  49:..\polyvec.c  ****                 / KYBER_Q) & 0x3ff;
  50:..\polyvec.c  **** 
  51:..\polyvec.c  ****       r[0] = (t[0] >> 0);
  52:..\polyvec.c  ****       r[1] = (t[0] >> 8) | (t[1] << 2);
  53:..\polyvec.c  ****       r[2] = (t[1] >> 6) | (t[2] << 4);
  54:..\polyvec.c  ****       r[3] = (t[2] >> 4) | (t[3] << 6);
  55:..\polyvec.c  ****       r[4] = (t[3] >> 2);
  56:..\polyvec.c  ****       r += 5;
  57:..\polyvec.c  ****     }
  58:..\polyvec.c  ****   }
  59:..\polyvec.c  **** #else
  60:..\polyvec.c  **** #error "KYBER_POLYVECCOMPRESSEDBYTES needs to be in {320*KYBER_K, 352*KYBER_K}"
  61:..\polyvec.c  **** #endif
  62:..\polyvec.c  **** }
  63:..\polyvec.c  **** 
  64:..\polyvec.c  **** /*************************************************
  65:..\polyvec.c  **** * Name:        polyvec_decompress
  66:..\polyvec.c  **** *
  67:..\polyvec.c  **** * Description: De-serialize and decompress vector of polynomials;
  68:..\polyvec.c  **** *              approximate inverse of polyvec_compress
  69:..\polyvec.c  **** *
  70:..\polyvec.c  **** * Arguments:   - polyvec *r:       pointer to output vector of polynomials
  71:..\polyvec.c  **** *              - const uint8_t *a: pointer to input byte array
  72:..\polyvec.c  **** *                                  (of length KYBER_POLYVECCOMPRESSEDBYTES)
  73:..\polyvec.c  **** **************************************************/
  74:..\polyvec.c  **** void polyvec_decompress(polyvec *r,
  75:..\polyvec.c  ****                         const uint8_t a[KYBER_POLYVECCOMPRESSEDBYTES])
  76:..\polyvec.c  **** {
  29              		.loc 1 76 0
  30              		.cfi_startproc
  31              		@ args = 0, pretend = 0, frame = 16
  32              		@ frame_needed = 0, uses_anonymous_args = 0
  33              		@ link register save eliminated.
  34              	.LVL0:
  35 0000 F0B4     		push	{r4, r5, r6, r7}
  36              		.cfi_def_cfa_offset 16
  37              		.cfi_offset 4, -16
  38              		.cfi_offset 5, -12
ARM GAS  C:\Users\bogurad\AppData\Local\Temp\cc8ew7ax.s 			page 3


  39              		.cfi_offset 6, -8
  40              		.cfi_offset 7, -4
  41 0002 84B0     		sub	sp, sp, #16
  42              		.cfi_def_cfa_offset 32
  43              	.LVL1:
  77:..\polyvec.c  ****   unsigned int i,j,k;
  78:..\polyvec.c  **** 
  79:..\polyvec.c  **** #if (KYBER_POLYVECCOMPRESSEDBYTES == (KYBER_K * 352))
  80:..\polyvec.c  ****   uint16_t t[8];
  81:..\polyvec.c  ****   for(i=0;i<KYBER_K;i++) {
  44              		.loc 1 81 0
  45 0004 0027     		movs	r7, #0
  46 0006 55E0     		b	.L2
  47              	.LVL2:
  48              	.L5:
  82:..\polyvec.c  ****     for(j=0;j<KYBER_N/8;j++) {
  83:..\polyvec.c  ****       t[0] = (a[0] >> 0) | ((uint16_t)a[ 1] << 8);
  49              		.loc 1 83 0
  50 0008 0B78     		ldrb	r3, [r1]	@ zero_extendqisi2
  51 000a 4A78     		ldrb	r2, [r1, #1]	@ zero_extendqisi2
  52 000c 43EA0223 		orr	r3, r3, r2, lsl #8
  53 0010 ADF80030 		strh	r3, [sp]	@ movhi
  84:..\polyvec.c  ****       t[1] = (a[1] >> 3) | ((uint16_t)a[ 2] << 5);
  54              		.loc 1 84 0
  55 0014 8B78     		ldrb	r3, [r1, #2]	@ zero_extendqisi2
  56 0016 D208     		lsrs	r2, r2, #3
  57 0018 42EA4312 		orr	r2, r2, r3, lsl #5
  58 001c ADF80220 		strh	r2, [sp, #2]	@ movhi
  85:..\polyvec.c  ****       t[2] = (a[2] >> 6) | ((uint16_t)a[ 3] << 2) | ((uint16_t)a[4] << 10);
  59              		.loc 1 85 0
  60 0020 CA78     		ldrb	r2, [r1, #3]	@ zero_extendqisi2
  61 0022 0C79     		ldrb	r4, [r1, #4]	@ zero_extendqisi2
  62 0024 9B09     		lsrs	r3, r3, #6
  63 0026 43EA8203 		orr	r3, r3, r2, lsl #2
  64 002a 43EA8423 		orr	r3, r3, r4, lsl #10
  65 002e ADF80430 		strh	r3, [sp, #4]	@ movhi
  86:..\polyvec.c  ****       t[3] = (a[4] >> 1) | ((uint16_t)a[ 5] << 7);
  66              		.loc 1 86 0
  67 0032 4A79     		ldrb	r2, [r1, #5]	@ zero_extendqisi2
  68 0034 6408     		lsrs	r4, r4, #1
  69 0036 44EAC214 		orr	r4, r4, r2, lsl #7
  70 003a ADF80640 		strh	r4, [sp, #6]	@ movhi
  87:..\polyvec.c  ****       t[4] = (a[5] >> 4) | ((uint16_t)a[ 6] << 4);
  71              		.loc 1 87 0
  72 003e 8B79     		ldrb	r3, [r1, #6]	@ zero_extendqisi2
  73 0040 1209     		lsrs	r2, r2, #4
  74 0042 42EA0312 		orr	r2, r2, r3, lsl #4
  75 0046 ADF80820 		strh	r2, [sp, #8]	@ movhi
  88:..\polyvec.c  ****       t[5] = (a[6] >> 7) | ((uint16_t)a[ 7] << 1) | ((uint16_t)a[8] << 9);
  76              		.loc 1 88 0
  77 004a CC79     		ldrb	r4, [r1, #7]	@ zero_extendqisi2
  78 004c 0A7A     		ldrb	r2, [r1, #8]	@ zero_extendqisi2
  79 004e DB09     		lsrs	r3, r3, #7
  80 0050 43EA4403 		orr	r3, r3, r4, lsl #1
  81 0054 43EA4223 		orr	r3, r3, r2, lsl #9
  82 0058 ADF80A30 		strh	r3, [sp, #10]	@ movhi
  89:..\polyvec.c  ****       t[6] = (a[8] >> 2) | ((uint16_t)a[ 9] << 6);
ARM GAS  C:\Users\bogurad\AppData\Local\Temp\cc8ew7ax.s 			page 4


  83              		.loc 1 89 0
  84 005c 4B7A     		ldrb	r3, [r1, #9]	@ zero_extendqisi2
  85 005e 9208     		lsrs	r2, r2, #2
  86 0060 42EA8312 		orr	r2, r2, r3, lsl #6
  87 0064 ADF80C20 		strh	r2, [sp, #12]	@ movhi
  90:..\polyvec.c  ****       t[7] = (a[9] >> 5) | ((uint16_t)a[10] << 3);
  88              		.loc 1 90 0
  89 0068 8A7A     		ldrb	r2, [r1, #10]	@ zero_extendqisi2
  90 006a 5B09     		lsrs	r3, r3, #5
  91 006c 43EAC203 		orr	r3, r3, r2, lsl #3
  92 0070 ADF80E30 		strh	r3, [sp, #14]	@ movhi
  91:..\polyvec.c  ****       a += 11;
  93              		.loc 1 91 0
  94 0074 0B31     		adds	r1, r1, #11
  95              	.LVL3:
  92:..\polyvec.c  **** 
  93:..\polyvec.c  ****       for(k=0;k<8;k++)
  96              		.loc 1 93 0
  97 0076 0024     		movs	r4, #0
  98 0078 14E0     		b	.L3
  99              	.LVL4:
 100              	.L4:
  94:..\polyvec.c  ****         r->vec[i].coeffs[8*j+k] = ((uint32_t)(t[k] & 0x7FF)*KYBER_Q + 1024) >> 11;
 101              		.loc 1 94 0 discriminator 3
 102 007a 04EBC605 		add	r5, r4, r6, lsl #3
 103 007e 04AB     		add	r3, sp, #16
 104 0080 03EB4403 		add	r3, r3, r4, lsl #1
 105 0084 33F8103C 		ldrh	r3, [r3, #-16]
 106 0088 C3F30A03 		ubfx	r3, r3, #0, #11
 107 008c 40F60152 		movw	r2, #3329
 108 0090 02FB03F3 		mul	r3, r2, r3
 109 0094 03F58063 		add	r3, r3, #1024
 110 0098 DB0A     		lsrs	r3, r3, #11
 111 009a 05EB0722 		add	r2, r5, r7, lsl #8
 112 009e 20F81230 		strh	r3, [r0, r2, lsl #1]	@ movhi
  93:..\polyvec.c  ****         r->vec[i].coeffs[8*j+k] = ((uint32_t)(t[k] & 0x7FF)*KYBER_Q + 1024) >> 11;
 113              		.loc 1 93 0 discriminator 3
 114 00a2 0134     		adds	r4, r4, #1
 115              	.LVL5:
 116              	.L3:
  93:..\polyvec.c  ****         r->vec[i].coeffs[8*j+k] = ((uint32_t)(t[k] & 0x7FF)*KYBER_Q + 1024) >> 11;
 117              		.loc 1 93 0 is_stmt 0 discriminator 1
 118 00a4 072C     		cmp	r4, #7
 119 00a6 E8D9     		bls	.L4
  82:..\polyvec.c  ****       t[0] = (a[0] >> 0) | ((uint16_t)a[ 1] << 8);
 120              		.loc 1 82 0 is_stmt 1 discriminator 2
 121 00a8 0136     		adds	r6, r6, #1
 122              	.LVL6:
 123 00aa 00E0     		b	.L6
 124              	.LVL7:
 125              	.L7:
 126 00ac 0026     		movs	r6, #0
 127              	.L6:
 128              	.LVL8:
  82:..\polyvec.c  ****       t[0] = (a[0] >> 0) | ((uint16_t)a[ 1] << 8);
 129              		.loc 1 82 0 is_stmt 0 discriminator 1
 130 00ae 1F2E     		cmp	r6, #31
ARM GAS  C:\Users\bogurad\AppData\Local\Temp\cc8ew7ax.s 			page 5


 131 00b0 AAD9     		bls	.L5
  81:..\polyvec.c  ****     for(j=0;j<KYBER_N/8;j++) {
 132              		.loc 1 81 0 is_stmt 1 discriminator 2
 133 00b2 0137     		adds	r7, r7, #1
 134              	.LVL9:
 135              	.L2:
  81:..\polyvec.c  ****     for(j=0;j<KYBER_N/8;j++) {
 136              		.loc 1 81 0 is_stmt 0 discriminator 1
 137 00b4 032F     		cmp	r7, #3
 138 00b6 F9D9     		bls	.L7
  95:..\polyvec.c  ****     }
  96:..\polyvec.c  ****   }
  97:..\polyvec.c  **** #elif (KYBER_POLYVECCOMPRESSEDBYTES == (KYBER_K * 320))
  98:..\polyvec.c  ****   uint16_t t[4];
  99:..\polyvec.c  ****   for(i=0;i<KYBER_K;i++) {
 100:..\polyvec.c  ****     for(j=0;j<KYBER_N/4;j++) {
 101:..\polyvec.c  ****       t[0] = (a[0] >> 0) | ((uint16_t)a[1] << 8);
 102:..\polyvec.c  ****       t[1] = (a[1] >> 2) | ((uint16_t)a[2] << 6);
 103:..\polyvec.c  ****       t[2] = (a[2] >> 4) | ((uint16_t)a[3] << 4);
 104:..\polyvec.c  ****       t[3] = (a[3] >> 6) | ((uint16_t)a[4] << 2);
 105:..\polyvec.c  ****       a += 5;
 106:..\polyvec.c  **** 
 107:..\polyvec.c  ****       for(k=0;k<4;k++)
 108:..\polyvec.c  ****         r->vec[i].coeffs[4*j+k] = ((uint32_t)(t[k] & 0x3FF)*KYBER_Q + 512) >> 10;
 109:..\polyvec.c  ****     }
 110:..\polyvec.c  ****   }
 111:..\polyvec.c  **** #else
 112:..\polyvec.c  **** #error "KYBER_POLYVECCOMPRESSEDBYTES needs to be in {320*KYBER_K, 352*KYBER_K}"
 113:..\polyvec.c  **** #endif
 114:..\polyvec.c  **** }
 139              		.loc 1 114 0 is_stmt 1
 140 00b8 04B0     		add	sp, sp, #16
 141              		.cfi_def_cfa_offset 16
 142              		@ sp needed
 143 00ba F0BC     		pop	{r4, r5, r6, r7}
 144              		.cfi_restore 7
 145              		.cfi_restore 6
 146              		.cfi_restore 5
 147              		.cfi_restore 4
 148              		.cfi_def_cfa_offset 0
 149              	.LVL10:
 150 00bc 7047     		bx	lr
 151              		.cfi_endproc
 152              	.LFE1:
 153              		.size	pqcrystals_kyber1024_ref_polyvec_decompress, .-pqcrystals_kyber1024_ref_polyvec_decompress
 154 00be 00BF     		.section	.text.pqcrystals_kyber1024_ref_polyvec_tobytes,"ax",%progbits
 155              		.align	2
 156              		.global	pqcrystals_kyber1024_ref_polyvec_tobytes
 157              		.thumb
 158              		.thumb_func
 159              		.type	pqcrystals_kyber1024_ref_polyvec_tobytes, %function
 160              	pqcrystals_kyber1024_ref_polyvec_tobytes:
 161              	.LFB2:
 115:..\polyvec.c  **** 
 116:..\polyvec.c  **** /*************************************************
 117:..\polyvec.c  **** * Name:        polyvec_tobytes
 118:..\polyvec.c  **** *
ARM GAS  C:\Users\bogurad\AppData\Local\Temp\cc8ew7ax.s 			page 6


 119:..\polyvec.c  **** * Description: Serialize vector of polynomials
 120:..\polyvec.c  **** *
 121:..\polyvec.c  **** * Arguments:   - uint8_t *r: pointer to output byte array
 122:..\polyvec.c  **** *                            (needs space for KYBER_POLYVECBYTES)
 123:..\polyvec.c  **** *              - polyvec *a: pointer to input vector of polynomials
 124:..\polyvec.c  **** **************************************************/
 125:..\polyvec.c  **** void polyvec_tobytes(uint8_t r[KYBER_POLYVECBYTES], polyvec *a)
 126:..\polyvec.c  **** {
 162              		.loc 1 126 0
 163              		.cfi_startproc
 164              		@ args = 0, pretend = 0, frame = 0
 165              		@ frame_needed = 0, uses_anonymous_args = 0
 166              	.LVL11:
 167 0000 70B5     		push	{r4, r5, r6, lr}
 168              		.cfi_def_cfa_offset 16
 169              		.cfi_offset 4, -16
 170              		.cfi_offset 5, -12
 171              		.cfi_offset 6, -8
 172              		.cfi_offset 14, -4
 173 0002 0646     		mov	r6, r0
 174 0004 0D46     		mov	r5, r1
 175              	.LVL12:
 127:..\polyvec.c  ****   unsigned int i;
 128:..\polyvec.c  ****   for(i=0;i<KYBER_K;i++)
 176              		.loc 1 128 0
 177 0006 0024     		movs	r4, #0
 178 0008 08E0     		b	.L10
 179              	.LVL13:
 180              	.L11:
 129:..\polyvec.c  ****     poly_tobytes(r+i*KYBER_POLYBYTES, &a->vec[i]);
 181              		.loc 1 129 0 discriminator 3
 182 000a 04EB4403 		add	r3, r4, r4, lsl #1
 183 000e D801     		lsls	r0, r3, #7
 184 0010 05EB4421 		add	r1, r5, r4, lsl #9
 185 0014 3044     		add	r0, r0, r6
 186 0016 FFF7FEFF 		bl	pqcrystals_kyber1024_ref_poly_tobytes
 187              	.LVL14:
 128:..\polyvec.c  ****     poly_tobytes(r+i*KYBER_POLYBYTES, &a->vec[i]);
 188              		.loc 1 128 0 discriminator 3
 189 001a 0134     		adds	r4, r4, #1
 190              	.LVL15:
 191              	.L10:
 128:..\polyvec.c  ****     poly_tobytes(r+i*KYBER_POLYBYTES, &a->vec[i]);
 192              		.loc 1 128 0 is_stmt 0 discriminator 1
 193 001c 032C     		cmp	r4, #3
 194 001e F4D9     		bls	.L11
 130:..\polyvec.c  **** }
 195              		.loc 1 130 0 is_stmt 1
 196 0020 70BD     		pop	{r4, r5, r6, pc}
 197              		.cfi_endproc
 198              	.LFE2:
 199              		.size	pqcrystals_kyber1024_ref_polyvec_tobytes, .-pqcrystals_kyber1024_ref_polyvec_tobytes
 200 0022 00BF     		.section	.text.pqcrystals_kyber1024_ref_polyvec_frombytes,"ax",%progbits
 201              		.align	2
 202              		.global	pqcrystals_kyber1024_ref_polyvec_frombytes
 203              		.thumb
 204              		.thumb_func
ARM GAS  C:\Users\bogurad\AppData\Local\Temp\cc8ew7ax.s 			page 7


 205              		.type	pqcrystals_kyber1024_ref_polyvec_frombytes, %function
 206              	pqcrystals_kyber1024_ref_polyvec_frombytes:
 207              	.LFB3:
 131:..\polyvec.c  **** 
 132:..\polyvec.c  **** /*************************************************
 133:..\polyvec.c  **** * Name:        polyvec_frombytes
 134:..\polyvec.c  **** *
 135:..\polyvec.c  **** * Description: De-serialize vector of polynomials;
 136:..\polyvec.c  **** *              inverse of polyvec_tobytes
 137:..\polyvec.c  **** *
 138:..\polyvec.c  **** * Arguments:   - uint8_t *r:       pointer to output byte array
 139:..\polyvec.c  **** *              - const polyvec *a: pointer to input vector of polynomials
 140:..\polyvec.c  **** *                                  (of length KYBER_POLYVECBYTES)
 141:..\polyvec.c  **** **************************************************/
 142:..\polyvec.c  **** void polyvec_frombytes(polyvec *r, const uint8_t a[KYBER_POLYVECBYTES])
 143:..\polyvec.c  **** {
 208              		.loc 1 143 0
 209              		.cfi_startproc
 210              		@ args = 0, pretend = 0, frame = 0
 211              		@ frame_needed = 0, uses_anonymous_args = 0
 212              	.LVL16:
 213 0000 70B5     		push	{r4, r5, r6, lr}
 214              		.cfi_def_cfa_offset 16
 215              		.cfi_offset 4, -16
 216              		.cfi_offset 5, -12
 217              		.cfi_offset 6, -8
 218              		.cfi_offset 14, -4
 219 0002 0646     		mov	r6, r0
 220 0004 0D46     		mov	r5, r1
 221              	.LVL17:
 144:..\polyvec.c  ****   unsigned int i;
 145:..\polyvec.c  ****   for(i=0;i<KYBER_K;i++)
 222              		.loc 1 145 0
 223 0006 0024     		movs	r4, #0
 224 0008 08E0     		b	.L14
 225              	.LVL18:
 226              	.L15:
 146:..\polyvec.c  ****     poly_frombytes(&r->vec[i], a+i*KYBER_POLYBYTES);
 227              		.loc 1 146 0 discriminator 3
 228 000a 04EB4403 		add	r3, r4, r4, lsl #1
 229 000e D901     		lsls	r1, r3, #7
 230 0010 2944     		add	r1, r1, r5
 231 0012 06EB4420 		add	r0, r6, r4, lsl #9
 232 0016 FFF7FEFF 		bl	pqcrystals_kyber1024_ref_poly_frombytes
 233              	.LVL19:
 145:..\polyvec.c  ****     poly_frombytes(&r->vec[i], a+i*KYBER_POLYBYTES);
 234              		.loc 1 145 0 discriminator 3
 235 001a 0134     		adds	r4, r4, #1
 236              	.LVL20:
 237              	.L14:
 145:..\polyvec.c  ****     poly_frombytes(&r->vec[i], a+i*KYBER_POLYBYTES);
 238              		.loc 1 145 0 is_stmt 0 discriminator 1
 239 001c 032C     		cmp	r4, #3
 240 001e F4D9     		bls	.L15
 147:..\polyvec.c  **** }
 241              		.loc 1 147 0 is_stmt 1
 242 0020 70BD     		pop	{r4, r5, r6, pc}
ARM GAS  C:\Users\bogurad\AppData\Local\Temp\cc8ew7ax.s 			page 8


 243              		.cfi_endproc
 244              	.LFE3:
 245              		.size	pqcrystals_kyber1024_ref_polyvec_frombytes, .-pqcrystals_kyber1024_ref_polyvec_frombytes
 246 0022 00BF     		.section	.text.pqcrystals_kyber1024_ref_polyvec_ntt,"ax",%progbits
 247              		.align	2
 248              		.global	pqcrystals_kyber1024_ref_polyvec_ntt
 249              		.thumb
 250              		.thumb_func
 251              		.type	pqcrystals_kyber1024_ref_polyvec_ntt, %function
 252              	pqcrystals_kyber1024_ref_polyvec_ntt:
 253              	.LFB4:
 148:..\polyvec.c  **** 
 149:..\polyvec.c  **** /*************************************************
 150:..\polyvec.c  **** * Name:        polyvec_ntt
 151:..\polyvec.c  **** *
 152:..\polyvec.c  **** * Description: Apply forward NTT to all elements of a vector of polynomials
 153:..\polyvec.c  **** *
 154:..\polyvec.c  **** * Arguments:   - polyvec *r: pointer to in/output vector of polynomials
 155:..\polyvec.c  **** **************************************************/
 156:..\polyvec.c  **** void polyvec_ntt(polyvec *r)
 157:..\polyvec.c  **** {
 254              		.loc 1 157 0
 255              		.cfi_startproc
 256              		@ args = 0, pretend = 0, frame = 0
 257              		@ frame_needed = 0, uses_anonymous_args = 0
 258              	.LVL21:
 259 0000 38B5     		push	{r3, r4, r5, lr}
 260              		.cfi_def_cfa_offset 16
 261              		.cfi_offset 3, -16
 262              		.cfi_offset 4, -12
 263              		.cfi_offset 5, -8
 264              		.cfi_offset 14, -4
 265 0002 0546     		mov	r5, r0
 266              	.LVL22:
 158:..\polyvec.c  ****   unsigned int i;
 159:..\polyvec.c  ****   for(i=0;i<KYBER_K;i++)
 267              		.loc 1 159 0
 268 0004 0024     		movs	r4, #0
 269 0006 04E0     		b	.L18
 270              	.LVL23:
 271              	.L19:
 160:..\polyvec.c  ****     poly_ntt(&r->vec[i]);
 272              		.loc 1 160 0 discriminator 3
 273 0008 05EB4420 		add	r0, r5, r4, lsl #9
 274 000c FFF7FEFF 		bl	pqcrystals_kyber1024_ref_poly_ntt
 275              	.LVL24:
 159:..\polyvec.c  ****     poly_ntt(&r->vec[i]);
 276              		.loc 1 159 0 discriminator 3
 277 0010 0134     		adds	r4, r4, #1
 278              	.LVL25:
 279              	.L18:
 159:..\polyvec.c  ****     poly_ntt(&r->vec[i]);
 280              		.loc 1 159 0 is_stmt 0 discriminator 1
 281 0012 032C     		cmp	r4, #3
 282 0014 F8D9     		bls	.L19
 161:..\polyvec.c  **** }
 283              		.loc 1 161 0 is_stmt 1
ARM GAS  C:\Users\bogurad\AppData\Local\Temp\cc8ew7ax.s 			page 9


 284 0016 38BD     		pop	{r3, r4, r5, pc}
 285              		.cfi_endproc
 286              	.LFE4:
 287              		.size	pqcrystals_kyber1024_ref_polyvec_ntt, .-pqcrystals_kyber1024_ref_polyvec_ntt
 288              		.section	.text.pqcrystals_kyber1024_ref_polyvec_invntt_tomont,"ax",%progbits
 289              		.align	2
 290              		.global	pqcrystals_kyber1024_ref_polyvec_invntt_tomont
 291              		.thumb
 292              		.thumb_func
 293              		.type	pqcrystals_kyber1024_ref_polyvec_invntt_tomont, %function
 294              	pqcrystals_kyber1024_ref_polyvec_invntt_tomont:
 295              	.LFB5:
 162:..\polyvec.c  **** 
 163:..\polyvec.c  **** /*************************************************
 164:..\polyvec.c  **** * Name:        polyvec_invntt_tomont
 165:..\polyvec.c  **** *
 166:..\polyvec.c  **** * Description: Apply inverse NTT to all elements of a vector of polynomials
 167:..\polyvec.c  **** *              and multiply by Montgomery factor 2^16
 168:..\polyvec.c  **** *
 169:..\polyvec.c  **** * Arguments:   - polyvec *r: pointer to in/output vector of polynomials
 170:..\polyvec.c  **** **************************************************/
 171:..\polyvec.c  **** void polyvec_invntt_tomont(polyvec *r)
 172:..\polyvec.c  **** {
 296              		.loc 1 172 0
 297              		.cfi_startproc
 298              		@ args = 0, pretend = 0, frame = 0
 299              		@ frame_needed = 0, uses_anonymous_args = 0
 300              	.LVL26:
 301 0000 38B5     		push	{r3, r4, r5, lr}
 302              		.cfi_def_cfa_offset 16
 303              		.cfi_offset 3, -16
 304              		.cfi_offset 4, -12
 305              		.cfi_offset 5, -8
 306              		.cfi_offset 14, -4
 307 0002 0546     		mov	r5, r0
 308              	.LVL27:
 173:..\polyvec.c  ****   unsigned int i;
 174:..\polyvec.c  ****   for(i=0;i<KYBER_K;i++)
 309              		.loc 1 174 0
 310 0004 0024     		movs	r4, #0
 311 0006 04E0     		b	.L22
 312              	.LVL28:
 313              	.L23:
 175:..\polyvec.c  ****     poly_invntt_tomont(&r->vec[i]);
 314              		.loc 1 175 0 discriminator 3
 315 0008 05EB4420 		add	r0, r5, r4, lsl #9
 316 000c FFF7FEFF 		bl	pqcrystals_kyber1024_ref_poly_invntt_tomont
 317              	.LVL29:
 174:..\polyvec.c  ****     poly_invntt_tomont(&r->vec[i]);
 318              		.loc 1 174 0 discriminator 3
 319 0010 0134     		adds	r4, r4, #1
 320              	.LVL30:
 321              	.L22:
 174:..\polyvec.c  ****     poly_invntt_tomont(&r->vec[i]);
 322              		.loc 1 174 0 is_stmt 0 discriminator 1
 323 0012 032C     		cmp	r4, #3
 324 0014 F8D9     		bls	.L23
ARM GAS  C:\Users\bogurad\AppData\Local\Temp\cc8ew7ax.s 			page 10


 176:..\polyvec.c  **** }
 325              		.loc 1 176 0 is_stmt 1
 326 0016 38BD     		pop	{r3, r4, r5, pc}
 327              		.cfi_endproc
 328              	.LFE5:
 329              		.size	pqcrystals_kyber1024_ref_polyvec_invntt_tomont, .-pqcrystals_kyber1024_ref_polyvec_invntt_to
 330              		.section	.text.pqcrystals_kyber1024_ref_polyvec_pointwise_acc_montgomery,"ax",%progbits
 331              		.align	2
 332              		.global	pqcrystals_kyber1024_ref_polyvec_pointwise_acc_montgomery
 333              		.thumb
 334              		.thumb_func
 335              		.type	pqcrystals_kyber1024_ref_polyvec_pointwise_acc_montgomery, %function
 336              	pqcrystals_kyber1024_ref_polyvec_pointwise_acc_montgomery:
 337              	.LFB6:
 177:..\polyvec.c  **** 
 178:..\polyvec.c  **** /*************************************************
 179:..\polyvec.c  **** * Name:        polyvec_pointwise_acc_montgomery
 180:..\polyvec.c  **** *
 181:..\polyvec.c  **** * Description: Pointwise multiply elements of a and b, accumulate into r,
 182:..\polyvec.c  **** *              and multiply by 2^-16.
 183:..\polyvec.c  **** *
 184:..\polyvec.c  **** * Arguments: - poly *r:          pointer to output polynomial
 185:..\polyvec.c  **** *            - const polyvec *a: pointer to first input vector of polynomials
 186:..\polyvec.c  **** *            - const polyvec *b: pointer to second input vector of polynomials
 187:..\polyvec.c  **** **************************************************/
 188:..\polyvec.c  **** void polyvec_pointwise_acc_montgomery(poly *r,
 189:..\polyvec.c  ****                                       const polyvec *a,
 190:..\polyvec.c  ****                                       const polyvec *b)
 191:..\polyvec.c  **** {
 338              		.loc 1 191 0
 339              		.cfi_startproc
 340              		@ args = 0, pretend = 0, frame = 512
 341              		@ frame_needed = 0, uses_anonymous_args = 0
 342              	.LVL31:
 343 0000 F0B5     		push	{r4, r5, r6, r7, lr}
 344              		.cfi_def_cfa_offset 20
 345              		.cfi_offset 4, -20
 346              		.cfi_offset 5, -16
 347              		.cfi_offset 6, -12
 348              		.cfi_offset 7, -8
 349              		.cfi_offset 14, -4
 350 0002 ADF5017D 		sub	sp, sp, #516
 351              		.cfi_def_cfa_offset 536
 352 0006 0546     		mov	r5, r0
 353 0008 0F46     		mov	r7, r1
 354 000a 1646     		mov	r6, r2
 192:..\polyvec.c  ****   unsigned int i;
 193:..\polyvec.c  ****   poly t;
 194:..\polyvec.c  **** 
 195:..\polyvec.c  ****   poly_basemul_montgomery(r, &a->vec[0], &b->vec[0]);
 355              		.loc 1 195 0
 356 000c FFF7FEFF 		bl	pqcrystals_kyber1024_ref_poly_basemul_montgomery
 357              	.LVL32:
 196:..\polyvec.c  ****   for(i=1;i<KYBER_K;i++) {
 358              		.loc 1 196 0
 359 0010 0124     		movs	r4, #1
 360 0012 0BE0     		b	.L26
ARM GAS  C:\Users\bogurad\AppData\Local\Temp\cc8ew7ax.s 			page 11


 361              	.LVL33:
 362              	.L27:
 197:..\polyvec.c  ****     poly_basemul_montgomery(&t, &a->vec[i], &b->vec[i]);
 363              		.loc 1 197 0 discriminator 3
 364 0014 6102     		lsls	r1, r4, #9
 365 0016 7218     		adds	r2, r6, r1
 366 0018 3944     		add	r1, r1, r7
 367 001a 6846     		mov	r0, sp
 368 001c FFF7FEFF 		bl	pqcrystals_kyber1024_ref_poly_basemul_montgomery
 369              	.LVL34:
 198:..\polyvec.c  ****     poly_add(r, r, &t);
 370              		.loc 1 198 0 discriminator 3
 371 0020 6A46     		mov	r2, sp
 372 0022 2946     		mov	r1, r5
 373 0024 2846     		mov	r0, r5
 374 0026 FFF7FEFF 		bl	pqcrystals_kyber1024_ref_poly_add
 375              	.LVL35:
 196:..\polyvec.c  ****   for(i=1;i<KYBER_K;i++) {
 376              		.loc 1 196 0 discriminator 3
 377 002a 0134     		adds	r4, r4, #1
 378              	.LVL36:
 379              	.L26:
 196:..\polyvec.c  ****   for(i=1;i<KYBER_K;i++) {
 380              		.loc 1 196 0 is_stmt 0 discriminator 1
 381 002c 032C     		cmp	r4, #3
 382 002e F1D9     		bls	.L27
 199:..\polyvec.c  ****   }
 200:..\polyvec.c  **** 
 201:..\polyvec.c  ****   poly_reduce(r);
 383              		.loc 1 201 0 is_stmt 1
 384 0030 2846     		mov	r0, r5
 385 0032 FFF7FEFF 		bl	pqcrystals_kyber1024_ref_poly_reduce
 386              	.LVL37:
 202:..\polyvec.c  **** }
 387              		.loc 1 202 0
 388 0036 0DF5017D 		add	sp, sp, #516
 389              		.cfi_def_cfa_offset 20
 390              		@ sp needed
 391 003a F0BD     		pop	{r4, r5, r6, r7, pc}
 392              		.cfi_endproc
 393              	.LFE6:
 394              		.size	pqcrystals_kyber1024_ref_polyvec_pointwise_acc_montgomery, .-pqcrystals_kyber1024_ref_polyve
 395              		.section	.text.pqcrystals_kyber1024_ref_polyvec_reduce,"ax",%progbits
 396              		.align	2
 397              		.global	pqcrystals_kyber1024_ref_polyvec_reduce
 398              		.thumb
 399              		.thumb_func
 400              		.type	pqcrystals_kyber1024_ref_polyvec_reduce, %function
 401              	pqcrystals_kyber1024_ref_polyvec_reduce:
 402              	.LFB7:
 203:..\polyvec.c  **** 
 204:..\polyvec.c  **** /*************************************************
 205:..\polyvec.c  **** * Name:        polyvec_reduce
 206:..\polyvec.c  **** *
 207:..\polyvec.c  **** * Description: Applies Barrett reduction to each coefficient
 208:..\polyvec.c  **** *              of each element of a vector of polynomials
 209:..\polyvec.c  **** *              for details of the Barrett reduction see comments in reduce.c
ARM GAS  C:\Users\bogurad\AppData\Local\Temp\cc8ew7ax.s 			page 12


 210:..\polyvec.c  **** *
 211:..\polyvec.c  **** * Arguments:   - poly *r: pointer to input/output polynomial
 212:..\polyvec.c  **** **************************************************/
 213:..\polyvec.c  **** void polyvec_reduce(polyvec *r)
 214:..\polyvec.c  **** {
 403              		.loc 1 214 0
 404              		.cfi_startproc
 405              		@ args = 0, pretend = 0, frame = 0
 406              		@ frame_needed = 0, uses_anonymous_args = 0
 407              	.LVL38:
 408 0000 38B5     		push	{r3, r4, r5, lr}
 409              		.cfi_def_cfa_offset 16
 410              		.cfi_offset 3, -16
 411              		.cfi_offset 4, -12
 412              		.cfi_offset 5, -8
 413              		.cfi_offset 14, -4
 414 0002 0546     		mov	r5, r0
 415              	.LVL39:
 215:..\polyvec.c  ****   unsigned int i;
 216:..\polyvec.c  ****   for(i=0;i<KYBER_K;i++)
 416              		.loc 1 216 0
 417 0004 0024     		movs	r4, #0
 418 0006 04E0     		b	.L30
 419              	.LVL40:
 420              	.L31:
 217:..\polyvec.c  ****     poly_reduce(&r->vec[i]);
 421              		.loc 1 217 0 discriminator 3
 422 0008 05EB4420 		add	r0, r5, r4, lsl #9
 423 000c FFF7FEFF 		bl	pqcrystals_kyber1024_ref_poly_reduce
 424              	.LVL41:
 216:..\polyvec.c  ****     poly_reduce(&r->vec[i]);
 425              		.loc 1 216 0 discriminator 3
 426 0010 0134     		adds	r4, r4, #1
 427              	.LVL42:
 428              	.L30:
 216:..\polyvec.c  ****     poly_reduce(&r->vec[i]);
 429              		.loc 1 216 0 is_stmt 0 discriminator 1
 430 0012 032C     		cmp	r4, #3
 431 0014 F8D9     		bls	.L31
 218:..\polyvec.c  **** }
 432              		.loc 1 218 0 is_stmt 1
 433 0016 38BD     		pop	{r3, r4, r5, pc}
 434              		.cfi_endproc
 435              	.LFE7:
 436              		.size	pqcrystals_kyber1024_ref_polyvec_reduce, .-pqcrystals_kyber1024_ref_polyvec_reduce
 437              		.section	.text.pqcrystals_kyber1024_ref_polyvec_csubq,"ax",%progbits
 438              		.align	2
 439              		.global	pqcrystals_kyber1024_ref_polyvec_csubq
 440              		.thumb
 441              		.thumb_func
 442              		.type	pqcrystals_kyber1024_ref_polyvec_csubq, %function
 443              	pqcrystals_kyber1024_ref_polyvec_csubq:
 444              	.LFB8:
 219:..\polyvec.c  **** 
 220:..\polyvec.c  **** /*************************************************
 221:..\polyvec.c  **** * Name:        polyvec_csubq
 222:..\polyvec.c  **** *
ARM GAS  C:\Users\bogurad\AppData\Local\Temp\cc8ew7ax.s 			page 13


 223:..\polyvec.c  **** * Description: Applies conditional subtraction of q to each coefficient
 224:..\polyvec.c  **** *              of each element of a vector of polynomials
 225:..\polyvec.c  **** *              for details of conditional subtraction of q see comments in
 226:..\polyvec.c  **** *              reduce.c
 227:..\polyvec.c  **** *
 228:..\polyvec.c  **** * Arguments:   - poly *r: pointer to input/output polynomial
 229:..\polyvec.c  **** **************************************************/
 230:..\polyvec.c  **** void polyvec_csubq(polyvec *r)
 231:..\polyvec.c  **** {
 445              		.loc 1 231 0
 446              		.cfi_startproc
 447              		@ args = 0, pretend = 0, frame = 0
 448              		@ frame_needed = 0, uses_anonymous_args = 0
 449              	.LVL43:
 450 0000 38B5     		push	{r3, r4, r5, lr}
 451              		.cfi_def_cfa_offset 16
 452              		.cfi_offset 3, -16
 453              		.cfi_offset 4, -12
 454              		.cfi_offset 5, -8
 455              		.cfi_offset 14, -4
 456 0002 0546     		mov	r5, r0
 457              	.LVL44:
 232:..\polyvec.c  ****   unsigned int i;
 233:..\polyvec.c  ****   for(i=0;i<KYBER_K;i++)
 458              		.loc 1 233 0
 459 0004 0024     		movs	r4, #0
 460 0006 04E0     		b	.L34
 461              	.LVL45:
 462              	.L35:
 234:..\polyvec.c  ****     poly_csubq(&r->vec[i]);
 463              		.loc 1 234 0 discriminator 3
 464 0008 05EB4420 		add	r0, r5, r4, lsl #9
 465 000c FFF7FEFF 		bl	pqcrystals_kyber1024_ref_poly_csubq
 466              	.LVL46:
 233:..\polyvec.c  ****     poly_csubq(&r->vec[i]);
 467              		.loc 1 233 0 discriminator 3
 468 0010 0134     		adds	r4, r4, #1
 469              	.LVL47:
 470              	.L34:
 233:..\polyvec.c  ****     poly_csubq(&r->vec[i]);
 471              		.loc 1 233 0 is_stmt 0 discriminator 1
 472 0012 032C     		cmp	r4, #3
 473 0014 F8D9     		bls	.L35
 235:..\polyvec.c  **** }
 474              		.loc 1 235 0 is_stmt 1
 475 0016 38BD     		pop	{r3, r4, r5, pc}
 476              		.cfi_endproc
 477              	.LFE8:
 478              		.size	pqcrystals_kyber1024_ref_polyvec_csubq, .-pqcrystals_kyber1024_ref_polyvec_csubq
 479              		.section	.text.pqcrystals_kyber1024_ref_polyvec_compress,"ax",%progbits
 480              		.align	2
 481              		.global	pqcrystals_kyber1024_ref_polyvec_compress
 482              		.thumb
 483              		.thumb_func
 484              		.type	pqcrystals_kyber1024_ref_polyvec_compress, %function
 485              	pqcrystals_kyber1024_ref_polyvec_compress:
 486              	.LFB0:
ARM GAS  C:\Users\bogurad\AppData\Local\Temp\cc8ew7ax.s 			page 14


  16:..\polyvec.c  ****   unsigned int i,j,k;
 487              		.loc 1 16 0
 488              		.cfi_startproc
 489              		@ args = 0, pretend = 0, frame = 16
 490              		@ frame_needed = 0, uses_anonymous_args = 0
 491              	.LVL48:
 492 0000 70B5     		push	{r4, r5, r6, lr}
 493              		.cfi_def_cfa_offset 16
 494              		.cfi_offset 4, -16
 495              		.cfi_offset 5, -12
 496              		.cfi_offset 6, -8
 497              		.cfi_offset 14, -4
 498 0002 84B0     		sub	sp, sp, #16
 499              		.cfi_def_cfa_offset 32
 500 0004 0446     		mov	r4, r0
 501 0006 0D46     		mov	r5, r1
  19:..\polyvec.c  **** 
 502              		.loc 1 19 0
 503 0008 0846     		mov	r0, r1
 504              	.LVL49:
 505 000a FFF7FEFF 		bl	pqcrystals_kyber1024_ref_polyvec_csubq
 506              	.LVL50:
  23:..\polyvec.c  ****     for(j=0;j<KYBER_N/8;j++) {
 507              		.loc 1 23 0
 508 000e 0026     		movs	r6, #0
 509 0010 54E0     		b	.L38
 510              	.LVL51:
 511              	.L39:
  26:..\polyvec.c  ****                 /KYBER_Q) & 0x7ff;
 512              		.loc 1 26 0 discriminator 3
 513 0012 01EBC003 		add	r3, r1, r0, lsl #3
 514 0016 03EB0623 		add	r3, r3, r6, lsl #8
 515 001a 35F91320 		ldrsh	r2, [r5, r3, lsl #1]
 516 001e D202     		lsls	r2, r2, #11
 517 0020 02F5D062 		add	r2, r2, #1664
  27:..\polyvec.c  **** 
 518              		.loc 1 27 0 discriminator 3
 519 0024 274B     		ldr	r3, .L45
 520 0026 A3FB02E3 		umull	lr, r3, r3, r2
 521 002a D21A     		subs	r2, r2, r3
 522 002c 03EB5203 		add	r3, r3, r2, lsr #1
  26:..\polyvec.c  ****                 /KYBER_Q) & 0x7ff;
 523              		.loc 1 26 0 discriminator 3
 524 0030 04AA     		add	r2, sp, #16
 525 0032 02EB4102 		add	r2, r2, r1, lsl #1
 526 0036 C3F3CA23 		ubfx	r3, r3, #11, #11
 527 003a 22F8103C 		strh	r3, [r2, #-16]	@ movhi
  25:..\polyvec.c  ****         t[k] = ((((uint32_t)a->vec[i].coeffs[8*j+k] << 11) + KYBER_Q/2)
 528              		.loc 1 25 0 discriminator 3
 529 003e 0131     		adds	r1, r1, #1
 530              	.LVL52:
 531 0040 00E0     		b	.L40
 532              	.LVL53:
 533              	.L42:
 534 0042 0021     		movs	r1, #0
 535              	.L40:
 536              	.LVL54:
ARM GAS  C:\Users\bogurad\AppData\Local\Temp\cc8ew7ax.s 			page 15


  25:..\polyvec.c  ****         t[k] = ((((uint32_t)a->vec[i].coeffs[8*j+k] << 11) + KYBER_Q/2)
 537              		.loc 1 25 0 is_stmt 0 discriminator 1
 538 0044 0729     		cmp	r1, #7
 539 0046 E4D9     		bls	.L39
  29:..\polyvec.c  ****       r[ 1] = (t[0] >>  8) | (t[1] << 3);
 540              		.loc 1 29 0 is_stmt 1 discriminator 2
 541 0048 BDF80030 		ldrh	r3, [sp]
 542 004c 2370     		strb	r3, [r4]
  30:..\polyvec.c  ****       r[ 2] = (t[1] >>  5) | (t[2] << 6);
 543              		.loc 1 30 0 discriminator 2
 544 004e BDF80220 		ldrh	r2, [sp, #2]
 545 0052 1B0A     		lsrs	r3, r3, #8
 546 0054 43EAC203 		orr	r3, r3, r2, lsl #3
 547 0058 6370     		strb	r3, [r4, #1]
  31:..\polyvec.c  ****       r[ 3] = (t[2] >>  2);
 548              		.loc 1 31 0 discriminator 2
 549 005a BDF80430 		ldrh	r3, [sp, #4]
 550 005e 5209     		lsrs	r2, r2, #5
 551 0060 42EA8312 		orr	r2, r2, r3, lsl #6
 552 0064 A270     		strb	r2, [r4, #2]
  32:..\polyvec.c  ****       r[ 4] = (t[2] >> 10) | (t[3] << 1);
 553              		.loc 1 32 0 discriminator 2
 554 0066 9A08     		lsrs	r2, r3, #2
 555 0068 E270     		strb	r2, [r4, #3]
  33:..\polyvec.c  ****       r[ 5] = (t[3] >>  7) | (t[4] << 4);
 556              		.loc 1 33 0 discriminator 2
 557 006a BDF80610 		ldrh	r1, [sp, #6]
 558              	.LVL55:
 559 006e 9B0A     		lsrs	r3, r3, #10
 560 0070 43EA4103 		orr	r3, r3, r1, lsl #1
 561 0074 2371     		strb	r3, [r4, #4]
  34:..\polyvec.c  ****       r[ 6] = (t[4] >>  4) | (t[5] << 7);
 562              		.loc 1 34 0 discriminator 2
 563 0076 BDF80820 		ldrh	r2, [sp, #8]
 564 007a C909     		lsrs	r1, r1, #7
 565 007c 41EA0211 		orr	r1, r1, r2, lsl #4
 566 0080 6171     		strb	r1, [r4, #5]
  35:..\polyvec.c  ****       r[ 7] = (t[5] >>  1);
 567              		.loc 1 35 0 discriminator 2
 568 0082 BDF80A30 		ldrh	r3, [sp, #10]
 569 0086 1209     		lsrs	r2, r2, #4
 570 0088 42EAC312 		orr	r2, r2, r3, lsl #7
 571 008c A271     		strb	r2, [r4, #6]
  36:..\polyvec.c  ****       r[ 8] = (t[5] >>  9) | (t[6] << 2);
 572              		.loc 1 36 0 discriminator 2
 573 008e 5A08     		lsrs	r2, r3, #1
 574 0090 E271     		strb	r2, [r4, #7]
  37:..\polyvec.c  ****       r[ 9] = (t[6] >>  6) | (t[7] << 5);
 575              		.loc 1 37 0 discriminator 2
 576 0092 BDF80C20 		ldrh	r2, [sp, #12]
 577 0096 5B0A     		lsrs	r3, r3, #9
 578 0098 43EA8203 		orr	r3, r3, r2, lsl #2
 579 009c 2372     		strb	r3, [r4, #8]
  38:..\polyvec.c  ****       r[10] = (t[7] >>  3);
 580              		.loc 1 38 0 discriminator 2
 581 009e BDF80E30 		ldrh	r3, [sp, #14]
 582 00a2 9209     		lsrs	r2, r2, #6
ARM GAS  C:\Users\bogurad\AppData\Local\Temp\cc8ew7ax.s 			page 16


 583 00a4 42EA4312 		orr	r2, r2, r3, lsl #5
 584 00a8 6272     		strb	r2, [r4, #9]
  39:..\polyvec.c  ****       r += 11;
 585              		.loc 1 39 0 discriminator 2
 586 00aa DB08     		lsrs	r3, r3, #3
 587 00ac A372     		strb	r3, [r4, #10]
  40:..\polyvec.c  ****     }
 588              		.loc 1 40 0 discriminator 2
 589 00ae 0B34     		adds	r4, r4, #11
 590              	.LVL56:
  24:..\polyvec.c  ****       for(k=0;k<8;k++)
 591              		.loc 1 24 0 discriminator 2
 592 00b0 0130     		adds	r0, r0, #1
 593              	.LVL57:
 594 00b2 00E0     		b	.L41
 595              	.LVL58:
 596              	.L43:
 597 00b4 0020     		movs	r0, #0
 598              	.L41:
 599              	.LVL59:
  24:..\polyvec.c  ****       for(k=0;k<8;k++)
 600              		.loc 1 24 0 is_stmt 0 discriminator 1
 601 00b6 1F28     		cmp	r0, #31
 602 00b8 C3D9     		bls	.L42
  23:..\polyvec.c  ****     for(j=0;j<KYBER_N/8;j++) {
 603              		.loc 1 23 0 is_stmt 1 discriminator 2
 604 00ba 0136     		adds	r6, r6, #1
 605              	.LVL60:
 606              	.L38:
  23:..\polyvec.c  ****     for(j=0;j<KYBER_N/8;j++) {
 607              		.loc 1 23 0 is_stmt 0 discriminator 1
 608 00bc 032E     		cmp	r6, #3
 609 00be F9D9     		bls	.L43
  62:..\polyvec.c  **** 
 610              		.loc 1 62 0 is_stmt 1
 611 00c0 04B0     		add	sp, sp, #16
 612              		.cfi_def_cfa_offset 16
 613              		@ sp needed
 614 00c2 70BD     		pop	{r4, r5, r6, pc}
 615              	.LVL61:
 616              	.L46:
 617              		.align	2
 618              	.L45:
 619 00c4 8176FB3A 		.word	989558401
 620              		.cfi_endproc
 621              	.LFE0:
 622              		.size	pqcrystals_kyber1024_ref_polyvec_compress, .-pqcrystals_kyber1024_ref_polyvec_compress
 623              		.section	.text.pqcrystals_kyber1024_ref_polyvec_add,"ax",%progbits
 624              		.align	2
 625              		.global	pqcrystals_kyber1024_ref_polyvec_add
 626              		.thumb
 627              		.thumb_func
 628              		.type	pqcrystals_kyber1024_ref_polyvec_add, %function
 629              	pqcrystals_kyber1024_ref_polyvec_add:
 630              	.LFB9:
 236:..\polyvec.c  **** 
 237:..\polyvec.c  **** /*************************************************
ARM GAS  C:\Users\bogurad\AppData\Local\Temp\cc8ew7ax.s 			page 17


 238:..\polyvec.c  **** * Name:        polyvec_add
 239:..\polyvec.c  **** *
 240:..\polyvec.c  **** * Description: Add vectors of polynomials
 241:..\polyvec.c  **** *
 242:..\polyvec.c  **** * Arguments: - polyvec *r:       pointer to output vector of polynomials
 243:..\polyvec.c  **** *            - const polyvec *a: pointer to first input vector of polynomials
 244:..\polyvec.c  **** *            - const polyvec *b: pointer to second input vector of polynomials
 245:..\polyvec.c  **** **************************************************/
 246:..\polyvec.c  **** void polyvec_add(polyvec *r, const polyvec *a, const polyvec *b)
 247:..\polyvec.c  **** {
 631              		.loc 1 247 0
 632              		.cfi_startproc
 633              		@ args = 0, pretend = 0, frame = 0
 634              		@ frame_needed = 0, uses_anonymous_args = 0
 635              	.LVL62:
 636 0000 F8B5     		push	{r3, r4, r5, r6, r7, lr}
 637              		.cfi_def_cfa_offset 24
 638              		.cfi_offset 3, -24
 639              		.cfi_offset 4, -20
 640              		.cfi_offset 5, -16
 641              		.cfi_offset 6, -12
 642              		.cfi_offset 7, -8
 643              		.cfi_offset 14, -4
 644 0002 0746     		mov	r7, r0
 645 0004 0E46     		mov	r6, r1
 646 0006 1546     		mov	r5, r2
 647              	.LVL63:
 248:..\polyvec.c  ****   unsigned int i;
 249:..\polyvec.c  ****   for(i=0;i<KYBER_K;i++)
 648              		.loc 1 249 0
 649 0008 0024     		movs	r4, #0
 650 000a 06E0     		b	.L48
 651              	.LVL64:
 652              	.L49:
 250:..\polyvec.c  ****     poly_add(&r->vec[i], &a->vec[i], &b->vec[i]);
 653              		.loc 1 250 0 discriminator 3
 654 000c 6002     		lsls	r0, r4, #9
 655 000e 2A18     		adds	r2, r5, r0
 656 0010 3118     		adds	r1, r6, r0
 657 0012 3844     		add	r0, r0, r7
 658 0014 FFF7FEFF 		bl	pqcrystals_kyber1024_ref_poly_add
 659              	.LVL65:
 249:..\polyvec.c  ****     poly_add(&r->vec[i], &a->vec[i], &b->vec[i]);
 660              		.loc 1 249 0 discriminator 3
 661 0018 0134     		adds	r4, r4, #1
 662              	.LVL66:
 663              	.L48:
 249:..\polyvec.c  ****     poly_add(&r->vec[i], &a->vec[i], &b->vec[i]);
 664              		.loc 1 249 0 is_stmt 0 discriminator 1
 665 001a 032C     		cmp	r4, #3
 666 001c F6D9     		bls	.L49
 251:..\polyvec.c  **** }
 667              		.loc 1 251 0 is_stmt 1
 668 001e F8BD     		pop	{r3, r4, r5, r6, r7, pc}
 669              		.cfi_endproc
 670              	.LFE9:
 671              		.size	pqcrystals_kyber1024_ref_polyvec_add, .-pqcrystals_kyber1024_ref_polyvec_add
ARM GAS  C:\Users\bogurad\AppData\Local\Temp\cc8ew7ax.s 			page 18


 672              		.text
 673              	.Letext0:
 674              		.file 2 "c:\\program files (x86)\\cypress\\psoc creator\\4.4\\psoc creator\\import\\gnu\\arm\\5.4.
 675              		.file 3 "c:\\program files (x86)\\cypress\\psoc creator\\4.4\\psoc creator\\import\\gnu\\arm\\5.4.
 676              		.file 4 "..\\poly.h"
 677              		.file 5 "..\\polyvec.h"