ARM GAS  C:\Users\bogurad\AppData\Local\Temp\cc6HPWER.s 			page 1


   1              		.syntax unified
   2              		.cpu cortex-m4
   3              		.eabi_attribute 27, 1
   4              		.fpu fpv4-sp-d16
   5              		.eabi_attribute 20, 1
   6              		.eabi_attribute 21, 1
   7              		.eabi_attribute 23, 3
   8              		.eabi_attribute 24, 1
   9              		.eabi_attribute 25, 1
  10              		.eabi_attribute 26, 1
  11              		.eabi_attribute 30, 1
  12              		.eabi_attribute 34, 1
  13              		.eabi_attribute 18, 4
  14              		.thumb
  15              		.syntax unified
  16              		.file	"reduce.c"
  17              		.text
  18              	.Ltext0:
  19              		.cfi_sections	.debug_frame
  20              		.section	.text.pqcrystals_kyber1024_ref_montgomery_reduce,"ax",%progbits
  21              		.align	2
  22              		.global	pqcrystals_kyber1024_ref_montgomery_reduce
  23              		.thumb
  24              		.thumb_func
  25              		.type	pqcrystals_kyber1024_ref_montgomery_reduce, %function
  26              	pqcrystals_kyber1024_ref_montgomery_reduce:
  27              	.LFB0:
  28              		.file 1 "..\\reduce.c"
   1:..\reduce.c   **** #include <stdint.h>
   2:..\reduce.c   **** #include "params.h"
   3:..\reduce.c   **** #include "reduce.h"
   4:..\reduce.c   **** 
   5:..\reduce.c   **** /*************************************************
   6:..\reduce.c   **** * Name:        montgomery_reduce
   7:..\reduce.c   **** *
   8:..\reduce.c   **** * Description: Montgomery reduction; given a 32-bit integer a, computes
   9:..\reduce.c   **** *              16-bit integer congruent to a * R^-1 mod q,
  10:..\reduce.c   **** *              where R=2^16
  11:..\reduce.c   **** *
  12:..\reduce.c   **** * Arguments:   - int32_t a: input integer to be reduced;
  13:..\reduce.c   **** *                           has to be in {-q2^15,...,q2^15-1}
  14:..\reduce.c   **** *
  15:..\reduce.c   **** * Returns:     integer in {-q+1,...,q-1} congruent to a * R^-1 modulo q.
  16:..\reduce.c   **** **************************************************/
  17:..\reduce.c   **** int16_t montgomery_reduce(int32_t a)
  18:..\reduce.c   **** {
  29              		.loc 1 18 0
  30              		.cfi_startproc
  31              		@ args = 0, pretend = 0, frame = 0
  32              		@ frame_needed = 0, uses_anonymous_args = 0
  33              		@ link register save eliminated.
  34              	.LVL0:
  19:..\reduce.c   ****   int32_t t;
  20:..\reduce.c   ****   int16_t u;
  21:..\reduce.c   **** 
  22:..\reduce.c   ****   u = a*QINV;
  35              		.loc 1 22 0
ARM GAS  C:\Users\bogurad\AppData\Local\Temp\cc6HPWER.s 			page 2


  36 0000 00EB4003 		add	r3, r0, r0, lsl #1
  37 0004 03EBC303 		add	r3, r3, r3, lsl #3
  38 0008 03EBC303 		add	r3, r3, r3, lsl #3
  39 000c 00EB0323 		add	r3, r0, r3, lsl #8
  40 0010 1BB2     		sxth	r3, r3
  41              	.LVL1:
  23:..\reduce.c   ****   t = (int32_t)u*KYBER_Q;
  24:..\reduce.c   ****   t = a - t;
  42              		.loc 1 24 0
  43 0012 40F60152 		movw	r2, #3329
  44 0016 02FB1300 		mls	r0, r2, r3, r0
  45              	.LVL2:
  25:..\reduce.c   ****   t >>= 16;
  26:..\reduce.c   ****   return t;
  27:..\reduce.c   **** }
  46              		.loc 1 27 0
  47 001a 0014     		asrs	r0, r0, #16
  48              	.LVL3:
  49 001c 7047     		bx	lr
  50              		.cfi_endproc
  51              	.LFE0:
  52              		.size	pqcrystals_kyber1024_ref_montgomery_reduce, .-pqcrystals_kyber1024_ref_montgomery_reduce
  53 001e 00BF     		.section	.text.pqcrystals_kyber1024_ref_barrett_reduce,"ax",%progbits
  54              		.align	2
  55              		.global	pqcrystals_kyber1024_ref_barrett_reduce
  56              		.thumb
  57              		.thumb_func
  58              		.type	pqcrystals_kyber1024_ref_barrett_reduce, %function
  59              	pqcrystals_kyber1024_ref_barrett_reduce:
  60              	.LFB1:
  28:..\reduce.c   **** 
  29:..\reduce.c   **** /*************************************************
  30:..\reduce.c   **** * Name:        barrett_reduce
  31:..\reduce.c   **** *
  32:..\reduce.c   **** * Description: Barrett reduction; given a 16-bit integer a, computes
  33:..\reduce.c   **** *              16-bit integer congruent to a mod q in {0,...,q}
  34:..\reduce.c   **** *
  35:..\reduce.c   **** * Arguments:   - int16_t a: input integer to be reduced
  36:..\reduce.c   **** *
  37:..\reduce.c   **** * Returns:     integer in {0,...,q} congruent to a modulo q.
  38:..\reduce.c   **** **************************************************/
  39:..\reduce.c   **** int16_t barrett_reduce(int16_t a) {
  61              		.loc 1 39 0
  62              		.cfi_startproc
  63              		@ args = 0, pretend = 0, frame = 0
  64              		@ frame_needed = 0, uses_anonymous_args = 0
  65              		@ link register save eliminated.
  66              	.LVL4:
  40:..\reduce.c   ****   int16_t t;
  41:..\reduce.c   ****   const int16_t v = ((1U << 26) + KYBER_Q/2)/KYBER_Q;
  42:..\reduce.c   **** 
  43:..\reduce.c   ****   t  = (int32_t)v*a >> 26;
  67              		.loc 1 43 0
  68 0000 44F6BF63 		movw	r3, #20159
  69 0004 03FB00F3 		mul	r3, r3, r0
  70 0008 9B16     		asrs	r3, r3, #26
  71              	.LVL5:
ARM GAS  C:\Users\bogurad\AppData\Local\Temp\cc6HPWER.s 			page 3


  44:..\reduce.c   ****   t *= KYBER_Q;
  72              		.loc 1 44 0
  73 000a 03EB4302 		add	r2, r3, r3, lsl #1
  74 000e 03EB8202 		add	r2, r3, r2, lsl #2
  75 0012 03EB0223 		add	r3, r3, r2, lsl #8
  76              	.LVL6:
  77 0016 9BB2     		uxth	r3, r3
  78              	.LVL7:
  45:..\reduce.c   ****   return a - t;
  79              		.loc 1 45 0
  80 0018 C01A     		subs	r0, r0, r3
  81              	.LVL8:
  46:..\reduce.c   **** }
  82              		.loc 1 46 0
  83 001a 00B2     		sxth	r0, r0
  84 001c 7047     		bx	lr
  85              		.cfi_endproc
  86              	.LFE1:
  87              		.size	pqcrystals_kyber1024_ref_barrett_reduce, .-pqcrystals_kyber1024_ref_barrett_reduce
  88 001e 00BF     		.section	.text.pqcrystals_kyber1024_ref_csubq,"ax",%progbits
  89              		.align	2
  90              		.global	pqcrystals_kyber1024_ref_csubq
  91              		.thumb
  92              		.thumb_func
  93              		.type	pqcrystals_kyber1024_ref_csubq, %function
  94              	pqcrystals_kyber1024_ref_csubq:
  95              	.LFB2:
  47:..\reduce.c   **** 
  48:..\reduce.c   **** /*************************************************
  49:..\reduce.c   **** * Name:        csubq
  50:..\reduce.c   **** *
  51:..\reduce.c   **** * Description: Conditionallly subtract q
  52:..\reduce.c   **** *
  53:..\reduce.c   **** * Arguments:   - int16_t x: input integer
  54:..\reduce.c   **** *
  55:..\reduce.c   **** * Returns:     a - q if a >= q, else a
  56:..\reduce.c   **** **************************************************/
  57:..\reduce.c   **** int16_t csubq(int16_t a) {
  96              		.loc 1 57 0
  97              		.cfi_startproc
  98              		@ args = 0, pretend = 0, frame = 0
  99              		@ frame_needed = 0, uses_anonymous_args = 0
 100              		@ link register save eliminated.
 101              	.LVL9:
  58:..\reduce.c   ****   a -= KYBER_Q;
 102              		.loc 1 58 0
 103 0000 A0F60150 		subw	r0, r0, #3329
 104              	.LVL10:
 105 0004 80B2     		uxth	r0, r0
 106              	.LVL11:
  59:..\reduce.c   ****   a += (a >> 15) & KYBER_Q;
 107              		.loc 1 59 0
 108 0006 40F3C033 		sbfx	r3, r0, #15, #1
 109 000a 23F43F73 		bic	r3, r3, #764
 110 000e 23F00203 		bic	r3, r3, #2
 111 0012 1B05     		lsls	r3, r3, #20
 112 0014 1B0D     		lsrs	r3, r3, #20
ARM GAS  C:\Users\bogurad\AppData\Local\Temp\cc6HPWER.s 			page 4


 113 0016 1844     		add	r0, r0, r3
 114              	.LVL12:
  60:..\reduce.c   ****   return a;
  61:..\reduce.c   **** }
 115              		.loc 1 61 0
 116 0018 00B2     		sxth	r0, r0
 117 001a 7047     		bx	lr
 118              		.cfi_endproc
 119              	.LFE2:
 120              		.size	pqcrystals_kyber1024_ref_csubq, .-pqcrystals_kyber1024_ref_csubq
 121              		.text
 122              	.Letext0:
 123              		.file 2 "c:\\program files (x86)\\cypress\\psoc creator\\4.4\\psoc creator\\import\\gnu\\arm\\5.4.
 124              		.file 3 "c:\\program files (x86)\\cypress\\psoc creator\\4.4\\psoc creator\\import\\gnu\\arm\\5.4.