ARM GAS  C:\Users\bogur\AppData\Local\Temp\ccFZ7DD2.s 			page 1


   1              		.syntax unified
   2              		.cpu cortex-m4
   3              		.eabi_attribute 27, 1
   4              		.fpu fpv4-sp-d16
   5              		.eabi_attribute 20, 1
   6              		.eabi_attribute 21, 1
   7              		.eabi_attribute 23, 3
   8              		.eabi_attribute 24, 1
   9              		.eabi_attribute 25, 1
  10              		.eabi_attribute 26, 1
  11              		.eabi_attribute 30, 1
  12              		.eabi_attribute 34, 1
  13              		.eabi_attribute 18, 4
  14              		.thumb
  15              		.syntax unified
  16              		.file	"sha512.c"
  17              		.text
  18              	.Ltext0:
  19              		.cfi_sections	.debug_frame
  20              		.section	.text.load_bigendian,"ax",%progbits
  21              		.align	2
  22              		.thumb
  23              		.thumb_func
  24              		.type	load_bigendian, %function
  25              	load_bigendian:
  26              	.LFB0:
  27              		.file 1 "..\\sha512.c"
   1:..\sha512.c   **** /*
   2:..\sha512.c   **** Adapted from public domain code by D. J. Bernstein.
   3:..\sha512.c   **** */
   4:..\sha512.c   **** 
   5:..\sha512.c   **** #include <stddef.h>
   6:..\sha512.c   **** #include <stdint.h>
   7:..\sha512.c   **** #include "sha2.h"
   8:..\sha512.c   **** 
   9:..\sha512.c   **** static uint64_t load_bigendian(const uint8_t *x)
  10:..\sha512.c   **** {
  28              		.loc 1 10 0
  29              		.cfi_startproc
  30              		@ args = 0, pretend = 0, frame = 0
  31              		@ frame_needed = 0, uses_anonymous_args = 0
  32              		@ link register save eliminated.
  33              	.LVL0:
  34 0000 2DE9F003 		push	{r4, r5, r6, r7, r8, r9}
  35              		.cfi_def_cfa_offset 24
  36              		.cfi_offset 4, -24
  37              		.cfi_offset 5, -20
  38              		.cfi_offset 6, -16
  39              		.cfi_offset 7, -12
  40              		.cfi_offset 8, -8
  41              		.cfi_offset 9, -4
  11:..\sha512.c   ****   return
  12:..\sha512.c   ****       (uint64_t) (x[7]) \
  42              		.loc 1 12 0
  43 0004 C279     		ldrb	r2, [r0, #7]	@ zero_extendqisi2
  44 0006 0023     		movs	r3, #0
  13:..\sha512.c   ****   | (((uint64_t) (x[6])) << 8) \
ARM GAS  C:\Users\bogur\AppData\Local\Temp\ccFZ7DD2.s 			page 2


  45              		.loc 1 13 0
  46 0008 8679     		ldrb	r6, [r0, #6]	@ zero_extendqisi2
  47 000a 0025     		movs	r5, #0
  48 000c 3402     		lsls	r4, r6, #8
  49 000e 2243     		orrs	r2, r2, r4
  50 0010 2B43     		orrs	r3, r3, r5
  14:..\sha512.c   ****   | (((uint64_t) (x[5])) << 16) \
  51              		.loc 1 14 0
  52 0012 4679     		ldrb	r6, [r0, #5]	@ zero_extendqisi2
  53 0014 0025     		movs	r5, #0
  54 0016 3404     		lsls	r4, r6, #16
  55 0018 2243     		orrs	r2, r2, r4
  56 001a 2B43     		orrs	r3, r3, r5
  15:..\sha512.c   ****   | (((uint64_t) (x[4])) << 24) \
  57              		.loc 1 15 0
  58 001c 0679     		ldrb	r6, [r0, #4]	@ zero_extendqisi2
  59 001e 0025     		movs	r5, #0
  60 0020 3406     		lsls	r4, r6, #24
  61 0022 2243     		orrs	r2, r2, r4
  62 0024 2B43     		orrs	r3, r3, r5
  16:..\sha512.c   ****   | (((uint64_t) (x[3])) << 32) \
  63              		.loc 1 16 0
  64 0026 0024     		movs	r4, #0
  65 0028 C578     		ldrb	r5, [r0, #3]	@ zero_extendqisi2
  66 002a 2243     		orrs	r2, r2, r4
  67 002c 2B43     		orrs	r3, r3, r5
  17:..\sha512.c   ****   | (((uint64_t) (x[2])) << 40) \
  68              		.loc 1 17 0
  69 002e 90F80280 		ldrb	r8, [r0, #2]	@ zero_extendqisi2
  70 0032 4FEA0827 		lsl	r7, r8, #8
  71 0036 2243     		orrs	r2, r2, r4
  72 0038 3B43     		orrs	r3, r3, r7
  18:..\sha512.c   ****   | (((uint64_t) (x[1])) << 48) \
  73              		.loc 1 18 0
  74 003a 90F80180 		ldrb	r8, [r0, #1]	@ zero_extendqisi2
  75 003e 4FEA0847 		lsl	r7, r8, #16
  76 0042 2243     		orrs	r2, r2, r4
  77 0044 3B43     		orrs	r3, r3, r7
  19:..\sha512.c   ****   | (((uint64_t) (x[0])) << 56)
  78              		.loc 1 19 0
  79 0046 0678     		ldrb	r6, [r0]	@ zero_extendqisi2
  80 0048 3106     		lsls	r1, r6, #24
  81 004a 2046     		mov	r0, r4
  82              	.LVL1:
  20:..\sha512.c   ****   ;
  21:..\sha512.c   **** }
  83              		.loc 1 21 0
  84 004c 1043     		orrs	r0, r0, r2
  85 004e 1943     		orrs	r1, r1, r3
  86 0050 BDE8F003 		pop	{r4, r5, r6, r7, r8, r9}
  87              		.cfi_restore 9
  88              		.cfi_restore 8
  89              		.cfi_restore 7
  90              		.cfi_restore 6
  91              		.cfi_restore 5
  92              		.cfi_restore 4
  93              		.cfi_def_cfa_offset 0
ARM GAS  C:\Users\bogur\AppData\Local\Temp\ccFZ7DD2.s 			page 3


  94 0054 7047     		bx	lr
  95              		.cfi_endproc
  96              	.LFE0:
  97              		.size	load_bigendian, .-load_bigendian
  98 0056 00BF     		.section	.text.store_bigendian,"ax",%progbits
  99              		.align	2
 100              		.thumb
 101              		.thumb_func
 102              		.type	store_bigendian, %function
 103              	store_bigendian:
 104              	.LFB1:
  22:..\sha512.c   **** 
  23:..\sha512.c   **** static void store_bigendian(uint8_t *x,uint64_t u)
  24:..\sha512.c   **** {
 105              		.loc 1 24 0
 106              		.cfi_startproc
 107              		@ args = 0, pretend = 0, frame = 0
 108              		@ frame_needed = 0, uses_anonymous_args = 0
 109              		@ link register save eliminated.
 110              	.LVL2:
  25:..\sha512.c   ****   x[7] = u; u >>= 8;
 111              		.loc 1 25 0
 112 0000 C271     		strb	r2, [r0, #7]
 113 0002 120A     		lsrs	r2, r2, #8
 114              	.LVL3:
 115 0004 42EA0362 		orr	r2, r2, r3, lsl #24
 116 0008 190A     		lsrs	r1, r3, #8
 117              	.LVL4:
  26:..\sha512.c   ****   x[6] = u; u >>= 8;
 118              		.loc 1 26 0
 119 000a 8271     		strb	r2, [r0, #6]
 120 000c 120A     		lsrs	r2, r2, #8
 121              	.LVL5:
 122 000e 42EA0162 		orr	r2, r2, r1, lsl #24
 123 0012 190C     		lsrs	r1, r3, #16
 124              	.LVL6:
  27:..\sha512.c   ****   x[5] = u; u >>= 8;
 125              		.loc 1 27 0
 126 0014 4271     		strb	r2, [r0, #5]
 127 0016 120A     		lsrs	r2, r2, #8
 128              	.LVL7:
 129 0018 42EA0162 		orr	r2, r2, r1, lsl #24
 130 001c 1B0E     		lsrs	r3, r3, #24
 131              	.LVL8:
  28:..\sha512.c   ****   x[4] = u; u >>= 8;
 132              		.loc 1 28 0
 133 001e 0271     		strb	r2, [r0, #4]
 134 0020 120A     		lsrs	r2, r2, #8
 135              	.LVL9:
 136 0022 42EA0362 		orr	r2, r2, r3, lsl #24
 137              	.LVL10:
  29:..\sha512.c   ****   x[3] = u; u >>= 8;
 138              		.loc 1 29 0
 139 0026 C270     		strb	r2, [r0, #3]
 140 0028 130A     		lsrs	r3, r2, #8
 141              	.LVL11:
  30:..\sha512.c   ****   x[2] = u; u >>= 8;
ARM GAS  C:\Users\bogur\AppData\Local\Temp\ccFZ7DD2.s 			page 4


 142              		.loc 1 30 0
 143 002a 8370     		strb	r3, [r0, #2]
 144 002c 130C     		lsrs	r3, r2, #16
 145              	.LVL12:
  31:..\sha512.c   ****   x[1] = u; u >>= 8;
 146              		.loc 1 31 0
 147 002e 4370     		strb	r3, [r0, #1]
 148 0030 120E     		lsrs	r2, r2, #24
 149              	.LVL13:
  32:..\sha512.c   ****   x[0] = u;
 150              		.loc 1 32 0
 151 0032 0270     		strb	r2, [r0]
 152 0034 7047     		bx	lr
 153              		.cfi_endproc
 154              	.LFE1:
 155              		.size	store_bigendian, .-store_bigendian
 156 0036 00BF     		.section	.text.crypto_hashblocks_sha512,"ax",%progbits
 157              		.align	2
 158              		.thumb
 159              		.thumb_func
 160              		.type	crypto_hashblocks_sha512, %function
 161              	crypto_hashblocks_sha512:
 162              	.LFB2:
  33:..\sha512.c   **** }
  34:..\sha512.c   **** 
  35:..\sha512.c   **** #define SHR(x,c) ((x) >> (c))
  36:..\sha512.c   **** #define ROTR(x,c) (((x) >> (c)) | ((x) << (64 - (c))))
  37:..\sha512.c   **** 
  38:..\sha512.c   **** #define Ch(x,y,z) ((x & y) ^ (~x & z))
  39:..\sha512.c   **** #define Maj(x,y,z) ((x & y) ^ (x & z) ^ (y & z))
  40:..\sha512.c   **** #define Sigma0(x) (ROTR(x,28) ^ ROTR(x,34) ^ ROTR(x,39))
  41:..\sha512.c   **** #define Sigma1(x) (ROTR(x,14) ^ ROTR(x,18) ^ ROTR(x,41))
  42:..\sha512.c   **** #define sigma0(x) (ROTR(x, 1) ^ ROTR(x, 8) ^ SHR(x,7))
  43:..\sha512.c   **** #define sigma1(x) (ROTR(x,19) ^ ROTR(x,61) ^ SHR(x,6))
  44:..\sha512.c   **** 
  45:..\sha512.c   **** #define M(w0,w14,w9,w1) w0 = sigma1(w14) + w9 + sigma0(w1) + w0;
  46:..\sha512.c   **** 
  47:..\sha512.c   **** #define EXPAND \
  48:..\sha512.c   ****   M(w0 ,w14,w9 ,w1 ) \
  49:..\sha512.c   ****   M(w1 ,w15,w10,w2 ) \
  50:..\sha512.c   ****   M(w2 ,w0 ,w11,w3 ) \
  51:..\sha512.c   ****   M(w3 ,w1 ,w12,w4 ) \
  52:..\sha512.c   ****   M(w4 ,w2 ,w13,w5 ) \
  53:..\sha512.c   ****   M(w5 ,w3 ,w14,w6 ) \
  54:..\sha512.c   ****   M(w6 ,w4 ,w15,w7 ) \
  55:..\sha512.c   ****   M(w7 ,w5 ,w0 ,w8 ) \
  56:..\sha512.c   ****   M(w8 ,w6 ,w1 ,w9 ) \
  57:..\sha512.c   ****   M(w9 ,w7 ,w2 ,w10) \
  58:..\sha512.c   ****   M(w10,w8 ,w3 ,w11) \
  59:..\sha512.c   ****   M(w11,w9 ,w4 ,w12) \
  60:..\sha512.c   ****   M(w12,w10,w5 ,w13) \
  61:..\sha512.c   ****   M(w13,w11,w6 ,w14) \
  62:..\sha512.c   ****   M(w14,w12,w7 ,w15) \
  63:..\sha512.c   ****   M(w15,w13,w8 ,w0 )
  64:..\sha512.c   **** 
  65:..\sha512.c   **** #define F(w,k) \
  66:..\sha512.c   ****   T1 = h + Sigma1(e) + Ch(e,f,g) + k + w; \
ARM GAS  C:\Users\bogur\AppData\Local\Temp\ccFZ7DD2.s 			page 5


  67:..\sha512.c   ****   T2 = Sigma0(a) + Maj(a,b,c); \
  68:..\sha512.c   ****   h = g; \
  69:..\sha512.c   ****   g = f; \
  70:..\sha512.c   ****   f = e; \
  71:..\sha512.c   ****   e = d + T1; \
  72:..\sha512.c   ****   d = c; \
  73:..\sha512.c   ****   c = b; \
  74:..\sha512.c   ****   b = a; \
  75:..\sha512.c   ****   a = T1 + T2;
  76:..\sha512.c   **** 
  77:..\sha512.c   **** static int crypto_hashblocks_sha512(uint8_t *statebytes,const uint8_t *in,size_t inlen)
  78:..\sha512.c   **** {
 163              		.loc 1 78 0
 164              		.cfi_startproc
 165              		@ args = 0, pretend = 0, frame = 7240
 166              		@ frame_needed = 0, uses_anonymous_args = 0
 167              	.LVL14:
 168 0000 2DE9F04F 		push	{r4, r5, r6, r7, r8, r9, r10, fp, lr}
 169              		.cfi_def_cfa_offset 36
 170              		.cfi_offset 4, -36
 171              		.cfi_offset 5, -32
 172              		.cfi_offset 6, -28
 173              		.cfi_offset 7, -24
 174              		.cfi_offset 8, -20
 175              		.cfi_offset 9, -16
 176              		.cfi_offset 10, -12
 177              		.cfi_offset 11, -8
 178              		.cfi_offset 14, -4
 179 0004 ADF5E25D 		sub	sp, sp, #7232
 180              		.cfi_def_cfa_offset 7268
 181 0008 83B0     		sub	sp, sp, #12
 182              		.cfi_def_cfa_offset 7280
 183 000a 0446     		mov	r4, r0
 184 000c 0DF5E053 		add	r3, sp, #7168
 185 0010 0433     		adds	r3, r3, #4
 186 0012 1860     		str	r0, [r3]
 187 0014 CDF8E014 		str	r1, [sp, #1248]
 188 0018 CDF8E424 		str	r2, [sp, #1252]
  79:..\sha512.c   ****   uint64_t state[8];
  80:..\sha512.c   ****   uint64_t a;
  81:..\sha512.c   ****   uint64_t b;
  82:..\sha512.c   ****   uint64_t c;
  83:..\sha512.c   ****   uint64_t d;
  84:..\sha512.c   ****   uint64_t e;
  85:..\sha512.c   ****   uint64_t f;
  86:..\sha512.c   ****   uint64_t g;
  87:..\sha512.c   ****   uint64_t h;
  88:..\sha512.c   ****   uint64_t T1;
  89:..\sha512.c   ****   uint64_t T2;
  90:..\sha512.c   **** 
  91:..\sha512.c   ****   a = load_bigendian(statebytes +  0); state[0] = a;
 189              		.loc 1 91 0
 190 001c FFF7FEFF 		bl	load_bigendian
 191              	.LVL15:
 192 0020 0646     		mov	r6, r0
 193 0022 0F46     		mov	r7, r1
 194              	.LVL16:
ARM GAS  C:\Users\bogur\AppData\Local\Temp\ccFZ7DD2.s 			page 6


 195 0024 0246     		mov	r2, r0
 196 0026 0B46     		mov	r3, r1
 197 0028 0DF5E051 		add	r1, sp, #7168
 198 002c 0831     		adds	r1, r1, #8
 199 002e C1E90023 		strd	r2, [r1]
  92:..\sha512.c   ****   b = load_bigendian(statebytes +  8); state[1] = b;
 200              		.loc 1 92 0
 201 0032 2346     		mov	r3, r4
 202 0034 0833     		adds	r3, r3, #8
 203 0036 0DF5DF52 		add	r2, sp, #7136
 204 003a 0832     		adds	r2, r2, #8
 205 003c 1360     		str	r3, [r2]
 206 003e 1846     		mov	r0, r3
 207 0040 FFF7FEFF 		bl	load_bigendian
 208              	.LVL17:
 209 0044 0A46     		mov	r2, r1
 210 0046 0146     		mov	r1, r0
 211 0048 CDE90A12 		strd	r1, [sp, #40]
 212              	.LVL18:
 213 004c 0DF5E053 		add	r3, sp, #7168
 214 0050 1033     		adds	r3, r3, #16
 215 0052 C3E90012 		strd	r1, [r3]
  93:..\sha512.c   ****   c = load_bigendian(statebytes + 16); state[2] = c;
 216              		.loc 1 93 0
 217 0056 04F11003 		add	r3, r4, #16
 218 005a 0DF5DF52 		add	r2, sp, #7136
 219 005e 0C32     		adds	r2, r2, #12
 220 0060 1360     		str	r3, [r2]
 221 0062 1846     		mov	r0, r3
 222 0064 FFF7FEFF 		bl	load_bigendian
 223              	.LVL19:
 224 0068 0A46     		mov	r2, r1
 225 006a 0146     		mov	r1, r0
 226 006c CDE92212 		strd	r1, [sp, #136]
 227              	.LVL20:
 228 0070 0DF5E053 		add	r3, sp, #7168
 229 0074 1833     		adds	r3, r3, #24
 230 0076 C3E90012 		strd	r1, [r3]
  94:..\sha512.c   ****   d = load_bigendian(statebytes + 24); state[3] = d;
 231              		.loc 1 94 0
 232 007a 04F11803 		add	r3, r4, #24
 233 007e 0DF5DF52 		add	r2, sp, #7136
 234 0082 1032     		adds	r2, r2, #16
 235 0084 1360     		str	r3, [r2]
 236 0086 1846     		mov	r0, r3
 237 0088 FFF7FEFF 		bl	load_bigendian
 238              	.LVL21:
 239 008c 0A46     		mov	r2, r1
 240 008e 0146     		mov	r1, r0
 241 0090 CDE92412 		strd	r1, [sp, #144]
 242              	.LVL22:
 243 0094 0DF5E153 		add	r3, sp, #7200
 244 0098 C3E90012 		strd	r1, [r3]
  95:..\sha512.c   ****   e = load_bigendian(statebytes + 32); state[4] = e;
 245              		.loc 1 95 0
 246 009c 2346     		mov	r3, r4
 247 009e 2033     		adds	r3, r3, #32
ARM GAS  C:\Users\bogur\AppData\Local\Temp\ccFZ7DD2.s 			page 7


 248 00a0 0DF5DF52 		add	r2, sp, #7136
 249 00a4 1432     		adds	r2, r2, #20
 250 00a6 1360     		str	r3, [r2]
 251 00a8 1846     		mov	r0, r3
 252 00aa FFF7FEFF 		bl	load_bigendian
 253              	.LVL23:
 254 00ae 0A46     		mov	r2, r1
 255 00b0 0146     		mov	r1, r0
 256 00b2 CDE90212 		strd	r1, [sp, #8]
 257              	.LVL24:
 258 00b6 0DF5E153 		add	r3, sp, #7200
 259 00ba 0833     		adds	r3, r3, #8
 260 00bc C3E90012 		strd	r1, [r3]
  96:..\sha512.c   ****   f = load_bigendian(statebytes + 40); state[5] = f;
 261              		.loc 1 96 0
 262 00c0 04F12803 		add	r3, r4, #40
 263 00c4 0DF5DF52 		add	r2, sp, #7136
 264 00c8 1832     		adds	r2, r2, #24
 265 00ca 1360     		str	r3, [r2]
 266 00cc 1846     		mov	r0, r3
 267 00ce FFF7FEFF 		bl	load_bigendian
 268              	.LVL25:
 269 00d2 8246     		mov	r10, r0
 270 00d4 8B46     		mov	fp, r1
 271              	.LVL26:
 272 00d6 0DF5E153 		add	r3, sp, #7200
 273 00da 1033     		adds	r3, r3, #16
 274 00dc C3E900AB 		strd	r10, [r3]
  97:..\sha512.c   ****   g = load_bigendian(statebytes + 48); state[6] = g;
 275              		.loc 1 97 0
 276 00e0 04F13003 		add	r3, r4, #48
 277 00e4 0DF5DF52 		add	r2, sp, #7136
 278 00e8 1C32     		adds	r2, r2, #28
 279 00ea 1360     		str	r3, [r2]
 280 00ec 1846     		mov	r0, r3
 281 00ee FFF7FEFF 		bl	load_bigendian
 282              	.LVL27:
 283 00f2 8046     		mov	r8, r0
 284 00f4 8946     		mov	r9, r1
 285              	.LVL28:
 286 00f6 0DF5E153 		add	r3, sp, #7200
 287 00fa 1833     		adds	r3, r3, #24
 288 00fc C3E90089 		strd	r8, [r3]
  98:..\sha512.c   ****   h = load_bigendian(statebytes + 56); state[7] = h;
 289              		.loc 1 98 0
 290 0100 04F13803 		add	r3, r4, #56
 291 0104 0DF5E052 		add	r2, sp, #7168
 292 0108 1360     		str	r3, [r2]
 293 010a 1846     		mov	r0, r3
 294 010c FFF7FEFF 		bl	load_bigendian
 295              	.LVL29:
 296 0110 0446     		mov	r4, r0
 297              	.LVL30:
 298 0112 0D46     		mov	r5, r1
 299              	.LVL31:
 300 0114 0DF5E253 		add	r3, sp, #7232
 301 0118 C3E90045 		strd	r4, [r3]
ARM GAS  C:\Users\bogur\AppData\Local\Temp\ccFZ7DD2.s 			page 8


 302 011c CDE90067 		strd	r6, [sp]
 303 0120 CDE90CAB 		strd	r10, [sp, #48]
 304 0124 CDE90689 		strd	r8, [sp, #24]
  99:..\sha512.c   **** 
 100:..\sha512.c   ****   while (inlen >= 128) {
 305              		.loc 1 100 0
 306 0128 0CF001BB 		b	.L5
 307              	.LVL32:
 308              	.L6:
 309              	.LBB2:
 101:..\sha512.c   ****     uint64_t w0  = load_bigendian(in +   0);
 310              		.loc 1 101 0
 311 012c DDF8E064 		ldr	r6, [sp, #1248]
 312 0130 3046     		mov	r0, r6
 313 0132 FFF7FEFF 		bl	load_bigendian
 314              	.LVL33:
 315 0136 0DF59B63 		add	r3, sp, #1240
 316 013a C3E90001 		strd	r0, [r3]
 317              	.LVL34:
 102:..\sha512.c   ****     uint64_t w1  = load_bigendian(in +   8);
 318              		.loc 1 102 0
 319 013e 06F10800 		add	r0, r6, #8
 320              	.LVL35:
 321 0142 FFF7FEFF 		bl	load_bigendian
 322              	.LVL36:
 323 0146 CDE90E01 		strd	r0, [sp, #56]
 324              	.LVL37:
 103:..\sha512.c   ****     uint64_t w2  = load_bigendian(in +  16);
 325              		.loc 1 103 0
 326 014a 06F11000 		add	r0, r6, #16
 327              	.LVL38:
 328 014e FFF7FEFF 		bl	load_bigendian
 329              	.LVL39:
 330 0152 CDE91A01 		strd	r0, [sp, #104]
 331              	.LVL40:
 104:..\sha512.c   ****     uint64_t w3  = load_bigendian(in +  24);
 332              		.loc 1 104 0
 333 0156 06F11800 		add	r0, r6, #24
 334              	.LVL41:
 335 015a FFF7FEFF 		bl	load_bigendian
 336              	.LVL42:
 337 015e CDE91C01 		strd	r0, [sp, #112]
 338              	.LVL43:
 105:..\sha512.c   ****     uint64_t w4  = load_bigendian(in +  32);
 339              		.loc 1 105 0
 340 0162 06F12000 		add	r0, r6, #32
 341              	.LVL44:
 342 0166 FFF7FEFF 		bl	load_bigendian
 343              	.LVL45:
 344 016a CDE92601 		strd	r0, [sp, #152]
 345              	.LVL46:
 106:..\sha512.c   ****     uint64_t w5  = load_bigendian(in +  40);
 346              		.loc 1 106 0
 347 016e 06F12800 		add	r0, r6, #40
 348              	.LVL47:
 349 0172 FFF7FEFF 		bl	load_bigendian
 350              	.LVL48:
ARM GAS  C:\Users\bogur\AppData\Local\Temp\ccFZ7DD2.s 			page 9


 351 0176 CDE92801 		strd	r0, [sp, #160]
 352              	.LVL49:
 107:..\sha512.c   ****     uint64_t w6  = load_bigendian(in +  48);
 353              		.loc 1 107 0
 354 017a 06F13000 		add	r0, r6, #48
 355              	.LVL50:
 356 017e FFF7FEFF 		bl	load_bigendian
 357              	.LVL51:
 358 0182 CDE92A01 		strd	r0, [sp, #168]
 359              	.LVL52:
 108:..\sha512.c   ****     uint64_t w7  = load_bigendian(in +  56);
 360              		.loc 1 108 0
 361 0186 06F13800 		add	r0, r6, #56
 362              	.LVL53:
 363 018a FFF7FEFF 		bl	load_bigendian
 364              	.LVL54:
 365 018e CDE92C01 		strd	r0, [sp, #176]
 366              	.LVL55:
 109:..\sha512.c   ****     uint64_t w8  = load_bigendian(in +  64);
 367              		.loc 1 109 0
 368 0192 06F14000 		add	r0, r6, #64
 369              	.LVL56:
 370 0196 FFF7FEFF 		bl	load_bigendian
 371              	.LVL57:
 372 019a CDE92E01 		strd	r0, [sp, #184]
 373              	.LVL58:
 110:..\sha512.c   ****     uint64_t w9  = load_bigendian(in +  72);
 374              		.loc 1 110 0
 375 019e 06F14800 		add	r0, r6, #72
 376              	.LVL59:
 377 01a2 FFF7FEFF 		bl	load_bigendian
 378              	.LVL60:
 379 01a6 CDE91001 		strd	r0, [sp, #64]
 380              	.LVL61:
 111:..\sha512.c   ****     uint64_t w10 = load_bigendian(in +  80);
 381              		.loc 1 111 0
 382 01aa 06F15000 		add	r0, r6, #80
 383              	.LVL62:
 384 01ae FFF7FEFF 		bl	load_bigendian
 385              	.LVL63:
 386 01b2 CDE91201 		strd	r0, [sp, #72]
 387              	.LVL64:
 112:..\sha512.c   ****     uint64_t w11 = load_bigendian(in +  88);
 388              		.loc 1 112 0
 389 01b6 06F15800 		add	r0, r6, #88
 390              	.LVL65:
 391 01ba FFF7FEFF 		bl	load_bigendian
 392              	.LVL66:
 393 01be CDE91401 		strd	r0, [sp, #80]
 394              	.LVL67:
 113:..\sha512.c   ****     uint64_t w12 = load_bigendian(in +  96);
 395              		.loc 1 113 0
 396 01c2 06F16000 		add	r0, r6, #96
 397              	.LVL68:
 398 01c6 FFF7FEFF 		bl	load_bigendian
 399              	.LVL69:
 400 01ca CDE91601 		strd	r0, [sp, #88]
ARM GAS  C:\Users\bogur\AppData\Local\Temp\ccFZ7DD2.s 			page 10


 401              	.LVL70:
 114:..\sha512.c   ****     uint64_t w13 = load_bigendian(in + 104);
 402              		.loc 1 114 0
 403 01ce 06F16800 		add	r0, r6, #104
 404              	.LVL71:
 405 01d2 FFF7FEFF 		bl	load_bigendian
 406              	.LVL72:
 407 01d6 CDE91801 		strd	r0, [sp, #96]
 408              	.LVL73:
 115:..\sha512.c   ****     uint64_t w14 = load_bigendian(in + 112);
 409              		.loc 1 115 0
 410 01da 06F17000 		add	r0, r6, #112
 411              	.LVL74:
 412 01de FFF7FEFF 		bl	load_bigendian
 413              	.LVL75:
 414 01e2 CDE91E01 		strd	r0, [sp, #120]
 415              	.LVL76:
 116:..\sha512.c   ****     uint64_t w15 = load_bigendian(in + 120);
 416              		.loc 1 116 0
 417 01e6 CDF8E064 		str	r6, [sp, #1248]
 418              	.LVL77:
 419 01ea 06F17800 		add	r0, r6, #120
 420              	.LVL78:
 421 01ee FFF7FEFF 		bl	load_bigendian
 422              	.LVL79:
 423 01f2 CDE92001 		strd	r0, [sp, #128]
 424              	.LVL80:
 117:..\sha512.c   **** 
 118:..\sha512.c   ****     F(w0 ,0x428a2f98d728ae22ULL)
 425              		.loc 1 118 0
 426 01f6 DDE902BC 		ldrd	fp, [sp, #8]
 427 01fa 5B46     		mov	r3, fp
 428 01fc 9B0B     		lsrs	r3, r3, #14
 429 01fe 6246     		mov	r2, ip
 430 0200 43EA8C43 		orr	r3, r3, ip, lsl #18
 431 0204 CDF8E834 		str	r3, [sp, #1256]
 432 0208 930B     		lsrs	r3, r2, #14
 433 020a 5A46     		mov	r2, fp
 434 020c 43EA8B43 		orr	r3, r3, fp, lsl #18
 435 0210 CDF8EC34 		str	r3, [sp, #1260]
 436 0214 930C     		lsrs	r3, r2, #18
 437 0216 6246     		mov	r2, ip
 438 0218 43EA8C33 		orr	r3, r3, ip, lsl #14
 439 021c CDF8F034 		str	r3, [sp, #1264]
 440 0220 930C     		lsrs	r3, r2, #18
 441 0222 43EA8B33 		orr	r3, r3, fp, lsl #14
 442 0226 CDF8F434 		str	r3, [sp, #1268]
 443 022a 0DF59D63 		add	r3, sp, #1256
 444 022e D3E90067 		ldrd	r6, [r3]
 445 0232 0DF59E63 		add	r3, sp, #1264
 446 0236 D3E90089 		ldrd	r8, [r3]
 447 023a 86EA0806 		eor	r6, r6, r8
 448 023e 87EA0907 		eor	r7, r7, r9
 449 0242 3246     		mov	r2, r6
 450 0244 3B46     		mov	r3, r7
 451 0246 6146     		mov	r1, ip
 452 0248 C905     		lsls	r1, r1, #23
ARM GAS  C:\Users\bogur\AppData\Local\Temp\ccFZ7DD2.s 			page 11


 453 024a 5846     		mov	r0, fp
 454              	.LVL81:
 455 024c 41EA5B26 		orr	r6, r1, fp, lsr #9
 456 0250 CDF8FC64 		str	r6, [sp, #1276]
 457 0254 C105     		lsls	r1, r0, #23
 458 0256 6046     		mov	r0, ip
 459 0258 41EA5C26 		orr	r6, r1, ip, lsr #9
 460 025c CDF8F864 		str	r6, [sp, #1272]
 461 0260 0DF59F61 		add	r1, sp, #1272
 462 0264 D1E90067 		ldrd	r6, [r1]
 463 0268 5640     		eors	r6, r6, r2
 464 026a 5F40     		eors	r7, r7, r3
 465 026c A419     		adds	r4, r4, r6
 466              	.LVL82:
 467 026e 7D41     		adcs	r5, r5, r7
 468 0270 5E46     		mov	r6, fp
 469 0272 DDE90C23 		ldrd	r2, [sp, #48]
 470 0276 3240     		ands	r2, r2, r6
 471 0278 0340     		ands	r3, r3, r0
 472 027a DDE9069A 		ldrd	r9, [sp, #24]
 473 027e 29EA0B09 		bic	r9, r9, fp
 474 0282 2AEA0C0A 		bic	r10, r10, ip
 475 0286 4F46     		mov	r7, r9
 476 0288 5146     		mov	r1, r10
 477 028a 7A40     		eors	r2, r2, r7
 478 028c 4B40     		eors	r3, r3, r1
 479 028e A418     		adds	r4, r4, r2
 480 0290 5D41     		adcs	r5, r5, r3
 481 0292 0DF59B63 		add	r3, sp, #1240
 482              	.LVL83:
 483 0296 D3E90023 		ldrd	r2, [r3]
 484 029a 1219     		adds	r2, r2, r4
 485 029c 6B41     		adcs	r3, r3, r5
 486              	.LVL84:
 487 029e 1446     		mov	r4, r2
 488 02a0 1D46     		mov	r5, r3
 489 02a2 0FF61453 		adr	r3, .L8
 490 02a6 D3E90023 		ldrd	r2, [r3]
 491 02aa A018     		adds	r0, r4, r2
 492 02ac 45EB0301 		adc	r1, r5, r3
 493 02b0 CDE90401 		strd	r0, [sp, #16]
 494              	.LVL85:
 495 02b4 DDE90045 		ldrd	r4, [sp]
 496 02b8 230F     		lsrs	r3, r4, #28
 497 02ba 43EA0513 		orr	r3, r3, r5, lsl #4
 498 02be CDF80035 		str	r3, [sp, #1280]
 499 02c2 2B0F     		lsrs	r3, r5, #28
 500 02c4 43EA0413 		orr	r3, r3, r4, lsl #4
 501 02c8 CDF80435 		str	r3, [sp, #1284]
 502 02cc AB07     		lsls	r3, r5, #30
 503 02ce 43EA9403 		orr	r3, r3, r4, lsr #2
 504 02d2 CDF80C35 		str	r3, [sp, #1292]
 505 02d6 A307     		lsls	r3, r4, #30
 506 02d8 43EA9503 		orr	r3, r3, r5, lsr #2
 507 02dc CDF80835 		str	r3, [sp, #1288]
 508 02e0 0DF5A063 		add	r3, sp, #1280
 509 02e4 D3E90067 		ldrd	r6, [r3]
ARM GAS  C:\Users\bogur\AppData\Local\Temp\ccFZ7DD2.s 			page 12


 510 02e8 0DF5A163 		add	r3, sp, #1288
 511 02ec D3E90089 		ldrd	r8, [r3]
 512 02f0 86EA0806 		eor	r6, r6, r8
 513 02f4 87EA0907 		eor	r7, r7, r9
 514 02f8 3046     		mov	r0, r6
 515              	.LVL86:
 516 02fa 3946     		mov	r1, r7
 517 02fc 6B06     		lsls	r3, r5, #25
 518 02fe 43EAD413 		orr	r3, r3, r4, lsr #7
 519 0302 CDF81435 		str	r3, [sp, #1300]
 520 0306 6306     		lsls	r3, r4, #25
 521 0308 43EAD513 		orr	r3, r3, r5, lsr #7
 522 030c CDF81035 		str	r3, [sp, #1296]
 523 0310 0DF5A263 		add	r3, sp, #1296
 524 0314 D3E90067 		ldrd	r6, [r3]
 525 0318 4640     		eors	r6, r6, r0
 526 031a 4F40     		eors	r7, r7, r1
 527 031c 3046     		mov	r0, r6
 528 031e 3946     		mov	r1, r7
 529 0320 DDE90A89 		ldrd	r8, [sp, #40]
 530 0324 4246     		mov	r2, r8
 531 0326 4B46     		mov	r3, r9
 532 0328 2E46     		mov	r6, r5
 533 032a 2546     		mov	r5, r4
 534 032c 1540     		ands	r5, r5, r2
 535 032e 1E40     		ands	r6, r6, r3
 536 0330 3346     		mov	r3, r6
 537 0332 2E46     		mov	r6, r5
 538 0334 1F46     		mov	r7, r3
 539 0336 DDE922BC 		ldrd	fp, [sp, #136]
 540 033a 5A46     		mov	r2, fp
 541 033c 6346     		mov	r3, ip
 542 033e DDE90045 		ldrd	r4, [sp]
 543 0342 1440     		ands	r4, r4, r2
 544 0344 1D40     		ands	r5, r5, r3
 545 0346 CDE92267 		strd	r6, [sp, #136]
 546              	.LVL87:
 547 034a 6640     		eors	r6, r6, r4
 548 034c 6F40     		eors	r7, r7, r5
 549 034e 3B46     		mov	r3, r7
 550 0350 4746     		mov	r7, r8
 551 0352 07EA0B07 		and	r7, r7, fp
 552 0356 09EA0C08 		and	r8, r9, ip
 553 035a 7740     		eors	r7, r7, r6
 554 035c 88EA0308 		eor	r8, r8, r3
 555 0360 3A18     		adds	r2, r7, r0
 556 0362 48EB0103 		adc	r3, r8, r1
 557              	.LVL88:
 558 0366 DDE9249A 		ldrd	r9, [sp, #144]
 559 036a DDE90401 		ldrd	r0, [sp, #16]
 560 036e 10EB0900 		adds	r0, r0, r9
 561 0372 41EB0A01 		adc	r1, r1, r10
 562 0376 8146     		mov	r9, r0
 563 0378 8A46     		mov	r10, r1
 564 037a 0546     		mov	r5, r0
 565 037c 0E46     		mov	r6, r1
 566              	.LVL89:
ARM GAS  C:\Users\bogur\AppData\Local\Temp\ccFZ7DD2.s 			page 13


 567 037e DDE90401 		ldrd	r0, [sp, #16]
 568 0382 8018     		adds	r0, r0, r2
 569 0384 5941     		adcs	r1, r1, r3
 570 0386 CDE90401 		strd	r0, [sp, #16]
 571              	.LVL90:
 119:..\sha512.c   ****     F(w1 ,0x7137449123ef65cdULL)
 572              		.loc 1 119 0
 573 038a AB0B     		lsrs	r3, r5, #14
 574 038c 43EA8A43 		orr	r3, r3, r10, lsl #18
 575 0390 CDF81835 		str	r3, [sp, #1304]
 576 0394 B30B     		lsrs	r3, r6, #14
 577 0396 43EA8943 		orr	r3, r3, r9, lsl #18
 578 039a CDF81C35 		str	r3, [sp, #1308]
 579 039e AB0C     		lsrs	r3, r5, #18
 580 03a0 43EA8A33 		orr	r3, r3, r10, lsl #14
 581 03a4 CDF82035 		str	r3, [sp, #1312]
 582 03a8 B30C     		lsrs	r3, r6, #18
 583 03aa 43EA8933 		orr	r3, r3, r9, lsl #14
 584 03ae CDF82435 		str	r3, [sp, #1316]
 585 03b2 0DF5A363 		add	r3, sp, #1304
 586 03b6 D3E9009A 		ldrd	r9, [r3]
 587 03ba 0DF5A463 		add	r3, sp, #1312
 588 03be D3E90034 		ldrd	r3, [r3]
 589 03c2 89EA0309 		eor	r9, r9, r3
 590 03c6 8AEA040A 		eor	r10, r10, r4
 591 03ca 4A46     		mov	r2, r9
 592              	.LVL91:
 593 03cc 5346     		mov	r3, r10
 594 03ce F105     		lsls	r1, r6, #23
 595 03d0 41EA552E 		orr	lr, r1, r5, lsr #9
 596 03d4 CDF82CE5 		str	lr, [sp, #1324]
 597 03d8 E905     		lsls	r1, r5, #23
 598 03da CDE90856 		strd	r5, [sp, #32]
 599 03de 41EA562E 		orr	lr, r1, r6, lsr #9
 600 03e2 CDF828E5 		str	lr, [sp, #1320]
 601 03e6 0DF5A561 		add	r1, sp, #1320
 602 03ea D1E9009A 		ldrd	r9, [r1]
 603 03ee 89EA0209 		eor	r9, r9, r2
 604 03f2 8AEA030A 		eor	r10, r10, r3
 605 03f6 4A46     		mov	r2, r9
 606 03f8 DDE90689 		ldrd	r8, [sp, #24]
 607 03fc 18EB0208 		adds	r8, r8, r2
 608 0400 49EB0A09 		adc	r9, r9, r10
 609 0404 DDE90256 		ldrd	r5, [sp, #8]
 610              	.LVL92:
 611 0408 DDE90801 		ldrd	r0, [sp, #32]
 612              	.LVL93:
 613 040c 0C46     		mov	r4, r1
 614 040e 0540     		ands	r5, r5, r0
 615 0410 0E40     		ands	r6, r6, r1
 616 0412 2A46     		mov	r2, r5
 617 0414 3346     		mov	r3, r6
 618 0416 0546     		mov	r5, r0
 619 0418 DDE90C01 		ldrd	r0, [sp, #48]
 620 041c 20EA0500 		bic	r0, r0, r5
 621 0420 21EA0401 		bic	r1, r1, r4
 622 0424 4240     		eors	r2, r2, r0
ARM GAS  C:\Users\bogur\AppData\Local\Temp\ccFZ7DD2.s 			page 14


 623 0426 4B40     		eors	r3, r3, r1
 624 0428 18EB0208 		adds	r8, r8, r2
 625 042c 49EB0309 		adc	r9, r9, r3
 626 0430 DDE90E34 		ldrd	r3, [sp, #56]
 627 0434 13EB0803 		adds	r3, r3, r8
 628 0438 44EB0904 		adc	r4, r4, r9
 629 043c 0FF68031 		adr	r1, .L8+8
 630 0440 D1E90001 		ldrd	r0, [r1]
 631 0444 C018     		adds	r0, r0, r3
 632 0446 6141     		adcs	r1, r1, r4
 633              	.LVL94:
 634 0448 DDE90489 		ldrd	r8, [sp, #16]
 635 044c 4346     		mov	r3, r8
 636 044e 1B0F     		lsrs	r3, r3, #28
 637 0450 4C46     		mov	r4, r9
 638 0452 43EA091E 		orr	lr, r3, r9, lsl #4
 639 0456 CDF830E5 		str	lr, [sp, #1328]
 640 045a 230F     		lsrs	r3, r4, #28
 641 045c 4446     		mov	r4, r8
 642 045e 43EA081E 		orr	lr, r3, r8, lsl #4
 643 0462 CDF834E5 		str	lr, [sp, #1332]
 644 0466 4B46     		mov	r3, r9
 645 0468 9B07     		lsls	r3, r3, #30
 646 046a 43EA980E 		orr	lr, r3, r8, lsr #2
 647 046e CDF83CE5 		str	lr, [sp, #1340]
 648 0472 A307     		lsls	r3, r4, #30
 649 0474 43EA990E 		orr	lr, r3, r9, lsr #2
 650 0478 CDF838E5 		str	lr, [sp, #1336]
 651 047c 0DF5A663 		add	r3, sp, #1328
 652 0480 D3E90034 		ldrd	r3, [r3]
 653 0484 0DF5A762 		add	r2, sp, #1336
 654 0488 D2E90056 		ldrd	r5, [r2]
 655 048c 6B40     		eors	r3, r3, r5
 656 048e 7440     		eors	r4, r4, r6
 657 0490 2546     		mov	r5, r4
 658 0492 1C46     		mov	r4, r3
 659 0494 4B46     		mov	r3, r9
 660 0496 5B06     		lsls	r3, r3, #25
 661 0498 4246     		mov	r2, r8
 662 049a 43EAD81E 		orr	lr, r3, r8, lsr #7
 663 049e CDF844E5 		str	lr, [sp, #1348]
 664 04a2 5306     		lsls	r3, r2, #25
 665 04a4 43EAD91E 		orr	lr, r3, r9, lsr #7
 666 04a8 CDF840E5 		str	lr, [sp, #1344]
 667 04ac 0DF5A863 		add	r3, sp, #1344
 668 04b0 D3E90067 		ldrd	r6, [r3]
 669 04b4 6640     		eors	r6, r6, r4
 670 04b6 6F40     		eors	r7, r7, r5
 671 04b8 3446     		mov	r4, r6
 672 04ba 3D46     		mov	r5, r7
 673 04bc DDE90A67 		ldrd	r6, [sp, #40]
 674 04c0 DDE90023 		ldrd	r2, [sp]
 675 04c4 7240     		eors	r2, r2, r6
 676 04c6 7B40     		eors	r3, r3, r7
 677 04c8 08EA0208 		and	r8, r8, r2
 678 04cc 09EA0309 		and	r9, r9, r3
 679 04d0 4246     		mov	r2, r8
ARM GAS  C:\Users\bogur\AppData\Local\Temp\ccFZ7DD2.s 			page 15


 680 04d2 4B46     		mov	r3, r9
 681 04d4 DDE92267 		ldrd	r6, [sp, #136]
 682 04d8 5640     		eors	r6, r6, r2
 683 04da 5F40     		eors	r7, r7, r3
 684 04dc 14EB0608 		adds	r8, r4, r6
 685 04e0 45EB0709 		adc	r9, r5, r7
 686              	.LVL95:
 687 04e4 1BEB000B 		adds	fp, fp, r0
 688              	.LVL96:
 689 04e8 4CEB010C 		adc	ip, ip, r1
 690 04ec 5D46     		mov	r5, fp
 691 04ee 6646     		mov	r6, ip
 692              	.LVL97:
 693 04f0 18EB0003 		adds	r3, r8, r0
 694 04f4 49EB0104 		adc	r4, r9, r1
 695 04f8 CDE90634 		strd	r3, [sp, #24]
 696              	.LVL98:
 120:..\sha512.c   ****     F(w2 ,0xb5c0fbcfec4d3b2fULL)
 697              		.loc 1 120 0
 698 04fc AB0B     		lsrs	r3, r5, #14
 699              	.LVL99:
 700 04fe 43EA8C4E 		orr	lr, r3, ip, lsl #18
 701 0502 CDF848E5 		str	lr, [sp, #1352]
 702 0506 B30B     		lsrs	r3, r6, #14
 703 0508 43EA8B4E 		orr	lr, r3, fp, lsl #18
 704 050c CDF84CE5 		str	lr, [sp, #1356]
 705 0510 AB0C     		lsrs	r3, r5, #18
 706 0512 43EA8C3E 		orr	lr, r3, ip, lsl #14
 707 0516 CDF850E5 		str	lr, [sp, #1360]
 708 051a B30C     		lsrs	r3, r6, #18
 709 051c 43EA8B3E 		orr	lr, r3, fp, lsl #14
 710 0520 CDF854E5 		str	lr, [sp, #1364]
 711 0524 0DF5A963 		add	r3, sp, #1352
 712 0528 D3E900BC 		ldrd	fp, [r3]
 713 052c 0DF5AA63 		add	r3, sp, #1360
 714 0530 D3E9009A 		ldrd	r9, [r3]
 715 0534 8BEA090B 		eor	fp, fp, r9
 716 0538 8CEA0A0C 		eor	ip, ip, r10
 717 053c 5A46     		mov	r2, fp
 718 053e 6346     		mov	r3, ip
 719 0540 F105     		lsls	r1, r6, #23
 720 0542 41EA552E 		orr	lr, r1, r5, lsr #9
 721 0546 CDF85CE5 		str	lr, [sp, #1372]
 722 054a E905     		lsls	r1, r5, #23
 723 054c 41EA562E 		orr	lr, r1, r6, lsr #9
 724 0550 CDF858E5 		str	lr, [sp, #1368]
 725 0554 0DF5AB61 		add	r1, sp, #1368
 726 0558 D1E900BC 		ldrd	fp, [r1]
 727 055c 8BEA020B 		eor	fp, fp, r2
 728 0560 8CEA030C 		eor	ip, ip, r3
 729 0564 5A46     		mov	r2, fp
 730 0566 DDE90CAB 		ldrd	r10, [sp, #48]
 731 056a 1AEB020A 		adds	r10, r10, r2
 732 056e 4BEB0C0B 		adc	fp, fp, ip
 733 0572 DDE90878 		ldrd	r7, [sp, #32]
 734 0576 2F40     		ands	r7, r7, r5
 735 0578 08EA0608 		and	r8, r8, r6
ARM GAS  C:\Users\bogur\AppData\Local\Temp\ccFZ7DD2.s 			page 16


 736              	.LVL100:
 737 057c 3A46     		mov	r2, r7
 738 057e 4346     		mov	r3, r8
 739 0580 DDE90278 		ldrd	r7, [sp, #8]
 740 0584 CDE90C56 		strd	r5, [sp, #48]
 741              	.LVL101:
 742 0588 27EA0507 		bic	r7, r7, r5
 743 058c 28EA0608 		bic	r8, r8, r6
 744 0590 4146     		mov	r1, r8
 745 0592 7A40     		eors	r2, r2, r7
 746 0594 4B40     		eors	r3, r3, r1
 747 0596 1AEB020A 		adds	r10, r10, r2
 748 059a 4BEB030B 		adc	fp, fp, r3
 749 059e DDE91A34 		ldrd	r3, [sp, #104]
 750 05a2 13EB0A03 		adds	r3, r3, r10
 751 05a6 44EB0B04 		adc	r4, r4, fp
 752 05aa 9A46     		mov	r10, r3
 753 05ac 0FF61823 		adr	r3, .L8+16
 754 05b0 D3E90023 		ldrd	r2, [r3]
 755 05b4 1AEB020A 		adds	r10, r10, r2
 756 05b8 44EB030B 		adc	fp, r4, r3
 757              	.LVL102:
 758 05bc DDE90689 		ldrd	r8, [sp, #24]
 759 05c0 4346     		mov	r3, r8
 760 05c2 1B0F     		lsrs	r3, r3, #28
 761 05c4 4A46     		mov	r2, r9
 762 05c6 43EA091E 		orr	lr, r3, r9, lsl #4
 763 05ca CDF860E5 		str	lr, [sp, #1376]
 764 05ce 130F     		lsrs	r3, r2, #28
 765 05d0 4246     		mov	r2, r8
 766 05d2 43EA081E 		orr	lr, r3, r8, lsl #4
 767 05d6 CDF864E5 		str	lr, [sp, #1380]
 768 05da 4B46     		mov	r3, r9
 769 05dc 9B07     		lsls	r3, r3, #30
 770 05de 43EA980E 		orr	lr, r3, r8, lsr #2
 771 05e2 CDF86CE5 		str	lr, [sp, #1388]
 772 05e6 9307     		lsls	r3, r2, #30
 773 05e8 43EA990E 		orr	lr, r3, r9, lsr #2
 774 05ec CDF868E5 		str	lr, [sp, #1384]
 775 05f0 0DF5AC63 		add	r3, sp, #1376
 776 05f4 D3E90034 		ldrd	r3, [r3]
 777 05f8 0DF5AD62 		add	r2, sp, #1384
 778 05fc D2E90067 		ldrd	r6, [r2]
 779 0600 7340     		eors	r3, r3, r6
 780 0602 7C40     		eors	r4, r4, r7
 781 0604 1846     		mov	r0, r3
 782 0606 2146     		mov	r1, r4
 783 0608 4B46     		mov	r3, r9
 784 060a 5B06     		lsls	r3, r3, #25
 785 060c 4646     		mov	r6, r8
 786 060e 4F46     		mov	r7, r9
 787 0610 43EAD81E 		orr	lr, r3, r8, lsr #7
 788 0614 CDF874E5 		str	lr, [sp, #1396]
 789 0618 7306     		lsls	r3, r6, #25
 790 061a 43EAD91E 		orr	lr, r3, r9, lsr #7
 791 061e CDF870E5 		str	lr, [sp, #1392]
 792 0622 0DF5AE63 		add	r3, sp, #1392
ARM GAS  C:\Users\bogur\AppData\Local\Temp\ccFZ7DD2.s 			page 17


 793 0626 D3E90034 		ldrd	r3, [r3]
 794 062a 4340     		eors	r3, r3, r0
 795 062c 4C40     		eors	r4, r4, r1
 796 062e 1846     		mov	r0, r3
 797 0630 2146     		mov	r1, r4
 798 0632 DDE90445 		ldrd	r4, [sp, #16]
 799 0636 DDE90023 		ldrd	r2, [sp]
 800 063a 6240     		eors	r2, r2, r4
 801 063c 6B40     		eors	r3, r3, r5
 802 063e 1640     		ands	r6, r6, r2
 803 0640 1F40     		ands	r7, r7, r3
 804 0642 3246     		mov	r2, r6
 805 0644 3B46     		mov	r3, r7
 806 0646 A046     		mov	r8, r4
 807 0648 A946     		mov	r9, r5
 808 064a DDE90045 		ldrd	r4, [sp]
 809 064e 04EA0804 		and	r4, r4, r8
 810 0652 05EA0905 		and	r5, r5, r9
 811              	.LVL103:
 812 0656 6240     		eors	r2, r2, r4
 813 0658 6B40     		eors	r3, r3, r5
 814 065a 1218     		adds	r2, r2, r0
 815 065c 4B41     		adcs	r3, r3, r1
 816              	.LVL104:
 817 065e DDE90A67 		ldrd	r6, [sp, #40]
 818 0662 16EB0A06 		adds	r6, r6, r10
 819 0666 47EB0B07 		adc	r7, r7, fp
 820              	.LVL105:
 821 066a 1AEB020A 		adds	r10, r10, r2
 822              	.LVL106:
 823 066e 4BEB030B 		adc	fp, fp, r3
 824              	.LVL107:
 121:..\sha512.c   ****     F(w3 ,0xe9b5dba58189dbbcULL)
 825              		.loc 1 121 0
 826 0672 B30B     		lsrs	r3, r6, #14
 827 0674 43EA874E 		orr	lr, r3, r7, lsl #18
 828 0678 CDF878E5 		str	lr, [sp, #1400]
 829 067c BB0B     		lsrs	r3, r7, #14
 830 067e 43EA864E 		orr	lr, r3, r6, lsl #18
 831 0682 CDF87CE5 		str	lr, [sp, #1404]
 832 0686 B30C     		lsrs	r3, r6, #18
 833 0688 43EA873E 		orr	lr, r3, r7, lsl #14
 834 068c CDF880E5 		str	lr, [sp, #1408]
 835 0690 BB0C     		lsrs	r3, r7, #18
 836 0692 43EA863E 		orr	lr, r3, r6, lsl #14
 837 0696 CDF884E5 		str	lr, [sp, #1412]
 838 069a 0DF5AF63 		add	r3, sp, #1400
 839 069e D3E90034 		ldrd	r3, [r3]
 840 06a2 0DF5B062 		add	r2, sp, #1408
 841              	.LVL108:
 842 06a6 D2E90089 		ldrd	r8, [r2]
 843 06aa 83EA0803 		eor	r3, r3, r8
 844 06ae 84EA0904 		eor	r4, r4, r9
 845 06b2 2546     		mov	r5, r4
 846 06b4 1C46     		mov	r4, r3
 847 06b6 FB05     		lsls	r3, r7, #23
 848 06b8 43EA562E 		orr	lr, r3, r6, lsr #9
ARM GAS  C:\Users\bogur\AppData\Local\Temp\ccFZ7DD2.s 			page 18


 849 06bc CDF88CE5 		str	lr, [sp, #1420]
 850 06c0 F305     		lsls	r3, r6, #23
 851 06c2 43EA572E 		orr	lr, r3, r7, lsr #9
 852 06c6 CDF888E5 		str	lr, [sp, #1416]
 853 06ca 0DF5B163 		add	r3, sp, #1416
 854 06ce D3E90089 		ldrd	r8, [r3]
 855 06d2 88EA0408 		eor	r8, r8, r4
 856 06d6 89EA0509 		eor	r9, r9, r5
 857 06da DDE90212 		ldrd	r1, [sp, #8]
 858 06de 11EB0801 		adds	r1, r1, r8
 859 06e2 42EB0902 		adc	r2, r2, r9
 860 06e6 0C46     		mov	r4, r1
 861 06e8 1546     		mov	r5, r2
 862 06ea DDE90C23 		ldrd	r2, [sp, #48]
 863 06ee 3240     		ands	r2, r2, r6
 864 06f0 3B40     		ands	r3, r3, r7
 865 06f2 DDE90889 		ldrd	r8, [sp, #32]
 866 06f6 28EA0608 		bic	r8, r8, r6
 867 06fa 29EA0709 		bic	r9, r9, r7
 868 06fe 4046     		mov	r0, r8
 869 0700 4946     		mov	r1, r9
 870 0702 4240     		eors	r2, r2, r0
 871 0704 4B40     		eors	r3, r3, r1
 872 0706 A418     		adds	r4, r4, r2
 873 0708 5D41     		adcs	r5, r5, r3
 874 070a DDE91C23 		ldrd	r2, [sp, #112]
 875 070e 1219     		adds	r2, r2, r4
 876 0710 6B41     		adcs	r3, r3, r5
 877 0712 0FF6BC01 		adr	r1, .L8+24
 878 0716 D1E90001 		ldrd	r0, [r1]
 879 071a 8018     		adds	r0, r0, r2
 880 071c 5941     		adcs	r1, r1, r3
 881              	.LVL109:
 882 071e 4FEA1A73 		lsr	r3, r10, #28
 883 0722 43EA0B1E 		orr	lr, r3, fp, lsl #4
 884 0726 CDF890E5 		str	lr, [sp, #1424]
 885 072a 4FEA1B73 		lsr	r3, fp, #28
 886 072e 43EA0A1E 		orr	lr, r3, r10, lsl #4
 887 0732 CDF894E5 		str	lr, [sp, #1428]
 888 0736 4FEA8B73 		lsl	r3, fp, #30
 889 073a 43EA9A0E 		orr	lr, r3, r10, lsr #2
 890 073e CDF89CE5 		str	lr, [sp, #1436]
 891 0742 4FEA8A73 		lsl	r3, r10, #30
 892 0746 43EA9B0E 		orr	lr, r3, fp, lsr #2
 893 074a CDF898E5 		str	lr, [sp, #1432]
 894 074e 0DF5B263 		add	r3, sp, #1424
 895 0752 D3E90034 		ldrd	r3, [r3]
 896 0756 0DF5B362 		add	r2, sp, #1432
 897 075a D2E90089 		ldrd	r8, [r2]
 898 075e 83EA0803 		eor	r3, r3, r8
 899 0762 84EA0904 		eor	r4, r4, r9
 900 0766 2546     		mov	r5, r4
 901 0768 1C46     		mov	r4, r3
 902 076a 4FEA4B63 		lsl	r3, fp, #25
 903 076e 43EADA1E 		orr	lr, r3, r10, lsr #7
 904 0772 CDF8A4E5 		str	lr, [sp, #1444]
 905 0776 4FEA4A63 		lsl	r3, r10, #25
ARM GAS  C:\Users\bogur\AppData\Local\Temp\ccFZ7DD2.s 			page 19


 906 077a 43EADB1E 		orr	lr, r3, fp, lsr #7
 907 077e CDF8A0E5 		str	lr, [sp, #1440]
 908 0782 0DF5B463 		add	r3, sp, #1440
 909 0786 D3E90023 		ldrd	r2, [r3]
 910 078a 6240     		eors	r2, r2, r4
 911 078c 6B40     		eors	r3, r3, r5
 912 078e CDE90223 		strd	r2, [sp, #8]
 913              	.LVL110:
 914 0792 DDE90489 		ldrd	r8, [sp, #16]
 915 0796 DDE90634 		ldrd	r3, [sp, #24]
 916 079a 83EA0803 		eor	r3, r3, r8
 917 079e 84EA0904 		eor	r4, r4, r9
 918 07a2 9846     		mov	r8, r3
 919 07a4 08EA0A02 		and	r2, r8, r10
 920 07a8 04EA0B03 		and	r3, r4, fp
 921 07ac DDE90489 		ldrd	r8, [sp, #16]
 922 07b0 DDE90645 		ldrd	r4, [sp, #24]
 923 07b4 04EA0804 		and	r4, r4, r8
 924 07b8 05EA0905 		and	r5, r5, r9
 925 07bc 84EA0208 		eor	r8, r4, r2
 926 07c0 85EA0309 		eor	r9, r5, r3
 927 07c4 DDE90245 		ldrd	r4, [sp, #8]
 928 07c8 14EB0804 		adds	r4, r4, r8
 929 07cc 45EB0905 		adc	r5, r5, r9
 930 07d0 2246     		mov	r2, r4
 931 07d2 2B46     		mov	r3, r5
 932              	.LVL111:
 933 07d4 DDE90089 		ldrd	r8, [sp]
 934 07d8 18EB0008 		adds	r8, r8, r0
 935 07dc 49EB0109 		adc	r9, r9, r1
 936              	.LVL112:
 937 07e0 8418     		adds	r4, r0, r2
 938 07e2 41EB0305 		adc	r5, r1, r3
 939 07e6 CDE90245 		strd	r4, [sp, #8]
 940              	.LVL113:
 122:..\sha512.c   ****     F(w4 ,0x3956c25bf348b538ULL)
 941              		.loc 1 122 0
 942 07ea 4346     		mov	r3, r8
 943 07ec 9B0B     		lsrs	r3, r3, #14
 944 07ee 4C46     		mov	r4, r9
 945              	.LVL114:
 946 07f0 43EA894E 		orr	lr, r3, r9, lsl #18
 947 07f4 CDF8A8E5 		str	lr, [sp, #1448]
 948 07f8 A30B     		lsrs	r3, r4, #14
 949 07fa 4446     		mov	r4, r8
 950 07fc 43EA884E 		orr	lr, r3, r8, lsl #18
 951 0800 CDF8ACE5 		str	lr, [sp, #1452]
 952 0804 A30C     		lsrs	r3, r4, #18
 953 0806 4C46     		mov	r4, r9
 954 0808 43EA893E 		orr	lr, r3, r9, lsl #14
 955 080c CDF8B0E5 		str	lr, [sp, #1456]
 956 0810 A30C     		lsrs	r3, r4, #18
 957 0812 43EA883E 		orr	lr, r3, r8, lsl #14
 958 0816 CDF8B4E5 		str	lr, [sp, #1460]
 959 081a 0DF5B563 		add	r3, sp, #1448
 960 081e D3E90034 		ldrd	r3, [r3]
 961 0822 0DF5B662 		add	r2, sp, #1456
ARM GAS  C:\Users\bogur\AppData\Local\Temp\ccFZ7DD2.s 			page 20


 962              	.LVL115:
 963 0826 D2E90012 		ldrd	r1, [r2]
 964 082a 4B40     		eors	r3, r3, r1
 965 082c 5440     		eors	r4, r4, r2
 966 082e 1A46     		mov	r2, r3
 967 0830 2346     		mov	r3, r4
 968 0832 4C46     		mov	r4, r9
 969 0834 E105     		lsls	r1, r4, #23
 970 0836 41EA582E 		orr	lr, r1, r8, lsr #9
 971 083a CDF8BCE5 		str	lr, [sp, #1468]
 972 083e 4446     		mov	r4, r8
 973 0840 E105     		lsls	r1, r4, #23
 974 0842 CDE90A89 		strd	r8, [sp, #40]
 975 0846 41EA592E 		orr	lr, r1, r9, lsr #9
 976 084a CDF8B8E5 		str	lr, [sp, #1464]
 977 084e 0DF5B761 		add	r1, sp, #1464
 978 0852 D1E90045 		ldrd	r4, [r1]
 979 0856 5440     		eors	r4, r4, r2
 980 0858 5D40     		eors	r5, r5, r3
 981 085a DDE90889 		ldrd	r8, [sp, #32]
 982              	.LVL116:
 983 085e 18EB0408 		adds	r8, r8, r4
 984 0862 49EB0509 		adc	r9, r9, r5
 985 0866 4246     		mov	r2, r8
 986 0868 CDE92467 		strd	r6, [sp, #144]
 987 086c 3546     		mov	r5, r6
 988 086e 3E46     		mov	r6, r7
 989              	.LVL117:
 990 0870 DDE90A01 		ldrd	r0, [sp, #40]
 991              	.LVL118:
 992 0874 0540     		ands	r5, r5, r0
 993 0876 0E40     		ands	r6, r6, r1
 994 0878 2C46     		mov	r4, r5
 995 087a 3546     		mov	r5, r6
 996 087c DDE90C78 		ldrd	r7, [sp, #48]
 997 0880 27EA0007 		bic	r7, r7, r0
 998 0884 28EA0108 		bic	r8, r8, r1
 999 0888 4146     		mov	r1, r8
 1000 088a 7C40     		eors	r4, r4, r7
 1001 088c 4D40     		eors	r5, r5, r1
 1002 088e 1219     		adds	r2, r2, r4
 1003 0890 49EB0503 		adc	r3, r9, r5
 1004 0894 DDE92645 		ldrd	r4, [sp, #152]
 1005 0898 A418     		adds	r4, r4, r2
 1006 089a 5D41     		adcs	r5, r5, r3
 1007 089c 0FF23871 		adr	r1, .L8+32
 1008 08a0 D1E90001 		ldrd	r0, [r1]
 1009 08a4 0019     		adds	r0, r0, r4
 1010 08a6 6941     		adcs	r1, r1, r5
 1011              	.LVL119:
 1012 08a8 DDE90289 		ldrd	r8, [sp, #8]
 1013 08ac 4346     		mov	r3, r8
 1014 08ae 1B0F     		lsrs	r3, r3, #28
 1015 08b0 4A46     		mov	r2, r9
 1016 08b2 43EA091E 		orr	lr, r3, r9, lsl #4
 1017 08b6 CDF8C0E5 		str	lr, [sp, #1472]
 1018 08ba 130F     		lsrs	r3, r2, #28
ARM GAS  C:\Users\bogur\AppData\Local\Temp\ccFZ7DD2.s 			page 21


 1019 08bc 4246     		mov	r2, r8
 1020 08be 43EA081E 		orr	lr, r3, r8, lsl #4
 1021 08c2 CDF8C4E5 		str	lr, [sp, #1476]
 1022 08c6 4B46     		mov	r3, r9
 1023 08c8 9B07     		lsls	r3, r3, #30
 1024 08ca 43EA980E 		orr	lr, r3, r8, lsr #2
 1025 08ce CDF8CCE5 		str	lr, [sp, #1484]
 1026 08d2 9307     		lsls	r3, r2, #30
 1027 08d4 43EA990E 		orr	lr, r3, r9, lsr #2
 1028 08d8 CDF8C8E5 		str	lr, [sp, #1480]
 1029 08dc 0DF5B863 		add	r3, sp, #1472
 1030 08e0 D3E90056 		ldrd	r5, [r3]
 1031 08e4 0DF5B963 		add	r3, sp, #1480
 1032 08e8 D3E90078 		ldrd	r7, [r3]
 1033 08ec 7D40     		eors	r5, r5, r7
 1034 08ee 86EA0806 		eor	r6, r6, r8
 1035 08f2 2C46     		mov	r4, r5
 1036 08f4 3546     		mov	r5, r6
 1037 08f6 DDE90289 		ldrd	r8, [sp, #8]
 1038 08fa 4B46     		mov	r3, r9
 1039 08fc 5B06     		lsls	r3, r3, #25
 1040 08fe 4246     		mov	r2, r8
 1041 0900 43EAD81E 		orr	lr, r3, r8, lsr #7
 1042 0904 CDF8D4E5 		str	lr, [sp, #1492]
 1043 0908 5306     		lsls	r3, r2, #25
 1044 090a 43EAD91E 		orr	lr, r3, r9, lsr #7
 1045 090e CDF8D0E5 		str	lr, [sp, #1488]
 1046 0912 0DF5BA63 		add	r3, sp, #1488
 1047 0916 D3E90067 		ldrd	r6, [r3]
 1048 091a 6640     		eors	r6, r6, r4
 1049 091c 6F40     		eors	r7, r7, r5
 1050 091e 3446     		mov	r4, r6
 1051 0920 3D46     		mov	r5, r7
 1052 0922 DDE90623 		ldrd	r2, [sp, #24]
 1053 0926 82EA0A02 		eor	r2, r2, r10
 1054 092a 83EA0B03 		eor	r3, r3, fp
 1055 092e 4746     		mov	r7, r8
 1056 0930 1740     		ands	r7, r7, r2
 1057 0932 09EA0308 		and	r8, r9, r3
 1058 0936 3A46     		mov	r2, r7
 1059 0938 4346     		mov	r3, r8
 1060 093a DDE90667 		ldrd	r6, [sp, #24]
 1061 093e 06EA0A06 		and	r6, r6, r10
 1062 0942 07EA0B07 		and	r7, r7, fp
 1063 0946 5640     		eors	r6, r6, r2
 1064 0948 5F40     		eors	r7, r7, r3
 1065 094a 3219     		adds	r2, r6, r4
 1066 094c 47EB0503 		adc	r3, r7, r5
 1067              	.LVL120:
 1068 0950 DDE90489 		ldrd	r8, [sp, #16]
 1069 0954 18EB0008 		adds	r8, r8, r0
 1070 0958 49EB0109 		adc	r9, r9, r1
 1071              	.LVL121:
 1072 095c 8418     		adds	r4, r0, r2
 1073 095e 41EB0305 		adc	r5, r1, r3
 1074 0962 2646     		mov	r6, r4
 1075 0964 2F46     		mov	r7, r5
ARM GAS  C:\Users\bogur\AppData\Local\Temp\ccFZ7DD2.s 			page 22


 1076              	.LVL122:
 123:..\sha512.c   ****     F(w5 ,0x59f111f1b605d019ULL)
 1077              		.loc 1 123 0
 1078 0966 4346     		mov	r3, r8
 1079 0968 9B0B     		lsrs	r3, r3, #14
 1080 096a 4C46     		mov	r4, r9
 1081 096c 43EA894E 		orr	lr, r3, r9, lsl #18
 1082 0970 CDF8D8E5 		str	lr, [sp, #1496]
 1083 0974 A30B     		lsrs	r3, r4, #14
 1084 0976 4446     		mov	r4, r8
 1085 0978 43EA884E 		orr	lr, r3, r8, lsl #18
 1086 097c CDF8DCE5 		str	lr, [sp, #1500]
 1087 0980 A30C     		lsrs	r3, r4, #18
 1088 0982 4C46     		mov	r4, r9
 1089 0984 43EA893E 		orr	lr, r3, r9, lsl #14
 1090 0988 CDF8E0E5 		str	lr, [sp, #1504]
 1091 098c A30C     		lsrs	r3, r4, #18
 1092 098e 43EA883E 		orr	lr, r3, r8, lsl #14
 1093 0992 CDF8E4E5 		str	lr, [sp, #1508]
 1094 0996 0DF5BB63 		add	r3, sp, #1496
 1095 099a D3E90034 		ldrd	r3, [r3]
 1096 099e 0DF5BC62 		add	r2, sp, #1504
 1097              	.LVL123:
 1098 09a2 D2E90012 		ldrd	r1, [r2]
 1099 09a6 4B40     		eors	r3, r3, r1
 1100 09a8 5440     		eors	r4, r4, r2
 1101 09aa 1A46     		mov	r2, r3
 1102 09ac 2346     		mov	r3, r4
 1103 09ae 4C46     		mov	r4, r9
 1104 09b0 E105     		lsls	r1, r4, #23
 1105 09b2 41EA582E 		orr	lr, r1, r8, lsr #9
 1106 09b6 CDF8ECE5 		str	lr, [sp, #1516]
 1107 09ba 4446     		mov	r4, r8
 1108 09bc E105     		lsls	r1, r4, #23
 1109 09be 41EA592E 		orr	lr, r1, r9, lsr #9
 1110 09c2 CDF8E8E5 		str	lr, [sp, #1512]
 1111 09c6 0DF5BD61 		add	r1, sp, #1512
 1112 09ca D1E90045 		ldrd	r4, [r1]
 1113 09ce 5440     		eors	r4, r4, r2
 1114 09d0 5D40     		eors	r5, r5, r3
 1115 09d2 2246     		mov	r2, r4
 1116 09d4 2B46     		mov	r3, r5
 1117 09d6 DDE90C45 		ldrd	r4, [sp, #48]
 1118 09da A418     		adds	r4, r4, r2
 1119 09dc 5D41     		adcs	r5, r5, r3
 1120 09de 2246     		mov	r2, r4
 1121 09e0 2B46     		mov	r3, r5
 1122 09e2 DDE90A45 		ldrd	r4, [sp, #40]
 1123 09e6 04EA0804 		and	r4, r4, r8
 1124 09ea 05EA0905 		and	r5, r5, r9
 1125 09ee DDE92401 		ldrd	r0, [sp, #144]
 1126              	.LVL124:
 1127 09f2 CDE92289 		strd	r8, [sp, #136]
 1128 09f6 20EA0800 		bic	r0, r0, r8
 1129 09fa 21EA0901 		bic	r1, r1, r9
 1130 09fe 4440     		eors	r4, r4, r0
 1131 0a00 4D40     		eors	r5, r5, r1
ARM GAS  C:\Users\bogur\AppData\Local\Temp\ccFZ7DD2.s 			page 23


 1132 0a02 1219     		adds	r2, r2, r4
 1133 0a04 6B41     		adcs	r3, r3, r5
 1134 0a06 DDE92845 		ldrd	r4, [sp, #160]
 1135 0a0a A418     		adds	r4, r4, r2
 1136 0a0c 5D41     		adcs	r5, r5, r3
 1137 0a0e 0FF2D051 		adr	r1, .L8+40
 1138 0a12 D1E90001 		ldrd	r0, [r1]
 1139 0a16 0019     		adds	r0, r0, r4
 1140 0a18 6941     		adcs	r1, r1, r5
 1141              	.LVL125:
 1142 0a1a 330F     		lsrs	r3, r6, #28
 1143 0a1c 43EA071E 		orr	lr, r3, r7, lsl #4
 1144 0a20 CDF8F0E5 		str	lr, [sp, #1520]
 1145 0a24 3B0F     		lsrs	r3, r7, #28
 1146 0a26 43EA061E 		orr	lr, r3, r6, lsl #4
 1147 0a2a CDF8F4E5 		str	lr, [sp, #1524]
 1148 0a2e BB07     		lsls	r3, r7, #30
 1149 0a30 43EA960E 		orr	lr, r3, r6, lsr #2
 1150 0a34 CDF8FCE5 		str	lr, [sp, #1532]
 1151 0a38 B307     		lsls	r3, r6, #30
 1152 0a3a 43EA970E 		orr	lr, r3, r7, lsr #2
 1153 0a3e CDF8F8E5 		str	lr, [sp, #1528]
 1154 0a42 0DF5BE63 		add	r3, sp, #1520
 1155 0a46 D3E90034 		ldrd	r3, [r3]
 1156 0a4a 0DF5BF62 		add	r2, sp, #1528
 1157 0a4e D2E90089 		ldrd	r8, [r2]
 1158              	.LVL126:
 1159 0a52 83EA0803 		eor	r3, r3, r8
 1160 0a56 84EA0904 		eor	r4, r4, r9
 1161 0a5a 2546     		mov	r5, r4
 1162 0a5c 1C46     		mov	r4, r3
 1163 0a5e 7B06     		lsls	r3, r7, #25
 1164 0a60 43EAD61E 		orr	lr, r3, r6, lsr #7
 1165 0a64 CDF804E6 		str	lr, [sp, #1540]
 1166 0a68 7306     		lsls	r3, r6, #25
 1167 0a6a 43EAD71E 		orr	lr, r3, r7, lsr #7
 1168 0a6e CDF800E6 		str	lr, [sp, #1536]
 1169 0a72 0DF5C063 		add	r3, sp, #1536
 1170 0a76 D3E90089 		ldrd	r8, [r3]
 1171 0a7a 88EA0408 		eor	r8, r8, r4
 1172 0a7e 89EA0509 		eor	r9, r9, r5
 1173 0a82 4446     		mov	r4, r8
 1174 0a84 4D46     		mov	r5, r9
 1175 0a86 DDE90289 		ldrd	r8, [sp, #8]
 1176 0a8a 88EA0A02 		eor	r2, r8, r10
 1177 0a8e 89EA0B03 		eor	r3, r9, fp
 1178 0a92 CDE90867 		strd	r6, [sp, #32]
 1179 0a96 1640     		ands	r6, r6, r2
 1180              	.LVL127:
 1181 0a98 1F40     		ands	r7, r7, r3
 1182 0a9a 3246     		mov	r2, r6
 1183 0a9c 3B46     		mov	r3, r7
 1184 0a9e 08EA0A06 		and	r6, r8, r10
 1185 0aa2 09EA0B07 		and	r7, r9, fp
 1186 0aa6 B846     		mov	r8, r7
 1187 0aa8 3746     		mov	r7, r6
 1188 0aaa 5740     		eors	r7, r7, r2
ARM GAS  C:\Users\bogur\AppData\Local\Temp\ccFZ7DD2.s 			page 24


 1189 0aac 88EA0308 		eor	r8, r8, r3
 1190 0ab0 3A19     		adds	r2, r7, r4
 1191 0ab2 48EB0503 		adc	r3, r8, r5
 1192              	.LVL128:
 1193 0ab6 DDE90645 		ldrd	r4, [sp, #24]
 1194 0aba 2418     		adds	r4, r4, r0
 1195 0abc 4D41     		adcs	r5, r5, r1
 1196 0abe 2746     		mov	r7, r4
 1197 0ac0 A846     		mov	r8, r5
 1198              	.LVL129:
 1199 0ac2 8418     		adds	r4, r0, r2
 1200 0ac4 41EB0305 		adc	r5, r1, r3
 1201 0ac8 CDE90045 		strd	r4, [sp]
 1202              	.LVL130:
 124:..\sha512.c   ****     F(w6 ,0x923f82a4af194f9bULL)
 1203              		.loc 1 124 0
 1204 0acc BB0B     		lsrs	r3, r7, #14
 1205 0ace 4446     		mov	r4, r8
 1206              	.LVL131:
 1207 0ad0 43EA884E 		orr	lr, r3, r8, lsl #18
 1208 0ad4 CDF808E6 		str	lr, [sp, #1544]
 1209 0ad8 A30B     		lsrs	r3, r4, #14
 1210 0ada 43EA874E 		orr	lr, r3, r7, lsl #18
 1211 0ade CDF80CE6 		str	lr, [sp, #1548]
 1212 0ae2 BB0C     		lsrs	r3, r7, #18
 1213 0ae4 4446     		mov	r4, r8
 1214 0ae6 43EA883E 		orr	lr, r3, r8, lsl #14
 1215 0aea CDF810E6 		str	lr, [sp, #1552]
 1216 0aee A30C     		lsrs	r3, r4, #18
 1217 0af0 43EA873E 		orr	lr, r3, r7, lsl #14
 1218 0af4 CDF814E6 		str	lr, [sp, #1556]
 1219 0af8 0DF5C163 		add	r3, sp, #1544
 1220 0afc D3E90034 		ldrd	r3, [r3]
 1221 0b00 0DF5C262 		add	r2, sp, #1552
 1222              	.LVL132:
 1223 0b04 D2E90056 		ldrd	r5, [r2]
 1224 0b08 6B40     		eors	r3, r3, r5
 1225 0b0a 7440     		eors	r4, r4, r6
 1226 0b0c 1A46     		mov	r2, r3
 1227 0b0e 2346     		mov	r3, r4
 1228 0b10 4446     		mov	r4, r8
 1229 0b12 E105     		lsls	r1, r4, #23
 1230 0b14 41EA572E 		orr	lr, r1, r7, lsr #9
 1231 0b18 CDF81CE6 		str	lr, [sp, #1564]
 1232 0b1c F905     		lsls	r1, r7, #23
 1233 0b1e 41EA582E 		orr	lr, r1, r8, lsr #9
 1234 0b22 CDF818E6 		str	lr, [sp, #1560]
 1235 0b26 0DF5C361 		add	r1, sp, #1560
 1236 0b2a D1E90056 		ldrd	r5, [r1]
 1237 0b2e 5540     		eors	r5, r5, r2
 1238 0b30 5E40     		eors	r6, r6, r3
 1239 0b32 2A46     		mov	r2, r5
 1240 0b34 3346     		mov	r3, r6
 1241 0b36 DDE92456 		ldrd	r5, [sp, #144]
 1242 0b3a AD18     		adds	r5, r5, r2
 1243 0b3c 5E41     		adcs	r6, r6, r3
 1244 0b3e 2A46     		mov	r2, r5
ARM GAS  C:\Users\bogur\AppData\Local\Temp\ccFZ7DD2.s 			page 25


 1245 0b40 3346     		mov	r3, r6
 1246 0b42 DDE92256 		ldrd	r5, [sp, #136]
 1247 0b46 3846     		mov	r0, r7
 1248              	.LVL133:
 1249 0b48 4146     		mov	r1, r8
 1250 0b4a 3D40     		ands	r5, r5, r7
 1251 0b4c 06EA0806 		and	r6, r6, r8
 1252 0b50 2C46     		mov	r4, r5
 1253 0b52 3546     		mov	r5, r6
 1254 0b54 DDE90A78 		ldrd	r7, [sp, #40]
 1255              	.LVL134:
 1256 0b58 CDE90601 		strd	r0, [sp, #24]
 1257 0b5c 27EA0007 		bic	r7, r7, r0
 1258 0b60 28EA0108 		bic	r8, r8, r1
 1259 0b64 4146     		mov	r1, r8
 1260 0b66 7C40     		eors	r4, r4, r7
 1261 0b68 4D40     		eors	r5, r5, r1
 1262 0b6a 1219     		adds	r2, r2, r4
 1263 0b6c 6B41     		adcs	r3, r3, r5
 1264 0b6e DDE92A45 		ldrd	r4, [sp, #168]
 1265 0b72 A418     		adds	r4, r4, r2
 1266 0b74 5D41     		adcs	r5, r5, r3
 1267 0b76 0FF27041 		adr	r1, .L8+48
 1268 0b7a D1E90001 		ldrd	r0, [r1]
 1269 0b7e 0019     		adds	r0, r0, r4
 1270 0b80 6941     		adcs	r1, r1, r5
 1271              	.LVL135:
 1272 0b82 DDE90067 		ldrd	r6, [sp]
 1273 0b86 330F     		lsrs	r3, r6, #28
 1274 0b88 43EA071E 		orr	lr, r3, r7, lsl #4
 1275 0b8c CDF820E6 		str	lr, [sp, #1568]
 1276 0b90 3B0F     		lsrs	r3, r7, #28
 1277 0b92 43EA061E 		orr	lr, r3, r6, lsl #4
 1278 0b96 CDF824E6 		str	lr, [sp, #1572]
 1279 0b9a BB07     		lsls	r3, r7, #30
 1280 0b9c 43EA960E 		orr	lr, r3, r6, lsr #2
 1281 0ba0 CDF82CE6 		str	lr, [sp, #1580]
 1282 0ba4 B307     		lsls	r3, r6, #30
 1283 0ba6 43EA970E 		orr	lr, r3, r7, lsr #2
 1284 0baa CDF828E6 		str	lr, [sp, #1576]
 1285 0bae 0DF5C463 		add	r3, sp, #1568
 1286 0bb2 D3E90056 		ldrd	r5, [r3]
 1287 0bb6 0DF5C563 		add	r3, sp, #1576
 1288 0bba D3E90089 		ldrd	r8, [r3]
 1289 0bbe 85EA0805 		eor	r5, r5, r8
 1290 0bc2 86EA0906 		eor	r6, r6, r9
 1291 0bc6 2C46     		mov	r4, r5
 1292 0bc8 3546     		mov	r5, r6
 1293 0bca DDE90067 		ldrd	r6, [sp]
 1294 0bce 7B06     		lsls	r3, r7, #25
 1295 0bd0 43EAD61E 		orr	lr, r3, r6, lsr #7
 1296 0bd4 CDF834E6 		str	lr, [sp, #1588]
 1297 0bd8 7306     		lsls	r3, r6, #25
 1298 0bda 43EAD71E 		orr	lr, r3, r7, lsr #7
 1299 0bde CDF830E6 		str	lr, [sp, #1584]
 1300 0be2 0DF5C663 		add	r3, sp, #1584
 1301 0be6 D3E90089 		ldrd	r8, [r3]
ARM GAS  C:\Users\bogur\AppData\Local\Temp\ccFZ7DD2.s 			page 26


 1302 0bea 88EA0408 		eor	r8, r8, r4
 1303 0bee 89EA0509 		eor	r9, r9, r5
 1304 0bf2 4446     		mov	r4, r8
 1305 0bf4 4D46     		mov	r5, r9
 1306 0bf6 DDE90889 		ldrd	r8, [sp, #32]
 1307 0bfa 4646     		mov	r6, r8
 1308 0bfc 4F46     		mov	r7, r9
 1309 0bfe DDE90223 		ldrd	r2, [sp, #8]
 1310 0c02 7240     		eors	r2, r2, r6
 1311 0c04 7B40     		eors	r3, r3, r7
 1312 0c06 DDE90067 		ldrd	r6, [sp]
 1313 0c0a 1640     		ands	r6, r6, r2
 1314 0c0c 1F40     		ands	r7, r7, r3
 1315 0c0e 3246     		mov	r2, r6
 1316 0c10 3B46     		mov	r3, r7
 1317 0c12 4646     		mov	r6, r8
 1318 0c14 4F46     		mov	r7, r9
 1319 0c16 DDE90289 		ldrd	r8, [sp, #8]
 1320 0c1a 08EA0608 		and	r8, r8, r6
 1321 0c1e 09EA0709 		and	r9, r9, r7
 1322 0c22 4646     		mov	r6, r8
 1323 0c24 4F46     		mov	r7, r9
 1324 0c26 5640     		eors	r6, r6, r2
 1325 0c28 5F40     		eors	r7, r7, r3
 1326 0c2a 3219     		adds	r2, r6, r4
 1327 0c2c 47EB0503 		adc	r3, r7, r5
 1328              	.LVL136:
 1329 0c30 1AEB0005 		adds	r5, r10, r0
 1330 0c34 4BEB0106 		adc	r6, fp, r1
 1331 0c38 AB46     		mov	fp, r5
 1332 0c3a B446     		mov	ip, r6
 1333              	.LVL137:
 1334 0c3c 8518     		adds	r5, r0, r2
 1335 0c3e 41EB0306 		adc	r6, r1, r3
 1336 0c42 CDE90456 		strd	r5, [sp, #16]
 1337              	.LVL138:
 125:..\sha512.c   ****     F(w7 ,0xab1c5ed5da6d8118ULL)
 1338              		.loc 1 125 0
 1339 0c46 5B46     		mov	r3, fp
 1340 0c48 9B0B     		lsrs	r3, r3, #14
 1341 0c4a 6446     		mov	r4, ip
 1342 0c4c 43EA8C4E 		orr	lr, r3, ip, lsl #18
 1343 0c50 CDF838E6 		str	lr, [sp, #1592]
 1344 0c54 A30B     		lsrs	r3, r4, #14
 1345 0c56 5C46     		mov	r4, fp
 1346 0c58 43EA8B4E 		orr	lr, r3, fp, lsl #18
 1347 0c5c CDF83CE6 		str	lr, [sp, #1596]
 1348 0c60 A30C     		lsrs	r3, r4, #18
 1349 0c62 6446     		mov	r4, ip
 1350 0c64 43EA8C3E 		orr	lr, r3, ip, lsl #14
 1351 0c68 CDF840E6 		str	lr, [sp, #1600]
 1352 0c6c A30C     		lsrs	r3, r4, #18
 1353 0c6e 5C46     		mov	r4, fp
 1354 0c70 43EA8B3E 		orr	lr, r3, fp, lsl #14
 1355 0c74 CDF844E6 		str	lr, [sp, #1604]
 1356 0c78 0DF5C763 		add	r3, sp, #1592
 1357 0c7c D3E90056 		ldrd	r5, [r3]
ARM GAS  C:\Users\bogur\AppData\Local\Temp\ccFZ7DD2.s 			page 27


 1358              	.LVL139:
 1359 0c80 0DF5C863 		add	r3, sp, #1600
 1360 0c84 D3E9009A 		ldrd	r9, [r3]
 1361 0c88 85EA0905 		eor	r5, r5, r9
 1362 0c8c 86EA0A06 		eor	r6, r6, r10
 1363 0c90 6346     		mov	r3, ip
 1364 0c92 DB05     		lsls	r3, r3, #23
 1365 0c94 43EA5B2E 		orr	lr, r3, fp, lsr #9
 1366 0c98 CDF84CE6 		str	lr, [sp, #1612]
 1367 0c9c E305     		lsls	r3, r4, #23
 1368 0c9e CDE90CBC 		strd	fp, [sp, #48]
 1369 0ca2 43EA5C2E 		orr	lr, r3, ip, lsr #9
 1370 0ca6 CDF848E6 		str	lr, [sp, #1608]
 1371 0caa 0DF5C963 		add	r3, sp, #1608
 1372 0cae D3E900AB 		ldrd	r10, [r3]
 1373 0cb2 8AEA050A 		eor	r10, r10, r5
 1374 0cb6 8BEA060B 		eor	fp, fp, r6
 1375              	.LVL140:
 1376 0cba DDE90A78 		ldrd	r7, [sp, #40]
 1377 0cbe 17EB0A07 		adds	r7, r7, r10
 1378 0cc2 48EB0B08 		adc	r8, r8, fp
 1379 0cc6 3C46     		mov	r4, r7
 1380 0cc8 4546     		mov	r5, r8
 1381 0cca DDE906BC 		ldrd	fp, [sp, #24]
 1382 0cce DDE90C01 		ldrd	r0, [sp, #48]
 1383              	.LVL141:
 1384 0cd2 0BEA000B 		and	fp, fp, r0
 1385 0cd6 0CEA010C 		and	ip, ip, r1
 1386 0cda 5A46     		mov	r2, fp
 1387              	.LVL142:
 1388 0cdc 6346     		mov	r3, ip
 1389 0cde DDE92267 		ldrd	r6, [sp, #136]
 1390 0ce2 8346     		mov	fp, r0
 1391 0ce4 8C46     		mov	ip, r1
 1392 0ce6 26EA0006 		bic	r6, r6, r0
 1393 0cea 27EA0107 		bic	r7, r7, r1
 1394 0cee 7240     		eors	r2, r2, r6
 1395 0cf0 7B40     		eors	r3, r3, r7
 1396 0cf2 1219     		adds	r2, r2, r4
 1397 0cf4 6B41     		adcs	r3, r3, r5
 1398 0cf6 DDE92C45 		ldrd	r4, [sp, #176]
 1399 0cfa A418     		adds	r4, r4, r2
 1400 0cfc 5D41     		adcs	r5, r5, r3
 1401 0cfe BCA1     		adr	r1, .L8+56
 1402 0d00 D1E90001 		ldrd	r0, [r1]
 1403 0d04 0019     		adds	r0, r0, r4
 1404 0d06 6941     		adcs	r1, r1, r5
 1405              	.LVL143:
 1406 0d08 DDE9049A 		ldrd	r9, [sp, #16]
 1407 0d0c 4B46     		mov	r3, r9
 1408 0d0e 1B0F     		lsrs	r3, r3, #28
 1409 0d10 5246     		mov	r2, r10
 1410 0d12 43EA0A15 		orr	r5, r3, r10, lsl #4
 1411 0d16 CDF85056 		str	r5, [sp, #1616]
 1412 0d1a 130F     		lsrs	r3, r2, #28
 1413 0d1c 4A46     		mov	r2, r9
 1414 0d1e 43EA0915 		orr	r5, r3, r9, lsl #4
ARM GAS  C:\Users\bogur\AppData\Local\Temp\ccFZ7DD2.s 			page 28


 1415 0d22 CDF85456 		str	r5, [sp, #1620]
 1416 0d26 5346     		mov	r3, r10
 1417 0d28 9B07     		lsls	r3, r3, #30
 1418 0d2a 43EA9905 		orr	r5, r3, r9, lsr #2
 1419 0d2e CDF85C56 		str	r5, [sp, #1628]
 1420 0d32 9307     		lsls	r3, r2, #30
 1421 0d34 5246     		mov	r2, r10
 1422 0d36 43EA9A05 		orr	r5, r3, r10, lsr #2
 1423 0d3a CDF85856 		str	r5, [sp, #1624]
 1424 0d3e 0DF5CA63 		add	r3, sp, #1616
 1425 0d42 D3E90056 		ldrd	r5, [r3]
 1426 0d46 0DF5CB63 		add	r3, sp, #1624
 1427 0d4a D3E90078 		ldrd	r7, [r3]
 1428 0d4e 7D40     		eors	r5, r5, r7
 1429 0d50 86EA0806 		eor	r6, r6, r8
 1430 0d54 2C46     		mov	r4, r5
 1431 0d56 5306     		lsls	r3, r2, #25
 1432 0d58 4A46     		mov	r2, r9
 1433 0d5a 43EAD917 		orr	r7, r3, r9, lsr #7
 1434 0d5e CDF86476 		str	r7, [sp, #1636]
 1435 0d62 5306     		lsls	r3, r2, #25
 1436 0d64 43EADA17 		orr	r7, r3, r10, lsr #7
 1437 0d68 CDF86076 		str	r7, [sp, #1632]
 1438 0d6c 0DF5CC63 		add	r3, sp, #1632
 1439 0d70 D3E90078 		ldrd	r7, [r3]
 1440 0d74 6740     		eors	r7, r7, r4
 1441 0d76 88EA0608 		eor	r8, r8, r6
 1442 0d7a 3C46     		mov	r4, r7
 1443 0d7c 4546     		mov	r5, r8
 1444 0d7e DDE9089A 		ldrd	r9, [sp, #32]
 1445 0d82 4E46     		mov	r6, r9
 1446 0d84 5746     		mov	r7, r10
 1447 0d86 DDE90023 		ldrd	r2, [sp]
 1448 0d8a 7240     		eors	r2, r2, r6
 1449 0d8c 7B40     		eors	r3, r3, r7
 1450 0d8e DDE90467 		ldrd	r6, [sp, #16]
 1451 0d92 1640     		ands	r6, r6, r2
 1452 0d94 1F40     		ands	r7, r7, r3
 1453 0d96 3246     		mov	r2, r6
 1454 0d98 3B46     		mov	r3, r7
 1455 0d9a 4E46     		mov	r6, r9
 1456 0d9c DDE90089 		ldrd	r8, [sp]
 1457 0da0 08EA0608 		and	r8, r8, r6
 1458 0da4 09EA0A09 		and	r9, r9, r10
 1459 0da8 4646     		mov	r6, r8
 1460 0daa 4F46     		mov	r7, r9
 1461 0dac 5640     		eors	r6, r6, r2
 1462 0dae 5F40     		eors	r7, r7, r3
 1463 0db0 3219     		adds	r2, r6, r4
 1464 0db2 47EB0503 		adc	r3, r7, r5
 1465              	.LVL144:
 1466 0db6 DDE90245 		ldrd	r4, [sp, #8]
 1467 0dba 2418     		adds	r4, r4, r0
 1468 0dbc 4D41     		adcs	r5, r5, r1
 1469 0dbe 2E46     		mov	r6, r5
 1470 0dc0 3546     		mov	r5, r6
 1471              	.LVL145:
ARM GAS  C:\Users\bogur\AppData\Local\Temp\ccFZ7DD2.s 			page 29


 1472 0dc2 8618     		adds	r6, r0, r2
 1473 0dc4 41EB0307 		adc	r7, r1, r3
 1474              	.LVL146:
 126:..\sha512.c   ****     F(w8 ,0xd807aa98a3030242ULL)
 1475              		.loc 1 126 0
 1476 0dc8 A30B     		lsrs	r3, r4, #14
 1477 0dca 2046     		mov	r0, r4
 1478              	.LVL147:
 1479 0dcc 2946     		mov	r1, r5
 1480 0dce 43EA8545 		orr	r5, r3, r5, lsl #18
 1481 0dd2 CDF86856 		str	r5, [sp, #1640]
 1482 0dd6 8B0B     		lsrs	r3, r1, #14
 1483 0dd8 43EA8045 		orr	r5, r3, r0, lsl #18
 1484 0ddc CDF86C56 		str	r5, [sp, #1644]
 1485 0de0 830C     		lsrs	r3, r0, #18
 1486 0de2 43EA8135 		orr	r5, r3, r1, lsl #14
 1487 0de6 CDF87056 		str	r5, [sp, #1648]
 1488 0dea 8B0C     		lsrs	r3, r1, #18
 1489 0dec 43EA8035 		orr	r5, r3, r0, lsl #14
 1490 0df0 CDF87456 		str	r5, [sp, #1652]
 1491 0df4 0DF5CD63 		add	r3, sp, #1640
 1492 0df8 D3E90034 		ldrd	r3, [r3]
 1493 0dfc 0DF5CE62 		add	r2, sp, #1648
 1494              	.LVL148:
 1495 0e00 D2E9009A 		ldrd	r9, [r2]
 1496 0e04 83EA0903 		eor	r3, r3, r9
 1497 0e08 84EA0A04 		eor	r4, r4, r10
 1498              	.LVL149:
 1499 0e0c 1A46     		mov	r2, r3
 1500 0e0e 2346     		mov	r3, r4
 1501 0e10 8146     		mov	r9, r0
 1502 0e12 8A46     		mov	r10, r1
 1503 0e14 C905     		lsls	r1, r1, #23
 1504 0e16 41EA5025 		orr	r5, r1, r0, lsr #9
 1505 0e1a CDF87C56 		str	r5, [sp, #1660]
 1506 0e1e C105     		lsls	r1, r0, #23
 1507 0e20 41EA5A25 		orr	r5, r1, r10, lsr #9
 1508 0e24 CDF87856 		str	r5, [sp, #1656]
 1509 0e28 0DF5CF61 		add	r1, sp, #1656
 1510 0e2c D1E90045 		ldrd	r4, [r1]
 1511 0e30 5440     		eors	r4, r4, r2
 1512 0e32 5D40     		eors	r5, r5, r3
 1513 0e34 2246     		mov	r2, r4
 1514 0e36 2B46     		mov	r3, r5
 1515 0e38 DDE92245 		ldrd	r4, [sp, #136]
 1516 0e3c A418     		adds	r4, r4, r2
 1517 0e3e 5D41     		adcs	r5, r5, r3
 1518 0e40 2246     		mov	r2, r4
 1519 0e42 2B46     		mov	r3, r5
 1520 0e44 0BEA000B 		and	fp, fp, r0
 1521              	.LVL150:
 1522 0e48 0CEA0A0C 		and	ip, ip, r10
 1523 0e4c 5C46     		mov	r4, fp
 1524 0e4e 6546     		mov	r5, ip
 1525 0e50 DDE906BC 		ldrd	fp, [sp, #24]
 1526 0e54 CDE90A9A 		strd	r9, [sp, #40]
 1527 0e58 2BEA000B 		bic	fp, fp, r0
ARM GAS  C:\Users\bogur\AppData\Local\Temp\ccFZ7DD2.s 			page 30


 1528 0e5c 2CEA0A0C 		bic	ip, ip, r10
 1529 0e60 5846     		mov	r0, fp
 1530 0e62 6146     		mov	r1, ip
 1531 0e64 4440     		eors	r4, r4, r0
 1532 0e66 4D40     		eors	r5, r5, r1
 1533 0e68 1219     		adds	r2, r2, r4
 1534 0e6a 6B41     		adcs	r3, r3, r5
 1535 0e6c DDE92E45 		ldrd	r4, [sp, #184]
 1536 0e70 A418     		adds	r4, r4, r2
 1537 0e72 5D41     		adcs	r5, r5, r3
 1538 0e74 60A1     		adr	r1, .L8+64
 1539 0e76 D1E90001 		ldrd	r0, [r1]
 1540 0e7a 0019     		adds	r0, r0, r4
 1541 0e7c 6941     		adcs	r1, r1, r5
 1542              	.LVL151:
 1543 0e7e 330F     		lsrs	r3, r6, #28
 1544 0e80 43EA0715 		orr	r5, r3, r7, lsl #4
 1545 0e84 CDF88056 		str	r5, [sp, #1664]
 1546 0e88 3B0F     		lsrs	r3, r7, #28
 1547 0e8a 43EA0615 		orr	r5, r3, r6, lsl #4
 1548 0e8e CDF88456 		str	r5, [sp, #1668]
 1549 0e92 BB07     		lsls	r3, r7, #30
 1550 0e94 43EA9605 		orr	r5, r3, r6, lsr #2
 1551 0e98 CDF88C56 		str	r5, [sp, #1676]
 1552 0e9c B307     		lsls	r3, r6, #30
 1553 0e9e 43EA9705 		orr	r5, r3, r7, lsr #2
 1554 0ea2 CDF88856 		str	r5, [sp, #1672]
 1555 0ea6 0DF5D063 		add	r3, sp, #1664
 1556 0eaa D3E900AB 		ldrd	r10, [r3]
 1557 0eae 0DF5D163 		add	r3, sp, #1672
 1558 0eb2 D3E90034 		ldrd	r3, [r3]
 1559 0eb6 8AEA030A 		eor	r10, r10, r3
 1560 0eba 8BEA040B 		eor	fp, fp, r4
 1561 0ebe 5446     		mov	r4, r10
 1562 0ec0 5D46     		mov	r5, fp
 1563 0ec2 7B06     		lsls	r3, r7, #25
 1564 0ec4 43EAD61E 		orr	lr, r3, r6, lsr #7
 1565 0ec8 CDF894E6 		str	lr, [sp, #1684]
 1566 0ecc 7306     		lsls	r3, r6, #25
 1567 0ece 43EAD71E 		orr	lr, r3, r7, lsr #7
 1568 0ed2 CDF890E6 		str	lr, [sp, #1680]
 1569 0ed6 0DF5D263 		add	r3, sp, #1680
 1570 0eda D3E900AB 		ldrd	r10, [r3]
 1571 0ede 8AEA040A 		eor	r10, r10, r4
 1572 0ee2 8BEA050B 		eor	fp, fp, r5
 1573 0ee6 5446     		mov	r4, r10
 1574 0ee8 5D46     		mov	r5, fp
 1575 0eea DDE900AB 		ldrd	r10, [sp]
 1576 0eee DDE90489 		ldrd	r8, [sp, #16]
 1577 0ef2 8AEA0802 		eor	r2, r10, r8
 1578 0ef6 8BEA0903 		eor	r3, fp, r9
 1579 0efa 3240     		ands	r2, r2, r6
 1580 0efc 3B40     		ands	r3, r3, r7
 1581 0efe 0AEA080A 		and	r10, r10, r8
 1582 0f02 0BEA090B 		and	fp, fp, r9
 1583 0f06 8AEA020A 		eor	r10, r10, r2
 1584 0f0a 8BEA030B 		eor	fp, fp, r3
ARM GAS  C:\Users\bogur\AppData\Local\Temp\ccFZ7DD2.s 			page 31


 1585 0f0e 1AEB0402 		adds	r2, r10, r4
 1586 0f12 4BEB0503 		adc	r3, fp, r5
 1587              	.LVL152:
 1588 0f16 DDE90845 		ldrd	r4, [sp, #32]
 1589 0f1a 2418     		adds	r4, r4, r0
 1590 0f1c 4D41     		adcs	r5, r5, r1
 1591              	.LVL153:
 1592 0f1e 10EB020B 		adds	fp, r0, r2
 1593 0f22 41EB030C 		adc	ip, r1, r3
 1594 0f26 CDE902BC 		strd	fp, [sp, #8]
 1595              	.LVL154:
 127:..\sha512.c   ****     F(w9 ,0x12835b0145706fbeULL)
 1596              		.loc 1 127 0
 1597 0f2a A30B     		lsrs	r3, r4, #14
 1598 0f2c 2046     		mov	r0, r4
 1599              	.LVL155:
 1600 0f2e 2946     		mov	r1, r5
 1601 0f30 43EA8545 		orr	r5, r3, r5, lsl #18
 1602 0f34 CDF89856 		str	r5, [sp, #1688]
 1603 0f38 8B0B     		lsrs	r3, r1, #14
 1604 0f3a 43EA8045 		orr	r5, r3, r0, lsl #18
 1605 0f3e CDF89C56 		str	r5, [sp, #1692]
 1606 0f42 830C     		lsrs	r3, r0, #18
 1607 0f44 43EA8135 		orr	r5, r3, r1, lsl #14
 1608 0f48 CDF8A056 		str	r5, [sp, #1696]
 1609 0f4c 8B0C     		lsrs	r3, r1, #18
 1610 0f4e 43EA8035 		orr	r5, r3, r0, lsl #14
 1611 0f52 CDF8A456 		str	r5, [sp, #1700]
 1612 0f56 0DF5D363 		add	r3, sp, #1688
 1613 0f5a D3E90034 		ldrd	r3, [r3]
 1614 0f5e 0DF5D462 		add	r2, sp, #1696
 1615              	.LVL156:
 1616 0f62 D2E900AB 		ldrd	r10, [r2]
 1617 0f66 83EA0A03 		eor	r3, r3, r10
 1618 0f6a 84EA0B04 		eor	r4, r4, fp
 1619              	.LVL157:
 1620 0f6e 2546     		mov	r5, r4
 1621 0f70 1C46     		mov	r4, r3
 1622 0f72 CB05     		lsls	r3, r1, #23
 1623 0f74 43EA502E 		orr	lr, r3, r0, lsr #9
 1624 0f78 CDF8ACE6 		str	lr, [sp, #1708]
 1625 0f7c C305     		lsls	r3, r0, #23
 1626 0f7e 43EA512E 		orr	lr, r3, r1, lsr #9
 1627 0f82 CDF8A8E6 		str	lr, [sp, #1704]
 1628 0f86 0DF5D563 		add	r3, sp, #1704
 1629 0f8a D3E90023 		ldrd	r2, [r3]
 1630 0f8e 6240     		eors	r2, r2, r4
 1631 0f90 6B40     		eors	r3, r3, r5
 1632 0f92 DDE90689 		ldrd	r8, [sp, #24]
 1633 0f96 18EB0208 		adds	r8, r8, r2
 1634 0f9a 49EB0309 		adc	r9, r9, r3
 1635              	.LVL158:
 1636 0f9e 4446     		mov	r4, r8
 1637 0fa0 4D46     		mov	r5, r9
 1638 0fa2 DDE90A9A 		ldrd	r9, [sp, #40]
 1639 0fa6 09EA0009 		and	r9, r9, r0
 1640 0faa 0AEA010A 		and	r10, r10, r1
ARM GAS  C:\Users\bogur\AppData\Local\Temp\ccFZ7DD2.s 			page 32


 1641 0fae 4A46     		mov	r2, r9
 1642 0fb0 5346     		mov	r3, r10
 1643 0fb2 DDE90C89 		ldrd	r8, [sp, #48]
 1644 0fb6 23E0     		b	.L9
 1645              	.L10:
 1646              		.align	3
 1647              	.L8:
 1648 0fb8 22AE28D7 		.word	-685199838
 1649 0fbc 982F8A42 		.word	1116352408
 1650 0fc0 CD65EF23 		.word	602891725
 1651 0fc4 91443771 		.word	1899447441
 1652 0fc8 2F3B4DEC 		.word	-330482897
 1653 0fcc CFFBC0B5 		.word	-1245643825
 1654 0fd0 BCDB8981 		.word	-2121671748
 1655 0fd4 A5DBB5E9 		.word	-373957723
 1656 0fd8 38B548F3 		.word	-213338824
 1657 0fdc 5BC25639 		.word	961987163
 1658 0fe0 19D005B6 		.word	-1241133031
 1659 0fe4 F111F159 		.word	1508970993
 1660 0fe8 9B4F19AF 		.word	-1357295717
 1661 0fec A4823F92 		.word	-1841331548
 1662 0ff0 18816DDA 		.word	-630357736
 1663 0ff4 D55E1CAB 		.word	-1424204075
 1664 0ff8 420203A3 		.word	-1560083902
 1665 0ffc 98AA07D8 		.word	-670586216
 1666              	.L9:
 1667 1000 CDE90801 		strd	r0, [sp, #32]
 1668 1004 28EA0008 		bic	r8, r8, r0
 1669 1008 29EA0109 		bic	r9, r9, r1
 1670 100c 4046     		mov	r0, r8
 1671 100e 4946     		mov	r1, r9
 1672 1010 4240     		eors	r2, r2, r0
 1673 1012 4B40     		eors	r3, r3, r1
 1674 1014 A418     		adds	r4, r4, r2
 1675 1016 5D41     		adcs	r5, r5, r3
 1676 1018 DDE91023 		ldrd	r2, [sp, #64]
 1677 101c 1219     		adds	r2, r2, r4
 1678 101e 6B41     		adcs	r3, r3, r5
 1679 1020 0FF62451 		adr	r1, .L11
 1680 1024 D1E90001 		ldrd	r0, [r1]
 1681 1028 8018     		adds	r0, r0, r2
 1682 102a 5941     		adcs	r1, r1, r3
 1683              	.LVL159:
 1684 102c DDE902BC 		ldrd	fp, [sp, #8]
 1685 1030 5B46     		mov	r3, fp
 1686 1032 1B0F     		lsrs	r3, r3, #28
 1687 1034 6446     		mov	r4, ip
 1688 1036 43EA0C15 		orr	r5, r3, ip, lsl #4
 1689 103a CDF8B056 		str	r5, [sp, #1712]
 1690 103e 230F     		lsrs	r3, r4, #28
 1691 1040 5C46     		mov	r4, fp
 1692 1042 43EA0B15 		orr	r5, r3, fp, lsl #4
 1693 1046 CDF8B456 		str	r5, [sp, #1716]
 1694 104a 6346     		mov	r3, ip
 1695 104c 9B07     		lsls	r3, r3, #30
 1696 104e 43EA9B05 		orr	r5, r3, fp, lsr #2
 1697 1052 CDF8BC56 		str	r5, [sp, #1724]
ARM GAS  C:\Users\bogur\AppData\Local\Temp\ccFZ7DD2.s 			page 33


 1698 1056 A307     		lsls	r3, r4, #30
 1699 1058 43EA9C05 		orr	r5, r3, ip, lsr #2
 1700 105c CDF8B856 		str	r5, [sp, #1720]
 1701 1060 0DF5D663 		add	r3, sp, #1712
 1702 1064 D3E90089 		ldrd	r8, [r3]
 1703 1068 0DF5D763 		add	r3, sp, #1720
 1704 106c D3E90034 		ldrd	r3, [r3]
 1705 1070 88EA0308 		eor	r8, r8, r3
 1706 1074 89EA0409 		eor	r9, r9, r4
 1707 1078 4446     		mov	r4, r8
 1708 107a 4D46     		mov	r5, r9
 1709 107c 6346     		mov	r3, ip
 1710 107e 5B06     		lsls	r3, r3, #25
 1711 1080 5A46     		mov	r2, fp
 1712 1082 43EADB1E 		orr	lr, r3, fp, lsr #7
 1713 1086 CDF8C4E6 		str	lr, [sp, #1732]
 1714 108a 5306     		lsls	r3, r2, #25
 1715 108c 43EADC1E 		orr	lr, r3, ip, lsr #7
 1716 1090 CDF8C0E6 		str	lr, [sp, #1728]
 1717 1094 0DF5D863 		add	r3, sp, #1728
 1718 1098 D3E90089 		ldrd	r8, [r3]
 1719 109c 88EA0408 		eor	r8, r8, r4
 1720 10a0 89EA0509 		eor	r9, r9, r5
 1721 10a4 4446     		mov	r4, r8
 1722 10a6 4D46     		mov	r5, r9
 1723 10a8 DDE90489 		ldrd	r8, [sp, #16]
 1724 10ac 4246     		mov	r2, r8
 1725 10ae 4B46     		mov	r3, r9
 1726 10b0 7240     		eors	r2, r2, r6
 1727 10b2 7B40     		eors	r3, r3, r7
 1728 10b4 0BEA020B 		and	fp, fp, r2
 1729              	.LVL160:
 1730 10b8 0CEA030C 		and	ip, ip, r3
 1731 10bc 5A46     		mov	r2, fp
 1732 10be 08EA0608 		and	r8, r8, r6
 1733 10c2 09EA0709 		and	r9, r9, r7
 1734 10c6 88EA020A 		eor	r10, r8, r2
 1735 10ca 89EA0C0B 		eor	fp, r9, ip
 1736 10ce 1AEB0402 		adds	r2, r10, r4
 1737 10d2 4BEB0503 		adc	r3, fp, r5
 1738              	.LVL161:
 1739 10d6 DDE90045 		ldrd	r4, [sp]
 1740 10da 2418     		adds	r4, r4, r0
 1741 10dc 4D41     		adcs	r5, r5, r1
 1742 10de A246     		mov	r10, r4
 1743 10e0 AC46     		mov	ip, r5
 1744 10e2 A346     		mov	fp, r4
 1745              	.LVL162:
 1746 10e4 10EB0208 		adds	r8, r0, r2
 1747 10e8 41EB0309 		adc	r9, r1, r3
 1748 10ec CDE90689 		strd	r8, [sp, #24]
 1749              	.LVL163:
 128:..\sha512.c   ****     F(w10,0x243185be4ee4b28cULL)
 1750              		.loc 1 128 0
 1751 10f0 A30B     		lsrs	r3, r4, #14
 1752 10f2 2C46     		mov	r4, r5
 1753 10f4 43EA8545 		orr	r5, r3, r5, lsl #18
ARM GAS  C:\Users\bogur\AppData\Local\Temp\ccFZ7DD2.s 			page 34


 1754 10f8 CDF8C856 		str	r5, [sp, #1736]
 1755 10fc A30B     		lsrs	r3, r4, #14
 1756 10fe 5446     		mov	r4, r10
 1757 1100 43EA8A45 		orr	r5, r3, r10, lsl #18
 1758 1104 CDF8CC56 		str	r5, [sp, #1740]
 1759 1108 A30C     		lsrs	r3, r4, #18
 1760 110a 6446     		mov	r4, ip
 1761 110c 43EA8C35 		orr	r5, r3, ip, lsl #14
 1762 1110 CDF8D056 		str	r5, [sp, #1744]
 1763 1114 A30C     		lsrs	r3, r4, #18
 1764 1116 43EA8A35 		orr	r5, r3, r10, lsl #14
 1765 111a CDF8D456 		str	r5, [sp, #1748]
 1766 111e 0DF5D963 		add	r3, sp, #1736
 1767 1122 D3E90034 		ldrd	r3, [r3]
 1768 1126 0DF5DA62 		add	r2, sp, #1744
 1769              	.LVL164:
 1770 112a D2E90089 		ldrd	r8, [r2]
 1771              	.LVL165:
 1772 112e 83EA0803 		eor	r3, r3, r8
 1773 1132 84EA0904 		eor	r4, r4, r9
 1774 1136 1A46     		mov	r2, r3
 1775 1138 2346     		mov	r3, r4
 1776 113a 6446     		mov	r4, ip
 1777 113c E105     		lsls	r1, r4, #23
 1778 113e 41EA5A25 		orr	r5, r1, r10, lsr #9
 1779 1142 CDF8DC56 		str	r5, [sp, #1756]
 1780 1146 5446     		mov	r4, r10
 1781 1148 E105     		lsls	r1, r4, #23
 1782 114a 41EA5C25 		orr	r5, r1, ip, lsr #9
 1783 114e CDF8D856 		str	r5, [sp, #1752]
 1784 1152 0DF5DB61 		add	r1, sp, #1752
 1785 1156 D1E9009A 		ldrd	r9, [r1]
 1786 115a 89EA0209 		eor	r9, r9, r2
 1787 115e 8AEA030A 		eor	r10, r10, r3
 1788 1162 4A46     		mov	r2, r9
 1789 1164 5346     		mov	r3, r10
 1790 1166 DDE90C9A 		ldrd	r9, [sp, #48]
 1791 116a 19EB0209 		adds	r9, r9, r2
 1792 116e 4AEB030A 		adc	r10, r10, r3
 1793 1172 4A46     		mov	r2, r9
 1794 1174 5346     		mov	r3, r10
 1795 1176 DDE90889 		ldrd	r8, [sp, #32]
 1796 117a 5846     		mov	r0, fp
 1797              	.LVL166:
 1798 117c 6146     		mov	r1, ip
 1799 117e 08EA0008 		and	r8, r8, r0
 1800 1182 09EA0C09 		and	r9, r9, ip
 1801 1186 4446     		mov	r4, r8
 1802 1188 4D46     		mov	r5, r9
 1803 118a DDE90AAB 		ldrd	r10, [sp, #40]
 1804 118e CDE90C01 		strd	r0, [sp, #48]
 1805              	.LVL167:
 1806 1192 2AEA000A 		bic	r10, r10, r0
 1807 1196 2BEA0C0B 		bic	fp, fp, ip
 1808              	.LVL168:
 1809 119a 5046     		mov	r0, r10
 1810 119c 5946     		mov	r1, fp
ARM GAS  C:\Users\bogur\AppData\Local\Temp\ccFZ7DD2.s 			page 35


 1811 119e 6040     		eors	r0, r0, r4
 1812 11a0 6940     		eors	r1, r1, r5
 1813 11a2 1218     		adds	r2, r2, r0
 1814 11a4 4B41     		adcs	r3, r3, r1
 1815 11a6 DDE91289 		ldrd	r8, [sp, #72]
 1816 11aa 18EB0208 		adds	r8, r8, r2
 1817 11ae 49EB0309 		adc	r9, r9, r3
 1818 11b2 0FF69C31 		adr	r1, .L11+8
 1819 11b6 D1E90001 		ldrd	r0, [r1]
 1820 11ba 10EB0800 		adds	r0, r0, r8
 1821 11be 41EB0901 		adc	r1, r1, r9
 1822              	.LVL169:
 1823 11c2 DDE90689 		ldrd	r8, [sp, #24]
 1824 11c6 4346     		mov	r3, r8
 1825 11c8 1B0F     		lsrs	r3, r3, #28
 1826 11ca 4C46     		mov	r4, r9
 1827 11cc 43EA0915 		orr	r5, r3, r9, lsl #4
 1828 11d0 CDF8E056 		str	r5, [sp, #1760]
 1829 11d4 230F     		lsrs	r3, r4, #28
 1830 11d6 4446     		mov	r4, r8
 1831 11d8 43EA0815 		orr	r5, r3, r8, lsl #4
 1832 11dc CDF8E456 		str	r5, [sp, #1764]
 1833 11e0 4B46     		mov	r3, r9
 1834 11e2 9B07     		lsls	r3, r3, #30
 1835 11e4 43EA9805 		orr	r5, r3, r8, lsr #2
 1836 11e8 CDF8EC56 		str	r5, [sp, #1772]
 1837 11ec A307     		lsls	r3, r4, #30
 1838 11ee 43EA9905 		orr	r5, r3, r9, lsr #2
 1839 11f2 CDF8E856 		str	r5, [sp, #1768]
 1840 11f6 0DF5DC63 		add	r3, sp, #1760
 1841 11fa D3E900AB 		ldrd	r10, [r3]
 1842 11fe 0DF5DD63 		add	r3, sp, #1768
 1843 1202 D3E90034 		ldrd	r3, [r3]
 1844 1206 8AEA030A 		eor	r10, r10, r3
 1845 120a 8BEA040B 		eor	fp, fp, r4
 1846 120e 5446     		mov	r4, r10
 1847 1210 5D46     		mov	r5, fp
 1848 1212 4B46     		mov	r3, r9
 1849 1214 5B06     		lsls	r3, r3, #25
 1850 1216 4246     		mov	r2, r8
 1851 1218 43EAD81E 		orr	lr, r3, r8, lsr #7
 1852 121c CDF8F4E6 		str	lr, [sp, #1780]
 1853 1220 5306     		lsls	r3, r2, #25
 1854 1222 43EAD91E 		orr	lr, r3, r9, lsr #7
 1855 1226 CDF8F0E6 		str	lr, [sp, #1776]
 1856 122a 0DF5DE63 		add	r3, sp, #1776
 1857 122e D3E900AB 		ldrd	r10, [r3]
 1858 1232 8AEA040A 		eor	r10, r10, r4
 1859 1236 8BEA050B 		eor	fp, fp, r5
 1860 123a 5D46     		mov	r5, fp
 1861 123c DDE902BC 		ldrd	fp, [sp, #8]
 1862 1240 8BEA060B 		eor	fp, fp, r6
 1863 1244 8CEA070C 		eor	ip, ip, r7
 1864 1248 08EA0B08 		and	r8, r8, fp
 1865 124c 09EA0C09 		and	r9, r9, ip
 1866 1250 4246     		mov	r2, r8
 1867 1252 4B46     		mov	r3, r9
ARM GAS  C:\Users\bogur\AppData\Local\Temp\ccFZ7DD2.s 			page 36


 1868 1254 DDE902BC 		ldrd	fp, [sp, #8]
 1869 1258 0BEA060B 		and	fp, fp, r6
 1870 125c 0CEA070C 		and	ip, ip, r7
 1871 1260 82EA0B02 		eor	r2, r2, fp
 1872 1264 83EA0C03 		eor	r3, r3, ip
 1873 1268 12EB0A02 		adds	r2, r2, r10
 1874 126c 6B41     		adcs	r3, r3, r5
 1875              	.LVL170:
 1876 126e DDE90445 		ldrd	r4, [sp, #16]
 1877 1272 2418     		adds	r4, r4, r0
 1878 1274 4D41     		adcs	r5, r5, r1
 1879 1276 A146     		mov	r9, r4
 1880 1278 AA46     		mov	r10, r5
 1881              	.LVL171:
 1882 127a 10EB020B 		adds	fp, r0, r2
 1883 127e 41EB030C 		adc	ip, r1, r3
 1884 1282 CDE904BC 		strd	fp, [sp, #16]
 1885              	.LVL172:
 129:..\sha512.c   ****     F(w11,0x550c7dc3d5ffb4e2ULL)
 1886              		.loc 1 129 0
 1887 1286 A30B     		lsrs	r3, r4, #14
 1888 1288 A346     		mov	fp, r4
 1889              	.LVL173:
 1890 128a AC46     		mov	ip, r5
 1891 128c 5446     		mov	r4, r10
 1892 128e 43EA8545 		orr	r5, r3, r5, lsl #18
 1893 1292 CDF8F856 		str	r5, [sp, #1784]
 1894 1296 A30B     		lsrs	r3, r4, #14
 1895 1298 4C46     		mov	r4, r9
 1896 129a 43EA8945 		orr	r5, r3, r9, lsl #18
 1897 129e CDF8FC56 		str	r5, [sp, #1788]
 1898 12a2 A30C     		lsrs	r3, r4, #18
 1899 12a4 5446     		mov	r4, r10
 1900 12a6 43EA8A35 		orr	r5, r3, r10, lsl #14
 1901 12aa CDF80057 		str	r5, [sp, #1792]
 1902 12ae A30C     		lsrs	r3, r4, #18
 1903 12b0 43EA8935 		orr	r5, r3, r9, lsl #14
 1904 12b4 CDF80457 		str	r5, [sp, #1796]
 1905 12b8 0DF5DF63 		add	r3, sp, #1784
 1906 12bc D3E90034 		ldrd	r3, [r3]
 1907 12c0 0DF5E062 		add	r2, sp, #1792
 1908              	.LVL174:
 1909 12c4 D2E9009A 		ldrd	r9, [r2]
 1910              	.LVL175:
 1911 12c8 83EA0903 		eor	r3, r3, r9
 1912 12cc 84EA0A04 		eor	r4, r4, r10
 1913 12d0 1A46     		mov	r2, r3
 1914 12d2 2346     		mov	r3, r4
 1915 12d4 6446     		mov	r4, ip
 1916 12d6 E105     		lsls	r1, r4, #23
 1917 12d8 41EA5B25 		orr	r5, r1, fp, lsr #9
 1918 12dc CDF80C57 		str	r5, [sp, #1804]
 1919 12e0 5C46     		mov	r4, fp
 1920 12e2 E105     		lsls	r1, r4, #23
 1921 12e4 41EA5C25 		orr	r5, r1, ip, lsr #9
 1922 12e8 CDF80857 		str	r5, [sp, #1800]
 1923 12ec 0DF5E161 		add	r1, sp, #1800
ARM GAS  C:\Users\bogur\AppData\Local\Temp\ccFZ7DD2.s 			page 37


 1924 12f0 D1E9009A 		ldrd	r9, [r1]
 1925 12f4 89EA0209 		eor	r9, r9, r2
 1926 12f8 8AEA030A 		eor	r10, r10, r3
 1927 12fc 4A46     		mov	r2, r9
 1928 12fe 5346     		mov	r3, r10
 1929 1300 DDE90A9A 		ldrd	r9, [sp, #40]
 1930 1304 19EB0209 		adds	r9, r9, r2
 1931 1308 4AEB030A 		adc	r10, r10, r3
 1932 130c 4A46     		mov	r2, r9
 1933 130e 5346     		mov	r3, r10
 1934 1310 DDE90C9A 		ldrd	r9, [sp, #48]
 1935 1314 5C46     		mov	r4, fp
 1936 1316 6546     		mov	r5, ip
 1937 1318 09EA0B09 		and	r9, r9, fp
 1938 131c 0AEA0C0A 		and	r10, r10, ip
 1939 1320 C846     		mov	r8, r9
 1940 1322 DDE908BC 		ldrd	fp, [sp, #32]
 1941 1326 CDE90A45 		strd	r4, [sp, #40]
 1942              	.LVL176:
 1943 132a 2BEA040B 		bic	fp, fp, r4
 1944 132e 2CEA050C 		bic	ip, ip, r5
 1945 1332 88EA0B08 		eor	r8, r8, fp
 1946 1336 8AEA0C09 		eor	r9, r10, ip
 1947 133a 12EB0802 		adds	r2, r2, r8
 1948 133e 43EB0903 		adc	r3, r3, r9
 1949 1342 DDE9149A 		ldrd	r9, [sp, #80]
 1950 1346 19EB0209 		adds	r9, r9, r2
 1951 134a 4AEB030A 		adc	r10, r10, r3
 1952 134e 0FF60821 		adr	r1, .L11+16
 1953 1352 D1E90001 		ldrd	r0, [r1]
 1954              	.LVL177:
 1955 1356 10EB0900 		adds	r0, r0, r9
 1956 135a 41EB0A01 		adc	r1, r1, r10
 1957              	.LVL178:
 1958 135e DDE904AB 		ldrd	r10, [sp, #16]
 1959 1362 5346     		mov	r3, r10
 1960 1364 1B0F     		lsrs	r3, r3, #28
 1961 1366 5C46     		mov	r4, fp
 1962 1368 43EA0B15 		orr	r5, r3, fp, lsl #4
 1963 136c CDF81057 		str	r5, [sp, #1808]
 1964 1370 230F     		lsrs	r3, r4, #28
 1965 1372 5446     		mov	r4, r10
 1966 1374 43EA0A15 		orr	r5, r3, r10, lsl #4
 1967 1378 CDF81457 		str	r5, [sp, #1812]
 1968 137c 5B46     		mov	r3, fp
 1969 137e 9B07     		lsls	r3, r3, #30
 1970 1380 43EA9A05 		orr	r5, r3, r10, lsr #2
 1971 1384 CDF81C57 		str	r5, [sp, #1820]
 1972 1388 A307     		lsls	r3, r4, #30
 1973 138a 43EA9B05 		orr	r5, r3, fp, lsr #2
 1974 138e CDF81857 		str	r5, [sp, #1816]
 1975 1392 0DF5E263 		add	r3, sp, #1808
 1976 1396 D3E90034 		ldrd	r3, [r3]
 1977 139a 0DF5E362 		add	r2, sp, #1816
 1978 139e D2E90089 		ldrd	r8, [r2]
 1979 13a2 83EA0803 		eor	r3, r3, r8
 1980 13a6 84EA0904 		eor	r4, r4, r9
ARM GAS  C:\Users\bogur\AppData\Local\Temp\ccFZ7DD2.s 			page 38


 1981 13aa 2546     		mov	r5, r4
 1982 13ac 1C46     		mov	r4, r3
 1983 13ae 5B46     		mov	r3, fp
 1984 13b0 5B06     		lsls	r3, r3, #25
 1985 13b2 5246     		mov	r2, r10
 1986 13b4 43EADA1E 		orr	lr, r3, r10, lsr #7
 1987 13b8 CDF824E7 		str	lr, [sp, #1828]
 1988 13bc 5306     		lsls	r3, r2, #25
 1989 13be 43EADB1E 		orr	lr, r3, fp, lsr #7
 1990 13c2 CDF820E7 		str	lr, [sp, #1824]
 1991 13c6 0DF5E463 		add	r3, sp, #1824
 1992 13ca D3E90089 		ldrd	r8, [r3]
 1993 13ce 88EA0408 		eor	r8, r8, r4
 1994 13d2 89EA0509 		eor	r9, r9, r5
 1995 13d6 4446     		mov	r4, r8
 1996 13d8 4D46     		mov	r5, r9
 1997 13da DDE90223 		ldrd	r2, [sp, #8]
 1998 13de DDE90689 		ldrd	r8, [sp, #24]
 1999 13e2 82EA0802 		eor	r2, r2, r8
 2000 13e6 83EA0903 		eor	r3, r3, r9
 2001 13ea 0AEA020A 		and	r10, r10, r2
 2002 13ee 0BEA030B 		and	fp, fp, r3
 2003 13f2 5246     		mov	r2, r10
 2004 13f4 5B46     		mov	r3, fp
 2005 13f6 DDE902BC 		ldrd	fp, [sp, #8]
 2006 13fa CA46     		mov	r10, r9
 2007 13fc 0BEA080B 		and	fp, fp, r8
 2008 1400 0CEA0A0C 		and	ip, ip, r10
 2009 1404 82EA0B02 		eor	r2, r2, fp
 2010 1408 83EA0C03 		eor	r3, r3, ip
 2011 140c 1219     		adds	r2, r2, r4
 2012 140e 6B41     		adcs	r3, r3, r5
 2013              	.LVL179:
 2014 1410 3418     		adds	r4, r6, r0
 2015 1412 47EB0105 		adc	r5, r7, r1
 2016              	.LVL180:
 2017 1416 8618     		adds	r6, r0, r2
 2018 1418 41EB0307 		adc	r7, r1, r3
 2019 141c CDE90067 		strd	r6, [sp]
 2020              	.LVL181:
 130:..\sha512.c   ****     F(w12,0x72be5d74f27b896fULL)
 2021              		.loc 1 130 0
 2022 1420 A30B     		lsrs	r3, r4, #14
 2023 1422 43EA8547 		orr	r7, r3, r5, lsl #18
 2024 1426 CDF82877 		str	r7, [sp, #1832]
 2025 142a AB0B     		lsrs	r3, r5, #14
 2026 142c 43EA8447 		orr	r7, r3, r4, lsl #18
 2027 1430 CDF82C77 		str	r7, [sp, #1836]
 2028 1434 A30C     		lsrs	r3, r4, #18
 2029 1436 43EA8537 		orr	r7, r3, r5, lsl #14
 2030 143a CDF83077 		str	r7, [sp, #1840]
 2031 143e AB0C     		lsrs	r3, r5, #18
 2032 1440 43EA8437 		orr	r7, r3, r4, lsl #14
 2033 1444 CDF83477 		str	r7, [sp, #1844]
 2034 1448 0DF5E563 		add	r3, sp, #1832
 2035 144c D3E90078 		ldrd	r7, [r3]
 2036 1450 0DF5E663 		add	r3, sp, #1840
ARM GAS  C:\Users\bogur\AppData\Local\Temp\ccFZ7DD2.s 			page 39


 2037 1454 D3E900AB 		ldrd	r10, [r3]
 2038 1458 87EA0A07 		eor	r7, r7, r10
 2039 145c 88EA0B08 		eor	r8, r8, fp
 2040 1460 3A46     		mov	r2, r7
 2041              	.LVL182:
 2042 1462 4346     		mov	r3, r8
 2043 1464 E905     		lsls	r1, r5, #23
 2044 1466 41EA5427 		orr	r7, r1, r4, lsr #9
 2045 146a CDF83C77 		str	r7, [sp, #1852]
 2046 146e E105     		lsls	r1, r4, #23
 2047 1470 41EA5527 		orr	r7, r1, r5, lsr #9
 2048 1474 CDF83877 		str	r7, [sp, #1848]
 2049 1478 0DF5E761 		add	r1, sp, #1848
 2050 147c D1E90078 		ldrd	r7, [r1]
 2051 1480 5740     		eors	r7, r7, r2
 2052 1482 88EA0308 		eor	r8, r8, r3
 2053 1486 DDE908BC 		ldrd	fp, [sp, #32]
 2054 148a 1BEB070B 		adds	fp, fp, r7
 2055 148e 4CEB080C 		adc	ip, ip, r8
 2056 1492 DDE90A78 		ldrd	r7, [sp, #40]
 2057 1496 2740     		ands	r7, r7, r4
 2058 1498 08EA0508 		and	r8, r8, r5
 2059 149c C146     		mov	r9, r8
 2060 149e B846     		mov	r8, r7
 2061 14a0 DDE90C67 		ldrd	r6, [sp, #48]
 2062              	.LVL183:
 2063 14a4 26EA0406 		bic	r6, r6, r4
 2064 14a8 27EA0507 		bic	r7, r7, r5
 2065 14ac 88EA0608 		eor	r8, r8, r6
 2066 14b0 89EA0709 		eor	r9, r9, r7
 2067 14b4 1BEB0802 		adds	r2, fp, r8
 2068 14b8 4CEB0903 		adc	r3, ip, r9
 2069 14bc DDE916AB 		ldrd	r10, [sp, #88]
 2070 14c0 1AEB020A 		adds	r10, r10, r2
 2071 14c4 4BEB030B 		adc	fp, fp, r3
 2072 14c8 0FF69401 		adr	r1, .L11+24
 2073 14cc D1E90001 		ldrd	r0, [r1]
 2074              	.LVL184:
 2075 14d0 10EB0A00 		adds	r0, r0, r10
 2076 14d4 41EB0B01 		adc	r1, r1, fp
 2077              	.LVL185:
 2078 14d8 DDE90067 		ldrd	r6, [sp]
 2079 14dc 330F     		lsrs	r3, r6, #28
 2080 14de 43EA071E 		orr	lr, r3, r7, lsl #4
 2081 14e2 CDF840E7 		str	lr, [sp, #1856]
 2082 14e6 3B0F     		lsrs	r3, r7, #28
 2083 14e8 43EA061E 		orr	lr, r3, r6, lsl #4
 2084 14ec CDF844E7 		str	lr, [sp, #1860]
 2085 14f0 BB07     		lsls	r3, r7, #30
 2086 14f2 43EA960E 		orr	lr, r3, r6, lsr #2
 2087 14f6 CDF84CE7 		str	lr, [sp, #1868]
 2088 14fa B307     		lsls	r3, r6, #30
 2089 14fc 43EA970E 		orr	lr, r3, r7, lsr #2
 2090 1500 CDF848E7 		str	lr, [sp, #1864]
 2091 1504 0DF5E863 		add	r3, sp, #1856
 2092 1508 D3E90078 		ldrd	r7, [r3]
 2093 150c 0DF5E963 		add	r3, sp, #1864
ARM GAS  C:\Users\bogur\AppData\Local\Temp\ccFZ7DD2.s 			page 40


 2094 1510 D3E900BC 		ldrd	fp, [r3]
 2095 1514 87EA0B07 		eor	r7, r7, fp
 2096 1518 88EA0C08 		eor	r8, r8, ip
 2097 151c C146     		mov	r9, r8
 2098 151e B846     		mov	r8, r7
 2099 1520 DDE90067 		ldrd	r6, [sp]
 2100 1524 7B06     		lsls	r3, r7, #25
 2101 1526 43EAD61E 		orr	lr, r3, r6, lsr #7
 2102 152a CDF854E7 		str	lr, [sp, #1876]
 2103 152e 7306     		lsls	r3, r6, #25
 2104 1530 43EAD71E 		orr	lr, r3, r7, lsr #7
 2105 1534 CDF850E7 		str	lr, [sp, #1872]
 2106 1538 0DF5EA63 		add	r3, sp, #1872
 2107 153c D3E900BC 		ldrd	fp, [r3]
 2108 1540 8BEA080B 		eor	fp, fp, r8
 2109 1544 8CEA090C 		eor	ip, ip, r9
 2110 1548 CDE908BC 		strd	fp, [sp, #32]
 2111              	.LVL186:
 2112 154c DDE904BC 		ldrd	fp, [sp, #16]
 2113 1550 5E46     		mov	r6, fp
 2114 1552 6746     		mov	r7, ip
 2115 1554 DDE9069A 		ldrd	r9, [sp, #24]
 2116 1558 4A46     		mov	r2, r9
 2117 155a 5346     		mov	r3, r10
 2118 155c 5640     		eors	r6, r6, r2
 2119 155e 5F40     		eors	r7, r7, r3
 2120 1560 3246     		mov	r2, r6
 2121 1562 3B46     		mov	r3, r7
 2122 1564 DDE90067 		ldrd	r6, [sp]
 2123 1568 1640     		ands	r6, r6, r2
 2124 156a 1F40     		ands	r7, r7, r3
 2125 156c 3B46     		mov	r3, r7
 2126 156e 0BEA090B 		and	fp, fp, r9
 2127 1572 0CEA0A0C 		and	ip, ip, r10
 2128 1576 DA46     		mov	r10, fp
 2129 1578 86EA0A02 		eor	r2, r6, r10
 2130 157c 83EA0C03 		eor	r3, r3, ip
 2131 1580 DDE90878 		ldrd	r7, [sp, #32]
 2132 1584 BF18     		adds	r7, r7, r2
 2133 1586 48EB0308 		adc	r8, r8, r3
 2134 158a 4346     		mov	r3, r8
 2135              	.LVL187:
 2136 158c DDE90289 		ldrd	r8, [sp, #8]
 2137 1590 18EB0008 		adds	r8, r8, r0
 2138 1594 49EB0109 		adc	r9, r9, r1
 2139              	.LVL188:
 2140 1598 10EB070A 		adds	r10, r0, r7
 2141 159c 41EB030B 		adc	fp, r1, r3
 2142              	.LVL189:
 131:..\sha512.c   ****     F(w13,0x80deb1fe3b1696b1ULL)
 2143              		.loc 1 131 0
 2144 15a0 4346     		mov	r3, r8
 2145 15a2 9B0B     		lsrs	r3, r3, #14
 2146 15a4 4A46     		mov	r2, r9
 2147 15a6 43EA894E 		orr	lr, r3, r9, lsl #18
 2148 15aa CDF858E7 		str	lr, [sp, #1880]
 2149 15ae 930B     		lsrs	r3, r2, #14
ARM GAS  C:\Users\bogur\AppData\Local\Temp\ccFZ7DD2.s 			page 41


 2150 15b0 4246     		mov	r2, r8
 2151 15b2 43EA884E 		orr	lr, r3, r8, lsl #18
 2152 15b6 CDF85CE7 		str	lr, [sp, #1884]
 2153 15ba 930C     		lsrs	r3, r2, #18
 2154 15bc 4A46     		mov	r2, r9
 2155 15be 43EA893E 		orr	lr, r3, r9, lsl #14
 2156 15c2 CDF860E7 		str	lr, [sp, #1888]
 2157 15c6 930C     		lsrs	r3, r2, #18
 2158 15c8 43EA883E 		orr	lr, r3, r8, lsl #14
 2159 15cc CDF864E7 		str	lr, [sp, #1892]
 2160 15d0 0DF5EB63 		add	r3, sp, #1880
 2161 15d4 D3E90067 		ldrd	r6, [r3]
 2162 15d8 0DF5EC63 		add	r3, sp, #1888
 2163 15dc D3E90023 		ldrd	r2, [r3]
 2164 15e0 5640     		eors	r6, r6, r2
 2165 15e2 5F40     		eors	r7, r7, r3
 2166 15e4 3246     		mov	r2, r6
 2167 15e6 3B46     		mov	r3, r7
 2168 15e8 4946     		mov	r1, r9
 2169 15ea C905     		lsls	r1, r1, #23
 2170 15ec 4646     		mov	r6, r8
 2171 15ee 41EA582E 		orr	lr, r1, r8, lsr #9
 2172 15f2 CDF86CE7 		str	lr, [sp, #1900]
 2173 15f6 F105     		lsls	r1, r6, #23
 2174 15f8 41EA592E 		orr	lr, r1, r9, lsr #9
 2175 15fc CDF868E7 		str	lr, [sp, #1896]
 2176 1600 0DF5ED61 		add	r1, sp, #1896
 2177 1604 D1E90067 		ldrd	r6, [r1]
 2178 1608 5640     		eors	r6, r6, r2
 2179 160a 5F40     		eors	r7, r7, r3
 2180 160c 3246     		mov	r2, r6
 2181 160e 3B46     		mov	r3, r7
 2182 1610 DDE90C67 		ldrd	r6, [sp, #48]
 2183 1614 B618     		adds	r6, r6, r2
 2184 1616 5F41     		adcs	r7, r7, r3
 2185 1618 3246     		mov	r2, r6
 2186 161a 3B46     		mov	r3, r7
 2187 161c 4046     		mov	r0, r8
 2188              	.LVL190:
 2189 161e 4946     		mov	r1, r9
 2190 1620 4746     		mov	r7, r8
 2191 1622 2740     		ands	r7, r7, r4
 2192 1624 09EA0508 		and	r8, r9, r5
 2193              	.LVL191:
 2194 1628 3E46     		mov	r6, r7
 2195 162a 4746     		mov	r7, r8
 2196 162c B046     		mov	r8, r6
 2197 162e B946     		mov	r9, r7
 2198 1630 DDE90A67 		ldrd	r6, [sp, #40]
 2199 1634 CDE93001 		strd	r0, [sp, #192]
 2200 1638 26EA0000 		bic	r0, r6, r0
 2201 163c 27EA0101 		bic	r1, r7, r1
 2202 1640 4646     		mov	r6, r8
 2203 1642 4F46     		mov	r7, r9
 2204 1644 4640     		eors	r6, r6, r0
 2205 1646 4F40     		eors	r7, r7, r1
 2206 1648 9219     		adds	r2, r2, r6
ARM GAS  C:\Users\bogur\AppData\Local\Temp\ccFZ7DD2.s 			page 42


 2207 164a 7B41     		adcs	r3, r3, r7
 2208 164c DDE91801 		ldrd	r0, [sp, #96]
 2209 1650 8018     		adds	r0, r0, r2
 2210 1652 5941     		adcs	r1, r1, r3
 2211 1654 0246     		mov	r2, r0
 2212 1656 0B46     		mov	r3, r1
 2213 1658 0FF20C71 		adr	r1, .L11+32
 2214 165c D1E90001 		ldrd	r0, [r1]
 2215 1660 8018     		adds	r0, r0, r2
 2216 1662 5941     		adcs	r1, r1, r3
 2217              	.LVL192:
 2218 1664 4FEA1A73 		lsr	r3, r10, #28
 2219 1668 43EA0B1E 		orr	lr, r3, fp, lsl #4
 2220 166c CDF870E7 		str	lr, [sp, #1904]
 2221 1670 4FEA1B73 		lsr	r3, fp, #28
 2222 1674 43EA0A1E 		orr	lr, r3, r10, lsl #4
 2223 1678 CDF874E7 		str	lr, [sp, #1908]
 2224 167c 4FEA8B73 		lsl	r3, fp, #30
 2225 1680 43EA9A0E 		orr	lr, r3, r10, lsr #2
 2226 1684 CDF87CE7 		str	lr, [sp, #1916]
 2227 1688 4FEA8A73 		lsl	r3, r10, #30
 2228 168c 43EA9B0E 		orr	lr, r3, fp, lsr #2
 2229 1690 CDF878E7 		str	lr, [sp, #1912]
 2230 1694 0DF5EE63 		add	r3, sp, #1904
 2231 1698 D3E90067 		ldrd	r6, [r3]
 2232 169c 0DF5EF63 		add	r3, sp, #1912
 2233 16a0 D3E90023 		ldrd	r2, [r3]
 2234 16a4 5640     		eors	r6, r6, r2
 2235 16a6 5F40     		eors	r7, r7, r3
 2236 16a8 B046     		mov	r8, r6
 2237 16aa B946     		mov	r9, r7
 2238 16ac 4FEA4B63 		lsl	r3, fp, #25
 2239 16b0 43EADA1E 		orr	lr, r3, r10, lsr #7
 2240 16b4 CDF884E7 		str	lr, [sp, #1924]
 2241 16b8 4FEA4A63 		lsl	r3, r10, #25
 2242 16bc 43EADB1E 		orr	lr, r3, fp, lsr #7
 2243 16c0 CDF880E7 		str	lr, [sp, #1920]
 2244 16c4 0DF5F063 		add	r3, sp, #1920
 2245 16c8 D3E90067 		ldrd	r6, [r3]
 2246 16cc 4246     		mov	r2, r8
 2247 16ce 4B46     		mov	r3, r9
 2248 16d0 5640     		eors	r6, r6, r2
 2249 16d2 5F40     		eors	r7, r7, r3
 2250 16d4 CDE90267 		strd	r6, [sp, #8]
 2251 16d8 DDE90489 		ldrd	r8, [sp, #16]
 2252 16dc 4646     		mov	r6, r8
 2253 16de 4F46     		mov	r7, r9
 2254 16e0 DDE90023 		ldrd	r2, [sp]
 2255 16e4 7240     		eors	r2, r2, r6
 2256 16e6 7B40     		eors	r3, r3, r7
 2257 16e8 02EA0A02 		and	r2, r2, r10
 2258 16ec 03EA0B03 		and	r3, r3, fp
 2259 16f0 4646     		mov	r6, r8
 2260 16f2 4F46     		mov	r7, r9
 2261 16f4 DDE90089 		ldrd	r8, [sp]
 2262 16f8 08EA0608 		and	r8, r8, r6
 2263 16fc 09EA0709 		and	r9, r9, r7
ARM GAS  C:\Users\bogur\AppData\Local\Temp\ccFZ7DD2.s 			page 43


 2264 1700 4646     		mov	r6, r8
 2265 1702 4F46     		mov	r7, r9
 2266 1704 5640     		eors	r6, r6, r2
 2267 1706 5F40     		eors	r7, r7, r3
 2268 1708 3246     		mov	r2, r6
 2269 170a 3B46     		mov	r3, r7
 2270 170c DDE90267 		ldrd	r6, [sp, #8]
 2271 1710 B618     		adds	r6, r6, r2
 2272 1712 5F41     		adcs	r7, r7, r3
 2273 1714 3246     		mov	r2, r6
 2274 1716 3B46     		mov	r3, r7
 2275              	.LVL193:
 2276 1718 DDE90667 		ldrd	r6, [sp, #24]
 2277 171c 3618     		adds	r6, r6, r0
 2278 171e 4F41     		adcs	r7, r7, r1
 2279 1720 B046     		mov	r8, r6
 2280 1722 B946     		mov	r9, r7
 2281              	.LVL194:
 2282 1724 8618     		adds	r6, r0, r2
 2283 1726 41EB0307 		adc	r7, r1, r3
 2284              	.LVL195:
 132:..\sha512.c   ****     F(w14,0x9bdc06a725c71235ULL)
 2285              		.loc 1 132 0
 2286 172a 4346     		mov	r3, r8
 2287 172c 9B0B     		lsrs	r3, r3, #14
 2288 172e 4A46     		mov	r2, r9
 2289              	.LVL196:
 2290 1730 43EA894E 		orr	lr, r3, r9, lsl #18
 2291 1734 CDF888E7 		str	lr, [sp, #1928]
 2292 1738 930B     		lsrs	r3, r2, #14
 2293 173a 4246     		mov	r2, r8
 2294 173c 43EA884E 		orr	lr, r3, r8, lsl #18
 2295 1740 CDF88CE7 		str	lr, [sp, #1932]
 2296 1744 930C     		lsrs	r3, r2, #18
 2297 1746 4A46     		mov	r2, r9
 2298 1748 43EA893E 		orr	lr, r3, r9, lsl #14
 2299 174c CDF890E7 		str	lr, [sp, #1936]
 2300 1750 930C     		lsrs	r3, r2, #18
 2301 1752 43EA883E 		orr	lr, r3, r8, lsl #14
 2302 1756 CDF894E7 		str	lr, [sp, #1940]
 2303 175a 0DF5F163 		add	r3, sp, #1928
 2304 175e D3E90023 		ldrd	r2, [r3]
 2305 1762 0DF5F261 		add	r1, sp, #1936
 2306 1766 D1E90001 		ldrd	r0, [r1]
 2307              	.LVL197:
 2308 176a 4240     		eors	r2, r2, r0
 2309 176c 4B40     		eors	r3, r3, r1
 2310 176e 4946     		mov	r1, r9
 2311 1770 C905     		lsls	r1, r1, #23
 2312 1772 4046     		mov	r0, r8
 2313 1774 41EA582E 		orr	lr, r1, r8, lsr #9
 2314 1778 CDF89CE7 		str	lr, [sp, #1948]
 2315 177c C105     		lsls	r1, r0, #23
 2316 177e 41EA592E 		orr	lr, r1, r9, lsr #9
 2317 1782 CDF898E7 		str	lr, [sp, #1944]
 2318 1786 0DF5F361 		add	r1, sp, #1944
 2319 178a D1E90001 		ldrd	r0, [r1]
ARM GAS  C:\Users\bogur\AppData\Local\Temp\ccFZ7DD2.s 			page 44


 2320 178e 5040     		eors	r0, r0, r2
 2321 1790 5940     		eors	r1, r1, r3
 2322 1792 0246     		mov	r2, r0
 2323 1794 0B46     		mov	r3, r1
 2324 1796 DDE90A01 		ldrd	r0, [sp, #40]
 2325 179a 8018     		adds	r0, r0, r2
 2326 179c 5941     		adcs	r1, r1, r3
 2327 179e CDE90201 		strd	r0, [sp, #8]
 2328 17a2 4046     		mov	r0, r8
 2329 17a4 4946     		mov	r1, r9
 2330 17a6 DDE93023 		ldrd	r2, [sp, #192]
 2331 17aa 0240     		ands	r2, r2, r0
 2332 17ac 0B40     		ands	r3, r3, r1
 2333 17ae CDE93289 		strd	r8, [sp, #200]
 2334 17b2 24EA0800 		bic	r0, r4, r8
 2335 17b6 25EA0901 		bic	r1, r5, r9
 2336 17ba 4240     		eors	r2, r2, r0
 2337 17bc 4B40     		eors	r3, r3, r1
 2338 17be DDE90289 		ldrd	r8, [sp, #8]
 2339              	.LVL198:
 2340 17c2 18EB0208 		adds	r8, r8, r2
 2341 17c6 49EB0309 		adc	r9, r9, r3
 2342 17ca DDE91E01 		ldrd	r0, [sp, #120]
 2343 17ce 10EB0800 		adds	r0, r0, r8
 2344 17d2 41EB0901 		adc	r1, r1, r9
 2345 17d6 0246     		mov	r2, r0
 2346 17d8 0B46     		mov	r3, r1
 2347 17da 0FF29451 		adr	r1, .L11+40
 2348 17de D1E90001 		ldrd	r0, [r1]
 2349 17e2 8018     		adds	r0, r0, r2
 2350 17e4 5941     		adcs	r1, r1, r3
 2351              	.LVL199:
 2352 17e6 330F     		lsrs	r3, r6, #28
 2353 17e8 B046     		mov	r8, r6
 2354 17ea B946     		mov	r9, r7
 2355 17ec 43EA071E 		orr	lr, r3, r7, lsl #4
 2356 17f0 CDF8A0E7 		str	lr, [sp, #1952]
 2357 17f4 3B0F     		lsrs	r3, r7, #28
 2358 17f6 43EA061E 		orr	lr, r3, r6, lsl #4
 2359 17fa CDF8A4E7 		str	lr, [sp, #1956]
 2360 17fe BB07     		lsls	r3, r7, #30
 2361 1800 43EA960E 		orr	lr, r3, r6, lsr #2
 2362 1804 CDF8ACE7 		str	lr, [sp, #1964]
 2363 1808 B307     		lsls	r3, r6, #30
 2364 180a 43EA9707 		orr	r7, r3, r7, lsr #2
 2365 180e CDF8A877 		str	r7, [sp, #1960]
 2366 1812 0DF5F463 		add	r3, sp, #1952
 2367 1816 D3E90023 		ldrd	r2, [r3]
 2368 181a 0DF5F566 		add	r6, sp, #1960
 2369              	.LVL200:
 2370 181e D6E90067 		ldrd	r6, [r6]
 2371 1822 7240     		eors	r2, r2, r6
 2372 1824 7B40     		eors	r3, r3, r7
 2373 1826 CDE90223 		strd	r2, [sp, #8]
 2374 182a 4B46     		mov	r3, r9
 2375 182c 5B06     		lsls	r3, r3, #25
 2376 182e 4246     		mov	r2, r8
ARM GAS  C:\Users\bogur\AppData\Local\Temp\ccFZ7DD2.s 			page 45


 2377 1830 43EAD81E 		orr	lr, r3, r8, lsr #7
 2378 1834 CDF8B4E7 		str	lr, [sp, #1972]
 2379 1838 5306     		lsls	r3, r2, #25
 2380 183a 43EAD917 		orr	r7, r3, r9, lsr #7
 2381 183e CDF8B077 		str	r7, [sp, #1968]
 2382 1842 0DF5F663 		add	r3, sp, #1968
 2383 1846 D3E90023 		ldrd	r2, [r3]
 2384 184a DDE90267 		ldrd	r6, [sp, #8]
 2385 184e 7240     		eors	r2, r2, r6
 2386 1850 7B40     		eors	r3, r3, r7
 2387 1852 CDE90223 		strd	r2, [sp, #8]
 2388 1856 DDE90023 		ldrd	r2, [sp]
 2389 185a 82EA0A02 		eor	r2, r2, r10
 2390 185e 83EA0B03 		eor	r3, r3, fp
 2391 1862 CDE92289 		strd	r8, [sp, #136]
 2392 1866 4646     		mov	r6, r8
 2393 1868 4F46     		mov	r7, r9
 2394 186a 1640     		ands	r6, r6, r2
 2395 186c 1F40     		ands	r7, r7, r3
 2396 186e 3246     		mov	r2, r6
 2397 1870 3B46     		mov	r3, r7
 2398 1872 DDE90067 		ldrd	r6, [sp]
 2399 1876 06EA0A06 		and	r6, r6, r10
 2400 187a 07EA0B07 		and	r7, r7, fp
 2401 187e 5640     		eors	r6, r6, r2
 2402 1880 5F40     		eors	r7, r7, r3
 2403 1882 3246     		mov	r2, r6
 2404 1884 3B46     		mov	r3, r7
 2405 1886 DDE90267 		ldrd	r6, [sp, #8]
 2406 188a B618     		adds	r6, r6, r2
 2407 188c 5F41     		adcs	r7, r7, r3
 2408 188e 3246     		mov	r2, r6
 2409 1890 3B46     		mov	r3, r7
 2410              	.LVL201:
 2411 1892 DDE90467 		ldrd	r6, [sp, #16]
 2412 1896 3618     		adds	r6, r6, r0
 2413 1898 4F41     		adcs	r7, r7, r1
 2414 189a B046     		mov	r8, r6
 2415 189c B946     		mov	r9, r7
 2416              	.LVL202:
 2417 189e 8618     		adds	r6, r0, r2
 2418 18a0 41EB0307 		adc	r7, r1, r3
 2419 18a4 CDE90467 		strd	r6, [sp, #16]
 2420              	.LVL203:
 133:..\sha512.c   ****     F(w15,0xc19bf174cf692694ULL)
 2421              		.loc 1 133 0
 2422 18a8 4346     		mov	r3, r8
 2423 18aa 9B0B     		lsrs	r3, r3, #14
 2424 18ac 4646     		mov	r6, r8
 2425              	.LVL204:
 2426 18ae 4F46     		mov	r7, r9
 2427 18b0 43EA894E 		orr	lr, r3, r9, lsl #18
 2428 18b4 CDF8B8E7 		str	lr, [sp, #1976]
 2429 18b8 BB0B     		lsrs	r3, r7, #14
 2430 18ba 43EA884E 		orr	lr, r3, r8, lsl #18
 2431 18be CDF8BCE7 		str	lr, [sp, #1980]
 2432 18c2 B30C     		lsrs	r3, r6, #18
ARM GAS  C:\Users\bogur\AppData\Local\Temp\ccFZ7DD2.s 			page 46


 2433 18c4 43EA893E 		orr	lr, r3, r9, lsl #14
 2434 18c8 CDF8C0E7 		str	lr, [sp, #1984]
 2435 18cc BB0C     		lsrs	r3, r7, #18
 2436 18ce 43EA883E 		orr	lr, r3, r8, lsl #14
 2437 18d2 CDF8C4E7 		str	lr, [sp, #1988]
 2438 18d6 0DF5F763 		add	r3, sp, #1976
 2439 18da D3E90023 		ldrd	r2, [r3]
 2440              	.LVL205:
 2441 18de 0DF5F861 		add	r1, sp, #1984
 2442 18e2 D1E90001 		ldrd	r0, [r1]
 2443              	.LVL206:
 2444 18e6 4240     		eors	r2, r2, r0
 2445 18e8 4B40     		eors	r3, r3, r1
 2446 18ea F905     		lsls	r1, r7, #23
 2447 18ec 41EA582E 		orr	lr, r1, r8, lsr #9
 2448 18f0 CDF8CCE7 		str	lr, [sp, #1996]
 2449 18f4 F105     		lsls	r1, r6, #23
 2450 18f6 41EA592E 		orr	lr, r1, r9, lsr #9
 2451 18fa CDF8C8E7 		str	lr, [sp, #1992]
 2452 18fe 0DF5F961 		add	r1, sp, #1992
 2453 1902 D1E90001 		ldrd	r0, [r1]
 2454 1906 5040     		eors	r0, r0, r2
 2455 1908 5940     		eors	r1, r1, r3
 2456 190a 10EB0408 		adds	r8, r0, r4
 2457              	.LVL207:
 2458 190e 41EB0509 		adc	r9, r1, r5
 2459 1912 DDE93234 		ldrd	r3, [sp, #200]
 2460 1916 3046     		mov	r0, r6
 2461 1918 3946     		mov	r1, r7
 2462 191a 0340     		ands	r3, r3, r0
 2463 191c 3C40     		ands	r4, r4, r7
 2464              	.LVL208:
 2465 191e 2546     		mov	r5, r4
 2466 1920 1C46     		mov	r4, r3
 2467 1922 B4AB     		add	r3, sp, #720
 2468 1924 C3E90001 		strd	r0, [r3]
 2469 1928 DDE93023 		ldrd	r2, [sp, #192]
 2470 192c 22EA0002 		bic	r2, r2, r0
 2471 1930 23EA0703 		bic	r3, r3, r7
 2472 1934 1046     		mov	r0, r2
 2473 1936 1946     		mov	r1, r3
 2474 1938 6040     		eors	r0, r0, r4
 2475 193a 6940     		eors	r1, r1, r5
 2476 193c 18EB0002 		adds	r2, r8, r0
 2477 1940 49EB0103 		adc	r3, r9, r1
 2478 1944 DDE92045 		ldrd	r4, [sp, #128]
 2479 1948 A418     		adds	r4, r4, r2
 2480 194a 5D41     		adcs	r5, r5, r3
 2481 194c 0FF22841 		adr	r1, .L11+48
 2482 1950 D1E90001 		ldrd	r0, [r1]
 2483 1954 0019     		adds	r0, r0, r4
 2484 1956 6941     		adcs	r1, r1, r5
 2485              	.LVL209:
 2486 1958 DDE90456 		ldrd	r5, [sp, #16]
 2487 195c 2B0F     		lsrs	r3, r5, #28
 2488 195e 43EA0617 		orr	r7, r3, r6, lsl #4
 2489 1962 CDF8D077 		str	r7, [sp, #2000]
ARM GAS  C:\Users\bogur\AppData\Local\Temp\ccFZ7DD2.s 			page 47


 2490 1966 330F     		lsrs	r3, r6, #28
 2491 1968 43EA0517 		orr	r7, r3, r5, lsl #4
 2492 196c CDF8D477 		str	r7, [sp, #2004]
 2493 1970 B307     		lsls	r3, r6, #30
 2494 1972 43EA9507 		orr	r7, r3, r5, lsr #2
 2495 1976 CDF8DC77 		str	r7, [sp, #2012]
 2496 197a AB07     		lsls	r3, r5, #30
 2497 197c 2F46     		mov	r7, r5
 2498 197e B046     		mov	r8, r6
 2499 1980 43EA9605 		orr	r5, r3, r6, lsr #2
 2500 1984 CDF8D857 		str	r5, [sp, #2008]
 2501 1988 0DF5FA63 		add	r3, sp, #2000
 2502 198c D3E90034 		ldrd	r3, [r3]
 2503 1990 0DF5FB62 		add	r2, sp, #2008
 2504 1994 D2E90056 		ldrd	r5, [r2]
 2505 1998 6B40     		eors	r3, r3, r5
 2506 199a 7440     		eors	r4, r4, r6
 2507 199c 2546     		mov	r5, r4
 2508 199e 1C46     		mov	r4, r3
 2509 19a0 4346     		mov	r3, r8
 2510 19a2 5B06     		lsls	r3, r3, #25
 2511 19a4 3E46     		mov	r6, r7
 2512 19a6 43EAD61E 		orr	lr, r3, r6, lsr #7
 2513 19aa CDF8E4E7 		str	lr, [sp, #2020]
 2514 19ae 7306     		lsls	r3, r6, #25
 2515 19b0 43EAD817 		orr	r7, r3, r8, lsr #7
 2516 19b4 CDF8E077 		str	r7, [sp, #2016]
 2517 19b8 0DF5FC63 		add	r3, sp, #2016
 2518 19bc D3E90067 		ldrd	r6, [r3]
 2519 19c0 6640     		eors	r6, r6, r4
 2520 19c2 6F40     		eors	r7, r7, r5
 2521 19c4 3446     		mov	r4, r6
 2522 19c6 3D46     		mov	r5, r7
 2523 19c8 DDE92289 		ldrd	r8, [sp, #136]
 2524 19cc 88EA0A06 		eor	r6, r8, r10
 2525 19d0 89EA0B07 		eor	r7, r9, fp
 2526 19d4 3246     		mov	r2, r6
 2527 19d6 3B46     		mov	r3, r7
 2528 19d8 DDE90467 		ldrd	r6, [sp, #16]
 2529 19dc 1640     		ands	r6, r6, r2
 2530 19de 1F40     		ands	r7, r7, r3
 2531 19e0 3246     		mov	r2, r6
 2532 19e2 3B46     		mov	r3, r7
 2533 19e4 08EA0A06 		and	r6, r8, r10
 2534 19e8 09EA0B07 		and	r7, r9, fp
 2535 19ec 5640     		eors	r6, r6, r2
 2536 19ee 5F40     		eors	r7, r7, r3
 2537 19f0 3219     		adds	r2, r6, r4
 2538 19f2 47EB0503 		adc	r3, r7, r5
 2539              	.LVL210:
 2540 19f6 DDE90045 		ldrd	r4, [sp]
 2541 19fa 2418     		adds	r4, r4, r0
 2542 19fc 4D41     		adcs	r5, r5, r1
 2543              	.LVL211:
 2544 19fe 8618     		adds	r6, r0, r2
 2545 1a00 41EB0307 		adc	r7, r1, r3
 2546              	.LVL212:
ARM GAS  C:\Users\bogur\AppData\Local\Temp\ccFZ7DD2.s 			page 48


 134:..\sha512.c   **** 
 135:..\sha512.c   ****     EXPAND
 2547              		.loc 1 135 0
 2548 1a04 DDE91E89 		ldrd	r8, [sp, #120]
 2549 1a08 4346     		mov	r3, r8
 2550 1a0a DB0C     		lsrs	r3, r3, #19
 2551 1a0c 4846     		mov	r0, r9
 2552              	.LVL213:
 2553 1a0e 43EA493E 		orr	lr, r3, r9, lsl #13
 2554 1a12 CDF8E8E7 		str	lr, [sp, #2024]
 2555 1a16 C30C     		lsrs	r3, r0, #19
 2556 1a18 4046     		mov	r0, r8
 2557 1a1a 43EA483E 		orr	lr, r3, r8, lsl #13
 2558 1a1e CDF8ECE7 		str	lr, [sp, #2028]
 2559 1a22 4B46     		mov	r3, r9
 2560 1a24 DB00     		lsls	r3, r3, #3
 2561 1a26 43EA587E 		orr	lr, r3, r8, lsr #29
 2562 1a2a CDF8F4E7 		str	lr, [sp, #2036]
 2563 1a2e C300     		lsls	r3, r0, #3
 2564 1a30 43EA597E 		orr	lr, r3, r9, lsr #29
 2565 1a34 CDF8F0E7 		str	lr, [sp, #2032]
 2566 1a38 0DF5FD63 		add	r3, sp, #2024
 2567 1a3c D3E90023 		ldrd	r2, [r3]
 2568              	.LVL214:
 2569 1a40 0DF5FE61 		add	r1, sp, #2032
 2570 1a44 D1E90001 		ldrd	r0, [r1]
 2571 1a48 4240     		eors	r2, r2, r0
 2572 1a4a 4B40     		eors	r3, r3, r1
 2573 1a4c 1046     		mov	r0, r2
 2574 1a4e 1946     		mov	r1, r3
 2575 1a50 4346     		mov	r3, r8
 2576 1a52 9B09     		lsrs	r3, r3, #6
 2577 1a54 4A46     		mov	r2, r9
 2578 1a56 43EA896E 		orr	lr, r3, r9, lsl #26
 2579 1a5a CDF8D0E0 		str	lr, [sp, #208]
 2580 1a5e 9309     		lsrs	r3, r2, #6
 2581 1a60 3593     		str	r3, [sp, #212]
 2582 1a62 DDE93423 		ldrd	r2, [sp, #208]
 2583 1a66 4240     		eors	r2, r2, r0
 2584 1a68 4B40     		eors	r3, r3, r1
 2585 1a6a 1046     		mov	r0, r2
 2586 1a6c 1946     		mov	r1, r3
 2587 1a6e DDE91023 		ldrd	r2, [sp, #64]
 2588 1a72 1218     		adds	r2, r2, r0
 2589 1a74 4B41     		adcs	r3, r3, r1
 2590 1a76 CDE90023 		strd	r2, [sp]
 2591 1a7a DDE90E89 		ldrd	r8, [sp, #56]
 2592 1a7e 4346     		mov	r3, r8
 2593 1a80 5B08     		lsrs	r3, r3, #1
 2594 1a82 4A46     		mov	r2, r9
 2595 1a84 43EAC97E 		orr	lr, r3, r9, lsl #31
 2596 1a88 CDF8F8E7 		str	lr, [sp, #2040]
 2597 1a8c 5308     		lsrs	r3, r2, #1
 2598 1a8e 4246     		mov	r2, r8
 2599 1a90 43EAC87E 		orr	lr, r3, r8, lsl #31
 2600 1a94 CDF8FCE7 		str	lr, [sp, #2044]
 2601 1a98 130A     		lsrs	r3, r2, #8
ARM GAS  C:\Users\bogur\AppData\Local\Temp\ccFZ7DD2.s 			page 49


 2602 1a9a 4A46     		mov	r2, r9
 2603 1a9c 43EA096E 		orr	lr, r3, r9, lsl #24
 2604 1aa0 CDF800E8 		str	lr, [sp, #2048]
 2605 1aa4 130A     		lsrs	r3, r2, #8
 2606 1aa6 43EA086E 		orr	lr, r3, r8, lsl #24
 2607 1aaa CDF804E8 		str	lr, [sp, #2052]
 2608 1aae 0DF5FF63 		add	r3, sp, #2040
 2609 1ab2 D3E90023 		ldrd	r2, [r3]
 2610 1ab6 0DF50061 		add	r1, sp, #2048
 2611 1aba D1E90001 		ldrd	r0, [r1]
 2612 1abe 4240     		eors	r2, r2, r0
 2613 1ac0 4B40     		eors	r3, r3, r1
 2614 1ac2 4046     		mov	r0, r8
 2615 1ac4 C009     		lsrs	r0, r0, #7
 2616 1ac6 8646     		mov	lr, r0
 2617 1ac8 4EEA496E 		orr	lr, lr, r9, lsl #25
 2618 1acc CDF8D8E0 		str	lr, [sp, #216]
 2619 1ad0 4846     		mov	r0, r9
 2620 1ad2 C009     		lsrs	r0, r0, #7
 2621 1ad4 3790     		str	r0, [sp, #220]
 2622 1ad6 DDE93601 		ldrd	r0, [sp, #216]
 2623 1ada 5040     		eors	r0, r0, r2
 2624 1adc 5940     		eors	r1, r1, r3
 2625 1ade DDE90089 		ldrd	r8, [sp]
 2626 1ae2 18EB0008 		adds	r8, r8, r0
 2627 1ae6 49EB0109 		adc	r9, r9, r1
 2628 1aea 0DF59B61 		add	r1, sp, #1240
 2629 1aee D1E90001 		ldrd	r0, [r1]
 2630 1af2 10EB0800 		adds	r0, r0, r8
 2631 1af6 41EB0901 		adc	r1, r1, r9
 2632 1afa CDE92401 		strd	r0, [sp, #144]
 2633              	.LVL215:
 2634 1afe DDE92089 		ldrd	r8, [sp, #128]
 2635 1b02 4346     		mov	r3, r8
 2636 1b04 DB0C     		lsrs	r3, r3, #19
 2637 1b06 4846     		mov	r0, r9
 2638              	.LVL216:
 2639 1b08 43EA493E 		orr	lr, r3, r9, lsl #13
 2640 1b0c CDF808E8 		str	lr, [sp, #2056]
 2641 1b10 C30C     		lsrs	r3, r0, #19
 2642 1b12 4046     		mov	r0, r8
 2643 1b14 43EA483E 		orr	lr, r3, r8, lsl #13
 2644 1b18 CDF80CE8 		str	lr, [sp, #2060]
 2645 1b1c 4B46     		mov	r3, r9
 2646 1b1e DB00     		lsls	r3, r3, #3
 2647 1b20 43EA587E 		orr	lr, r3, r8, lsr #29
 2648 1b24 CDF814E8 		str	lr, [sp, #2068]
 2649 1b28 C300     		lsls	r3, r0, #3
 2650 1b2a 43EA597E 		orr	lr, r3, r9, lsr #29
 2651 1b2e CDF810E8 		str	lr, [sp, #2064]
 2652 1b32 0DF60803 		addw	r3, sp, #2056
 2653 1b36 D3E90023 		ldrd	r2, [r3]
 2654 1b3a 0DF50161 		add	r1, sp, #2064
 2655 1b3e D1E90001 		ldrd	r0, [r1]
 2656 1b42 4240     		eors	r2, r2, r0
 2657 1b44 4B40     		eors	r3, r3, r1
 2658 1b46 1046     		mov	r0, r2
ARM GAS  C:\Users\bogur\AppData\Local\Temp\ccFZ7DD2.s 			page 50


 2659 1b48 1946     		mov	r1, r3
 2660 1b4a 4346     		mov	r3, r8
 2661 1b4c 9B09     		lsrs	r3, r3, #6
 2662 1b4e 4A46     		mov	r2, r9
 2663 1b50 43EA896E 		orr	lr, r3, r9, lsl #26
 2664 1b54 CDF8E0E0 		str	lr, [sp, #224]
 2665 1b58 9309     		lsrs	r3, r2, #6
 2666 1b5a 3993     		str	r3, [sp, #228]
 2667 1b5c DDE93823 		ldrd	r2, [sp, #224]
 2668 1b60 4240     		eors	r2, r2, r0
 2669 1b62 4B40     		eors	r3, r3, r1
 2670 1b64 1046     		mov	r0, r2
 2671 1b66 1946     		mov	r1, r3
 2672 1b68 DDE91223 		ldrd	r2, [sp, #72]
 2673 1b6c 1218     		adds	r2, r2, r0
 2674 1b6e 4B41     		adcs	r3, r3, r1
 2675 1b70 CDE90023 		strd	r2, [sp]
 2676 1b74 DDE91A89 		ldrd	r8, [sp, #104]
 2677 1b78 4346     		mov	r3, r8
 2678 1b7a 5B08     		lsrs	r3, r3, #1
 2679 1b7c 4A46     		mov	r2, r9
 2680 1b7e 43EAC973 		orr	r3, r3, r9, lsl #31
 2681 1b82 CDF81838 		str	r3, [sp, #2072]
 2682 1b86 5308     		lsrs	r3, r2, #1
 2683 1b88 4246     		mov	r2, r8
 2684 1b8a 43EAC873 		orr	r3, r3, r8, lsl #31
 2685 1b8e CDF81C38 		str	r3, [sp, #2076]
 2686 1b92 130A     		lsrs	r3, r2, #8
 2687 1b94 4A46     		mov	r2, r9
 2688 1b96 43EA0963 		orr	r3, r3, r9, lsl #24
 2689 1b9a CDF82038 		str	r3, [sp, #2080]
 2690 1b9e 130A     		lsrs	r3, r2, #8
 2691 1ba0 43EA0863 		orr	r3, r3, r8, lsl #24
 2692 1ba4 CDF82438 		str	r3, [sp, #2084]
 2693 1ba8 0DF61803 		addw	r3, sp, #2072
 2694 1bac D3E90023 		ldrd	r2, [r3]
 2695 1bb0 0DF50261 		add	r1, sp, #2080
 2696 1bb4 D1E90001 		ldrd	r0, [r1]
 2697 1bb8 4240     		eors	r2, r2, r0
 2698 1bba 4B40     		eors	r3, r3, r1
 2699 1bbc 4046     		mov	r0, r8
 2700 1bbe C009     		lsrs	r0, r0, #7
 2701 1bc0 8646     		mov	lr, r0
 2702 1bc2 4EEA496E 		orr	lr, lr, r9, lsl #25
 2703 1bc6 CDF8E8E0 		str	lr, [sp, #232]
 2704 1bca 4846     		mov	r0, r9
 2705 1bcc C009     		lsrs	r0, r0, #7
 2706 1bce 3B90     		str	r0, [sp, #236]
 2707 1bd0 DDE93A01 		ldrd	r0, [sp, #232]
 2708 1bd4 5040     		eors	r0, r0, r2
 2709 1bd6 5940     		eors	r1, r1, r3
 2710 1bd8 DDE90089 		ldrd	r8, [sp]
 2711 1bdc 18EB0008 		adds	r8, r8, r0
 2712 1be0 49EB0109 		adc	r9, r9, r1
 2713 1be4 DDE90E01 		ldrd	r0, [sp, #56]
 2714 1be8 10EB0800 		adds	r0, r0, r8
 2715 1bec 41EB0901 		adc	r1, r1, r9
ARM GAS  C:\Users\bogur\AppData\Local\Temp\ccFZ7DD2.s 			page 51


 2716 1bf0 CDE90601 		strd	r0, [sp, #24]
 2717              	.LVL217:
 2718 1bf4 DDE92489 		ldrd	r8, [sp, #144]
 2719 1bf8 4346     		mov	r3, r8
 2720 1bfa DB0C     		lsrs	r3, r3, #19
 2721 1bfc 4846     		mov	r0, r9
 2722              	.LVL218:
 2723 1bfe 43EA4933 		orr	r3, r3, r9, lsl #13
 2724 1c02 CDF82838 		str	r3, [sp, #2088]
 2725 1c06 C30C     		lsrs	r3, r0, #19
 2726 1c08 4046     		mov	r0, r8
 2727 1c0a 43EA4833 		orr	r3, r3, r8, lsl #13
 2728 1c0e CDF82C38 		str	r3, [sp, #2092]
 2729 1c12 4B46     		mov	r3, r9
 2730 1c14 DB00     		lsls	r3, r3, #3
 2731 1c16 43EA5873 		orr	r3, r3, r8, lsr #29
 2732 1c1a CDF83438 		str	r3, [sp, #2100]
 2733 1c1e C300     		lsls	r3, r0, #3
 2734 1c20 43EA5973 		orr	r3, r3, r9, lsr #29
 2735 1c24 CDF83038 		str	r3, [sp, #2096]
 2736 1c28 0DF62803 		addw	r3, sp, #2088
 2737 1c2c D3E90023 		ldrd	r2, [r3]
 2738 1c30 0DF50361 		add	r1, sp, #2096
 2739 1c34 D1E90001 		ldrd	r0, [r1]
 2740 1c38 4240     		eors	r2, r2, r0
 2741 1c3a 4B40     		eors	r3, r3, r1
 2742 1c3c 1046     		mov	r0, r2
 2743 1c3e 1946     		mov	r1, r3
 2744 1c40 4346     		mov	r3, r8
 2745 1c42 9B09     		lsrs	r3, r3, #6
 2746 1c44 4A46     		mov	r2, r9
 2747 1c46 43EA8963 		orr	r3, r3, r9, lsl #26
 2748 1c4a 3C93     		str	r3, [sp, #240]
 2749 1c4c 9309     		lsrs	r3, r2, #6
 2750 1c4e 3D93     		str	r3, [sp, #244]
 2751 1c50 DDE93C23 		ldrd	r2, [sp, #240]
 2752 1c54 4240     		eors	r2, r2, r0
 2753 1c56 4B40     		eors	r3, r3, r1
 2754 1c58 1046     		mov	r0, r2
 2755 1c5a 1946     		mov	r1, r3
 2756 1c5c DDE91423 		ldrd	r2, [sp, #80]
 2757 1c60 1218     		adds	r2, r2, r0
 2758 1c62 4B41     		adcs	r3, r3, r1
 2759 1c64 CDE90023 		strd	r2, [sp]
 2760 1c68 DDE91C89 		ldrd	r8, [sp, #112]
 2761 1c6c 4346     		mov	r3, r8
 2762 1c6e 5B08     		lsrs	r3, r3, #1
 2763 1c70 4A46     		mov	r2, r9
 2764 1c72 43EAC973 		orr	r3, r3, r9, lsl #31
 2765 1c76 CDF83838 		str	r3, [sp, #2104]
 2766 1c7a 5308     		lsrs	r3, r2, #1
 2767 1c7c 4246     		mov	r2, r8
 2768 1c7e 43EAC873 		orr	r3, r3, r8, lsl #31
 2769 1c82 CDF83C38 		str	r3, [sp, #2108]
 2770 1c86 130A     		lsrs	r3, r2, #8
 2771 1c88 4A46     		mov	r2, r9
 2772 1c8a 43EA0963 		orr	r3, r3, r9, lsl #24
ARM GAS  C:\Users\bogur\AppData\Local\Temp\ccFZ7DD2.s 			page 52


 2773 1c8e CDF84038 		str	r3, [sp, #2112]
 2774 1c92 130A     		lsrs	r3, r2, #8
 2775 1c94 43EA0863 		orr	r3, r3, r8, lsl #24
 2776 1c98 CDF84438 		str	r3, [sp, #2116]
 2777 1c9c 0DF63803 		addw	r3, sp, #2104
 2778 1ca0 D3E90023 		ldrd	r2, [r3]
 2779 1ca4 0DF50461 		add	r1, sp, #2112
 2780 1ca8 D1E90001 		ldrd	r0, [r1]
 2781 1cac 4240     		eors	r2, r2, r0
 2782 1cae 4B40     		eors	r3, r3, r1
 2783 1cb0 4046     		mov	r0, r8
 2784 1cb2 C009     		lsrs	r0, r0, #7
 2785 1cb4 8646     		mov	lr, r0
 2786 1cb6 4EEA496E 		orr	lr, lr, r9, lsl #25
 2787 1cba CDF8F8E0 		str	lr, [sp, #248]
 2788 1cbe 4846     		mov	r0, r9
 2789 1cc0 C009     		lsrs	r0, r0, #7
 2790 1cc2 3F90     		str	r0, [sp, #252]
 2791 1cc4 DDE93E01 		ldrd	r0, [sp, #248]
 2792 1cc8 5040     		eors	r0, r0, r2
 2793 1cca 5940     		eors	r1, r1, r3
 2794 1ccc DDE90089 		ldrd	r8, [sp]
 2795 1cd0 18EB0008 		adds	r8, r8, r0
 2796 1cd4 49EB0109 		adc	r9, r9, r1
 2797 1cd8 DDE91A01 		ldrd	r0, [sp, #104]
 2798 1cdc 10EB0800 		adds	r0, r0, r8
 2799 1ce0 41EB0901 		adc	r1, r1, r9
 2800 1ce4 CDE91A01 		strd	r0, [sp, #104]
 2801              	.LVL219:
 2802 1ce8 DDE90689 		ldrd	r8, [sp, #24]
 2803 1cec 4346     		mov	r3, r8
 2804 1cee DB0C     		lsrs	r3, r3, #19
 2805 1cf0 4846     		mov	r0, r9
 2806              	.LVL220:
 2807 1cf2 43EA4933 		orr	r3, r3, r9, lsl #13
 2808 1cf6 CDF84838 		str	r3, [sp, #2120]
 2809 1cfa C30C     		lsrs	r3, r0, #19
 2810 1cfc 4046     		mov	r0, r8
 2811 1cfe 43EA4833 		orr	r3, r3, r8, lsl #13
 2812 1d02 CDF84C38 		str	r3, [sp, #2124]
 2813 1d06 4B46     		mov	r3, r9
 2814 1d08 DB00     		lsls	r3, r3, #3
 2815 1d0a 43EA5873 		orr	r3, r3, r8, lsr #29
 2816 1d0e CDF85438 		str	r3, [sp, #2132]
 2817 1d12 C300     		lsls	r3, r0, #3
 2818 1d14 43EA5973 		orr	r3, r3, r9, lsr #29
 2819 1d18 CDF85038 		str	r3, [sp, #2128]
 2820 1d1c 0DF64803 		addw	r3, sp, #2120
 2821 1d20 D3E90023 		ldrd	r2, [r3]
 2822 1d24 0DF50561 		add	r1, sp, #2128
 2823 1d28 D1E90001 		ldrd	r0, [r1]
 2824 1d2c 4240     		eors	r2, r2, r0
 2825 1d2e 4B40     		eors	r3, r3, r1
 2826 1d30 1046     		mov	r0, r2
 2827 1d32 1946     		mov	r1, r3
 2828 1d34 4346     		mov	r3, r8
 2829 1d36 9B09     		lsrs	r3, r3, #6
ARM GAS  C:\Users\bogur\AppData\Local\Temp\ccFZ7DD2.s 			page 53


 2830 1d38 4A46     		mov	r2, r9
 2831 1d3a 43EA8963 		orr	r3, r3, r9, lsl #26
 2832 1d3e 4093     		str	r3, [sp, #256]
 2833 1d40 9309     		lsrs	r3, r2, #6
 2834 1d42 4193     		str	r3, [sp, #260]
 2835 1d44 40AB     		add	r3, sp, #256
 2836 1d46 1BE0     		b	.L12
 2837              	.L13:
 2838              		.align	3
 2839              	.L11:
 2840 1d48 BE6F7045 		.word	1164996542
 2841 1d4c 015B8312 		.word	310598401
 2842 1d50 8CB2E44E 		.word	1323610764
 2843 1d54 BE853124 		.word	607225278
 2844 1d58 E2B4FFD5 		.word	-704662302
 2845 1d5c C37D0C55 		.word	1426881987
 2846 1d60 6F897BF2 		.word	-226784913
 2847 1d64 745DBE72 		.word	1925078388
 2848 1d68 B196163B 		.word	991336113
 2849 1d6c FEB1DE80 		.word	-2132889090
 2850 1d70 3512C725 		.word	633803317
 2851 1d74 A706DC9B 		.word	-1680079193
 2852 1d78 942669CF 		.word	-815192428
 2853 1d7c 74F19BC1 		.word	-1046744716
 2854              	.L12:
 2855 1d80 D3E90023 		ldrd	r2, [r3]
 2856 1d84 4240     		eors	r2, r2, r0
 2857 1d86 4B40     		eors	r3, r3, r1
 2858 1d88 1046     		mov	r0, r2
 2859 1d8a 1946     		mov	r1, r3
 2860 1d8c DDE91623 		ldrd	r2, [sp, #88]
 2861 1d90 1218     		adds	r2, r2, r0
 2862 1d92 4B41     		adcs	r3, r3, r1
 2863 1d94 CDE90023 		strd	r2, [sp]
 2864 1d98 DDE92689 		ldrd	r8, [sp, #152]
 2865 1d9c 4346     		mov	r3, r8
 2866 1d9e 5B08     		lsrs	r3, r3, #1
 2867 1da0 4A46     		mov	r2, r9
 2868 1da2 43EAC973 		orr	r3, r3, r9, lsl #31
 2869 1da6 CDF85838 		str	r3, [sp, #2136]
 2870 1daa 5308     		lsrs	r3, r2, #1
 2871 1dac 4246     		mov	r2, r8
 2872 1dae 43EAC873 		orr	r3, r3, r8, lsl #31
 2873 1db2 CDF85C38 		str	r3, [sp, #2140]
 2874 1db6 130A     		lsrs	r3, r2, #8
 2875 1db8 4A46     		mov	r2, r9
 2876 1dba 43EA0963 		orr	r3, r3, r9, lsl #24
 2877 1dbe CDF86038 		str	r3, [sp, #2144]
 2878 1dc2 130A     		lsrs	r3, r2, #8
 2879 1dc4 43EA0863 		orr	r3, r3, r8, lsl #24
 2880 1dc8 CDF86438 		str	r3, [sp, #2148]
 2881 1dcc 0DF65803 		addw	r3, sp, #2136
 2882 1dd0 D3E90023 		ldrd	r2, [r3]
 2883 1dd4 0DF50661 		add	r1, sp, #2144
 2884 1dd8 D1E90001 		ldrd	r0, [r1]
 2885 1ddc 4240     		eors	r2, r2, r0
 2886 1dde 4B40     		eors	r3, r3, r1
ARM GAS  C:\Users\bogur\AppData\Local\Temp\ccFZ7DD2.s 			page 54


 2887 1de0 4046     		mov	r0, r8
 2888 1de2 C009     		lsrs	r0, r0, #7
 2889 1de4 8646     		mov	lr, r0
 2890 1de6 4EEA496E 		orr	lr, lr, r9, lsl #25
 2891 1dea CDF808E1 		str	lr, [sp, #264]
 2892 1dee 4846     		mov	r0, r9
 2893 1df0 C009     		lsrs	r0, r0, #7
 2894 1df2 4390     		str	r0, [sp, #268]
 2895 1df4 42A9     		add	r1, sp, #264
 2896 1df6 D1E90001 		ldrd	r0, [r1]
 2897 1dfa 5040     		eors	r0, r0, r2
 2898 1dfc 5940     		eors	r1, r1, r3
 2899 1dfe DDE90089 		ldrd	r8, [sp]
 2900 1e02 18EB0008 		adds	r8, r8, r0
 2901 1e06 49EB0109 		adc	r9, r9, r1
 2902 1e0a DDE91C01 		ldrd	r0, [sp, #112]
 2903 1e0e 10EB0800 		adds	r0, r0, r8
 2904 1e12 41EB0901 		adc	r1, r1, r9
 2905 1e16 CDE91C01 		strd	r0, [sp, #112]
 2906              	.LVL221:
 2907 1e1a DDE91A89 		ldrd	r8, [sp, #104]
 2908 1e1e 4346     		mov	r3, r8
 2909 1e20 DB0C     		lsrs	r3, r3, #19
 2910 1e22 4846     		mov	r0, r9
 2911              	.LVL222:
 2912 1e24 43EA4933 		orr	r3, r3, r9, lsl #13
 2913 1e28 CDF86838 		str	r3, [sp, #2152]
 2914 1e2c C30C     		lsrs	r3, r0, #19
 2915 1e2e 4046     		mov	r0, r8
 2916 1e30 43EA4833 		orr	r3, r3, r8, lsl #13
 2917 1e34 CDF86C38 		str	r3, [sp, #2156]
 2918 1e38 4B46     		mov	r3, r9
 2919 1e3a DB00     		lsls	r3, r3, #3
 2920 1e3c 43EA5873 		orr	r3, r3, r8, lsr #29
 2921 1e40 CDF87438 		str	r3, [sp, #2164]
 2922 1e44 C300     		lsls	r3, r0, #3
 2923 1e46 43EA5973 		orr	r3, r3, r9, lsr #29
 2924 1e4a CDF87038 		str	r3, [sp, #2160]
 2925 1e4e 0DF66803 		addw	r3, sp, #2152
 2926 1e52 D3E90023 		ldrd	r2, [r3]
 2927 1e56 0DF50761 		add	r1, sp, #2160
 2928 1e5a D1E90001 		ldrd	r0, [r1]
 2929 1e5e 4240     		eors	r2, r2, r0
 2930 1e60 4B40     		eors	r3, r3, r1
 2931 1e62 1046     		mov	r0, r2
 2932 1e64 1946     		mov	r1, r3
 2933 1e66 4346     		mov	r3, r8
 2934 1e68 9B09     		lsrs	r3, r3, #6
 2935 1e6a 4A46     		mov	r2, r9
 2936 1e6c 43EA8963 		orr	r3, r3, r9, lsl #26
 2937 1e70 4493     		str	r3, [sp, #272]
 2938 1e72 9309     		lsrs	r3, r2, #6
 2939 1e74 4593     		str	r3, [sp, #276]
 2940 1e76 44AB     		add	r3, sp, #272
 2941 1e78 D3E90023 		ldrd	r2, [r3]
 2942 1e7c 4240     		eors	r2, r2, r0
 2943 1e7e 4B40     		eors	r3, r3, r1
ARM GAS  C:\Users\bogur\AppData\Local\Temp\ccFZ7DD2.s 			page 55


 2944 1e80 1046     		mov	r0, r2
 2945 1e82 1946     		mov	r1, r3
 2946 1e84 DDE91823 		ldrd	r2, [sp, #96]
 2947 1e88 1218     		adds	r2, r2, r0
 2948 1e8a 4B41     		adcs	r3, r3, r1
 2949 1e8c CDE90023 		strd	r2, [sp]
 2950 1e90 DDE92889 		ldrd	r8, [sp, #160]
 2951 1e94 4346     		mov	r3, r8
 2952 1e96 5B08     		lsrs	r3, r3, #1
 2953 1e98 4A46     		mov	r2, r9
 2954 1e9a 43EAC973 		orr	r3, r3, r9, lsl #31
 2955 1e9e CDF87838 		str	r3, [sp, #2168]
 2956 1ea2 5308     		lsrs	r3, r2, #1
 2957 1ea4 4246     		mov	r2, r8
 2958 1ea6 43EAC873 		orr	r3, r3, r8, lsl #31
 2959 1eaa CDF87C38 		str	r3, [sp, #2172]
 2960 1eae 130A     		lsrs	r3, r2, #8
 2961 1eb0 4A46     		mov	r2, r9
 2962 1eb2 43EA0963 		orr	r3, r3, r9, lsl #24
 2963 1eb6 CDF88038 		str	r3, [sp, #2176]
 2964 1eba 130A     		lsrs	r3, r2, #8
 2965 1ebc 43EA0863 		orr	r3, r3, r8, lsl #24
 2966 1ec0 CDF88438 		str	r3, [sp, #2180]
 2967 1ec4 0DF67803 		addw	r3, sp, #2168
 2968 1ec8 D3E90023 		ldrd	r2, [r3]
 2969 1ecc 0DF50861 		add	r1, sp, #2176
 2970 1ed0 D1E90001 		ldrd	r0, [r1]
 2971 1ed4 4240     		eors	r2, r2, r0
 2972 1ed6 4B40     		eors	r3, r3, r1
 2973 1ed8 4046     		mov	r0, r8
 2974 1eda C009     		lsrs	r0, r0, #7
 2975 1edc 8646     		mov	lr, r0
 2976 1ede 4EEA496E 		orr	lr, lr, r9, lsl #25
 2977 1ee2 CDF818E1 		str	lr, [sp, #280]
 2978 1ee6 4846     		mov	r0, r9
 2979 1ee8 C009     		lsrs	r0, r0, #7
 2980 1eea 4790     		str	r0, [sp, #284]
 2981 1eec 46A9     		add	r1, sp, #280
 2982 1eee D1E90001 		ldrd	r0, [r1]
 2983 1ef2 5040     		eors	r0, r0, r2
 2984 1ef4 5940     		eors	r1, r1, r3
 2985 1ef6 DDE90089 		ldrd	r8, [sp]
 2986 1efa 18EB0008 		adds	r8, r8, r0
 2987 1efe 49EB0109 		adc	r9, r9, r1
 2988 1f02 DDE92601 		ldrd	r0, [sp, #152]
 2989 1f06 10EB0800 		adds	r0, r0, r8
 2990 1f0a 41EB0901 		adc	r1, r1, r9
 2991 1f0e CDE90201 		strd	r0, [sp, #8]
 2992              	.LVL223:
 2993 1f12 DDE91C89 		ldrd	r8, [sp, #112]
 2994 1f16 4346     		mov	r3, r8
 2995 1f18 DB0C     		lsrs	r3, r3, #19
 2996 1f1a 4846     		mov	r0, r9
 2997              	.LVL224:
 2998 1f1c 43EA4933 		orr	r3, r3, r9, lsl #13
 2999 1f20 CDF88838 		str	r3, [sp, #2184]
 3000 1f24 C30C     		lsrs	r3, r0, #19
ARM GAS  C:\Users\bogur\AppData\Local\Temp\ccFZ7DD2.s 			page 56


 3001 1f26 4046     		mov	r0, r8
 3002 1f28 43EA4833 		orr	r3, r3, r8, lsl #13
 3003 1f2c CDF88C38 		str	r3, [sp, #2188]
 3004 1f30 4B46     		mov	r3, r9
 3005 1f32 DB00     		lsls	r3, r3, #3
 3006 1f34 43EA5873 		orr	r3, r3, r8, lsr #29
 3007 1f38 CDF89438 		str	r3, [sp, #2196]
 3008 1f3c C300     		lsls	r3, r0, #3
 3009 1f3e 43EA5973 		orr	r3, r3, r9, lsr #29
 3010 1f42 CDF89038 		str	r3, [sp, #2192]
 3011 1f46 0DF68803 		addw	r3, sp, #2184
 3012 1f4a D3E90023 		ldrd	r2, [r3]
 3013 1f4e 0DF50961 		add	r1, sp, #2192
 3014 1f52 D1E90001 		ldrd	r0, [r1]
 3015 1f56 4240     		eors	r2, r2, r0
 3016 1f58 4B40     		eors	r3, r3, r1
 3017 1f5a 1046     		mov	r0, r2
 3018 1f5c 1946     		mov	r1, r3
 3019 1f5e 4346     		mov	r3, r8
 3020 1f60 9B09     		lsrs	r3, r3, #6
 3021 1f62 4A46     		mov	r2, r9
 3022 1f64 43EA8963 		orr	r3, r3, r9, lsl #26
 3023 1f68 4893     		str	r3, [sp, #288]
 3024 1f6a 9309     		lsrs	r3, r2, #6
 3025 1f6c 4993     		str	r3, [sp, #292]
 3026 1f6e 48AB     		add	r3, sp, #288
 3027 1f70 D3E90023 		ldrd	r2, [r3]
 3028 1f74 4240     		eors	r2, r2, r0
 3029 1f76 4B40     		eors	r3, r3, r1
 3030 1f78 1046     		mov	r0, r2
 3031 1f7a 1946     		mov	r1, r3
 3032 1f7c DDE91E23 		ldrd	r2, [sp, #120]
 3033 1f80 1218     		adds	r2, r2, r0
 3034 1f82 4B41     		adcs	r3, r3, r1
 3035 1f84 CDE90023 		strd	r2, [sp]
 3036 1f88 DDE92A89 		ldrd	r8, [sp, #168]
 3037 1f8c 4346     		mov	r3, r8
 3038 1f8e 5B08     		lsrs	r3, r3, #1
 3039 1f90 4A46     		mov	r2, r9
 3040 1f92 43EAC973 		orr	r3, r3, r9, lsl #31
 3041 1f96 CDF89838 		str	r3, [sp, #2200]
 3042 1f9a 5308     		lsrs	r3, r2, #1
 3043 1f9c 4246     		mov	r2, r8
 3044 1f9e 43EAC873 		orr	r3, r3, r8, lsl #31
 3045 1fa2 CDF89C38 		str	r3, [sp, #2204]
 3046 1fa6 130A     		lsrs	r3, r2, #8
 3047 1fa8 4A46     		mov	r2, r9
 3048 1faa 43EA0963 		orr	r3, r3, r9, lsl #24
 3049 1fae CDF8A038 		str	r3, [sp, #2208]
 3050 1fb2 130A     		lsrs	r3, r2, #8
 3051 1fb4 43EA0863 		orr	r3, r3, r8, lsl #24
 3052 1fb8 CDF8A438 		str	r3, [sp, #2212]
 3053 1fbc 0DF69803 		addw	r3, sp, #2200
 3054 1fc0 D3E90023 		ldrd	r2, [r3]
 3055 1fc4 0DF50A61 		add	r1, sp, #2208
 3056 1fc8 D1E90001 		ldrd	r0, [r1]
 3057 1fcc 4240     		eors	r2, r2, r0
ARM GAS  C:\Users\bogur\AppData\Local\Temp\ccFZ7DD2.s 			page 57


 3058 1fce 4B40     		eors	r3, r3, r1
 3059 1fd0 4046     		mov	r0, r8
 3060 1fd2 C009     		lsrs	r0, r0, #7
 3061 1fd4 8646     		mov	lr, r0
 3062 1fd6 4EEA496E 		orr	lr, lr, r9, lsl #25
 3063 1fda CDF828E1 		str	lr, [sp, #296]
 3064 1fde 4846     		mov	r0, r9
 3065 1fe0 C009     		lsrs	r0, r0, #7
 3066 1fe2 4B90     		str	r0, [sp, #300]
 3067 1fe4 4AA9     		add	r1, sp, #296
 3068 1fe6 D1E90001 		ldrd	r0, [r1]
 3069 1fea 5040     		eors	r0, r0, r2
 3070 1fec 5940     		eors	r1, r1, r3
 3071 1fee DDE90089 		ldrd	r8, [sp]
 3072 1ff2 18EB0008 		adds	r8, r8, r0
 3073 1ff6 49EB0109 		adc	r9, r9, r1
 3074 1ffa DDE92801 		ldrd	r0, [sp, #160]
 3075 1ffe 10EB0800 		adds	r0, r0, r8
 3076 2002 41EB0901 		adc	r1, r1, r9
 3077 2006 CDE90801 		strd	r0, [sp, #32]
 3078              	.LVL225:
 3079 200a DDE90212 		ldrd	r1, [sp, #8]
 3080 200e CB0C     		lsrs	r3, r1, #19
 3081 2010 43EA4233 		orr	r3, r3, r2, lsl #13
 3082 2014 CDF8A838 		str	r3, [sp, #2216]
 3083 2018 D30C     		lsrs	r3, r2, #19
 3084 201a 43EA4133 		orr	r3, r3, r1, lsl #13
 3085 201e CDF8AC38 		str	r3, [sp, #2220]
 3086 2022 D300     		lsls	r3, r2, #3
 3087 2024 43EA5173 		orr	r3, r3, r1, lsr #29
 3088 2028 CDF8B438 		str	r3, [sp, #2228]
 3089 202c CB00     		lsls	r3, r1, #3
 3090 202e 43EA5273 		orr	r3, r3, r2, lsr #29
 3091 2032 CDF8B038 		str	r3, [sp, #2224]
 3092 2036 0DF6A803 		addw	r3, sp, #2216
 3093 203a D3E90012 		ldrd	r1, [r3]
 3094 203e 0DF50B63 		add	r3, sp, #2224
 3095 2042 D3E90089 		ldrd	r8, [r3]
 3096 2046 81EA0801 		eor	r1, r1, r8
 3097 204a 82EA0902 		eor	r2, r2, r9
 3098 204e 0846     		mov	r0, r1
 3099              	.LVL226:
 3100 2050 1146     		mov	r1, r2
 3101 2052 DDE90289 		ldrd	r8, [sp, #8]
 3102 2056 4346     		mov	r3, r8
 3103 2058 9B09     		lsrs	r3, r3, #6
 3104 205a 4A46     		mov	r2, r9
 3105 205c 43EA8963 		orr	r3, r3, r9, lsl #26
 3106 2060 4C93     		str	r3, [sp, #304]
 3107 2062 9309     		lsrs	r3, r2, #6
 3108 2064 4D93     		str	r3, [sp, #308]
 3109 2066 4CAB     		add	r3, sp, #304
 3110 2068 D3E90023 		ldrd	r2, [r3]
 3111 206c 4240     		eors	r2, r2, r0
 3112 206e 4B40     		eors	r3, r3, r1
 3113 2070 1046     		mov	r0, r2
 3114 2072 1946     		mov	r1, r3
ARM GAS  C:\Users\bogur\AppData\Local\Temp\ccFZ7DD2.s 			page 58


 3115 2074 DDE92023 		ldrd	r2, [sp, #128]
 3116 2078 1218     		adds	r2, r2, r0
 3117 207a 4B41     		adcs	r3, r3, r1
 3118 207c CDE90023 		strd	r2, [sp]
 3119 2080 DDE92C01 		ldrd	r0, [sp, #176]
 3120 2084 4308     		lsrs	r3, r0, #1
 3121 2086 43EAC173 		orr	r3, r3, r1, lsl #31
 3122 208a CDF8B838 		str	r3, [sp, #2232]
 3123 208e 4B08     		lsrs	r3, r1, #1
 3124 2090 43EAC073 		orr	r3, r3, r0, lsl #31
 3125 2094 CDF8BC38 		str	r3, [sp, #2236]
 3126 2098 030A     		lsrs	r3, r0, #8
 3127 209a 43EA0163 		orr	r3, r3, r1, lsl #24
 3128 209e CDF8C038 		str	r3, [sp, #2240]
 3129 20a2 0B0A     		lsrs	r3, r1, #8
 3130 20a4 43EA0063 		orr	r3, r3, r0, lsl #24
 3131 20a8 CDF8C438 		str	r3, [sp, #2244]
 3132 20ac 0DF6B803 		addw	r3, sp, #2232
 3133 20b0 D3E90023 		ldrd	r2, [r3]
 3134 20b4 0DF50C6E 		add	lr, sp, #2240
 3135 20b8 DEE90089 		ldrd	r8, [lr]
 3136 20bc 82EA0802 		eor	r2, r2, r8
 3137 20c0 83EA0903 		eor	r3, r3, r9
 3138 20c4 C009     		lsrs	r0, r0, #7
 3139 20c6 8646     		mov	lr, r0
 3140 20c8 4EEA416E 		orr	lr, lr, r1, lsl #25
 3141 20cc CDF838E1 		str	lr, [sp, #312]
 3142 20d0 C809     		lsrs	r0, r1, #7
 3143 20d2 4F90     		str	r0, [sp, #316]
 3144 20d4 4EA9     		add	r1, sp, #312
 3145 20d6 D1E90001 		ldrd	r0, [r1]
 3146 20da 5040     		eors	r0, r0, r2
 3147 20dc 5940     		eors	r1, r1, r3
 3148 20de DDE90089 		ldrd	r8, [sp]
 3149 20e2 18EB0008 		adds	r8, r8, r0
 3150 20e6 49EB0109 		adc	r9, r9, r1
 3151 20ea DDE92A01 		ldrd	r0, [sp, #168]
 3152 20ee 10EB0800 		adds	r0, r0, r8
 3153 20f2 41EB0901 		adc	r1, r1, r9
 3154 20f6 CDE90A01 		strd	r0, [sp, #40]
 3155              	.LVL227:
 3156 20fa DDE90812 		ldrd	r1, [sp, #32]
 3157 20fe CB0C     		lsrs	r3, r1, #19
 3158 2100 43EA4233 		orr	r3, r3, r2, lsl #13
 3159 2104 CDF8C838 		str	r3, [sp, #2248]
 3160 2108 D30C     		lsrs	r3, r2, #19
 3161 210a 43EA4133 		orr	r3, r3, r1, lsl #13
 3162 210e CDF8CC38 		str	r3, [sp, #2252]
 3163 2112 D300     		lsls	r3, r2, #3
 3164 2114 43EA5173 		orr	r3, r3, r1, lsr #29
 3165 2118 CDF8D438 		str	r3, [sp, #2260]
 3166 211c CB00     		lsls	r3, r1, #3
 3167 211e 43EA5273 		orr	r3, r3, r2, lsr #29
 3168 2122 CDF8D038 		str	r3, [sp, #2256]
 3169 2126 0DF6C803 		addw	r3, sp, #2248
 3170 212a D3E90012 		ldrd	r1, [r3]
 3171 212e 0DF50D63 		add	r3, sp, #2256
ARM GAS  C:\Users\bogur\AppData\Local\Temp\ccFZ7DD2.s 			page 59


 3172 2132 D3E90089 		ldrd	r8, [r3]
 3173 2136 81EA0801 		eor	r1, r1, r8
 3174 213a 82EA0902 		eor	r2, r2, r9
 3175 213e 0846     		mov	r0, r1
 3176              	.LVL228:
 3177 2140 1146     		mov	r1, r2
 3178 2142 DDE90889 		ldrd	r8, [sp, #32]
 3179 2146 4346     		mov	r3, r8
 3180 2148 9B09     		lsrs	r3, r3, #6
 3181 214a 4A46     		mov	r2, r9
 3182 214c 43EA8963 		orr	r3, r3, r9, lsl #26
 3183 2150 5093     		str	r3, [sp, #320]
 3184 2152 9309     		lsrs	r3, r2, #6
 3185 2154 5193     		str	r3, [sp, #324]
 3186 2156 50AB     		add	r3, sp, #320
 3187 2158 D3E90023 		ldrd	r2, [r3]
 3188 215c 4240     		eors	r2, r2, r0
 3189 215e 4B40     		eors	r3, r3, r1
 3190 2160 1046     		mov	r0, r2
 3191 2162 1946     		mov	r1, r3
 3192 2164 DDE92423 		ldrd	r2, [sp, #144]
 3193 2168 1218     		adds	r2, r2, r0
 3194 216a 4B41     		adcs	r3, r3, r1
 3195 216c CDE90023 		strd	r2, [sp]
 3196 2170 DDE92E01 		ldrd	r0, [sp, #184]
 3197 2174 4308     		lsrs	r3, r0, #1
 3198 2176 43EAC173 		orr	r3, r3, r1, lsl #31
 3199 217a CDF8D838 		str	r3, [sp, #2264]
 3200 217e 4B08     		lsrs	r3, r1, #1
 3201 2180 43EAC073 		orr	r3, r3, r0, lsl #31
 3202 2184 CDF8DC38 		str	r3, [sp, #2268]
 3203 2188 030A     		lsrs	r3, r0, #8
 3204 218a 43EA0163 		orr	r3, r3, r1, lsl #24
 3205 218e CDF8E038 		str	r3, [sp, #2272]
 3206 2192 0B0A     		lsrs	r3, r1, #8
 3207 2194 43EA0063 		orr	r3, r3, r0, lsl #24
 3208 2198 CDF8E438 		str	r3, [sp, #2276]
 3209 219c 0DF6D803 		addw	r3, sp, #2264
 3210 21a0 D3E90023 		ldrd	r2, [r3]
 3211 21a4 0DF50E6E 		add	lr, sp, #2272
 3212 21a8 DEE90089 		ldrd	r8, [lr]
 3213 21ac 82EA0802 		eor	r2, r2, r8
 3214 21b0 83EA0903 		eor	r3, r3, r9
 3215 21b4 C009     		lsrs	r0, r0, #7
 3216 21b6 8646     		mov	lr, r0
 3217 21b8 4EEA416E 		orr	lr, lr, r1, lsl #25
 3218 21bc CDF848E1 		str	lr, [sp, #328]
 3219 21c0 C809     		lsrs	r0, r1, #7
 3220 21c2 5390     		str	r0, [sp, #332]
 3221 21c4 52A9     		add	r1, sp, #328
 3222 21c6 D1E90001 		ldrd	r0, [r1]
 3223 21ca 5040     		eors	r0, r0, r2
 3224 21cc 5940     		eors	r1, r1, r3
 3225 21ce DDE90089 		ldrd	r8, [sp]
 3226 21d2 18EB0008 		adds	r8, r8, r0
 3227 21d6 49EB0109 		adc	r9, r9, r1
 3228 21da DDE92C01 		ldrd	r0, [sp, #176]
ARM GAS  C:\Users\bogur\AppData\Local\Temp\ccFZ7DD2.s 			page 60


 3229 21de 10EB0800 		adds	r0, r0, r8
 3230 21e2 41EB0901 		adc	r1, r1, r9
 3231 21e6 CDE90C01 		strd	r0, [sp, #48]
 3232              	.LVL229:
 3233 21ea DDE90A12 		ldrd	r1, [sp, #40]
 3234 21ee CB0C     		lsrs	r3, r1, #19
 3235 21f0 43EA4233 		orr	r3, r3, r2, lsl #13
 3236 21f4 CDF8E838 		str	r3, [sp, #2280]
 3237 21f8 D30C     		lsrs	r3, r2, #19
 3238 21fa 43EA4133 		orr	r3, r3, r1, lsl #13
 3239 21fe CDF8EC38 		str	r3, [sp, #2284]
 3240 2202 D300     		lsls	r3, r2, #3
 3241 2204 43EA5173 		orr	r3, r3, r1, lsr #29
 3242 2208 CDF8F438 		str	r3, [sp, #2292]
 3243 220c CB00     		lsls	r3, r1, #3
 3244 220e 43EA5273 		orr	r3, r3, r2, lsr #29
 3245 2212 CDF8F038 		str	r3, [sp, #2288]
 3246 2216 0DF6E803 		addw	r3, sp, #2280
 3247 221a D3E90012 		ldrd	r1, [r3]
 3248 221e 0DF50F63 		add	r3, sp, #2288
 3249 2222 D3E90089 		ldrd	r8, [r3]
 3250 2226 81EA0801 		eor	r1, r1, r8
 3251 222a 82EA0902 		eor	r2, r2, r9
 3252 222e 0846     		mov	r0, r1
 3253              	.LVL230:
 3254 2230 1146     		mov	r1, r2
 3255 2232 DDE90A89 		ldrd	r8, [sp, #40]
 3256 2236 4346     		mov	r3, r8
 3257 2238 9B09     		lsrs	r3, r3, #6
 3258 223a 4A46     		mov	r2, r9
 3259 223c 43EA8963 		orr	r3, r3, r9, lsl #26
 3260 2240 5493     		str	r3, [sp, #336]
 3261 2242 9309     		lsrs	r3, r2, #6
 3262 2244 5593     		str	r3, [sp, #340]
 3263 2246 54AB     		add	r3, sp, #336
 3264 2248 D3E90023 		ldrd	r2, [r3]
 3265 224c 4240     		eors	r2, r2, r0
 3266 224e 4B40     		eors	r3, r3, r1
 3267 2250 1046     		mov	r0, r2
 3268 2252 1946     		mov	r1, r3
 3269 2254 DDE90623 		ldrd	r2, [sp, #24]
 3270 2258 1218     		adds	r2, r2, r0
 3271 225a 4B41     		adcs	r3, r3, r1
 3272 225c CDE90023 		strd	r2, [sp]
 3273 2260 DDE91001 		ldrd	r0, [sp, #64]
 3274 2264 4308     		lsrs	r3, r0, #1
 3275 2266 43EAC173 		orr	r3, r3, r1, lsl #31
 3276 226a CDF8F838 		str	r3, [sp, #2296]
 3277 226e 4B08     		lsrs	r3, r1, #1
 3278 2270 43EAC073 		orr	r3, r3, r0, lsl #31
 3279 2274 CDF8FC38 		str	r3, [sp, #2300]
 3280 2278 030A     		lsrs	r3, r0, #8
 3281 227a 43EA0163 		orr	r3, r3, r1, lsl #24
 3282 227e CDF80039 		str	r3, [sp, #2304]
 3283 2282 0B0A     		lsrs	r3, r1, #8
 3284 2284 43EA0063 		orr	r3, r3, r0, lsl #24
 3285 2288 CDF80439 		str	r3, [sp, #2308]
ARM GAS  C:\Users\bogur\AppData\Local\Temp\ccFZ7DD2.s 			page 61


 3286 228c 0DF6F803 		addw	r3, sp, #2296
 3287 2290 D3E90023 		ldrd	r2, [r3]
 3288 2294 0DF5106E 		add	lr, sp, #2304
 3289 2298 DEE90089 		ldrd	r8, [lr]
 3290 229c 82EA0802 		eor	r2, r2, r8
 3291 22a0 83EA0903 		eor	r3, r3, r9
 3292 22a4 C009     		lsrs	r0, r0, #7
 3293 22a6 8646     		mov	lr, r0
 3294 22a8 4EEA416E 		orr	lr, lr, r1, lsl #25
 3295 22ac CDF858E1 		str	lr, [sp, #344]
 3296 22b0 C809     		lsrs	r0, r1, #7
 3297 22b2 5790     		str	r0, [sp, #348]
 3298 22b4 56A9     		add	r1, sp, #344
 3299 22b6 D1E90001 		ldrd	r0, [r1]
 3300 22ba 5040     		eors	r0, r0, r2
 3301 22bc 5940     		eors	r1, r1, r3
 3302 22be DDE90089 		ldrd	r8, [sp]
 3303 22c2 18EB0008 		adds	r8, r8, r0
 3304 22c6 49EB0109 		adc	r9, r9, r1
 3305 22ca DDE92E01 		ldrd	r0, [sp, #184]
 3306 22ce 10EB0800 		adds	r0, r0, r8
 3307 22d2 41EB0901 		adc	r1, r1, r9
 3308 22d6 CDE90E01 		strd	r0, [sp, #56]
 3309              	.LVL231:
 3310 22da DDE90C12 		ldrd	r1, [sp, #48]
 3311 22de CB0C     		lsrs	r3, r1, #19
 3312 22e0 43EA4233 		orr	r3, r3, r2, lsl #13
 3313 22e4 CDF80839 		str	r3, [sp, #2312]
 3314 22e8 D30C     		lsrs	r3, r2, #19
 3315 22ea 43EA4133 		orr	r3, r3, r1, lsl #13
 3316 22ee CDF80C39 		str	r3, [sp, #2316]
 3317 22f2 D300     		lsls	r3, r2, #3
 3318 22f4 43EA5173 		orr	r3, r3, r1, lsr #29
 3319 22f8 CDF81439 		str	r3, [sp, #2324]
 3320 22fc CB00     		lsls	r3, r1, #3
 3321 22fe 43EA5273 		orr	r3, r3, r2, lsr #29
 3322 2302 CDF81039 		str	r3, [sp, #2320]
 3323 2306 0DF60813 		addw	r3, sp, #2312
 3324 230a D3E90012 		ldrd	r1, [r3]
 3325 230e 0DF51163 		add	r3, sp, #2320
 3326 2312 D3E90089 		ldrd	r8, [r3]
 3327 2316 81EA0801 		eor	r1, r1, r8
 3328 231a 82EA0902 		eor	r2, r2, r9
 3329 231e 0846     		mov	r0, r1
 3330              	.LVL232:
 3331 2320 1146     		mov	r1, r2
 3332 2322 DDE90C89 		ldrd	r8, [sp, #48]
 3333 2326 4346     		mov	r3, r8
 3334 2328 9B09     		lsrs	r3, r3, #6
 3335 232a 4A46     		mov	r2, r9
 3336 232c 43EA8963 		orr	r3, r3, r9, lsl #26
 3337 2330 5893     		str	r3, [sp, #352]
 3338 2332 9309     		lsrs	r3, r2, #6
 3339 2334 5993     		str	r3, [sp, #356]
 3340 2336 58AB     		add	r3, sp, #352
 3341 2338 D3E90023 		ldrd	r2, [r3]
 3342 233c 4240     		eors	r2, r2, r0
ARM GAS  C:\Users\bogur\AppData\Local\Temp\ccFZ7DD2.s 			page 62


 3343 233e 4B40     		eors	r3, r3, r1
 3344 2340 1046     		mov	r0, r2
 3345 2342 1946     		mov	r1, r3
 3346 2344 DDE91A23 		ldrd	r2, [sp, #104]
 3347 2348 1218     		adds	r2, r2, r0
 3348 234a 4B41     		adcs	r3, r3, r1
 3349 234c CDE90023 		strd	r2, [sp]
 3350 2350 DDE91201 		ldrd	r0, [sp, #72]
 3351 2354 4308     		lsrs	r3, r0, #1
 3352 2356 43EAC17E 		orr	lr, r3, r1, lsl #31
 3353 235a CDF818E9 		str	lr, [sp, #2328]
 3354 235e 4B08     		lsrs	r3, r1, #1
 3355 2360 43EAC07E 		orr	lr, r3, r0, lsl #31
 3356 2364 CDF81CE9 		str	lr, [sp, #2332]
 3357 2368 030A     		lsrs	r3, r0, #8
 3358 236a 43EA016E 		orr	lr, r3, r1, lsl #24
 3359 236e CDF820E9 		str	lr, [sp, #2336]
 3360 2372 0B0A     		lsrs	r3, r1, #8
 3361 2374 43EA006E 		orr	lr, r3, r0, lsl #24
 3362 2378 CDF824E9 		str	lr, [sp, #2340]
 3363 237c 0DF61813 		addw	r3, sp, #2328
 3364 2380 D3E90023 		ldrd	r2, [r3]
 3365 2384 0DF5126E 		add	lr, sp, #2336
 3366 2388 DEE90089 		ldrd	r8, [lr]
 3367 238c 82EA0802 		eor	r2, r2, r8
 3368 2390 83EA0903 		eor	r3, r3, r9
 3369 2394 C009     		lsrs	r0, r0, #7
 3370 2396 8646     		mov	lr, r0
 3371 2398 4EEA416E 		orr	lr, lr, r1, lsl #25
 3372 239c CDF868E1 		str	lr, [sp, #360]
 3373 23a0 C809     		lsrs	r0, r1, #7
 3374 23a2 5B90     		str	r0, [sp, #364]
 3375 23a4 5AA9     		add	r1, sp, #360
 3376 23a6 D1E90001 		ldrd	r0, [r1]
 3377 23aa 5040     		eors	r0, r0, r2
 3378 23ac 5940     		eors	r1, r1, r3
 3379 23ae DDE90089 		ldrd	r8, [sp]
 3380 23b2 18EB0008 		adds	r8, r8, r0
 3381 23b6 49EB0109 		adc	r9, r9, r1
 3382 23ba DDE91001 		ldrd	r0, [sp, #64]
 3383 23be 10EB0800 		adds	r0, r0, r8
 3384 23c2 41EB0901 		adc	r1, r1, r9
 3385 23c6 CDE91001 		strd	r0, [sp, #64]
 3386              	.LVL233:
 3387 23ca DDE90E12 		ldrd	r1, [sp, #56]
 3388 23ce CB0C     		lsrs	r3, r1, #19
 3389 23d0 43EA423E 		orr	lr, r3, r2, lsl #13
 3390 23d4 CDF828E9 		str	lr, [sp, #2344]
 3391 23d8 D30C     		lsrs	r3, r2, #19
 3392 23da 43EA413E 		orr	lr, r3, r1, lsl #13
 3393 23de CDF82CE9 		str	lr, [sp, #2348]
 3394 23e2 D300     		lsls	r3, r2, #3
 3395 23e4 43EA517E 		orr	lr, r3, r1, lsr #29
 3396 23e8 CDF834E9 		str	lr, [sp, #2356]
 3397 23ec CB00     		lsls	r3, r1, #3
 3398 23ee 43EA527E 		orr	lr, r3, r2, lsr #29
 3399 23f2 CDF830E9 		str	lr, [sp, #2352]
ARM GAS  C:\Users\bogur\AppData\Local\Temp\ccFZ7DD2.s 			page 63


 3400 23f6 0DF62813 		addw	r3, sp, #2344
 3401 23fa D3E90012 		ldrd	r1, [r3]
 3402 23fe 0DF51363 		add	r3, sp, #2352
 3403 2402 D3E90089 		ldrd	r8, [r3]
 3404 2406 81EA0801 		eor	r1, r1, r8
 3405 240a 82EA0902 		eor	r2, r2, r9
 3406 240e 0846     		mov	r0, r1
 3407              	.LVL234:
 3408 2410 1146     		mov	r1, r2
 3409 2412 DDE90E89 		ldrd	r8, [sp, #56]
 3410 2416 4346     		mov	r3, r8
 3411 2418 9B09     		lsrs	r3, r3, #6
 3412 241a 4A46     		mov	r2, r9
 3413 241c 43EA896E 		orr	lr, r3, r9, lsl #26
 3414 2420 CDF870E1 		str	lr, [sp, #368]
 3415 2424 9309     		lsrs	r3, r2, #6
 3416 2426 5D93     		str	r3, [sp, #372]
 3417 2428 5CAB     		add	r3, sp, #368
 3418 242a D3E90023 		ldrd	r2, [r3]
 3419 242e 4240     		eors	r2, r2, r0
 3420 2430 4B40     		eors	r3, r3, r1
 3421 2432 1046     		mov	r0, r2
 3422 2434 1946     		mov	r1, r3
 3423 2436 DDE91C23 		ldrd	r2, [sp, #112]
 3424 243a 1218     		adds	r2, r2, r0
 3425 243c 4B41     		adcs	r3, r3, r1
 3426 243e CDE90023 		strd	r2, [sp]
 3427 2442 DDE91401 		ldrd	r0, [sp, #80]
 3428 2446 4308     		lsrs	r3, r0, #1
 3429 2448 43EAC17E 		orr	lr, r3, r1, lsl #31
 3430 244c CDF838E9 		str	lr, [sp, #2360]
 3431 2450 4B08     		lsrs	r3, r1, #1
 3432 2452 43EAC07E 		orr	lr, r3, r0, lsl #31
 3433 2456 CDF83CE9 		str	lr, [sp, #2364]
 3434 245a 030A     		lsrs	r3, r0, #8
 3435 245c 43EA016E 		orr	lr, r3, r1, lsl #24
 3436 2460 CDF840E9 		str	lr, [sp, #2368]
 3437 2464 0B0A     		lsrs	r3, r1, #8
 3438 2466 43EA006E 		orr	lr, r3, r0, lsl #24
 3439 246a CDF844E9 		str	lr, [sp, #2372]
 3440 246e 0DF63813 		addw	r3, sp, #2360
 3441 2472 D3E90023 		ldrd	r2, [r3]
 3442 2476 0DF5146E 		add	lr, sp, #2368
 3443 247a DEE90089 		ldrd	r8, [lr]
 3444 247e 82EA0802 		eor	r2, r2, r8
 3445 2482 83EA0903 		eor	r3, r3, r9
 3446 2486 C009     		lsrs	r0, r0, #7
 3447 2488 8646     		mov	lr, r0
 3448 248a 4EEA416E 		orr	lr, lr, r1, lsl #25
 3449 248e CDF878E1 		str	lr, [sp, #376]
 3450 2492 C809     		lsrs	r0, r1, #7
 3451 2494 5F90     		str	r0, [sp, #380]
 3452 2496 5EA9     		add	r1, sp, #376
 3453 2498 D1E90001 		ldrd	r0, [r1]
 3454 249c 5040     		eors	r0, r0, r2
 3455 249e 5940     		eors	r1, r1, r3
 3456 24a0 DDE90089 		ldrd	r8, [sp]
ARM GAS  C:\Users\bogur\AppData\Local\Temp\ccFZ7DD2.s 			page 64


 3457 24a4 18EB0008 		adds	r8, r8, r0
 3458 24a8 49EB0109 		adc	r9, r9, r1
 3459 24ac DDE91201 		ldrd	r0, [sp, #72]
 3460 24b0 10EB0800 		adds	r0, r0, r8
 3461 24b4 41EB0901 		adc	r1, r1, r9
 3462 24b8 CDE91201 		strd	r0, [sp, #72]
 3463              	.LVL235:
 3464 24bc DDE91012 		ldrd	r1, [sp, #64]
 3465 24c0 CB0C     		lsrs	r3, r1, #19
 3466 24c2 43EA423E 		orr	lr, r3, r2, lsl #13
 3467 24c6 CDF848E9 		str	lr, [sp, #2376]
 3468 24ca D30C     		lsrs	r3, r2, #19
 3469 24cc 43EA413E 		orr	lr, r3, r1, lsl #13
 3470 24d0 CDF84CE9 		str	lr, [sp, #2380]
 3471 24d4 D300     		lsls	r3, r2, #3
 3472 24d6 43EA517E 		orr	lr, r3, r1, lsr #29
 3473 24da CDF854E9 		str	lr, [sp, #2388]
 3474 24de CB00     		lsls	r3, r1, #3
 3475 24e0 43EA527E 		orr	lr, r3, r2, lsr #29
 3476 24e4 CDF850E9 		str	lr, [sp, #2384]
 3477 24e8 0DF64813 		addw	r3, sp, #2376
 3478 24ec D3E90012 		ldrd	r1, [r3]
 3479 24f0 0DF51563 		add	r3, sp, #2384
 3480 24f4 D3E90089 		ldrd	r8, [r3]
 3481 24f8 81EA0801 		eor	r1, r1, r8
 3482 24fc 82EA0902 		eor	r2, r2, r9
 3483 2500 0846     		mov	r0, r1
 3484              	.LVL236:
 3485 2502 1146     		mov	r1, r2
 3486 2504 DDE91089 		ldrd	r8, [sp, #64]
 3487 2508 4346     		mov	r3, r8
 3488 250a 9B09     		lsrs	r3, r3, #6
 3489 250c 4A46     		mov	r2, r9
 3490 250e 43EA896E 		orr	lr, r3, r9, lsl #26
 3491 2512 CDF880E1 		str	lr, [sp, #384]
 3492 2516 9309     		lsrs	r3, r2, #6
 3493 2518 6193     		str	r3, [sp, #388]
 3494 251a 60AB     		add	r3, sp, #384
 3495 251c D3E90023 		ldrd	r2, [r3]
 3496 2520 4240     		eors	r2, r2, r0
 3497 2522 4B40     		eors	r3, r3, r1
 3498 2524 1046     		mov	r0, r2
 3499 2526 1946     		mov	r1, r3
 3500 2528 DDE90223 		ldrd	r2, [sp, #8]
 3501 252c 1218     		adds	r2, r2, r0
 3502 252e 4B41     		adcs	r3, r3, r1
 3503 2530 CDE90023 		strd	r2, [sp]
 3504 2534 DDE91601 		ldrd	r0, [sp, #88]
 3505 2538 4308     		lsrs	r3, r0, #1
 3506 253a 43EAC17E 		orr	lr, r3, r1, lsl #31
 3507 253e CDF858E9 		str	lr, [sp, #2392]
 3508 2542 4B08     		lsrs	r3, r1, #1
 3509 2544 43EAC07E 		orr	lr, r3, r0, lsl #31
 3510 2548 CDF85CE9 		str	lr, [sp, #2396]
 3511 254c 030A     		lsrs	r3, r0, #8
 3512 254e 43EA016E 		orr	lr, r3, r1, lsl #24
 3513 2552 CDF860E9 		str	lr, [sp, #2400]
ARM GAS  C:\Users\bogur\AppData\Local\Temp\ccFZ7DD2.s 			page 65


 3514 2556 0B0A     		lsrs	r3, r1, #8
 3515 2558 43EA006E 		orr	lr, r3, r0, lsl #24
 3516 255c CDF864E9 		str	lr, [sp, #2404]
 3517 2560 0DF65813 		addw	r3, sp, #2392
 3518 2564 D3E90023 		ldrd	r2, [r3]
 3519 2568 0DF5166E 		add	lr, sp, #2400
 3520 256c DEE90089 		ldrd	r8, [lr]
 3521 2570 82EA0802 		eor	r2, r2, r8
 3522 2574 83EA0903 		eor	r3, r3, r9
 3523 2578 C009     		lsrs	r0, r0, #7
 3524 257a 8646     		mov	lr, r0
 3525 257c 4EEA416E 		orr	lr, lr, r1, lsl #25
 3526 2580 CDF888E1 		str	lr, [sp, #392]
 3527 2584 C809     		lsrs	r0, r1, #7
 3528 2586 6390     		str	r0, [sp, #396]
 3529 2588 62A9     		add	r1, sp, #392
 3530 258a D1E90001 		ldrd	r0, [r1]
 3531 258e 5040     		eors	r0, r0, r2
 3532 2590 5940     		eors	r1, r1, r3
 3533 2592 DDE90089 		ldrd	r8, [sp]
 3534 2596 18EB0008 		adds	r8, r8, r0
 3535 259a 49EB0109 		adc	r9, r9, r1
 3536 259e DDE91401 		ldrd	r0, [sp, #80]
 3537 25a2 10EB0800 		adds	r0, r0, r8
 3538 25a6 41EB0901 		adc	r1, r1, r9
 3539 25aa CDE91401 		strd	r0, [sp, #80]
 3540              	.LVL237:
 3541 25ae DDE91212 		ldrd	r1, [sp, #72]
 3542 25b2 CB0C     		lsrs	r3, r1, #19
 3543 25b4 43EA423E 		orr	lr, r3, r2, lsl #13
 3544 25b8 CDF868E9 		str	lr, [sp, #2408]
 3545 25bc D30C     		lsrs	r3, r2, #19
 3546 25be 43EA413E 		orr	lr, r3, r1, lsl #13
 3547 25c2 CDF86CE9 		str	lr, [sp, #2412]
 3548 25c6 D300     		lsls	r3, r2, #3
 3549 25c8 43EA517E 		orr	lr, r3, r1, lsr #29
 3550 25cc CDF874E9 		str	lr, [sp, #2420]
 3551 25d0 CB00     		lsls	r3, r1, #3
 3552 25d2 43EA527E 		orr	lr, r3, r2, lsr #29
 3553 25d6 CDF870E9 		str	lr, [sp, #2416]
 3554 25da 0DF66813 		addw	r3, sp, #2408
 3555 25de D3E90012 		ldrd	r1, [r3]
 3556 25e2 0DF51763 		add	r3, sp, #2416
 3557 25e6 D3E90089 		ldrd	r8, [r3]
 3558 25ea 81EA0801 		eor	r1, r1, r8
 3559 25ee 82EA0902 		eor	r2, r2, r9
 3560 25f2 0846     		mov	r0, r1
 3561              	.LVL238:
 3562 25f4 1146     		mov	r1, r2
 3563 25f6 DDE91289 		ldrd	r8, [sp, #72]
 3564 25fa 4346     		mov	r3, r8
 3565 25fc 9B09     		lsrs	r3, r3, #6
 3566 25fe 4A46     		mov	r2, r9
 3567 2600 43EA896E 		orr	lr, r3, r9, lsl #26
 3568 2604 CDF890E1 		str	lr, [sp, #400]
 3569 2608 9309     		lsrs	r3, r2, #6
 3570 260a 6593     		str	r3, [sp, #404]
ARM GAS  C:\Users\bogur\AppData\Local\Temp\ccFZ7DD2.s 			page 66


 3571 260c 64AB     		add	r3, sp, #400
 3572 260e D3E90023 		ldrd	r2, [r3]
 3573 2612 4240     		eors	r2, r2, r0
 3574 2614 4B40     		eors	r3, r3, r1
 3575 2616 1046     		mov	r0, r2
 3576 2618 1946     		mov	r1, r3
 3577 261a DDE90823 		ldrd	r2, [sp, #32]
 3578 261e 1218     		adds	r2, r2, r0
 3579 2620 4B41     		adcs	r3, r3, r1
 3580 2622 CDE90023 		strd	r2, [sp]
 3581 2626 DDE91801 		ldrd	r0, [sp, #96]
 3582 262a 4308     		lsrs	r3, r0, #1
 3583 262c 43EAC17E 		orr	lr, r3, r1, lsl #31
 3584 2630 CDF878E9 		str	lr, [sp, #2424]
 3585 2634 4B08     		lsrs	r3, r1, #1
 3586 2636 43EAC07E 		orr	lr, r3, r0, lsl #31
 3587 263a CDF87CE9 		str	lr, [sp, #2428]
 3588 263e 030A     		lsrs	r3, r0, #8
 3589 2640 43EA016E 		orr	lr, r3, r1, lsl #24
 3590 2644 CDF880E9 		str	lr, [sp, #2432]
 3591 2648 0B0A     		lsrs	r3, r1, #8
 3592 264a 43EA006E 		orr	lr, r3, r0, lsl #24
 3593 264e CDF884E9 		str	lr, [sp, #2436]
 3594 2652 0DF67813 		addw	r3, sp, #2424
 3595 2656 D3E90023 		ldrd	r2, [r3]
 3596 265a 0DF5186E 		add	lr, sp, #2432
 3597 265e DEE90089 		ldrd	r8, [lr]
 3598 2662 82EA0802 		eor	r2, r2, r8
 3599 2666 83EA0903 		eor	r3, r3, r9
 3600 266a C009     		lsrs	r0, r0, #7
 3601 266c 8646     		mov	lr, r0
 3602 266e 4EEA416E 		orr	lr, lr, r1, lsl #25
 3603 2672 CDF898E1 		str	lr, [sp, #408]
 3604 2676 C809     		lsrs	r0, r1, #7
 3605 2678 6790     		str	r0, [sp, #412]
 3606 267a 66A9     		add	r1, sp, #408
 3607 267c D1E90001 		ldrd	r0, [r1]
 3608 2680 5040     		eors	r0, r0, r2
 3609 2682 5940     		eors	r1, r1, r3
 3610 2684 DDE90089 		ldrd	r8, [sp]
 3611 2688 18EB0008 		adds	r8, r8, r0
 3612 268c 49EB0109 		adc	r9, r9, r1
 3613 2690 DDE91601 		ldrd	r0, [sp, #88]
 3614 2694 10EB0800 		adds	r0, r0, r8
 3615 2698 41EB0901 		adc	r1, r1, r9
 3616 269c CDE91601 		strd	r0, [sp, #88]
 3617              	.LVL239:
 3618 26a0 DDE91412 		ldrd	r1, [sp, #80]
 3619 26a4 CB0C     		lsrs	r3, r1, #19
 3620 26a6 43EA423E 		orr	lr, r3, r2, lsl #13
 3621 26aa CDF888E9 		str	lr, [sp, #2440]
 3622 26ae D30C     		lsrs	r3, r2, #19
 3623 26b0 43EA413E 		orr	lr, r3, r1, lsl #13
 3624 26b4 CDF88CE9 		str	lr, [sp, #2444]
 3625 26b8 D300     		lsls	r3, r2, #3
 3626 26ba 43EA517E 		orr	lr, r3, r1, lsr #29
 3627 26be CDF894E9 		str	lr, [sp, #2452]
ARM GAS  C:\Users\bogur\AppData\Local\Temp\ccFZ7DD2.s 			page 67


 3628 26c2 CB00     		lsls	r3, r1, #3
 3629 26c4 43EA527E 		orr	lr, r3, r2, lsr #29
 3630 26c8 CDF890E9 		str	lr, [sp, #2448]
 3631 26cc 0DF68813 		addw	r3, sp, #2440
 3632 26d0 D3E90012 		ldrd	r1, [r3]
 3633 26d4 0DF51963 		add	r3, sp, #2448
 3634 26d8 D3E90089 		ldrd	r8, [r3]
 3635 26dc 81EA0801 		eor	r1, r1, r8
 3636 26e0 82EA0902 		eor	r2, r2, r9
 3637 26e4 0846     		mov	r0, r1
 3638              	.LVL240:
 3639 26e6 1146     		mov	r1, r2
 3640 26e8 DDE91489 		ldrd	r8, [sp, #80]
 3641 26ec 4346     		mov	r3, r8
 3642 26ee 9B09     		lsrs	r3, r3, #6
 3643 26f0 4A46     		mov	r2, r9
 3644 26f2 43EA896E 		orr	lr, r3, r9, lsl #26
 3645 26f6 CDF8A0E1 		str	lr, [sp, #416]
 3646 26fa 9309     		lsrs	r3, r2, #6
 3647 26fc 6993     		str	r3, [sp, #420]
 3648 26fe 68AB     		add	r3, sp, #416
 3649 2700 D3E90023 		ldrd	r2, [r3]
 3650 2704 4240     		eors	r2, r2, r0
 3651 2706 4B40     		eors	r3, r3, r1
 3652 2708 1046     		mov	r0, r2
 3653 270a 1946     		mov	r1, r3
 3654 270c DDE90A23 		ldrd	r2, [sp, #40]
 3655 2710 1218     		adds	r2, r2, r0
 3656 2712 4B41     		adcs	r3, r3, r1
 3657 2714 CDE90023 		strd	r2, [sp]
 3658 2718 DDE91E01 		ldrd	r0, [sp, #120]
 3659 271c 4308     		lsrs	r3, r0, #1
 3660 271e 43EAC17E 		orr	lr, r3, r1, lsl #31
 3661 2722 CDF898E9 		str	lr, [sp, #2456]
 3662 2726 4B08     		lsrs	r3, r1, #1
 3663 2728 43EAC07E 		orr	lr, r3, r0, lsl #31
 3664 272c CDF89CE9 		str	lr, [sp, #2460]
 3665 2730 030A     		lsrs	r3, r0, #8
 3666 2732 43EA016E 		orr	lr, r3, r1, lsl #24
 3667 2736 CDF8A0E9 		str	lr, [sp, #2464]
 3668 273a 0B0A     		lsrs	r3, r1, #8
 3669 273c 43EA006E 		orr	lr, r3, r0, lsl #24
 3670 2740 CDF8A4E9 		str	lr, [sp, #2468]
 3671 2744 0DF69813 		addw	r3, sp, #2456
 3672 2748 D3E90023 		ldrd	r2, [r3]
 3673 274c 0DF51A6E 		add	lr, sp, #2464
 3674 2750 DEE90089 		ldrd	r8, [lr]
 3675 2754 82EA0802 		eor	r2, r2, r8
 3676 2758 83EA0903 		eor	r3, r3, r9
 3677 275c C009     		lsrs	r0, r0, #7
 3678 275e 8646     		mov	lr, r0
 3679 2760 4EEA416E 		orr	lr, lr, r1, lsl #25
 3680 2764 CDF8A8E1 		str	lr, [sp, #424]
 3681 2768 C809     		lsrs	r0, r1, #7
 3682 276a 6B90     		str	r0, [sp, #428]
 3683 276c 6AA9     		add	r1, sp, #424
 3684 276e D1E90001 		ldrd	r0, [r1]
ARM GAS  C:\Users\bogur\AppData\Local\Temp\ccFZ7DD2.s 			page 68


 3685 2772 5040     		eors	r0, r0, r2
 3686 2774 5940     		eors	r1, r1, r3
 3687 2776 DDE90089 		ldrd	r8, [sp]
 3688 277a 18EB0008 		adds	r8, r8, r0
 3689 277e 49EB0109 		adc	r9, r9, r1
 3690 2782 DDE91801 		ldrd	r0, [sp, #96]
 3691 2786 10EB0800 		adds	r0, r0, r8
 3692 278a 41EB0901 		adc	r1, r1, r9
 3693 278e CDE91801 		strd	r0, [sp, #96]
 3694              	.LVL241:
 3695 2792 DDE91612 		ldrd	r1, [sp, #88]
 3696 2796 CB0C     		lsrs	r3, r1, #19
 3697 2798 43EA423E 		orr	lr, r3, r2, lsl #13
 3698 279c CDF8A8E9 		str	lr, [sp, #2472]
 3699 27a0 D30C     		lsrs	r3, r2, #19
 3700 27a2 43EA413E 		orr	lr, r3, r1, lsl #13
 3701 27a6 CDF8ACE9 		str	lr, [sp, #2476]
 3702 27aa D300     		lsls	r3, r2, #3
 3703 27ac 43EA517E 		orr	lr, r3, r1, lsr #29
 3704 27b0 CDF8B4E9 		str	lr, [sp, #2484]
 3705 27b4 CB00     		lsls	r3, r1, #3
 3706 27b6 43EA527E 		orr	lr, r3, r2, lsr #29
 3707 27ba CDF8B0E9 		str	lr, [sp, #2480]
 3708 27be 0DF6A813 		addw	r3, sp, #2472
 3709 27c2 D3E90012 		ldrd	r1, [r3]
 3710 27c6 0DF51B63 		add	r3, sp, #2480
 3711 27ca D3E90089 		ldrd	r8, [r3]
 3712 27ce 81EA0801 		eor	r1, r1, r8
 3713 27d2 82EA0902 		eor	r2, r2, r9
 3714 27d6 0846     		mov	r0, r1
 3715              	.LVL242:
 3716 27d8 1146     		mov	r1, r2
 3717 27da DDE91689 		ldrd	r8, [sp, #88]
 3718 27de 4346     		mov	r3, r8
 3719 27e0 9B09     		lsrs	r3, r3, #6
 3720 27e2 4A46     		mov	r2, r9
 3721 27e4 43EA896E 		orr	lr, r3, r9, lsl #26
 3722 27e8 CDF8B0E1 		str	lr, [sp, #432]
 3723 27ec 9309     		lsrs	r3, r2, #6
 3724 27ee 6D93     		str	r3, [sp, #436]
 3725 27f0 6CAB     		add	r3, sp, #432
 3726 27f2 D3E90023 		ldrd	r2, [r3]
 3727 27f6 4240     		eors	r2, r2, r0
 3728 27f8 4B40     		eors	r3, r3, r1
 3729 27fa 1046     		mov	r0, r2
 3730 27fc 1946     		mov	r1, r3
 3731 27fe DDE90C23 		ldrd	r2, [sp, #48]
 3732 2802 1218     		adds	r2, r2, r0
 3733 2804 4B41     		adcs	r3, r3, r1
 3734 2806 CDE90023 		strd	r2, [sp]
 3735 280a DDE92001 		ldrd	r0, [sp, #128]
 3736 280e 4308     		lsrs	r3, r0, #1
 3737 2810 43EAC17E 		orr	lr, r3, r1, lsl #31
 3738 2814 CDF8B8E9 		str	lr, [sp, #2488]
 3739 2818 4B08     		lsrs	r3, r1, #1
 3740 281a 43EAC07E 		orr	lr, r3, r0, lsl #31
 3741 281e CDF8BCE9 		str	lr, [sp, #2492]
ARM GAS  C:\Users\bogur\AppData\Local\Temp\ccFZ7DD2.s 			page 69


 3742 2822 030A     		lsrs	r3, r0, #8
 3743 2824 43EA016E 		orr	lr, r3, r1, lsl #24
 3744 2828 CDF8C0E9 		str	lr, [sp, #2496]
 3745 282c 0B0A     		lsrs	r3, r1, #8
 3746 282e 43EA006E 		orr	lr, r3, r0, lsl #24
 3747 2832 CDF8C4E9 		str	lr, [sp, #2500]
 3748 2836 0DF6B813 		addw	r3, sp, #2488
 3749 283a D3E90023 		ldrd	r2, [r3]
 3750 283e 0DF51C6E 		add	lr, sp, #2496
 3751 2842 DEE90089 		ldrd	r8, [lr]
 3752 2846 82EA0802 		eor	r2, r2, r8
 3753 284a 83EA0903 		eor	r3, r3, r9
 3754 284e C009     		lsrs	r0, r0, #7
 3755 2850 8646     		mov	lr, r0
 3756 2852 4EEA416E 		orr	lr, lr, r1, lsl #25
 3757 2856 CDF8B8E1 		str	lr, [sp, #440]
 3758 285a C809     		lsrs	r0, r1, #7
 3759 285c 6F90     		str	r0, [sp, #444]
 3760 285e 6EA9     		add	r1, sp, #440
 3761 2860 D1E90001 		ldrd	r0, [r1]
 3762 2864 5040     		eors	r0, r0, r2
 3763 2866 5940     		eors	r1, r1, r3
 3764 2868 DDE90089 		ldrd	r8, [sp]
 3765 286c 18EB0008 		adds	r8, r8, r0
 3766 2870 49EB0109 		adc	r9, r9, r1
 3767 2874 DDE91E01 		ldrd	r0, [sp, #120]
 3768 2878 10EB0800 		adds	r0, r0, r8
 3769 287c 41EB0901 		adc	r1, r1, r9
 3770 2880 CDE91E01 		strd	r0, [sp, #120]
 3771              	.LVL243:
 3772 2884 DDE91812 		ldrd	r1, [sp, #96]
 3773 2888 CB0C     		lsrs	r3, r1, #19
 3774 288a 43EA423E 		orr	lr, r3, r2, lsl #13
 3775 288e CDF8C8E9 		str	lr, [sp, #2504]
 3776 2892 D30C     		lsrs	r3, r2, #19
 3777 2894 43EA413E 		orr	lr, r3, r1, lsl #13
 3778 2898 CDF8CCE9 		str	lr, [sp, #2508]
 3779 289c D300     		lsls	r3, r2, #3
 3780 289e 43EA517E 		orr	lr, r3, r1, lsr #29
 3781 28a2 CDF8D4E9 		str	lr, [sp, #2516]
 3782 28a6 CB00     		lsls	r3, r1, #3
 3783 28a8 43EA527E 		orr	lr, r3, r2, lsr #29
 3784 28ac CDF8D0E9 		str	lr, [sp, #2512]
 3785 28b0 0DF6C813 		addw	r3, sp, #2504
 3786 28b4 D3E90012 		ldrd	r1, [r3]
 3787 28b8 0DF51D63 		add	r3, sp, #2512
 3788 28bc D3E90089 		ldrd	r8, [r3]
 3789 28c0 81EA0801 		eor	r1, r1, r8
 3790 28c4 82EA0902 		eor	r2, r2, r9
 3791 28c8 0846     		mov	r0, r1
 3792              	.LVL244:
 3793 28ca 1146     		mov	r1, r2
 3794 28cc DDE91889 		ldrd	r8, [sp, #96]
 3795 28d0 4346     		mov	r3, r8
 3796 28d2 9B09     		lsrs	r3, r3, #6
 3797 28d4 4A46     		mov	r2, r9
 3798 28d6 43EA896E 		orr	lr, r3, r9, lsl #26
ARM GAS  C:\Users\bogur\AppData\Local\Temp\ccFZ7DD2.s 			page 70


 3799 28da CDF8C0E1 		str	lr, [sp, #448]
 3800 28de 9309     		lsrs	r3, r2, #6
 3801 28e0 7193     		str	r3, [sp, #452]
 3802 28e2 70AB     		add	r3, sp, #448
 3803 28e4 D3E90023 		ldrd	r2, [r3]
 3804 28e8 4240     		eors	r2, r2, r0
 3805 28ea 4B40     		eors	r3, r3, r1
 3806 28ec 1046     		mov	r0, r2
 3807 28ee 1946     		mov	r1, r3
 3808 28f0 DDE90E23 		ldrd	r2, [sp, #56]
 3809 28f4 1218     		adds	r2, r2, r0
 3810 28f6 4B41     		adcs	r3, r3, r1
 3811 28f8 CDE90023 		strd	r2, [sp]
 3812 28fc DDE92401 		ldrd	r0, [sp, #144]
 3813 2900 4308     		lsrs	r3, r0, #1
 3814 2902 43EAC17E 		orr	lr, r3, r1, lsl #31
 3815 2906 CDF8D8E9 		str	lr, [sp, #2520]
 3816 290a 4B08     		lsrs	r3, r1, #1
 3817 290c 43EAC07E 		orr	lr, r3, r0, lsl #31
 3818 2910 CDF8DCE9 		str	lr, [sp, #2524]
 3819 2914 030A     		lsrs	r3, r0, #8
 3820 2916 43EA016E 		orr	lr, r3, r1, lsl #24
 3821 291a CDF8E0E9 		str	lr, [sp, #2528]
 3822 291e 0B0A     		lsrs	r3, r1, #8
 3823 2920 43EA006E 		orr	lr, r3, r0, lsl #24
 3824 2924 CDF8E4E9 		str	lr, [sp, #2532]
 3825 2928 0DF6D813 		addw	r3, sp, #2520
 3826 292c D3E90023 		ldrd	r2, [r3]
 3827 2930 0DF51E6E 		add	lr, sp, #2528
 3828 2934 DEE90089 		ldrd	r8, [lr]
 3829 2938 82EA0802 		eor	r2, r2, r8
 3830 293c 83EA0903 		eor	r3, r3, r9
 3831 2940 C009     		lsrs	r0, r0, #7
 3832 2942 8646     		mov	lr, r0
 3833 2944 4EEA416E 		orr	lr, lr, r1, lsl #25
 3834 2948 CDF8C8E1 		str	lr, [sp, #456]
 3835 294c C809     		lsrs	r0, r1, #7
 3836 294e 7390     		str	r0, [sp, #460]
 3837 2950 72A9     		add	r1, sp, #456
 3838 2952 D1E90001 		ldrd	r0, [r1]
 3839 2956 5040     		eors	r0, r0, r2
 3840 2958 5940     		eors	r1, r1, r3
 3841 295a DDE90089 		ldrd	r8, [sp]
 3842 295e 18EB0008 		adds	r8, r8, r0
 3843 2962 49EB0109 		adc	r9, r9, r1
 3844 2966 DDE92001 		ldrd	r0, [sp, #128]
 3845 296a 10EB0800 		adds	r0, r0, r8
 3846 296e 41EB0901 		adc	r1, r1, r9
 3847 2972 CDE92001 		strd	r0, [sp, #128]
 3848              	.LVL245:
 136:..\sha512.c   **** 
 137:..\sha512.c   ****     F(w0 ,0xe49b69c19ef14ad2ULL)
 3849              		.loc 1 137 0
 3850 2976 A30B     		lsrs	r3, r4, #14
 3851 2978 43EA854E 		orr	lr, r3, r5, lsl #18
 3852 297c CDF8E8E9 		str	lr, [sp, #2536]
 3853 2980 AB0B     		lsrs	r3, r5, #14
ARM GAS  C:\Users\bogur\AppData\Local\Temp\ccFZ7DD2.s 			page 71


 3854 2982 43EA844E 		orr	lr, r3, r4, lsl #18
 3855 2986 CDF8ECE9 		str	lr, [sp, #2540]
 3856 298a A30C     		lsrs	r3, r4, #18
 3857 298c 43EA853E 		orr	lr, r3, r5, lsl #14
 3858 2990 CDF8F0E9 		str	lr, [sp, #2544]
 3859 2994 AB0C     		lsrs	r3, r5, #18
 3860 2996 43EA843E 		orr	lr, r3, r4, lsl #14
 3861 299a CDF8F4E9 		str	lr, [sp, #2548]
 3862 299e 0DF6E813 		addw	r3, sp, #2536
 3863 29a2 D3E90012 		ldrd	r1, [r3]
 3864 29a6 0DF51F63 		add	r3, sp, #2544
 3865 29aa D3E90089 		ldrd	r8, [r3]
 3866 29ae 81EA0801 		eor	r1, r1, r8
 3867 29b2 82EA0902 		eor	r2, r2, r9
 3868 29b6 1346     		mov	r3, r2
 3869 29b8 0A46     		mov	r2, r1
 3870 29ba E905     		lsls	r1, r5, #23
 3871 29bc 41EA542E 		orr	lr, r1, r4, lsr #9
 3872 29c0 CDF8FCE9 		str	lr, [sp, #2556]
 3873 29c4 E105     		lsls	r1, r4, #23
 3874 29c6 41EA552E 		orr	lr, r1, r5, lsr #9
 3875 29ca CDF8F8E9 		str	lr, [sp, #2552]
 3876 29ce 0DF6F811 		addw	r1, sp, #2552
 3877 29d2 D1E90001 		ldrd	r0, [r1]
 3878              	.LVL246:
 3879 29d6 5040     		eors	r0, r0, r2
 3880 29d8 5940     		eors	r1, r1, r3
 3881 29da 0246     		mov	r2, r0
 3882 29dc 0B46     		mov	r3, r1
 3883 29de DDE93001 		ldrd	r0, [sp, #192]
 3884 29e2 8018     		adds	r0, r0, r2
 3885 29e4 5941     		adcs	r1, r1, r3
 3886 29e6 0246     		mov	r2, r0
 3887 29e8 0B46     		mov	r3, r1
 3888 29ea B4A9     		add	r1, sp, #720
 3889 29ec D1E90089 		ldrd	r8, [r1]
 3890 29f0 08EA0408 		and	r8, r8, r4
 3891 29f4 09EA0509 		and	r9, r9, r5
 3892 29f8 DDE93201 		ldrd	r0, [sp, #200]
 3893 29fc 20EA0400 		bic	r0, r0, r4
 3894 2a00 21EA0501 		bic	r1, r1, r5
 3895 2a04 80EA0800 		eor	r0, r0, r8
 3896 2a08 81EA0901 		eor	r1, r1, r9
 3897 2a0c 1218     		adds	r2, r2, r0
 3898 2a0e 4B41     		adcs	r3, r3, r1
 3899 2a10 DDE92489 		ldrd	r8, [sp, #144]
 3900 2a14 18EB0208 		adds	r8, r8, r2
 3901 2a18 49EB0309 		adc	r9, r9, r3
 3902 2a1c 4246     		mov	r2, r8
 3903 2a1e 4B46     		mov	r3, r9
 3904 2a20 0FF64C59 		adr	r9, .L14
 3905 2a24 D9E90089 		ldrd	r8, [r9]
 3906 2a28 12EB0800 		adds	r0, r2, r8
 3907 2a2c 43EB0901 		adc	r1, r3, r9
 3908              	.LVL247:
 3909 2a30 330F     		lsrs	r3, r6, #28
 3910 2a32 43EA071E 		orr	lr, r3, r7, lsl #4
ARM GAS  C:\Users\bogur\AppData\Local\Temp\ccFZ7DD2.s 			page 72


 3911 2a36 CDF800EA 		str	lr, [sp, #2560]
 3912 2a3a 3B0F     		lsrs	r3, r7, #28
 3913 2a3c 43EA061E 		orr	lr, r3, r6, lsl #4
 3914 2a40 CDF804EA 		str	lr, [sp, #2564]
 3915 2a44 BB07     		lsls	r3, r7, #30
 3916 2a46 43EA960E 		orr	lr, r3, r6, lsr #2
 3917 2a4a CDF80CEA 		str	lr, [sp, #2572]
 3918 2a4e B307     		lsls	r3, r6, #30
 3919 2a50 43EA970E 		orr	lr, r3, r7, lsr #2
 3920 2a54 CDF808EA 		str	lr, [sp, #2568]
 3921 2a58 0DF52063 		add	r3, sp, #2560
 3922 2a5c D3E90089 		ldrd	r8, [r3]
 3923 2a60 0DF60823 		addw	r3, sp, #2568
 3924 2a64 D3E90023 		ldrd	r2, [r3]
 3925 2a68 88EA0208 		eor	r8, r8, r2
 3926 2a6c 89EA0309 		eor	r9, r9, r3
 3927 2a70 7B06     		lsls	r3, r7, #25
 3928 2a72 43EAD61E 		orr	lr, r3, r6, lsr #7
 3929 2a76 CDF814EA 		str	lr, [sp, #2580]
 3930 2a7a 7306     		lsls	r3, r6, #25
 3931 2a7c 43EAD71E 		orr	lr, r3, r7, lsr #7
 3932 2a80 CDF810EA 		str	lr, [sp, #2576]
 3933 2a84 0DF52163 		add	r3, sp, #2576
 3934 2a88 D3E90023 		ldrd	r2, [r3]
 3935 2a8c 82EA0802 		eor	r2, r2, r8
 3936 2a90 83EA0903 		eor	r3, r3, r9
 3937 2a94 CDE90023 		strd	r2, [sp]
 3938 2a98 DDE92289 		ldrd	r8, [sp, #136]
 3939 2a9c DDE90423 		ldrd	r2, [sp, #16]
 3940 2aa0 88EA0208 		eor	r8, r8, r2
 3941 2aa4 89EA0309 		eor	r9, r9, r3
 3942 2aa8 08EA0608 		and	r8, r8, r6
 3943 2aac 09EA0709 		and	r9, r9, r7
 3944 2ab0 CDE92689 		strd	r8, [sp, #152]
 3945 2ab4 DDE92289 		ldrd	r8, [sp, #136]
 3946 2ab8 DDE90423 		ldrd	r2, [sp, #16]
 3947 2abc 08EA0208 		and	r8, r8, r2
 3948 2ac0 09EA0309 		and	r9, r9, r3
 3949 2ac4 DDE92623 		ldrd	r2, [sp, #152]
 3950 2ac8 82EA0802 		eor	r2, r2, r8
 3951 2acc 83EA0903 		eor	r3, r3, r9
 3952 2ad0 9046     		mov	r8, r2
 3953 2ad2 9946     		mov	r9, r3
 3954 2ad4 DDE90023 		ldrd	r2, [sp]
 3955 2ad8 12EB0802 		adds	r2, r2, r8
 3956 2adc 43EB0903 		adc	r3, r3, r9
 3957 2ae0 9046     		mov	r8, r2
 3958 2ae2 9946     		mov	r9, r3
 3959              	.LVL248:
 3960 2ae4 1AEB0002 		adds	r2, r10, r0
 3961 2ae8 4BEB0103 		adc	r3, fp, r1
 3962 2aec 9346     		mov	fp, r2
 3963 2aee 9C46     		mov	ip, r3
 3964              	.LVL249:
 3965 2af0 18EB0002 		adds	r2, r8, r0
 3966 2af4 49EB0103 		adc	r3, r9, r1
 3967 2af8 CDE90023 		strd	r2, [sp]
ARM GAS  C:\Users\bogur\AppData\Local\Temp\ccFZ7DD2.s 			page 73


 3968              	.LVL250:
 138:..\sha512.c   ****     F(w1 ,0xefbe4786384f25e3ULL)
 3969              		.loc 1 138 0
 3970 2afc 5B46     		mov	r3, fp
 3971 2afe 9B0B     		lsrs	r3, r3, #14
 3972 2b00 D846     		mov	r8, fp
 3973              	.LVL251:
 3974 2b02 E146     		mov	r9, ip
 3975 2b04 6246     		mov	r2, ip
 3976              	.LVL252:
 3977 2b06 43EA8C4E 		orr	lr, r3, ip, lsl #18
 3978 2b0a CDF818EA 		str	lr, [sp, #2584]
 3979 2b0e 930B     		lsrs	r3, r2, #14
 3980 2b10 5A46     		mov	r2, fp
 3981 2b12 43EA8B4E 		orr	lr, r3, fp, lsl #18
 3982 2b16 CDF81CEA 		str	lr, [sp, #2588]
 3983 2b1a 930C     		lsrs	r3, r2, #18
 3984 2b1c 6246     		mov	r2, ip
 3985 2b1e 43EA8C3E 		orr	lr, r3, ip, lsl #14
 3986 2b22 CDF820EA 		str	lr, [sp, #2592]
 3987 2b26 930C     		lsrs	r3, r2, #18
 3988 2b28 43EA8B3E 		orr	lr, r3, fp, lsl #14
 3989 2b2c CDF824EA 		str	lr, [sp, #2596]
 3990 2b30 0DF61823 		addw	r3, sp, #2584
 3991 2b34 D3E900AB 		ldrd	r10, [r3]
 3992 2b38 0DF52263 		add	r3, sp, #2592
 3993 2b3c D3E90012 		ldrd	r1, [r3]
 3994 2b40 8AEA010A 		eor	r10, r10, r1
 3995 2b44 8BEA020B 		eor	fp, fp, r2
 3996              	.LVL253:
 3997 2b48 5246     		mov	r2, r10
 3998 2b4a 5B46     		mov	r3, fp
 3999 2b4c 6146     		mov	r1, ip
 4000 2b4e C905     		lsls	r1, r1, #23
 4001 2b50 41EA582E 		orr	lr, r1, r8, lsr #9
 4002 2b54 CDF82CEA 		str	lr, [sp, #2604]
 4003 2b58 4146     		mov	r1, r8
 4004 2b5a C905     		lsls	r1, r1, #23
 4005 2b5c 41EA5C2E 		orr	lr, r1, ip, lsr #9
 4006 2b60 CDF828EA 		str	lr, [sp, #2600]
 4007 2b64 0DF62821 		addw	r1, sp, #2600
 4008 2b68 D1E900AB 		ldrd	r10, [r1]
 4009 2b6c 8AEA020A 		eor	r10, r10, r2
 4010 2b70 8BEA030B 		eor	fp, fp, r3
 4011 2b74 5B46     		mov	r3, fp
 4012 2b76 DDE932BC 		ldrd	fp, [sp, #200]
 4013 2b7a 1BEB0A0B 		adds	fp, fp, r10
 4014 2b7e 4CEB030C 		adc	ip, ip, r3
 4015 2b82 5A46     		mov	r2, fp
 4016 2b84 6346     		mov	r3, ip
 4017 2b86 4046     		mov	r0, r8
 4018              	.LVL254:
 4019 2b88 4946     		mov	r1, r9
 4020 2b8a 08EA0408 		and	r8, r8, r4
 4021 2b8e 09EA0509 		and	r9, r9, r5
 4022 2b92 CC46     		mov	ip, r9
 4023 2b94 E246     		mov	r10, ip
ARM GAS  C:\Users\bogur\AppData\Local\Temp\ccFZ7DD2.s 			page 74


 4024 2b96 0DF5347E 		add	lr, sp, #720
 4025 2b9a DEE900BC 		ldrd	fp, [lr]
 4026 2b9e CDE92801 		strd	r0, [sp, #160]
 4027 2ba2 2BEA0000 		bic	r0, fp, r0
 4028 2ba6 2CEA0101 		bic	r1, ip, r1
 4029 2baa D346     		mov	fp, r10
 4030 2bac 88EA000A 		eor	r10, r8, r0
 4031 2bb0 8BEA010B 		eor	fp, fp, r1
 4032 2bb4 12EB0A02 		adds	r2, r2, r10
 4033 2bb8 43EB0B03 		adc	r3, r3, fp
 4034 2bbc DDE90601 		ldrd	r0, [sp, #24]
 4035 2bc0 8018     		adds	r0, r0, r2
 4036 2bc2 5941     		adcs	r1, r1, r3
 4037 2bc4 0246     		mov	r2, r0
 4038 2bc6 0B46     		mov	r3, r1
 4039 2bc8 0FF6AC31 		adr	r1, .L14+8
 4040 2bcc D1E90001 		ldrd	r0, [r1]
 4041 2bd0 8018     		adds	r0, r0, r2
 4042 2bd2 5941     		adcs	r1, r1, r3
 4043              	.LVL255:
 4044 2bd4 DDE900AB 		ldrd	r10, [sp]
 4045 2bd8 5346     		mov	r3, r10
 4046 2bda 1B0F     		lsrs	r3, r3, #28
 4047 2bdc 5A46     		mov	r2, fp
 4048 2bde 43EA0B1E 		orr	lr, r3, fp, lsl #4
 4049 2be2 CDF830EA 		str	lr, [sp, #2608]
 4050 2be6 130F     		lsrs	r3, r2, #28
 4051 2be8 5246     		mov	r2, r10
 4052 2bea 43EA0A1E 		orr	lr, r3, r10, lsl #4
 4053 2bee CDF834EA 		str	lr, [sp, #2612]
 4054 2bf2 5B46     		mov	r3, fp
 4055 2bf4 9B07     		lsls	r3, r3, #30
 4056 2bf6 43EA9A0E 		orr	lr, r3, r10, lsr #2
 4057 2bfa CDF83CEA 		str	lr, [sp, #2620]
 4058 2bfe 9307     		lsls	r3, r2, #30
 4059 2c00 43EA9B0E 		orr	lr, r3, fp, lsr #2
 4060 2c04 CDF838EA 		str	lr, [sp, #2616]
 4061 2c08 0DF52363 		add	r3, sp, #2608
 4062 2c0c D3E900AB 		ldrd	r10, [r3]
 4063 2c10 0DF63823 		addw	r3, sp, #2616
 4064 2c14 D3E90089 		ldrd	r8, [r3]
 4065 2c18 8AEA080A 		eor	r10, r10, r8
 4066 2c1c 8BEA090B 		eor	fp, fp, r9
 4067 2c20 D046     		mov	r8, r10
 4068 2c22 D946     		mov	r9, fp
 4069 2c24 DDE900AB 		ldrd	r10, [sp]
 4070 2c28 5B46     		mov	r3, fp
 4071 2c2a 5B06     		lsls	r3, r3, #25
 4072 2c2c 5246     		mov	r2, r10
 4073 2c2e 43EADA1E 		orr	lr, r3, r10, lsr #7
 4074 2c32 CDF844EA 		str	lr, [sp, #2628]
 4075 2c36 5306     		lsls	r3, r2, #25
 4076 2c38 43EADB1E 		orr	lr, r3, fp, lsr #7
 4077 2c3c CDF840EA 		str	lr, [sp, #2624]
 4078 2c40 0DF52463 		add	r3, sp, #2624
 4079 2c44 D3E900AB 		ldrd	r10, [r3]
 4080 2c48 8AEA080A 		eor	r10, r10, r8
ARM GAS  C:\Users\bogur\AppData\Local\Temp\ccFZ7DD2.s 			page 75


 4081 2c4c 8BEA090B 		eor	fp, fp, r9
 4082 2c50 CDE926AB 		strd	r10, [sp, #152]
 4083 2c54 DDE90489 		ldrd	r8, [sp, #16]
 4084 2c58 88EA060A 		eor	r10, r8, r6
 4085 2c5c 89EA070B 		eor	fp, r9, r7
 4086 2c60 5246     		mov	r2, r10
 4087 2c62 5B46     		mov	r3, fp
 4088 2c64 DDE900AB 		ldrd	r10, [sp]
 4089 2c68 0AEA020A 		and	r10, r10, r2
 4090 2c6c 0BEA030B 		and	fp, fp, r3
 4091 2c70 5246     		mov	r2, r10
 4092 2c72 5B46     		mov	r3, fp
 4093 2c74 08EA060A 		and	r10, r8, r6
 4094 2c78 09EA070B 		and	fp, r9, r7
 4095 2c7c D146     		mov	r9, r10
 4096 2c7e 89EA0209 		eor	r9, r9, r2
 4097 2c82 8BEA030A 		eor	r10, fp, r3
 4098 2c86 4A46     		mov	r2, r9
 4099 2c88 5346     		mov	r3, r10
 4100 2c8a DDE9269A 		ldrd	r9, [sp, #152]
 4101 2c8e 19EB0209 		adds	r9, r9, r2
 4102 2c92 4AEB030A 		adc	r10, r10, r3
 4103 2c96 4A46     		mov	r2, r9
 4104 2c98 5346     		mov	r3, r10
 4105              	.LVL256:
 4106 2c9a DDE9229A 		ldrd	r9, [sp, #136]
 4107 2c9e 19EB0009 		adds	r9, r9, r0
 4108 2ca2 4AEB010A 		adc	r10, r10, r1
 4109 2ca6 CB46     		mov	fp, r9
 4110 2ca8 D446     		mov	ip, r10
 4111              	.LVL257:
 4112 2caa 10EB0209 		adds	r9, r0, r2
 4113 2cae 41EB030A 		adc	r10, r1, r3
 4114 2cb2 CDE9229A 		strd	r9, [sp, #136]
 4115              	.LVL258:
 139:..\sha512.c   ****     F(w2 ,0x0fc19dc68b8cd5b5ULL)
 4116              		.loc 1 139 0
 4117 2cb6 5B46     		mov	r3, fp
 4118 2cb8 9B0B     		lsrs	r3, r3, #14
 4119 2cba 6046     		mov	r0, ip
 4120              	.LVL259:
 4121 2cbc 43EA8C4E 		orr	lr, r3, ip, lsl #18
 4122 2cc0 CDF848EA 		str	lr, [sp, #2632]
 4123 2cc4 830B     		lsrs	r3, r0, #14
 4124 2cc6 5846     		mov	r0, fp
 4125 2cc8 43EA8B4E 		orr	lr, r3, fp, lsl #18
 4126 2ccc CDF84CEA 		str	lr, [sp, #2636]
 4127 2cd0 830C     		lsrs	r3, r0, #18
 4128 2cd2 6046     		mov	r0, ip
 4129 2cd4 43EA8C3E 		orr	lr, r3, ip, lsl #14
 4130 2cd8 CDF850EA 		str	lr, [sp, #2640]
 4131 2cdc 830C     		lsrs	r3, r0, #18
 4132 2cde 43EA8B3E 		orr	lr, r3, fp, lsl #14
 4133 2ce2 CDF854EA 		str	lr, [sp, #2644]
 4134 2ce6 0DF64823 		addw	r3, sp, #2632
 4135 2cea D3E90012 		ldrd	r1, [r3]
 4136 2cee 0DF52563 		add	r3, sp, #2640
ARM GAS  C:\Users\bogur\AppData\Local\Temp\ccFZ7DD2.s 			page 76


 4137 2cf2 D3E9009A 		ldrd	r9, [r3]
 4138              	.LVL260:
 4139 2cf6 81EA0901 		eor	r1, r1, r9
 4140 2cfa 82EA0A02 		eor	r2, r2, r10
 4141              	.LVL261:
 4142 2cfe 1346     		mov	r3, r2
 4143 2d00 0A46     		mov	r2, r1
 4144 2d02 6046     		mov	r0, ip
 4145 2d04 C105     		lsls	r1, r0, #23
 4146 2d06 D946     		mov	r9, fp
 4147 2d08 E246     		mov	r10, ip
 4148 2d0a 41EA5B2E 		orr	lr, r1, fp, lsr #9
 4149 2d0e CDF85CEA 		str	lr, [sp, #2652]
 4150 2d12 5846     		mov	r0, fp
 4151 2d14 C105     		lsls	r1, r0, #23
 4152 2d16 41EA5C2E 		orr	lr, r1, ip, lsr #9
 4153 2d1a CDF858EA 		str	lr, [sp, #2648]
 4154 2d1e 0DF65821 		addw	r1, sp, #2648
 4155 2d22 D1E90001 		ldrd	r0, [r1]
 4156 2d26 5040     		eors	r0, r0, r2
 4157 2d28 5940     		eors	r1, r1, r3
 4158 2d2a 0246     		mov	r2, r0
 4159 2d2c 0B46     		mov	r3, r1
 4160 2d2e B4A9     		add	r1, sp, #720
 4161 2d30 D1E90001 		ldrd	r0, [r1]
 4162 2d34 8018     		adds	r0, r0, r2
 4163 2d36 5941     		adcs	r1, r1, r3
 4164 2d38 0246     		mov	r2, r0
 4165 2d3a 0B46     		mov	r3, r1
 4166 2d3c 5846     		mov	r0, fp
 4167 2d3e 6146     		mov	r1, ip
 4168 2d40 DDE928BC 		ldrd	fp, [sp, #160]
 4169              	.LVL262:
 4170 2d44 0BEA090B 		and	fp, fp, r9
 4171 2d48 0CEA0A0C 		and	ip, ip, r10
 4172 2d4c CDE92A01 		strd	r0, [sp, #168]
 4173 2d50 24EA0009 		bic	r9, r4, r0
 4174 2d54 25EA010A 		bic	r10, r5, r1
 4175 2d58 4846     		mov	r0, r9
 4176 2d5a 5146     		mov	r1, r10
 4177 2d5c 8BEA0009 		eor	r9, fp, r0
 4178 2d60 8CEA010A 		eor	r10, ip, r1
 4179 2d64 12EB0902 		adds	r2, r2, r9
 4180 2d68 43EB0A03 		adc	r3, r3, r10
 4181 2d6c DDE91A01 		ldrd	r0, [sp, #104]
 4182 2d70 8018     		adds	r0, r0, r2
 4183 2d72 5941     		adcs	r1, r1, r3
 4184 2d74 0246     		mov	r2, r0
 4185 2d76 0B46     		mov	r3, r1
 4186 2d78 0FF60421 		adr	r1, .L14+16
 4187 2d7c D1E90001 		ldrd	r0, [r1]
 4188 2d80 8018     		adds	r0, r0, r2
 4189 2d82 5941     		adcs	r1, r1, r3
 4190              	.LVL263:
 4191 2d84 DDE922BC 		ldrd	fp, [sp, #136]
 4192 2d88 5B46     		mov	r3, fp
 4193 2d8a 1B0F     		lsrs	r3, r3, #28
ARM GAS  C:\Users\bogur\AppData\Local\Temp\ccFZ7DD2.s 			page 77


 4194 2d8c 6246     		mov	r2, ip
 4195 2d8e 43EA0C1E 		orr	lr, r3, ip, lsl #4
 4196 2d92 CDF860EA 		str	lr, [sp, #2656]
 4197 2d96 130F     		lsrs	r3, r2, #28
 4198 2d98 5A46     		mov	r2, fp
 4199 2d9a 43EA0B1E 		orr	lr, r3, fp, lsl #4
 4200 2d9e CDF864EA 		str	lr, [sp, #2660]
 4201 2da2 6346     		mov	r3, ip
 4202 2da4 9B07     		lsls	r3, r3, #30
 4203 2da6 43EA9B0E 		orr	lr, r3, fp, lsr #2
 4204 2daa CDF86CEA 		str	lr, [sp, #2668]
 4205 2dae 9307     		lsls	r3, r2, #30
 4206 2db0 43EA9C0E 		orr	lr, r3, ip, lsr #2
 4207 2db4 CDF868EA 		str	lr, [sp, #2664]
 4208 2db8 0DF52663 		add	r3, sp, #2656
 4209 2dbc D3E9009A 		ldrd	r9, [r3]
 4210 2dc0 0DF66823 		addw	r3, sp, #2664
 4211 2dc4 D3E90023 		ldrd	r2, [r3]
 4212 2dc8 89EA0209 		eor	r9, r9, r2
 4213 2dcc 8AEA030A 		eor	r10, r10, r3
 4214 2dd0 CDE9229A 		strd	r9, [sp, #136]
 4215              	.LVL264:
 4216 2dd4 6346     		mov	r3, ip
 4217 2dd6 5B06     		lsls	r3, r3, #25
 4218 2dd8 5A46     		mov	r2, fp
 4219 2dda 43EADB1E 		orr	lr, r3, fp, lsr #7
 4220 2dde CDF874EA 		str	lr, [sp, #2676]
 4221 2de2 5306     		lsls	r3, r2, #25
 4222 2de4 43EADC1E 		orr	lr, r3, ip, lsr #7
 4223 2de8 CDF870EA 		str	lr, [sp, #2672]
 4224 2dec 0DF52763 		add	r3, sp, #2672
 4225 2df0 D3E9009A 		ldrd	r9, [r3]
 4226 2df4 DDE92223 		ldrd	r2, [sp, #136]
 4227 2df8 89EA0209 		eor	r9, r9, r2
 4228 2dfc 8AEA030A 		eor	r10, r10, r3
 4229 2e00 CDE9229A 		strd	r9, [sp, #136]
 4230 2e04 DDE90023 		ldrd	r2, [sp]
 4231 2e08 7240     		eors	r2, r2, r6
 4232 2e0a 7B40     		eors	r3, r3, r7
 4233 2e0c CDE926BC 		strd	fp, [sp, #152]
 4234 2e10 0BEA0209 		and	r9, fp, r2
 4235 2e14 0CEA030A 		and	r10, ip, r3
 4236 2e18 4A46     		mov	r2, r9
 4237 2e1a 5346     		mov	r3, r10
 4238 2e1c DDE9009A 		ldrd	r9, [sp]
 4239 2e20 09EA0609 		and	r9, r9, r6
 4240 2e24 0AEA070A 		and	r10, r10, r7
 4241 2e28 C846     		mov	r8, r9
 4242 2e2a 88EA0208 		eor	r8, r8, r2
 4243 2e2e 8AEA0309 		eor	r9, r10, r3
 4244 2e32 4B46     		mov	r3, r9
 4245 2e34 DDE9229A 		ldrd	r9, [sp, #136]
 4246 2e38 19EB0809 		adds	r9, r9, r8
 4247 2e3c 4AEB030A 		adc	r10, r10, r3
 4248 2e40 4A46     		mov	r2, r9
 4249 2e42 5346     		mov	r3, r10
 4250              	.LVL265:
ARM GAS  C:\Users\bogur\AppData\Local\Temp\ccFZ7DD2.s 			page 78


 4251 2e44 DDE90489 		ldrd	r8, [sp, #16]
 4252 2e48 18EB0008 		adds	r8, r8, r0
 4253 2e4c 49EB0109 		adc	r9, r9, r1
 4254 2e50 C246     		mov	r10, r8
 4255 2e52 CB46     		mov	fp, r9
 4256              	.LVL266:
 4257 2e54 10EB0208 		adds	r8, r0, r2
 4258 2e58 41EB0309 		adc	r9, r1, r3
 4259 2e5c CDE92289 		strd	r8, [sp, #136]
 4260              	.LVL267:
 140:..\sha512.c   ****     F(w3 ,0x240ca1cc77ac9c65ULL)
 4261              		.loc 1 140 0
 4262 2e60 5346     		mov	r3, r10
 4263 2e62 9B0B     		lsrs	r3, r3, #14
 4264 2e64 D046     		mov	r8, r10
 4265              	.LVL268:
 4266 2e66 D946     		mov	r9, fp
 4267 2e68 5846     		mov	r0, fp
 4268              	.LVL269:
 4269 2e6a 43EA8B4E 		orr	lr, r3, fp, lsl #18
 4270 2e6e CDF878EA 		str	lr, [sp, #2680]
 4271 2e72 830B     		lsrs	r3, r0, #14
 4272 2e74 5046     		mov	r0, r10
 4273 2e76 43EA8A4E 		orr	lr, r3, r10, lsl #18
 4274 2e7a CDF87CEA 		str	lr, [sp, #2684]
 4275 2e7e 830C     		lsrs	r3, r0, #18
 4276 2e80 5846     		mov	r0, fp
 4277 2e82 43EA8B3E 		orr	lr, r3, fp, lsl #14
 4278 2e86 CDF880EA 		str	lr, [sp, #2688]
 4279 2e8a 830C     		lsrs	r3, r0, #18
 4280 2e8c 43EA8A3E 		orr	lr, r3, r10, lsl #14
 4281 2e90 CDF884EA 		str	lr, [sp, #2692]
 4282 2e94 0DF67823 		addw	r3, sp, #2680
 4283 2e98 D3E90012 		ldrd	r1, [r3]
 4284 2e9c 0DF52863 		add	r3, sp, #2688
 4285 2ea0 D3E900AB 		ldrd	r10, [r3]
 4286              	.LVL270:
 4287 2ea4 81EA0A01 		eor	r1, r1, r10
 4288 2ea8 82EA0B02 		eor	r2, r2, fp
 4289              	.LVL271:
 4290 2eac 1346     		mov	r3, r2
 4291 2eae 0A46     		mov	r2, r1
 4292 2eb0 4846     		mov	r0, r9
 4293 2eb2 C105     		lsls	r1, r0, #23
 4294 2eb4 C346     		mov	fp, r8
 4295 2eb6 CC46     		mov	ip, r9
 4296 2eb8 41EA582E 		orr	lr, r1, r8, lsr #9
 4297 2ebc CDF88CEA 		str	lr, [sp, #2700]
 4298 2ec0 4046     		mov	r0, r8
 4299 2ec2 C105     		lsls	r1, r0, #23
 4300 2ec4 41EA592E 		orr	lr, r1, r9, lsr #9
 4301 2ec8 CDF888EA 		str	lr, [sp, #2696]
 4302 2ecc 0DF68821 		addw	r1, sp, #2696
 4303 2ed0 D1E90089 		ldrd	r8, [r1]
 4304 2ed4 88EA0208 		eor	r8, r8, r2
 4305 2ed8 89EA0309 		eor	r9, r9, r3
 4306 2edc 18EB0402 		adds	r2, r8, r4
ARM GAS  C:\Users\bogur\AppData\Local\Temp\ccFZ7DD2.s 			page 79


 4307 2ee0 49EB0503 		adc	r3, r9, r5
 4308 2ee4 DDE92A9A 		ldrd	r9, [sp, #168]
 4309 2ee8 09EA0B09 		and	r9, r9, fp
 4310 2eec 0AEA0C0A 		and	r10, r10, ip
 4311 2ef0 4C46     		mov	r4, r9
 4312              	.LVL272:
 4313 2ef2 5546     		mov	r5, r10
 4314 2ef4 CDE92CBC 		strd	fp, [sp, #176]
 4315 2ef8 D846     		mov	r8, fp
 4316 2efa DDE928AB 		ldrd	r10, [sp, #160]
 4317 2efe 2AEA080A 		bic	r10, r10, r8
 4318 2f02 2BEA0C0B 		bic	fp, fp, ip
 4319 2f06 5046     		mov	r0, r10
 4320 2f08 5946     		mov	r1, fp
 4321 2f0a 6040     		eors	r0, r0, r4
 4322 2f0c 6940     		eors	r1, r1, r5
 4323 2f0e 1218     		adds	r2, r2, r0
 4324 2f10 4B41     		adcs	r3, r3, r1
 4325 2f12 DDE91C45 		ldrd	r4, [sp, #112]
 4326 2f16 A418     		adds	r4, r4, r2
 4327 2f18 5D41     		adcs	r5, r5, r3
 4328 2f1a 0FF66C01 		adr	r1, .L14+24
 4329 2f1e D1E90001 		ldrd	r0, [r1]
 4330 2f22 0019     		adds	r0, r0, r4
 4331 2f24 6941     		adcs	r1, r1, r5
 4332              	.LVL273:
 4333 2f26 DDE9229A 		ldrd	r9, [sp, #136]
 4334 2f2a 4B46     		mov	r3, r9
 4335 2f2c 1B0F     		lsrs	r3, r3, #28
 4336 2f2e 5446     		mov	r4, r10
 4337 2f30 43EA0A15 		orr	r5, r3, r10, lsl #4
 4338 2f34 CDF8905A 		str	r5, [sp, #2704]
 4339 2f38 230F     		lsrs	r3, r4, #28
 4340 2f3a 4C46     		mov	r4, r9
 4341 2f3c 43EA0915 		orr	r5, r3, r9, lsl #4
 4342 2f40 CDF8945A 		str	r5, [sp, #2708]
 4343 2f44 5346     		mov	r3, r10
 4344 2f46 9B07     		lsls	r3, r3, #30
 4345 2f48 43EA9905 		orr	r5, r3, r9, lsr #2
 4346 2f4c CDF89C5A 		str	r5, [sp, #2716]
 4347 2f50 A307     		lsls	r3, r4, #30
 4348 2f52 43EA9A05 		orr	r5, r3, r10, lsr #2
 4349 2f56 CDF8985A 		str	r5, [sp, #2712]
 4350 2f5a 0DF52963 		add	r3, sp, #2704
 4351 2f5e D3E90034 		ldrd	r3, [r3]
 4352 2f62 0DF69822 		addw	r2, sp, #2712
 4353 2f66 D2E900BC 		ldrd	fp, [r2]
 4354 2f6a 83EA0B03 		eor	r3, r3, fp
 4355 2f6e 84EA0C04 		eor	r4, r4, ip
 4356 2f72 2546     		mov	r5, r4
 4357 2f74 1C46     		mov	r4, r3
 4358 2f76 5346     		mov	r3, r10
 4359 2f78 5B06     		lsls	r3, r3, #25
 4360 2f7a 4A46     		mov	r2, r9
 4361 2f7c 43EAD91E 		orr	lr, r3, r9, lsr #7
 4362 2f80 CDF8A4EA 		str	lr, [sp, #2724]
 4363 2f84 5306     		lsls	r3, r2, #25
ARM GAS  C:\Users\bogur\AppData\Local\Temp\ccFZ7DD2.s 			page 80


 4364 2f86 43EADA1E 		orr	lr, r3, r10, lsr #7
 4365 2f8a CDF8A0EA 		str	lr, [sp, #2720]
 4366 2f8e 0DF52A63 		add	r3, sp, #2720
 4367 2f92 D3E9009A 		ldrd	r9, [r3]
 4368 2f96 89EA0409 		eor	r9, r9, r4
 4369 2f9a 8AEA050A 		eor	r10, r10, r5
 4370 2f9e 4C46     		mov	r4, r9
 4371 2fa0 5546     		mov	r5, r10
 4372 2fa2 DDE9269A 		ldrd	r9, [sp, #152]
 4373 2fa6 DDE90023 		ldrd	r2, [sp]
 4374 2faa 82EA0902 		eor	r2, r2, r9
 4375 2fae 83EA0A03 		eor	r3, r3, r10
 4376 2fb2 DDE922BC 		ldrd	fp, [sp, #136]
 4377 2fb6 0BEA020B 		and	fp, fp, r2
 4378 2fba 0CEA030C 		and	ip, ip, r3
 4379 2fbe 5A46     		mov	r2, fp
 4380 2fc0 6346     		mov	r3, ip
 4381 2fc2 DDE900BC 		ldrd	fp, [sp]
 4382 2fc6 0BEA090B 		and	fp, fp, r9
 4383 2fca 0CEA0A0C 		and	ip, ip, r10
 4384 2fce D946     		mov	r9, fp
 4385 2fd0 89EA020A 		eor	r10, r9, r2
 4386 2fd4 8CEA030B 		eor	fp, ip, r3
 4387 2fd8 1AEB0402 		adds	r2, r10, r4
 4388 2fdc 4BEB0503 		adc	r3, fp, r5
 4389              	.LVL274:
 4390 2fe0 3418     		adds	r4, r6, r0
 4391 2fe2 47EB0105 		adc	r5, r7, r1
 4392              	.LVL275:
 4393 2fe6 8618     		adds	r6, r0, r2
 4394 2fe8 41EB0307 		adc	r7, r1, r3
 4395              	.LVL276:
 141:..\sha512.c   ****     F(w4 ,0x2de92c6f592b0275ULL)
 4396              		.loc 1 141 0
 4397 2fec A30B     		lsrs	r3, r4, #14
 4398 2fee 43EA854E 		orr	lr, r3, r5, lsl #18
 4399 2ff2 CDF8A8EA 		str	lr, [sp, #2728]
 4400 2ff6 AB0B     		lsrs	r3, r5, #14
 4401 2ff8 43EA844E 		orr	lr, r3, r4, lsl #18
 4402 2ffc CDF8ACEA 		str	lr, [sp, #2732]
 4403 3000 A30C     		lsrs	r3, r4, #18
 4404 3002 43EA853E 		orr	lr, r3, r5, lsl #14
 4405 3006 CDF8B0EA 		str	lr, [sp, #2736]
 4406 300a AB0C     		lsrs	r3, r5, #18
 4407 300c 43EA843E 		orr	lr, r3, r4, lsl #14
 4408 3010 CDF8B4EA 		str	lr, [sp, #2740]
 4409 3014 0DF6A823 		addw	r3, sp, #2728
 4410 3018 D3E900AB 		ldrd	r10, [r3]
 4411 301c 0DF52B63 		add	r3, sp, #2736
 4412 3020 D3E90089 		ldrd	r8, [r3]
 4413 3024 8AEA080A 		eor	r10, r10, r8
 4414 3028 8BEA090B 		eor	fp, fp, r9
 4415 302c 5246     		mov	r2, r10
 4416              	.LVL277:
 4417 302e 5B46     		mov	r3, fp
 4418 3030 E905     		lsls	r1, r5, #23
 4419 3032 41EA542E 		orr	lr, r1, r4, lsr #9
ARM GAS  C:\Users\bogur\AppData\Local\Temp\ccFZ7DD2.s 			page 81


 4420 3036 CDF8BCEA 		str	lr, [sp, #2748]
 4421 303a E105     		lsls	r1, r4, #23
 4422 303c 41EA552E 		orr	lr, r1, r5, lsr #9
 4423 3040 CDF8B8EA 		str	lr, [sp, #2744]
 4424 3044 0DF6B821 		addw	r1, sp, #2744
 4425 3048 D1E900AB 		ldrd	r10, [r1]
 4426 304c 8AEA020A 		eor	r10, r10, r2
 4427 3050 8BEA030B 		eor	fp, fp, r3
 4428 3054 DDE92801 		ldrd	r0, [sp, #160]
 4429              	.LVL278:
 4430 3058 10EB0A00 		adds	r0, r0, r10
 4431 305c 41EB0B01 		adc	r1, r1, fp
 4432 3060 0246     		mov	r2, r0
 4433 3062 0B46     		mov	r3, r1
 4434 3064 DDE92CAB 		ldrd	r10, [sp, #176]
 4435 3068 0AEA040A 		and	r10, r10, r4
 4436 306c 0BEA050B 		and	fp, fp, r5
 4437 3070 DDE92A89 		ldrd	r8, [sp, #168]
 4438 3074 28EA0408 		bic	r8, r8, r4
 4439 3078 29EA0509 		bic	r9, r9, r5
 4440 307c 8AEA080A 		eor	r10, r10, r8
 4441 3080 8BEA090B 		eor	fp, fp, r9
 4442 3084 12EB0A02 		adds	r2, r2, r10
 4443 3088 43EB0B03 		adc	r3, r3, fp
 4444 308c DDE902AB 		ldrd	r10, [sp, #8]
 4445 3090 1AEB020A 		adds	r10, r10, r2
 4446 3094 4BEB030B 		adc	fp, fp, r3
 4447 3098 0FF2F461 		adr	r1, .L14+32
 4448 309c D1E90001 		ldrd	r0, [r1]
 4449 30a0 10EB0A00 		adds	r0, r0, r10
 4450 30a4 41EB0B01 		adc	r1, r1, fp
 4451              	.LVL279:
 4452 30a8 330F     		lsrs	r3, r6, #28
 4453 30aa 43EA071E 		orr	lr, r3, r7, lsl #4
 4454 30ae CDF8C0EA 		str	lr, [sp, #2752]
 4455 30b2 3B0F     		lsrs	r3, r7, #28
 4456 30b4 43EA061E 		orr	lr, r3, r6, lsl #4
 4457 30b8 CDF8C4EA 		str	lr, [sp, #2756]
 4458 30bc BB07     		lsls	r3, r7, #30
 4459 30be 43EA960E 		orr	lr, r3, r6, lsr #2
 4460 30c2 CDF8CCEA 		str	lr, [sp, #2764]
 4461 30c6 B307     		lsls	r3, r6, #30
 4462 30c8 43EA970E 		orr	lr, r3, r7, lsr #2
 4463 30cc CDF8C8EA 		str	lr, [sp, #2760]
 4464 30d0 0DF52C63 		add	r3, sp, #2752
 4465 30d4 D3E900AB 		ldrd	r10, [r3]
 4466 30d8 0DF6C823 		addw	r3, sp, #2760
 4467 30dc D3E90089 		ldrd	r8, [r3]
 4468 30e0 8AEA080A 		eor	r10, r10, r8
 4469 30e4 8BEA090B 		eor	fp, fp, r9
 4470 30e8 7B06     		lsls	r3, r7, #25
 4471 30ea 43EAD61E 		orr	lr, r3, r6, lsr #7
 4472 30ee CDF8D4EA 		str	lr, [sp, #2772]
 4473 30f2 7306     		lsls	r3, r6, #25
 4474 30f4 43EAD71E 		orr	lr, r3, r7, lsr #7
 4475 30f8 CDF8D0EA 		str	lr, [sp, #2768]
 4476 30fc 0DF52D63 		add	r3, sp, #2768
ARM GAS  C:\Users\bogur\AppData\Local\Temp\ccFZ7DD2.s 			page 82


 4477 3100 D3E90089 		ldrd	r8, [r3]
 4478 3104 88EA0A08 		eor	r8, r8, r10
 4479 3108 89EA0B09 		eor	r9, r9, fp
 4480 310c CDE90489 		strd	r8, [sp, #16]
 4481 3110 DDE92689 		ldrd	r8, [sp, #152]
 4482 3114 DDE922BC 		ldrd	fp, [sp, #136]
 4483 3118 88EA0B08 		eor	r8, r8, fp
 4484 311c 89EA0C09 		eor	r9, r9, ip
 4485 3120 4246     		mov	r2, r8
 4486 3122 4B46     		mov	r3, r9
 4487 3124 3240     		ands	r2, r2, r6
 4488 3126 3B40     		ands	r3, r3, r7
 4489 3128 DDE92689 		ldrd	r8, [sp, #152]
 4490 312c 08EA0B08 		and	r8, r8, fp
 4491 3130 09EA0C09 		and	r9, r9, ip
 4492 3134 88EA0208 		eor	r8, r8, r2
 4493 3138 89EA0309 		eor	r9, r9, r3
 4494 313c 4B46     		mov	r3, r9
 4495 313e DDE9049A 		ldrd	r9, [sp, #16]
 4496 3142 19EB0809 		adds	r9, r9, r8
 4497 3146 4AEB030A 		adc	r10, r10, r3
 4498 314a 4A46     		mov	r2, r9
 4499 314c 5346     		mov	r3, r10
 4500              	.LVL280:
 4501 314e DDE90089 		ldrd	r8, [sp]
 4502 3152 18EB0008 		adds	r8, r8, r0
 4503 3156 49EB0109 		adc	r9, r9, r1
 4504              	.LVL281:
 4505 315a 10EB020A 		adds	r10, r0, r2
 4506 315e 41EB030B 		adc	fp, r1, r3
 4507 3162 CDE904AB 		strd	r10, [sp, #16]
 4508              	.LVL282:
 142:..\sha512.c   ****     F(w5 ,0x4a7484aa6ea6e483ULL)
 4509              		.loc 1 142 0
 4510 3166 4346     		mov	r3, r8
 4511 3168 9B0B     		lsrs	r3, r3, #14
 4512 316a 4A46     		mov	r2, r9
 4513              	.LVL283:
 4514 316c 43EA894E 		orr	lr, r3, r9, lsl #18
 4515 3170 CDF8D8EA 		str	lr, [sp, #2776]
 4516 3174 930B     		lsrs	r3, r2, #14
 4517 3176 4246     		mov	r2, r8
 4518 3178 43EA884E 		orr	lr, r3, r8, lsl #18
 4519 317c CDF8DCEA 		str	lr, [sp, #2780]
 4520 3180 930C     		lsrs	r3, r2, #18
 4521 3182 4A46     		mov	r2, r9
 4522 3184 43EA893E 		orr	lr, r3, r9, lsl #14
 4523 3188 CDF8E0EA 		str	lr, [sp, #2784]
 4524 318c 930C     		lsrs	r3, r2, #18
 4525 318e 43EA883E 		orr	lr, r3, r8, lsl #14
 4526 3192 CDF8E4EA 		str	lr, [sp, #2788]
 4527 3196 0DF6D823 		addw	r3, sp, #2776
 4528 319a D3E900AB 		ldrd	r10, [r3]
 4529              	.LVL284:
 4530 319e 0DF52E63 		add	r3, sp, #2784
 4531 31a2 D3E90012 		ldrd	r1, [r3]
 4532 31a6 8AEA010A 		eor	r10, r10, r1
ARM GAS  C:\Users\bogur\AppData\Local\Temp\ccFZ7DD2.s 			page 83


 4533 31aa 8BEA020B 		eor	fp, fp, r2
 4534 31ae 5246     		mov	r2, r10
 4535 31b0 5B46     		mov	r3, fp
 4536 31b2 4946     		mov	r1, r9
 4537 31b4 C905     		lsls	r1, r1, #23
 4538 31b6 41EA582E 		orr	lr, r1, r8, lsr #9
 4539 31ba CDF8ECEA 		str	lr, [sp, #2796]
 4540 31be 4146     		mov	r1, r8
 4541 31c0 C905     		lsls	r1, r1, #23
 4542 31c2 41EA592E 		orr	lr, r1, r9, lsr #9
 4543 31c6 CDF8E8EA 		str	lr, [sp, #2792]
 4544 31ca 0DF6E821 		addw	r1, sp, #2792
 4545 31ce D1E900AB 		ldrd	r10, [r1]
 4546 31d2 8AEA020A 		eor	r10, r10, r2
 4547 31d6 8BEA030B 		eor	fp, fp, r3
 4548 31da 5B46     		mov	r3, fp
 4549 31dc DDE92ABC 		ldrd	fp, [sp, #168]
 4550 31e0 1BEB0A0B 		adds	fp, fp, r10
 4551 31e4 4CEB030C 		adc	ip, ip, r3
 4552 31e8 5A46     		mov	r2, fp
 4553 31ea 4046     		mov	r0, r8
 4554              	.LVL285:
 4555 31ec 4946     		mov	r1, r9
 4556 31ee 08EA0408 		and	r8, r8, r4
 4557              	.LVL286:
 4558 31f2 09EA0509 		and	r9, r9, r5
 4559 31f6 DDE92CAB 		ldrd	r10, [sp, #176]
 4560 31fa CDE92A01 		strd	r0, [sp, #168]
 4561              	.LVL287:
 4562 31fe 2AEA0000 		bic	r0, r10, r0
 4563 3202 2BEA0101 		bic	r1, fp, r1
 4564 3206 88EA000A 		eor	r10, r8, r0
 4565 320a 89EA010B 		eor	fp, r9, r1
 4566 320e 12EB0A02 		adds	r2, r2, r10
 4567 3212 4CEB0B03 		adc	r3, ip, fp
 4568 3216 DDE90801 		ldrd	r0, [sp, #32]
 4569 321a 8018     		adds	r0, r0, r2
 4570 321c 5941     		adcs	r1, r1, r3
 4571 321e 0246     		mov	r2, r0
 4572 3220 0B46     		mov	r3, r1
 4573 3222 0FF27451 		adr	r1, .L14+40
 4574 3226 D1E90001 		ldrd	r0, [r1]
 4575 322a 8018     		adds	r0, r0, r2
 4576 322c 5941     		adcs	r1, r1, r3
 4577              	.LVL288:
 4578 322e DDE904BC 		ldrd	fp, [sp, #16]
 4579 3232 5B46     		mov	r3, fp
 4580 3234 1B0F     		lsrs	r3, r3, #28
 4581 3236 6246     		mov	r2, ip
 4582 3238 43EA0C1E 		orr	lr, r3, ip, lsl #4
 4583 323c CDF8F0EA 		str	lr, [sp, #2800]
 4584 3240 130F     		lsrs	r3, r2, #28
 4585 3242 5A46     		mov	r2, fp
 4586 3244 43EA0B1E 		orr	lr, r3, fp, lsl #4
 4587 3248 CDF8F4EA 		str	lr, [sp, #2804]
 4588 324c 6346     		mov	r3, ip
 4589 324e 9B07     		lsls	r3, r3, #30
ARM GAS  C:\Users\bogur\AppData\Local\Temp\ccFZ7DD2.s 			page 84


 4590 3250 43EA9B0E 		orr	lr, r3, fp, lsr #2
 4591 3254 CDF8FCEA 		str	lr, [sp, #2812]
 4592 3258 9307     		lsls	r3, r2, #30
 4593 325a 43EA9C0E 		orr	lr, r3, ip, lsr #2
 4594 325e CDF8F8EA 		str	lr, [sp, #2808]
 4595 3262 0DF52F63 		add	r3, sp, #2800
 4596 3266 D3E900AB 		ldrd	r10, [r3]
 4597 326a 0DF6F823 		addw	r3, sp, #2808
 4598 326e D3E90089 		ldrd	r8, [r3]
 4599 3272 8AEA080A 		eor	r10, r10, r8
 4600 3276 8BEA090B 		eor	fp, fp, r9
 4601 327a D046     		mov	r8, r10
 4602 327c D946     		mov	r9, fp
 4603 327e DDE904BC 		ldrd	fp, [sp, #16]
 4604 3282 6346     		mov	r3, ip
 4605 3284 5B06     		lsls	r3, r3, #25
 4606 3286 5A46     		mov	r2, fp
 4607 3288 43EADB1E 		orr	lr, r3, fp, lsr #7
 4608 328c CDF804EB 		str	lr, [sp, #2820]
 4609 3290 5306     		lsls	r3, r2, #25
 4610 3292 43EADC1E 		orr	lr, r3, ip, lsr #7
 4611 3296 CDF800EB 		str	lr, [sp, #2816]
 4612 329a 0DF53063 		add	r3, sp, #2816
 4613 329e D3E900AB 		ldrd	r10, [r3]
 4614 32a2 8AEA080A 		eor	r10, r10, r8
 4615 32a6 8BEA090B 		eor	fp, fp, r9
 4616 32aa CDE900AB 		strd	r10, [sp]
 4617 32ae DDE9229A 		ldrd	r9, [sp, #136]
 4618 32b2 89EA060B 		eor	fp, r9, r6
 4619 32b6 8AEA070C 		eor	ip, r10, r7
 4620 32ba 5A46     		mov	r2, fp
 4621 32bc 6346     		mov	r3, ip
 4622 32be DDE904BC 		ldrd	fp, [sp, #16]
 4623 32c2 0BEA020B 		and	fp, fp, r2
 4624 32c6 0CEA030C 		and	ip, ip, r3
 4625 32ca 5A46     		mov	r2, fp
 4626 32cc 6346     		mov	r3, ip
 4627 32ce 09EA060B 		and	fp, r9, r6
 4628 32d2 0AEA070C 		and	ip, r10, r7
 4629 32d6 DA46     		mov	r10, fp
 4630 32d8 8AEA020A 		eor	r10, r10, r2
 4631 32dc 8CEA030B 		eor	fp, ip, r3
 4632 32e0 5246     		mov	r2, r10
 4633 32e2 DDE9009A 		ldrd	r9, [sp]
 4634 32e6 19EB0209 		adds	r9, r9, r2
 4635 32ea 4AEB0B0A 		adc	r10, r10, fp
 4636 32ee 4A46     		mov	r2, r9
 4637 32f0 5346     		mov	r3, r10
 4638              	.LVL289:
 4639 32f2 DDE9269A 		ldrd	r9, [sp, #152]
 4640 32f6 19EB0009 		adds	r9, r9, r0
 4641 32fa 4AEB010A 		adc	r10, r10, r1
 4642 32fe CB46     		mov	fp, r9
 4643 3300 D446     		mov	ip, r10
 4644              	.LVL290:
 4645 3302 10EB0209 		adds	r9, r0, r2
 4646 3306 41EB030A 		adc	r10, r1, r3
ARM GAS  C:\Users\bogur\AppData\Local\Temp\ccFZ7DD2.s 			page 85


 4647 330a CDE9269A 		strd	r9, [sp, #152]
 4648              	.LVL291:
 143:..\sha512.c   ****     F(w6 ,0x5cb0a9dcbd41fbd4ULL)
 4649              		.loc 1 143 0
 4650 330e 5B46     		mov	r3, fp
 4651 3310 9B0B     		lsrs	r3, r3, #14
 4652 3312 6046     		mov	r0, ip
 4653              	.LVL292:
 4654 3314 43EA8C4E 		orr	lr, r3, ip, lsl #18
 4655 3318 CDF808EB 		str	lr, [sp, #2824]
 4656 331c 830B     		lsrs	r3, r0, #14
 4657 331e 5846     		mov	r0, fp
 4658 3320 43EA8B4E 		orr	lr, r3, fp, lsl #18
 4659 3324 CDF80CEB 		str	lr, [sp, #2828]
 4660 3328 830C     		lsrs	r3, r0, #18
 4661 332a 6046     		mov	r0, ip
 4662 332c 43EA8C3E 		orr	lr, r3, ip, lsl #14
 4663 3330 CDF810EB 		str	lr, [sp, #2832]
 4664 3334 830C     		lsrs	r3, r0, #18
 4665 3336 43EA8B3E 		orr	lr, r3, fp, lsl #14
 4666 333a CDF814EB 		str	lr, [sp, #2836]
 4667 333e 0DF60833 		addw	r3, sp, #2824
 4668 3342 D3E90089 		ldrd	r8, [r3]
 4669 3346 0DF53163 		add	r3, sp, #2832
 4670 334a D3E90012 		ldrd	r1, [r3]
 4671 334e 88EA0108 		eor	r8, r8, r1
 4672 3352 89EA0209 		eor	r9, r9, r2
 4673              	.LVL293:
 4674 3356 4046     		mov	r0, r8
 4675 3358 4946     		mov	r1, r9
 4676 335a 6346     		mov	r3, ip
 4677 335c DB05     		lsls	r3, r3, #23
 4678 335e 5A46     		mov	r2, fp
 4679              	.LVL294:
 4680 3360 43EA5B2E 		orr	lr, r3, fp, lsr #9
 4681 3364 CDF81CEB 		str	lr, [sp, #2844]
 4682 3368 D305     		lsls	r3, r2, #23
 4683 336a 43EA5C2E 		orr	lr, r3, ip, lsr #9
 4684 336e CDF818EB 		str	lr, [sp, #2840]
 4685 3372 0DF61833 		addw	r3, sp, #2840
 4686 3376 D3E90089 		ldrd	r8, [r3]
 4687 337a 88EA0008 		eor	r8, r8, r0
 4688 337e 89EA0109 		eor	r9, r9, r1
 4689 3382 4046     		mov	r0, r8
 4690 3384 4946     		mov	r1, r9
 4691 3386 DDE92C89 		ldrd	r8, [sp, #176]
 4692 338a 18EB0008 		adds	r8, r8, r0
 4693 338e 49EB0109 		adc	r9, r9, r1
 4694 3392 4946     		mov	r1, r9
 4695 3394 DDE92A23 		ldrd	r2, [sp, #168]
 4696 3398 02EA0B02 		and	r2, r2, fp
 4697 339c 03EA0C03 		and	r3, r3, ip
 4698 33a0 9146     		mov	r9, r2
 4699 33a2 9A46     		mov	r10, r3
 4700 33a4 CDE92CBC 		strd	fp, [sp, #176]
 4701              	.LVL295:
 4702 33a8 24EA0B0B 		bic	fp, r4, fp
ARM GAS  C:\Users\bogur\AppData\Local\Temp\ccFZ7DD2.s 			page 86


 4703              	.LVL296:
 4704 33ac 25EA0C0C 		bic	ip, r5, ip
 4705 33b0 89EA0B09 		eor	r9, r9, fp
 4706 33b4 8AEA0C0A 		eor	r10, r10, ip
 4707 33b8 18EB0900 		adds	r0, r8, r9
 4708 33bc 41EB0A01 		adc	r1, r1, r10
 4709 33c0 DDE90A23 		ldrd	r2, [sp, #40]
 4710 33c4 1218     		adds	r2, r2, r0
 4711 33c6 4B41     		adcs	r3, r3, r1
 4712 33c8 1046     		mov	r0, r2
 4713 33ca 1946     		mov	r1, r3
 4714 33cc F4A3     		adr	r3, .L14+48
 4715 33ce D3E90023 		ldrd	r2, [r3]
 4716 33d2 8018     		adds	r0, r0, r2
 4717 33d4 5941     		adcs	r1, r1, r3
 4718              	.LVL297:
 4719 33d6 DDE9269A 		ldrd	r9, [sp, #152]
 4720 33da 4B46     		mov	r3, r9
 4721 33dc 1B0F     		lsrs	r3, r3, #28
 4722 33de 5246     		mov	r2, r10
 4723 33e0 43EA0A1E 		orr	lr, r3, r10, lsl #4
 4724 33e4 CDF820EB 		str	lr, [sp, #2848]
 4725 33e8 130F     		lsrs	r3, r2, #28
 4726 33ea 4A46     		mov	r2, r9
 4727 33ec 43EA091E 		orr	lr, r3, r9, lsl #4
 4728 33f0 CDF824EB 		str	lr, [sp, #2852]
 4729 33f4 5346     		mov	r3, r10
 4730 33f6 9B07     		lsls	r3, r3, #30
 4731 33f8 43EA990E 		orr	lr, r3, r9, lsr #2
 4732 33fc CDF82CEB 		str	lr, [sp, #2860]
 4733 3400 9307     		lsls	r3, r2, #30
 4734 3402 43EA9A0E 		orr	lr, r3, r10, lsr #2
 4735 3406 CDF828EB 		str	lr, [sp, #2856]
 4736 340a 0DF53263 		add	r3, sp, #2848
 4737 340e D3E900BC 		ldrd	fp, [r3]
 4738 3412 0DF62833 		addw	r3, sp, #2856
 4739 3416 D3E90023 		ldrd	r2, [r3]
 4740 341a 8BEA020B 		eor	fp, fp, r2
 4741 341e 8CEA030C 		eor	ip, ip, r3
 4742 3422 CDE900BC 		strd	fp, [sp]
 4743 3426 5346     		mov	r3, r10
 4744 3428 5B06     		lsls	r3, r3, #25
 4745 342a 4A46     		mov	r2, r9
 4746 342c 43EAD91E 		orr	lr, r3, r9, lsr #7
 4747 3430 CDF834EB 		str	lr, [sp, #2868]
 4748 3434 5306     		lsls	r3, r2, #25
 4749 3436 43EADA1E 		orr	lr, r3, r10, lsr #7
 4750 343a CDF830EB 		str	lr, [sp, #2864]
 4751 343e 0DF53363 		add	r3, sp, #2864
 4752 3442 D3E900BC 		ldrd	fp, [r3]
 4753 3446 DDE90023 		ldrd	r2, [sp]
 4754 344a 8BEA020B 		eor	fp, fp, r2
 4755 344e 8CEA030C 		eor	ip, ip, r3
 4756 3452 DDE90423 		ldrd	r2, [sp, #16]
 4757 3456 7240     		eors	r2, r2, r6
 4758 3458 7B40     		eors	r3, r3, r7
 4759 345a 09EA0209 		and	r9, r9, r2
ARM GAS  C:\Users\bogur\AppData\Local\Temp\ccFZ7DD2.s 			page 87


 4760 345e 0AEA030A 		and	r10, r10, r3
 4761 3462 4A46     		mov	r2, r9
 4762 3464 5346     		mov	r3, r10
 4763 3466 DDE9049A 		ldrd	r9, [sp, #16]
 4764 346a 09EA0609 		and	r9, r9, r6
 4765 346e 0AEA070A 		and	r10, r10, r7
 4766 3472 C846     		mov	r8, r9
 4767 3474 88EA0208 		eor	r8, r8, r2
 4768 3478 8AEA0309 		eor	r9, r10, r3
 4769 347c 4246     		mov	r2, r8
 4770 347e 4B46     		mov	r3, r9
 4771 3480 1BEB0208 		adds	r8, fp, r2
 4772 3484 4CEB0309 		adc	r9, ip, r3
 4773              	.LVL298:
 4774 3488 DDE922AB 		ldrd	r10, [sp, #136]
 4775 348c 1AEB000A 		adds	r10, r10, r0
 4776 3490 4BEB010B 		adc	fp, fp, r1
 4777              	.LVL299:
 4778 3494 10EB0808 		adds	r8, r0, r8
 4779 3498 41EB0909 		adc	r9, r1, r9
 4780 349c CDE92289 		strd	r8, [sp, #136]
 4781              	.LVL300:
 144:..\sha512.c   ****     F(w7 ,0x76f988da831153b5ULL)
 4782              		.loc 1 144 0
 4783 34a0 5346     		mov	r3, r10
 4784 34a2 9B0B     		lsrs	r3, r3, #14
 4785 34a4 5846     		mov	r0, fp
 4786              	.LVL301:
 4787 34a6 43EA8B4E 		orr	lr, r3, fp, lsl #18
 4788 34aa CDF838EB 		str	lr, [sp, #2872]
 4789 34ae 830B     		lsrs	r3, r0, #14
 4790 34b0 5046     		mov	r0, r10
 4791 34b2 43EA8A4E 		orr	lr, r3, r10, lsl #18
 4792 34b6 CDF83CEB 		str	lr, [sp, #2876]
 4793 34ba 830C     		lsrs	r3, r0, #18
 4794 34bc 5846     		mov	r0, fp
 4795 34be 43EA8B3E 		orr	lr, r3, fp, lsl #14
 4796 34c2 CDF840EB 		str	lr, [sp, #2880]
 4797 34c6 830C     		lsrs	r3, r0, #18
 4798 34c8 43EA8A3E 		orr	lr, r3, r10, lsl #14
 4799 34cc CDF844EB 		str	lr, [sp, #2884]
 4800 34d0 0DF63833 		addw	r3, sp, #2872
 4801 34d4 D3E90012 		ldrd	r1, [r3]
 4802 34d8 0DF53463 		add	r3, sp, #2880
 4803 34dc D3E90089 		ldrd	r8, [r3]
 4804              	.LVL302:
 4805 34e0 81EA0801 		eor	r1, r1, r8
 4806 34e4 82EA0902 		eor	r2, r2, r9
 4807 34e8 0846     		mov	r0, r1
 4808 34ea 1146     		mov	r1, r2
 4809 34ec 5B46     		mov	r3, fp
 4810 34ee DB05     		lsls	r3, r3, #23
 4811 34f0 5246     		mov	r2, r10
 4812 34f2 43EA5A2E 		orr	lr, r3, r10, lsr #9
 4813 34f6 CDF84CEB 		str	lr, [sp, #2892]
 4814 34fa D305     		lsls	r3, r2, #23
 4815 34fc CDE928AB 		strd	r10, [sp, #160]
ARM GAS  C:\Users\bogur\AppData\Local\Temp\ccFZ7DD2.s 			page 88


 4816 3500 43EA5B2E 		orr	lr, r3, fp, lsr #9
 4817 3504 CDF848EB 		str	lr, [sp, #2888]
 4818 3508 0DF64833 		addw	r3, sp, #2888
 4819 350c D3E900AB 		ldrd	r10, [r3]
 4820              	.LVL303:
 4821 3510 8AEA000A 		eor	r10, r10, r0
 4822 3514 8BEA010B 		eor	fp, fp, r1
 4823 3518 1AEB0400 		adds	r0, r10, r4
 4824 351c 4BEB0501 		adc	r1, fp, r5
 4825 3520 DDE92C9A 		ldrd	r9, [sp, #176]
 4826 3524 DDE928BC 		ldrd	fp, [sp, #160]
 4827 3528 09EA0B09 		and	r9, r9, fp
 4828 352c 0AEA0C0A 		and	r10, r10, ip
 4829 3530 4A46     		mov	r2, r9
 4830 3532 5346     		mov	r3, r10
 4831 3534 DDE92A45 		ldrd	r4, [sp, #168]
 4832              	.LVL304:
 4833 3538 24EA0B04 		bic	r4, r4, fp
 4834 353c 25EA0C05 		bic	r5, r5, ip
 4835 3540 6240     		eors	r2, r2, r4
 4836 3542 6B40     		eors	r3, r3, r5
 4837 3544 8018     		adds	r0, r0, r2
 4838 3546 5941     		adcs	r1, r1, r3
 4839 3548 DDE90C34 		ldrd	r3, [sp, #48]
 4840 354c 1B18     		adds	r3, r3, r0
 4841 354e 4C41     		adcs	r4, r4, r1
 4842 3550 1846     		mov	r0, r3
 4843 3552 95A3     		adr	r3, .L14+56
 4844 3554 D3E90023 		ldrd	r2, [r3]
 4845 3558 8018     		adds	r0, r0, r2
 4846 355a 44EB0301 		adc	r1, r4, r3
 4847              	.LVL305:
 4848 355e DDE92289 		ldrd	r8, [sp, #136]
 4849 3562 4346     		mov	r3, r8
 4850 3564 1B0F     		lsrs	r3, r3, #28
 4851 3566 4C46     		mov	r4, r9
 4852 3568 43EA0915 		orr	r5, r3, r9, lsl #4
 4853 356c CDF8505B 		str	r5, [sp, #2896]
 4854 3570 230F     		lsrs	r3, r4, #28
 4855 3572 4446     		mov	r4, r8
 4856 3574 43EA0815 		orr	r5, r3, r8, lsl #4
 4857 3578 CDF8545B 		str	r5, [sp, #2900]
 4858 357c 4B46     		mov	r3, r9
 4859 357e 9B07     		lsls	r3, r3, #30
 4860 3580 43EA9805 		orr	r5, r3, r8, lsr #2
 4861 3584 CDF85C5B 		str	r5, [sp, #2908]
 4862 3588 A307     		lsls	r3, r4, #30
 4863 358a 43EA9905 		orr	r5, r3, r9, lsr #2
 4864 358e CDF8585B 		str	r5, [sp, #2904]
 4865 3592 0DF53563 		add	r3, sp, #2896
 4866 3596 D3E90034 		ldrd	r3, [r3]
 4867 359a 0DF65832 		addw	r2, sp, #2904
 4868 359e D2E900AB 		ldrd	r10, [r2]
 4869 35a2 83EA0A03 		eor	r3, r3, r10
 4870 35a6 84EA0B04 		eor	r4, r4, fp
 4871 35aa 2546     		mov	r5, r4
 4872 35ac 1C46     		mov	r4, r3
ARM GAS  C:\Users\bogur\AppData\Local\Temp\ccFZ7DD2.s 			page 89


 4873 35ae 4B46     		mov	r3, r9
 4874 35b0 5B06     		lsls	r3, r3, #25
 4875 35b2 4246     		mov	r2, r8
 4876 35b4 43EAD81E 		orr	lr, r3, r8, lsr #7
 4877 35b8 CDF864EB 		str	lr, [sp, #2916]
 4878 35bc 5306     		lsls	r3, r2, #25
 4879 35be 43EAD91E 		orr	lr, r3, r9, lsr #7
 4880 35c2 CDF860EB 		str	lr, [sp, #2912]
 4881 35c6 0DF53663 		add	r3, sp, #2912
 4882 35ca D3E9009A 		ldrd	r9, [r3]
 4883 35ce 89EA0409 		eor	r9, r9, r4
 4884 35d2 8AEA050A 		eor	r10, r10, r5
 4885 35d6 4C46     		mov	r4, r9
 4886 35d8 5546     		mov	r5, r10
 4887 35da DDE926BC 		ldrd	fp, [sp, #152]
 4888 35de DDE90423 		ldrd	r2, [sp, #16]
 4889 35e2 82EA0B02 		eor	r2, r2, fp
 4890 35e6 83EA0C03 		eor	r3, r3, ip
 4891 35ea DDE92289 		ldrd	r8, [sp, #136]
 4892 35ee 08EA0208 		and	r8, r8, r2
 4893 35f2 09EA0309 		and	r9, r9, r3
 4894 35f6 4B46     		mov	r3, r9
 4895 35f8 D946     		mov	r9, fp
 4896 35fa E246     		mov	r10, ip
 4897 35fc DDE904BC 		ldrd	fp, [sp, #16]
 4898 3600 0BEA090B 		and	fp, fp, r9
 4899 3604 0CEA0A0C 		and	ip, ip, r10
 4900 3608 8BEA0809 		eor	r9, fp, r8
 4901 360c 8CEA030A 		eor	r10, ip, r3
 4902 3610 19EB0402 		adds	r2, r9, r4
 4903 3614 4AEB0503 		adc	r3, r10, r5
 4904              	.LVL306:
 4905 3618 3418     		adds	r4, r6, r0
 4906 361a 47EB0105 		adc	r5, r7, r1
 4907 361e CDE90045 		strd	r4, [sp]
 4908              	.LVL307:
 4909 3622 8518     		adds	r5, r0, r2
 4910 3624 41EB0306 		adc	r6, r1, r3
 4911 3628 2C46     		mov	r4, r5
 4912              	.LVL308:
 4913 362a 3546     		mov	r5, r6
 4914              	.LVL309:
 145:..\sha512.c   ****     F(w8 ,0x983e5152ee66dfabULL)
 4915              		.loc 1 145 0
 4916 362c 009B     		ldr	r3, [sp]
 4917 362e 9B0B     		lsrs	r3, r3, #14
 4918 3630 019A     		ldr	r2, [sp, #4]
 4919              	.LVL310:
 4920 3632 43EA8247 		orr	r7, r3, r2, lsl #18
 4921 3636 CDF8687B 		str	r7, [sp, #2920]
 4922 363a 930B     		lsrs	r3, r2, #14
 4923 363c 009A     		ldr	r2, [sp]
 4924 363e 43EA8247 		orr	r7, r3, r2, lsl #18
 4925 3642 CDF86C7B 		str	r7, [sp, #2924]
 4926 3646 930C     		lsrs	r3, r2, #18
 4927 3648 019A     		ldr	r2, [sp, #4]
 4928 364a 43EA8237 		orr	r7, r3, r2, lsl #14
ARM GAS  C:\Users\bogur\AppData\Local\Temp\ccFZ7DD2.s 			page 90


 4929 364e CDF8707B 		str	r7, [sp, #2928]
 4930 3652 930C     		lsrs	r3, r2, #18
 4931 3654 009A     		ldr	r2, [sp]
 4932 3656 43EA8237 		orr	r7, r3, r2, lsl #14
 4933 365a CDF8747B 		str	r7, [sp, #2932]
 4934 365e 0DF66833 		addw	r3, sp, #2920
 4935 3662 D3E90078 		ldrd	r7, [r3]
 4936 3666 0DF53763 		add	r3, sp, #2928
 4937 366a D3E900AB 		ldrd	r10, [r3]
 4938 366e 87EA0A07 		eor	r7, r7, r10
 4939 3672 88EA0B08 		eor	r8, r8, fp
 4940 3676 3846     		mov	r0, r7
 4941              	.LVL311:
 4942 3678 4146     		mov	r1, r8
 4943 367a 019B     		ldr	r3, [sp, #4]
 4944 367c DB05     		lsls	r3, r3, #23
 4945 367e 43EA5227 		orr	r7, r3, r2, lsr #9
 4946 3682 CDF87C7B 		str	r7, [sp, #2940]
 4947 3686 D305     		lsls	r3, r2, #23
 4948 3688 019A     		ldr	r2, [sp, #4]
 4949 368a 43EA5227 		orr	r7, r3, r2, lsr #9
 4950 368e CDF8787B 		str	r7, [sp, #2936]
 4951 3692 0DF67833 		addw	r3, sp, #2936
 4952 3696 D3E90078 		ldrd	r7, [r3]
 4953 369a 4740     		eors	r7, r7, r0
 4954 369c 88EA0108 		eor	r8, r8, r1
 4955 36a0 4346     		mov	r3, r8
 4956 36a2 DDE92A89 		ldrd	r8, [sp, #168]
 4957 36a6 18EB0708 		adds	r8, r8, r7
 4958 36aa 49EB0309 		adc	r9, r9, r3
 4959 36ae DDE92867 		ldrd	r6, [sp, #160]
 4960 36b2 DDE90023 		ldrd	r2, [sp]
 4961 36b6 3240     		ands	r2, r2, r6
 4962 36b8 3B40     		ands	r3, r3, r7
 4963 36ba DDE92CBC 		ldrd	fp, [sp, #176]
 4964 36be DDE90001 		ldrd	r0, [sp]
 4965 36c2 2BEA0000 		bic	r0, fp, r0
 4966 36c6 2CEA0101 		bic	r1, ip, r1
 4967 36ca 4240     		eors	r2, r2, r0
 4968 36cc 4B40     		eors	r3, r3, r1
 4969 36ce 18EB0208 		adds	r8, r8, r2
 4970 36d2 49EB0309 		adc	r9, r9, r3
 4971 36d6 DDE90E12 		ldrd	r1, [sp, #56]
 4972 36da 11EB0801 		adds	r1, r1, r8
 4973 36de 42EB0902 		adc	r2, r2, r9
 4974 36e2 8846     		mov	r8, r1
 4975 36e4 32A1     		adr	r1, .L14+64
 4976 36e6 D1E90001 		ldrd	r0, [r1]
 4977 36ea 10EB0800 		adds	r0, r0, r8
 4978 36ee 5141     		adcs	r1, r1, r2
 4979              	.LVL312:
 4980 36f0 230F     		lsrs	r3, r4, #28
 4981 36f2 43EA0517 		orr	r7, r3, r5, lsl #4
 4982 36f6 CDF8807B 		str	r7, [sp, #2944]
 4983 36fa 2B0F     		lsrs	r3, r5, #28
 4984 36fc 43EA0417 		orr	r7, r3, r4, lsl #4
 4985 3700 CDF8847B 		str	r7, [sp, #2948]
ARM GAS  C:\Users\bogur\AppData\Local\Temp\ccFZ7DD2.s 			page 91


 4986 3704 AB07     		lsls	r3, r5, #30
 4987 3706 43EA9407 		orr	r7, r3, r4, lsr #2
 4988 370a CDF88C7B 		str	r7, [sp, #2956]
 4989 370e A307     		lsls	r3, r4, #30
 4990 3710 43EA9507 		orr	r7, r3, r5, lsr #2
 4991 3714 CDF8887B 		str	r7, [sp, #2952]
 4992 3718 0DF53863 		add	r3, sp, #2944
 4993 371c D3E90078 		ldrd	r7, [r3]
 4994 3720 0DF68833 		addw	r3, sp, #2952
 4995 3724 D3E900AB 		ldrd	r10, [r3]
 4996 3728 87EA0A07 		eor	r7, r7, r10
 4997 372c 88EA0B08 		eor	r8, r8, fp
 4998 3730 C146     		mov	r9, r8
 4999 3732 B846     		mov	r8, r7
 5000 3734 6B06     		lsls	r3, r5, #25
 5001 3736 43EAD417 		orr	r7, r3, r4, lsr #7
 5002 373a CDF8947B 		str	r7, [sp, #2964]
 5003 373e 6306     		lsls	r3, r4, #25
 5004 3740 43EAD517 		orr	r7, r3, r5, lsr #7
 5005 3744 CDF8907B 		str	r7, [sp, #2960]
 5006 3748 0DF53963 		add	r3, sp, #2960
 5007 374c D3E900AB 		ldrd	r10, [r3]
 5008 3750 8AEA080A 		eor	r10, r10, r8
 5009 3754 8BEA090B 		eor	fp, fp, r9
 5010 3758 CDE930AB 		strd	r10, [sp, #192]
 5011 375c DDE92667 		ldrd	r6, [sp, #152]
 5012 3760 DDE92289 		ldrd	r8, [sp, #136]
 5013 3764 86EA080A 		eor	r10, r6, r8
 5014 3768 26E0     		b	.L15
 5015              	.L16:
 5016 376a 00BFAFF3 		.align	3
 5016      0080
 5017              	.L14:
 5018 3770 D24AF19E 		.word	-1628353838
 5019 3774 C1699BE4 		.word	-459576895
 5020 3778 E3254F38 		.word	944711139
 5021 377c 8647BEEF 		.word	-272742522
 5022 3780 B5D58C8B 		.word	-1953704523
 5023 3784 C69DC10F 		.word	264347078
 5024 3788 659CAC77 		.word	2007800933
 5025 378c CCA10C24 		.word	604807628
 5026 3790 75022B59 		.word	1495990901
 5027 3794 6F2CE92D 		.word	770255983
 5028 3798 83E4A66E 		.word	1856431235
 5029 379c AA84744A 		.word	1249150122
 5030 37a0 D4FB41BD 		.word	-1119749164
 5031 37a4 DCA9B05C 		.word	1555081692
 5032 37a8 B5531183 		.word	-2096016459
 5033 37ac DA88F976 		.word	1996064986
 5034 37b0 ABDF66EE 		.word	-295247957
 5035 37b4 52513E98 		.word	-1740746414
 5036              	.L15:
 5037 37b8 87EA090B 		eor	fp, r7, r9
 5038 37bc 5246     		mov	r2, r10
 5039 37be 5B46     		mov	r3, fp
 5040 37c0 CDE92A45 		strd	r4, [sp, #168]
 5041              	.LVL313:
ARM GAS  C:\Users\bogur\AppData\Local\Temp\ccFZ7DD2.s 			page 92


 5042 37c4 1440     		ands	r4, r4, r2
 5043              	.LVL314:
 5044 37c6 1D40     		ands	r5, r5, r3
 5045 37c8 2246     		mov	r2, r4
 5046 37ca 2B46     		mov	r3, r5
 5047 37cc CDE92E67 		strd	r6, [sp, #184]
 5048 37d0 4446     		mov	r4, r8
 5049 37d2 4D46     		mov	r5, r9
 5050 37d4 06EA080A 		and	r10, r6, r8
 5051 37d8 07EA090B 		and	fp, r7, r9
 5052 37dc 8AEA020A 		eor	r10, r10, r2
 5053 37e0 8BEA030B 		eor	fp, fp, r3
 5054 37e4 DDE93067 		ldrd	r6, [sp, #192]
 5055 37e8 16EB0A06 		adds	r6, r6, r10
 5056 37ec 47EB0B07 		adc	r7, r7, fp
 5057              	.LVL315:
 5058 37f0 DDE90489 		ldrd	r8, [sp, #16]
 5059 37f4 18EB0008 		adds	r8, r8, r0
 5060 37f8 49EB0109 		adc	r9, r9, r1
 5061              	.LVL316:
 5062 37fc 8619     		adds	r6, r0, r6
 5063 37fe 41EB0707 		adc	r7, r1, r7
 5064              	.LVL317:
 146:..\sha512.c   ****     F(w9 ,0xa831c66d2db43210ULL)
 5065              		.loc 1 146 0
 5066 3802 4FEA9833 		lsr	r3, r8, #14
 5067 3806 43EA894E 		orr	lr, r3, r9, lsl #18
 5068 380a CDF898EB 		str	lr, [sp, #2968]
 5069 380e 4FEA9933 		lsr	r3, r9, #14
 5070 3812 43EA884E 		orr	lr, r3, r8, lsl #18
 5071 3816 CDF89CEB 		str	lr, [sp, #2972]
 5072 381a 4FEA9843 		lsr	r3, r8, #18
 5073 381e 43EA893E 		orr	lr, r3, r9, lsl #14
 5074 3822 CDF8A0EB 		str	lr, [sp, #2976]
 5075 3826 4FEA9943 		lsr	r3, r9, #18
 5076 382a 43EA883E 		orr	lr, r3, r8, lsl #14
 5077 382e CDF8A4EB 		str	lr, [sp, #2980]
 5078 3832 0DF69833 		addw	r3, sp, #2968
 5079 3836 D3E900AB 		ldrd	r10, [r3]
 5080 383a 0DF53A63 		add	r3, sp, #2976
 5081 383e D3E90012 		ldrd	r1, [r3]
 5082 3842 8AEA010A 		eor	r10, r10, r1
 5083 3846 8BEA020B 		eor	fp, fp, r2
 5084 384a 5046     		mov	r0, r10
 5085              	.LVL318:
 5086 384c 5946     		mov	r1, fp
 5087 384e 4FEAC953 		lsl	r3, r9, #23
 5088 3852 43EA582E 		orr	lr, r3, r8, lsr #9
 5089 3856 CDF8ACEB 		str	lr, [sp, #2988]
 5090 385a 4FEAC853 		lsl	r3, r8, #23
 5091 385e 43EA592E 		orr	lr, r3, r9, lsr #9
 5092 3862 CDF8A8EB 		str	lr, [sp, #2984]
 5093 3866 0DF6A833 		addw	r3, sp, #2984
 5094 386a D3E900AB 		ldrd	r10, [r3]
 5095 386e 8AEA000A 		eor	r10, r10, r0
 5096 3872 8BEA010B 		eor	fp, fp, r1
 5097 3876 DDE92C23 		ldrd	r2, [sp, #176]
ARM GAS  C:\Users\bogur\AppData\Local\Temp\ccFZ7DD2.s 			page 93


 5098 387a 12EB0A02 		adds	r2, r2, r10
 5099 387e 43EB0B03 		adc	r3, r3, fp
 5100 3882 1046     		mov	r0, r2
 5101 3884 1946     		mov	r1, r3
 5102 3886 DDE90023 		ldrd	r2, [sp]
 5103 388a 02EA0802 		and	r2, r2, r8
 5104 388e 03EA0903 		and	r3, r3, r9
 5105 3892 DDE928BC 		ldrd	fp, [sp, #160]
 5106 3896 2BEA080B 		bic	fp, fp, r8
 5107 389a 2CEA090C 		bic	ip, ip, r9
 5108 389e 8BEA020B 		eor	fp, fp, r2
 5109 38a2 8CEA030C 		eor	ip, ip, r3
 5110 38a6 10EB0B00 		adds	r0, r0, fp
 5111 38aa 41EB0C01 		adc	r1, r1, ip
 5112 38ae DDE91023 		ldrd	r2, [sp, #64]
 5113 38b2 1218     		adds	r2, r2, r0
 5114 38b4 4B41     		adcs	r3, r3, r1
 5115 38b6 1046     		mov	r0, r2
 5116 38b8 1946     		mov	r1, r3
 5117 38ba 0FF6D443 		adr	r3, .L17
 5118 38be D3E90023 		ldrd	r2, [r3]
 5119 38c2 8018     		adds	r0, r0, r2
 5120 38c4 5941     		adcs	r1, r1, r3
 5121              	.LVL319:
 5122 38c6 330F     		lsrs	r3, r6, #28
 5123 38c8 43EA071E 		orr	lr, r3, r7, lsl #4
 5124 38cc CDF8B0EB 		str	lr, [sp, #2992]
 5125 38d0 3B0F     		lsrs	r3, r7, #28
 5126 38d2 43EA061E 		orr	lr, r3, r6, lsl #4
 5127 38d6 CDF8B4EB 		str	lr, [sp, #2996]
 5128 38da BB07     		lsls	r3, r7, #30
 5129 38dc 43EA960E 		orr	lr, r3, r6, lsr #2
 5130 38e0 CDF8BCEB 		str	lr, [sp, #3004]
 5131 38e4 B307     		lsls	r3, r6, #30
 5132 38e6 43EA970E 		orr	lr, r3, r7, lsr #2
 5133 38ea CDF8B8EB 		str	lr, [sp, #3000]
 5134 38ee 0DF53B63 		add	r3, sp, #2992
 5135 38f2 D3E900AB 		ldrd	r10, [r3]
 5136 38f6 0DF6B833 		addw	r3, sp, #3000
 5137 38fa D3E90023 		ldrd	r2, [r3]
 5138 38fe 8AEA020A 		eor	r10, r10, r2
 5139 3902 8BEA030B 		eor	fp, fp, r3
 5140 3906 CDE904AB 		strd	r10, [sp, #16]
 5141 390a 7B06     		lsls	r3, r7, #25
 5142 390c 43EAD61E 		orr	lr, r3, r6, lsr #7
 5143 3910 CDF8C4EB 		str	lr, [sp, #3012]
 5144 3914 7306     		lsls	r3, r6, #25
 5145 3916 CDE92667 		strd	r6, [sp, #152]
 5146              	.LVL320:
 5147 391a 43EAD71E 		orr	lr, r3, r7, lsr #7
 5148 391e CDF8C0EB 		str	lr, [sp, #3008]
 5149 3922 0DF53C63 		add	r3, sp, #3008
 5150 3926 D3E900AB 		ldrd	r10, [r3]
 5151 392a DDE90423 		ldrd	r2, [sp, #16]
 5152 392e 8AEA020A 		eor	r10, r10, r2
 5153 3932 8BEA030B 		eor	fp, fp, r3
 5154 3936 CDE904AB 		strd	r10, [sp, #16]
ARM GAS  C:\Users\bogur\AppData\Local\Temp\ccFZ7DD2.s 			page 94


 5155 393a A246     		mov	r10, r4
 5156 393c AB46     		mov	fp, r5
 5157 393e DDE92A56 		ldrd	r5, [sp, #168]
 5158 3942 85EA0A03 		eor	r3, r5, r10
 5159 3946 86EA0B04 		eor	r4, r6, fp
 5160              	.LVL321:
 5161 394a 1A46     		mov	r2, r3
 5162 394c DDE926AB 		ldrd	r10, [sp, #152]
 5163 3950 0AEA020A 		and	r10, r10, r2
 5164 3954 0BEA040B 		and	fp, fp, r4
 5165 3958 5246     		mov	r2, r10
 5166 395a 5B46     		mov	r3, fp
 5167 395c DDE922BC 		ldrd	fp, [sp, #136]
 5168 3960 05EA0B05 		and	r5, r5, fp
 5169 3964 06EA0C06 		and	r6, r6, ip
 5170              	.LVL322:
 5171 3968 85EA020A 		eor	r10, r5, r2
 5172 396c 86EA030B 		eor	fp, r6, r3
 5173 3970 5246     		mov	r2, r10
 5174 3972 5B46     		mov	r3, fp
 5175 3974 DDE904AB 		ldrd	r10, [sp, #16]
 5176 3978 1AEB020A 		adds	r10, r10, r2
 5177 397c 4BEB030B 		adc	fp, fp, r3
 5178 3980 5B46     		mov	r3, fp
 5179              	.LVL323:
 5180 3982 DDE92E67 		ldrd	r6, [sp, #184]
 5181 3986 3618     		adds	r6, r6, r0
 5182 3988 4F41     		adcs	r7, r7, r1
 5183              	.LVL324:
 5184 398a 10EB0A0B 		adds	fp, r0, r10
 5185 398e 41EB030C 		adc	ip, r1, r3
 5186              	.LVL325:
 147:..\sha512.c   ****     F(w10,0xb00327c898fb213fULL)
 5187              		.loc 1 147 0
 5188 3992 B30B     		lsrs	r3, r6, #14
 5189 3994 43EA874E 		orr	lr, r3, r7, lsl #18
 5190 3998 CDF8C8EB 		str	lr, [sp, #3016]
 5191 399c BB0B     		lsrs	r3, r7, #14
 5192 399e 43EA864E 		orr	lr, r3, r6, lsl #18
 5193 39a2 CDF8CCEB 		str	lr, [sp, #3020]
 5194 39a6 B30C     		lsrs	r3, r6, #18
 5195 39a8 43EA873E 		orr	lr, r3, r7, lsl #14
 5196 39ac CDF8D0EB 		str	lr, [sp, #3024]
 5197 39b0 BB0C     		lsrs	r3, r7, #18
 5198 39b2 43EA863E 		orr	lr, r3, r6, lsl #14
 5199 39b6 CDF8D4EB 		str	lr, [sp, #3028]
 5200 39ba 0DF6C833 		addw	r3, sp, #3016
 5201 39be D3E90023 		ldrd	r2, [r3]
 5202 39c2 0DF53D61 		add	r1, sp, #3024
 5203 39c6 D1E90001 		ldrd	r0, [r1]
 5204              	.LVL326:
 5205 39ca 4240     		eors	r2, r2, r0
 5206 39cc 4B40     		eors	r3, r3, r1
 5207 39ce F905     		lsls	r1, r7, #23
 5208 39d0 41EA562E 		orr	lr, r1, r6, lsr #9
 5209 39d4 CDF8DCEB 		str	lr, [sp, #3036]
 5210 39d8 F105     		lsls	r1, r6, #23
ARM GAS  C:\Users\bogur\AppData\Local\Temp\ccFZ7DD2.s 			page 95


 5211 39da 41EA572E 		orr	lr, r1, r7, lsr #9
 5212 39de CDF8D8EB 		str	lr, [sp, #3032]
 5213 39e2 0DF6D831 		addw	r1, sp, #3032
 5214 39e6 D1E90001 		ldrd	r0, [r1]
 5215 39ea 5040     		eors	r0, r0, r2
 5216 39ec 5940     		eors	r1, r1, r3
 5217 39ee 0246     		mov	r2, r0
 5218 39f0 0B46     		mov	r3, r1
 5219 39f2 DDE92801 		ldrd	r0, [sp, #160]
 5220 39f6 8018     		adds	r0, r0, r2
 5221 39f8 5941     		adcs	r1, r1, r3
 5222 39fa 0246     		mov	r2, r0
 5223 39fc 0B46     		mov	r3, r1
 5224 39fe 3046     		mov	r0, r6
 5225 3a00 3946     		mov	r1, r7
 5226 3a02 06EA0806 		and	r6, r6, r8
 5227              	.LVL327:
 5228 3a06 07EA0907 		and	r7, r7, r9
 5229 3a0a 3446     		mov	r4, r6
 5230 3a0c 3D46     		mov	r5, r7
 5231 3a0e CDE92C01 		strd	r0, [sp, #176]
 5232 3a12 0646     		mov	r6, r0
 5233 3a14 0F46     		mov	r7, r1
 5234 3a16 DDE90001 		ldrd	r0, [sp]
 5235 3a1a 20EA0600 		bic	r0, r0, r6
 5236 3a1e 21EA0701 		bic	r1, r1, r7
 5237 3a22 2646     		mov	r6, r4
 5238 3a24 2F46     		mov	r7, r5
 5239 3a26 4640     		eors	r6, r6, r0
 5240 3a28 4F40     		eors	r7, r7, r1
 5241 3a2a 9219     		adds	r2, r2, r6
 5242 3a2c 7B41     		adcs	r3, r3, r7
 5243 3a2e DDE91201 		ldrd	r0, [sp, #72]
 5244 3a32 8018     		adds	r0, r0, r2
 5245 3a34 5941     		adcs	r1, r1, r3
 5246 3a36 0246     		mov	r2, r0
 5247 3a38 0B46     		mov	r3, r1
 5248 3a3a 0FF65C31 		adr	r1, .L17+8
 5249 3a3e D1E90001 		ldrd	r0, [r1]
 5250 3a42 8018     		adds	r0, r0, r2
 5251 3a44 5941     		adcs	r1, r1, r3
 5252              	.LVL328:
 5253 3a46 5B46     		mov	r3, fp
 5254 3a48 1B0F     		lsrs	r3, r3, #28
 5255 3a4a 6246     		mov	r2, ip
 5256 3a4c 43EA0C17 		orr	r7, r3, ip, lsl #4
 5257 3a50 CDF8E07B 		str	r7, [sp, #3040]
 5258 3a54 130F     		lsrs	r3, r2, #28
 5259 3a56 5A46     		mov	r2, fp
 5260 3a58 43EA0B17 		orr	r7, r3, fp, lsl #4
 5261 3a5c CDF8E47B 		str	r7, [sp, #3044]
 5262 3a60 6346     		mov	r3, ip
 5263 3a62 9B07     		lsls	r3, r3, #30
 5264 3a64 43EA9B07 		orr	r7, r3, fp, lsr #2
 5265 3a68 CDF8EC7B 		str	r7, [sp, #3052]
 5266 3a6c 9307     		lsls	r3, r2, #30
 5267 3a6e 43EA9C07 		orr	r7, r3, ip, lsr #2
ARM GAS  C:\Users\bogur\AppData\Local\Temp\ccFZ7DD2.s 			page 96


 5268 3a72 CDF8E87B 		str	r7, [sp, #3048]
 5269 3a76 0DF53E63 		add	r3, sp, #3040
 5270 3a7a D3E90067 		ldrd	r6, [r3]
 5271 3a7e 0DF6E833 		addw	r3, sp, #3048
 5272 3a82 D3E90023 		ldrd	r2, [r3]
 5273 3a86 5640     		eors	r6, r6, r2
 5274 3a88 5F40     		eors	r7, r7, r3
 5275 3a8a 3446     		mov	r4, r6
 5276 3a8c 3D46     		mov	r5, r7
 5277 3a8e 6346     		mov	r3, ip
 5278 3a90 5B06     		lsls	r3, r3, #25
 5279 3a92 5A46     		mov	r2, fp
 5280 3a94 43EADB17 		orr	r7, r3, fp, lsr #7
 5281 3a98 CDF8F47B 		str	r7, [sp, #3060]
 5282 3a9c 5306     		lsls	r3, r2, #25
 5283 3a9e 43EADC17 		orr	r7, r3, ip, lsr #7
 5284 3aa2 CDF8F07B 		str	r7, [sp, #3056]
 5285 3aa6 0DF53F63 		add	r3, sp, #3056
 5286 3aaa D3E90067 		ldrd	r6, [r3]
 5287 3aae 6640     		eors	r6, r6, r4
 5288 3ab0 6F40     		eors	r7, r7, r5
 5289 3ab2 CDE90467 		strd	r6, [sp, #16]
 5290 3ab6 DDE92A45 		ldrd	r4, [sp, #168]
 5291 3aba 2246     		mov	r2, r4
 5292 3abc 2B46     		mov	r3, r5
 5293 3abe DDE92667 		ldrd	r6, [sp, #152]
 5294 3ac2 7240     		eors	r2, r2, r6
 5295 3ac4 7B40     		eors	r3, r3, r7
 5296 3ac6 CDE928BC 		strd	fp, [sp, #160]
 5297              	.LVL329:
 5298 3aca 0BEA020B 		and	fp, fp, r2
 5299              	.LVL330:
 5300 3ace 0CEA030C 		and	ip, ip, r3
 5301 3ad2 5A46     		mov	r2, fp
 5302 3ad4 A246     		mov	r10, r4
 5303 3ad6 AB46     		mov	fp, r5
 5304 3ad8 0AEA060A 		and	r10, r10, r6
 5305 3adc 0BEA070B 		and	fp, fp, r7
 5306 3ae0 8AEA020A 		eor	r10, r10, r2
 5307 3ae4 8BEA0C0B 		eor	fp, fp, ip
 5308 3ae8 DDE90467 		ldrd	r6, [sp, #16]
 5309 3aec 16EB0A06 		adds	r6, r6, r10
 5310 3af0 47EB0B07 		adc	r7, r7, fp
 5311              	.LVL331:
 5312 3af4 DDE922AB 		ldrd	r10, [sp, #136]
 5313 3af8 1AEB000A 		adds	r10, r10, r0
 5314 3afc 4BEB010B 		adc	fp, fp, r1
 5315              	.LVL332:
 5316 3b00 8619     		adds	r6, r0, r6
 5317 3b02 41EB0707 		adc	r7, r1, r7
 5318 3b06 CDE90467 		strd	r6, [sp, #16]
 5319              	.LVL333:
 148:..\sha512.c   ****     F(w11,0xbf597fc7beef0ee4ULL)
 5320              		.loc 1 148 0
 5321 3b0a 5346     		mov	r3, r10
 5322 3b0c 9B0B     		lsrs	r3, r3, #14
 5323 3b0e 5846     		mov	r0, fp
ARM GAS  C:\Users\bogur\AppData\Local\Temp\ccFZ7DD2.s 			page 97


 5324              	.LVL334:
 5325 3b10 43EA8B47 		orr	r7, r3, fp, lsl #18
 5326 3b14 CDF8F87B 		str	r7, [sp, #3064]
 5327 3b18 830B     		lsrs	r3, r0, #14
 5328 3b1a 5046     		mov	r0, r10
 5329 3b1c 43EA8A47 		orr	r7, r3, r10, lsl #18
 5330 3b20 CDF8FC7B 		str	r7, [sp, #3068]
 5331 3b24 830C     		lsrs	r3, r0, #18
 5332 3b26 5846     		mov	r0, fp
 5333 3b28 43EA8B37 		orr	r7, r3, fp, lsl #14
 5334 3b2c CDF8007C 		str	r7, [sp, #3072]
 5335 3b30 830C     		lsrs	r3, r0, #18
 5336 3b32 43EA8A37 		orr	r7, r3, r10, lsl #14
 5337 3b36 CDF8047C 		str	r7, [sp, #3076]
 5338 3b3a 0DF6F833 		addw	r3, sp, #3064
 5339 3b3e D3E90023 		ldrd	r2, [r3]
 5340 3b42 0DF54061 		add	r1, sp, #3072
 5341 3b46 D1E90067 		ldrd	r6, [r1]
 5342              	.LVL335:
 5343 3b4a 7240     		eors	r2, r2, r6
 5344 3b4c 7B40     		eors	r3, r3, r7
 5345 3b4e 5846     		mov	r0, fp
 5346 3b50 C105     		lsls	r1, r0, #23
 5347 3b52 41EA5A27 		orr	r7, r1, r10, lsr #9
 5348 3b56 CDF80C7C 		str	r7, [sp, #3084]
 5349 3b5a 5046     		mov	r0, r10
 5350 3b5c C105     		lsls	r1, r0, #23
 5351 3b5e 41EA5B27 		orr	r7, r1, fp, lsr #9
 5352 3b62 CDF8087C 		str	r7, [sp, #3080]
 5353 3b66 0DF60841 		addw	r1, sp, #3080
 5354 3b6a D1E90067 		ldrd	r6, [r1]
 5355 3b6e 5640     		eors	r6, r6, r2
 5356 3b70 5F40     		eors	r7, r7, r3
 5357 3b72 DDE90001 		ldrd	r0, [sp]
 5358 3b76 8019     		adds	r0, r0, r6
 5359 3b78 7941     		adcs	r1, r1, r7
 5360 3b7a 0246     		mov	r2, r0
 5361 3b7c 0B46     		mov	r3, r1
 5362 3b7e DDE92C56 		ldrd	r5, [sp, #176]
 5363 3b82 05EA0A05 		and	r5, r5, r10
 5364 3b86 06EA0B06 		and	r6, r6, fp
 5365 3b8a 2C46     		mov	r4, r5
 5366 3b8c CDE900AB 		strd	r10, [sp]
 5367              	.LVL336:
 5368 3b90 28EA0A0A 		bic	r10, r8, r10
 5369              	.LVL337:
 5370 3b94 29EA0B0B 		bic	fp, r9, fp
 5371 3b98 5046     		mov	r0, r10
 5372 3b9a 5946     		mov	r1, fp
 5373 3b9c 6040     		eors	r0, r0, r4
 5374 3b9e 7140     		eors	r1, r1, r6
 5375 3ba0 1218     		adds	r2, r2, r0
 5376 3ba2 4B41     		adcs	r3, r3, r1
 5377 3ba4 DDE91401 		ldrd	r0, [sp, #80]
 5378 3ba8 8018     		adds	r0, r0, r2
 5379 3baa 5941     		adcs	r1, r1, r3
 5380 3bac 0246     		mov	r2, r0
ARM GAS  C:\Users\bogur\AppData\Local\Temp\ccFZ7DD2.s 			page 98


 5381 3bae 0B46     		mov	r3, r1
 5382 3bb0 0FF6EC11 		adr	r1, .L17+16
 5383 3bb4 D1E90001 		ldrd	r0, [r1]
 5384 3bb8 8018     		adds	r0, r0, r2
 5385 3bba 5941     		adcs	r1, r1, r3
 5386              	.LVL338:
 5387 3bbc DDE90467 		ldrd	r6, [sp, #16]
 5388 3bc0 330F     		lsrs	r3, r6, #28
 5389 3bc2 43EA071E 		orr	lr, r3, r7, lsl #4
 5390 3bc6 CDF810EC 		str	lr, [sp, #3088]
 5391 3bca 3B0F     		lsrs	r3, r7, #28
 5392 3bcc 43EA061E 		orr	lr, r3, r6, lsl #4
 5393 3bd0 CDF814EC 		str	lr, [sp, #3092]
 5394 3bd4 BB07     		lsls	r3, r7, #30
 5395 3bd6 43EA960E 		orr	lr, r3, r6, lsr #2
 5396 3bda CDF81CEC 		str	lr, [sp, #3100]
 5397 3bde B307     		lsls	r3, r6, #30
 5398 3be0 43EA970E 		orr	lr, r3, r7, lsr #2
 5399 3be4 CDF818EC 		str	lr, [sp, #3096]
 5400 3be8 0DF54163 		add	r3, sp, #3088
 5401 3bec D3E90034 		ldrd	r3, [r3]
 5402 3bf0 0DF61842 		addw	r2, sp, #3096
 5403 3bf4 D2E900BC 		ldrd	fp, [r2]
 5404 3bf8 83EA0B03 		eor	r3, r3, fp
 5405 3bfc 84EA0C04 		eor	r4, r4, ip
 5406 3c00 2546     		mov	r5, r4
 5407 3c02 1C46     		mov	r4, r3
 5408 3c04 7B06     		lsls	r3, r7, #25
 5409 3c06 43EAD61E 		orr	lr, r3, r6, lsr #7
 5410 3c0a CDF824EC 		str	lr, [sp, #3108]
 5411 3c0e 7306     		lsls	r3, r6, #25
 5412 3c10 43EAD71E 		orr	lr, r3, r7, lsr #7
 5413 3c14 CDF820EC 		str	lr, [sp, #3104]
 5414 3c18 0DF54263 		add	r3, sp, #3104
 5415 3c1c D3E90067 		ldrd	r6, [r3]
 5416 3c20 6640     		eors	r6, r6, r4
 5417 3c22 6F40     		eors	r7, r7, r5
 5418 3c24 3446     		mov	r4, r6
 5419 3c26 3D46     		mov	r5, r7
 5420 3c28 DDE92867 		ldrd	r6, [sp, #160]
 5421 3c2c DDE92623 		ldrd	r2, [sp, #152]
 5422 3c30 7240     		eors	r2, r2, r6
 5423 3c32 7B40     		eors	r3, r3, r7
 5424 3c34 DDE904BC 		ldrd	fp, [sp, #16]
 5425 3c38 0BEA020B 		and	fp, fp, r2
 5426 3c3c 0CEA030C 		and	ip, ip, r3
 5427 3c40 5A46     		mov	r2, fp
 5428 3c42 6346     		mov	r3, ip
 5429 3c44 B346     		mov	fp, r6
 5430 3c46 BC46     		mov	ip, r7
 5431 3c48 DDE92667 		ldrd	r6, [sp, #152]
 5432 3c4c 06EA0B06 		and	r6, r6, fp
 5433 3c50 07EA0C07 		and	r7, r7, ip
 5434 3c54 5640     		eors	r6, r6, r2
 5435 3c56 5F40     		eors	r7, r7, r3
 5436 3c58 3219     		adds	r2, r6, r4
 5437 3c5a 47EB0503 		adc	r3, r7, r5
ARM GAS  C:\Users\bogur\AppData\Local\Temp\ccFZ7DD2.s 			page 99


 5438              	.LVL339:
 5439 3c5e DDE92A45 		ldrd	r4, [sp, #168]
 5440 3c62 2418     		adds	r4, r4, r0
 5441 3c64 4D41     		adcs	r5, r5, r1
 5442              	.LVL340:
 5443 3c66 8618     		adds	r6, r0, r2
 5444 3c68 41EB0307 		adc	r7, r1, r3
 5445 3c6c B346     		mov	fp, r6
 5446 3c6e BC46     		mov	ip, r7
 5447              	.LVL341:
 149:..\sha512.c   ****     F(w12,0xc6e00bf33da88fc2ULL)
 5448              		.loc 1 149 0
 5449 3c70 A30B     		lsrs	r3, r4, #14
 5450 3c72 43EA854E 		orr	lr, r3, r5, lsl #18
 5451 3c76 CDF828EC 		str	lr, [sp, #3112]
 5452 3c7a AB0B     		lsrs	r3, r5, #14
 5453 3c7c 43EA844E 		orr	lr, r3, r4, lsl #18
 5454 3c80 CDF82CEC 		str	lr, [sp, #3116]
 5455 3c84 A30C     		lsrs	r3, r4, #18
 5456 3c86 43EA853E 		orr	lr, r3, r5, lsl #14
 5457 3c8a CDF830EC 		str	lr, [sp, #3120]
 5458 3c8e AB0C     		lsrs	r3, r5, #18
 5459 3c90 43EA843E 		orr	lr, r3, r4, lsl #14
 5460 3c94 CDF834EC 		str	lr, [sp, #3124]
 5461 3c98 0DF62843 		addw	r3, sp, #3112
 5462 3c9c D3E90023 		ldrd	r2, [r3]
 5463              	.LVL342:
 5464 3ca0 0DF54361 		add	r1, sp, #3120
 5465 3ca4 D1E90067 		ldrd	r6, [r1]
 5466 3ca8 7240     		eors	r2, r2, r6
 5467 3caa 7B40     		eors	r3, r3, r7
 5468 3cac E905     		lsls	r1, r5, #23
 5469 3cae 41EA542E 		orr	lr, r1, r4, lsr #9
 5470 3cb2 CDF83CEC 		str	lr, [sp, #3132]
 5471 3cb6 E105     		lsls	r1, r4, #23
 5472 3cb8 41EA552E 		orr	lr, r1, r5, lsr #9
 5473 3cbc CDF838EC 		str	lr, [sp, #3128]
 5474 3cc0 0DF63841 		addw	r1, sp, #3128
 5475 3cc4 D1E90067 		ldrd	r6, [r1]
 5476 3cc8 5640     		eors	r6, r6, r2
 5477 3cca 5F40     		eors	r7, r7, r3
 5478 3ccc 16EB0802 		adds	r2, r6, r8
 5479 3cd0 47EB0903 		adc	r3, r7, r9
 5480 3cd4 DDE90078 		ldrd	r7, [sp]
 5481 3cd8 2740     		ands	r7, r7, r4
 5482 3cda 08EA0508 		and	r8, r8, r5
 5483              	.LVL343:
 5484 3cde C146     		mov	r9, r8
 5485 3ce0 DDE92C01 		ldrd	r0, [sp, #176]
 5486              	.LVL344:
 5487 3ce4 20EA0400 		bic	r0, r0, r4
 5488 3ce8 21EA0501 		bic	r1, r1, r5
 5489 3cec 87EA0008 		eor	r8, r7, r0
 5490 3cf0 89EA0109 		eor	r9, r9, r1
 5491 3cf4 12EB0802 		adds	r2, r2, r8
 5492 3cf8 43EB0903 		adc	r3, r3, r9
 5493 3cfc DDE91689 		ldrd	r8, [sp, #88]
ARM GAS  C:\Users\bogur\AppData\Local\Temp\ccFZ7DD2.s 			page 100


 5494 3d00 18EB0208 		adds	r8, r8, r2
 5495 3d04 49EB0309 		adc	r9, r9, r3
 5496 3d08 0FF69C01 		adr	r1, .L17+24
 5497 3d0c D1E90001 		ldrd	r0, [r1]
 5498 3d10 10EB0800 		adds	r0, r0, r8
 5499 3d14 41EB0901 		adc	r1, r1, r9
 5500              	.LVL345:
 5501 3d18 5B46     		mov	r3, fp
 5502 3d1a 1B0F     		lsrs	r3, r3, #28
 5503 3d1c 6246     		mov	r2, ip
 5504 3d1e 43EA0C1E 		orr	lr, r3, ip, lsl #4
 5505 3d22 CDF840EC 		str	lr, [sp, #3136]
 5506 3d26 130F     		lsrs	r3, r2, #28
 5507 3d28 5A46     		mov	r2, fp
 5508 3d2a 43EA0B1E 		orr	lr, r3, fp, lsl #4
 5509 3d2e CDF844EC 		str	lr, [sp, #3140]
 5510 3d32 6346     		mov	r3, ip
 5511 3d34 9B07     		lsls	r3, r3, #30
 5512 3d36 43EA9B0E 		orr	lr, r3, fp, lsr #2
 5513 3d3a CDF84CEC 		str	lr, [sp, #3148]
 5514 3d3e 9307     		lsls	r3, r2, #30
 5515 3d40 6246     		mov	r2, ip
 5516 3d42 43EA9C0E 		orr	lr, r3, ip, lsr #2
 5517 3d46 CDF848EC 		str	lr, [sp, #3144]
 5518 3d4a 0DF54463 		add	r3, sp, #3136
 5519 3d4e D3E90078 		ldrd	r7, [r3]
 5520 3d52 0DF64843 		addw	r3, sp, #3144
 5521 3d56 D3E9009A 		ldrd	r9, [r3]
 5522 3d5a 87EA0907 		eor	r7, r7, r9
 5523 3d5e 88EA0A08 		eor	r8, r8, r10
 5524 3d62 C146     		mov	r9, r8
 5525 3d64 5306     		lsls	r3, r2, #25
 5526 3d66 5A46     		mov	r2, fp
 5527 3d68 43EADB1E 		orr	lr, r3, fp, lsr #7
 5528 3d6c CDF854EC 		str	lr, [sp, #3156]
 5529 3d70 5306     		lsls	r3, r2, #25
 5530 3d72 CDE922BC 		strd	fp, [sp, #136]
 5531 3d76 43EADC1E 		orr	lr, r3, ip, lsr #7
 5532 3d7a CDF850EC 		str	lr, [sp, #3152]
 5533 3d7e 0DF54563 		add	r3, sp, #3152
 5534 3d82 D3E900AB 		ldrd	r10, [r3]
 5535 3d86 8AEA070A 		eor	r10, r10, r7
 5536 3d8a 8BEA090B 		eor	fp, fp, r9
 5537              	.LVL346:
 5538 3d8e CDE92AAB 		strd	r10, [sp, #168]
 5539 3d92 DDE92867 		ldrd	r6, [sp, #160]
 5540 3d96 DDE9049A 		ldrd	r9, [sp, #16]
 5541 3d9a 86EA090B 		eor	fp, r6, r9
 5542 3d9e 87EA0A0C 		eor	ip, r7, r10
 5543 3da2 5A46     		mov	r2, fp
 5544 3da4 6346     		mov	r3, ip
 5545 3da6 DDE922BC 		ldrd	fp, [sp, #136]
 5546 3daa 0BEA020B 		and	fp, fp, r2
 5547 3dae 0CEA030C 		and	ip, ip, r3
 5548 3db2 5A46     		mov	r2, fp
 5549 3db4 6346     		mov	r3, ip
 5550 3db6 06EA090B 		and	fp, r6, r9
ARM GAS  C:\Users\bogur\AppData\Local\Temp\ccFZ7DD2.s 			page 101


 5551 3dba 07EA0A0C 		and	ip, r7, r10
 5552 3dbe DA46     		mov	r10, fp
 5553 3dc0 8AEA020A 		eor	r10, r10, r2
 5554 3dc4 8CEA030B 		eor	fp, ip, r3
 5555 3dc8 DDE92A78 		ldrd	r7, [sp, #168]
 5556 3dcc 17EB0A07 		adds	r7, r7, r10
 5557 3dd0 48EB0B08 		adc	r8, r8, fp
 5558 3dd4 4346     		mov	r3, r8
 5559              	.LVL347:
 5560 3dd6 DDE92689 		ldrd	r8, [sp, #152]
 5561 3dda 18EB0008 		adds	r8, r8, r0
 5562 3dde 49EB0109 		adc	r9, r9, r1
 5563              	.LVL348:
 5564 3de2 C619     		adds	r6, r0, r7
 5565 3de4 41EB0307 		adc	r7, r1, r3
 5566 3de8 B246     		mov	r10, r6
 5567 3dea BB46     		mov	fp, r7
 5568              	.LVL349:
 150:..\sha512.c   ****     F(w13,0xd5a79147930aa725ULL)
 5569              		.loc 1 150 0
 5570 3dec 4FEA9833 		lsr	r3, r8, #14
 5571 3df0 43EA894E 		orr	lr, r3, r9, lsl #18
 5572 3df4 CDF858EC 		str	lr, [sp, #3160]
 5573 3df8 4FEA9933 		lsr	r3, r9, #14
 5574 3dfc 43EA884E 		orr	lr, r3, r8, lsl #18
 5575 3e00 CDF85CEC 		str	lr, [sp, #3164]
 5576 3e04 4FEA9843 		lsr	r3, r8, #18
 5577 3e08 43EA893E 		orr	lr, r3, r9, lsl #14
 5578 3e0c CDF860EC 		str	lr, [sp, #3168]
 5579 3e10 4FEA9943 		lsr	r3, r9, #18
 5580 3e14 43EA883E 		orr	lr, r3, r8, lsl #14
 5581 3e18 CDF864EC 		str	lr, [sp, #3172]
 5582 3e1c 0DF65843 		addw	r3, sp, #3160
 5583 3e20 D3E90023 		ldrd	r2, [r3]
 5584 3e24 0DF54661 		add	r1, sp, #3168
 5585 3e28 D1E90067 		ldrd	r6, [r1]
 5586 3e2c 7240     		eors	r2, r2, r6
 5587 3e2e 7B40     		eors	r3, r3, r7
 5588 3e30 4FEAC951 		lsl	r1, r9, #23
 5589 3e34 41EA582E 		orr	lr, r1, r8, lsr #9
 5590 3e38 CDF86CEC 		str	lr, [sp, #3180]
 5591 3e3c 4FEAC851 		lsl	r1, r8, #23
 5592 3e40 41EA592E 		orr	lr, r1, r9, lsr #9
 5593 3e44 CDF868EC 		str	lr, [sp, #3176]
 5594 3e48 0DF66841 		addw	r1, sp, #3176
 5595 3e4c D1E90001 		ldrd	r0, [r1]
 5596              	.LVL350:
 5597 3e50 5040     		eors	r0, r0, r2
 5598 3e52 5940     		eors	r1, r1, r3
 5599 3e54 0246     		mov	r2, r0
 5600 3e56 0B46     		mov	r3, r1
 5601 3e58 DDE92C01 		ldrd	r0, [sp, #176]
 5602 3e5c 8018     		adds	r0, r0, r2
 5603 3e5e 5941     		adcs	r1, r1, r3
 5604 3e60 0246     		mov	r2, r0
 5605 3e62 0B46     		mov	r3, r1
 5606 3e64 04EA0800 		and	r0, r4, r8
ARM GAS  C:\Users\bogur\AppData\Local\Temp\ccFZ7DD2.s 			page 102


 5607 3e68 05EA0901 		and	r1, r5, r9
 5608 3e6c 0646     		mov	r6, r0
 5609 3e6e 0F46     		mov	r7, r1
 5610 3e70 DDE90001 		ldrd	r0, [sp]
 5611 3e74 20EA0800 		bic	r0, r0, r8
 5612 3e78 21EA0901 		bic	r1, r1, r9
 5613 3e7c 4640     		eors	r6, r6, r0
 5614 3e7e 4F40     		eors	r7, r7, r1
 5615 3e80 9219     		adds	r2, r2, r6
 5616 3e82 7B41     		adcs	r3, r3, r7
 5617 3e84 DDE91801 		ldrd	r0, [sp, #96]
 5618 3e88 8018     		adds	r0, r0, r2
 5619 3e8a 5941     		adcs	r1, r1, r3
 5620 3e8c 0246     		mov	r2, r0
 5621 3e8e 0B46     		mov	r3, r1
 5622 3e90 0FF21C71 		adr	r1, .L17+32
 5623 3e94 D1E90001 		ldrd	r0, [r1]
 5624 3e98 8018     		adds	r0, r0, r2
 5625 3e9a 5941     		adcs	r1, r1, r3
 5626              	.LVL351:
 5627 3e9c 5346     		mov	r3, r10
 5628 3e9e 1B0F     		lsrs	r3, r3, #28
 5629 3ea0 5A46     		mov	r2, fp
 5630 3ea2 43EA0B1E 		orr	lr, r3, fp, lsl #4
 5631 3ea6 CDF870EC 		str	lr, [sp, #3184]
 5632 3eaa 130F     		lsrs	r3, r2, #28
 5633 3eac 5246     		mov	r2, r10
 5634 3eae 43EA0A1E 		orr	lr, r3, r10, lsl #4
 5635 3eb2 CDF874EC 		str	lr, [sp, #3188]
 5636 3eb6 5B46     		mov	r3, fp
 5637 3eb8 9B07     		lsls	r3, r3, #30
 5638 3eba 43EA9A0E 		orr	lr, r3, r10, lsr #2
 5639 3ebe CDF87CEC 		str	lr, [sp, #3196]
 5640 3ec2 9307     		lsls	r3, r2, #30
 5641 3ec4 43EA9B0E 		orr	lr, r3, fp, lsr #2
 5642 3ec8 CDF878EC 		str	lr, [sp, #3192]
 5643 3ecc 0DF54763 		add	r3, sp, #3184
 5644 3ed0 D3E90067 		ldrd	r6, [r3]
 5645 3ed4 0DF67843 		addw	r3, sp, #3192
 5646 3ed8 D3E90023 		ldrd	r2, [r3]
 5647 3edc 5640     		eors	r6, r6, r2
 5648 3ede 5F40     		eors	r7, r7, r3
 5649 3ee0 5B46     		mov	r3, fp
 5650 3ee2 5B06     		lsls	r3, r3, #25
 5651 3ee4 5246     		mov	r2, r10
 5652 3ee6 43EADA1E 		orr	lr, r3, r10, lsr #7
 5653 3eea CDF884EC 		str	lr, [sp, #3204]
 5654 3eee 5306     		lsls	r3, r2, #25
 5655 3ef0 CDE92EAB 		strd	r10, [sp, #184]
 5656 3ef4 43EADB1E 		orr	lr, r3, fp, lsr #7
 5657 3ef8 CDF880EC 		str	lr, [sp, #3200]
 5658 3efc 0DF54863 		add	r3, sp, #3200
 5659 3f00 D3E90023 		ldrd	r2, [r3]
 5660 3f04 7240     		eors	r2, r2, r6
 5661 3f06 7B40     		eors	r3, r3, r7
 5662 3f08 CDE92623 		strd	r2, [sp, #152]
 5663 3f0c DDE904AB 		ldrd	r10, [sp, #16]
ARM GAS  C:\Users\bogur\AppData\Local\Temp\ccFZ7DD2.s 			page 103


 5664              	.LVL352:
 5665 3f10 5646     		mov	r6, r10
 5666 3f12 5F46     		mov	r7, fp
 5667 3f14 DDE92223 		ldrd	r2, [sp, #136]
 5668 3f18 7240     		eors	r2, r2, r6
 5669 3f1a 7B40     		eors	r3, r3, r7
 5670 3f1c DDE92E67 		ldrd	r6, [sp, #184]
 5671 3f20 1640     		ands	r6, r6, r2
 5672 3f22 1F40     		ands	r7, r7, r3
 5673 3f24 3246     		mov	r2, r6
 5674 3f26 3B46     		mov	r3, r7
 5675 3f28 5646     		mov	r6, r10
 5676 3f2a 5F46     		mov	r7, fp
 5677 3f2c DDE922AB 		ldrd	r10, [sp, #136]
 5678 3f30 0AEA060A 		and	r10, r10, r6
 5679 3f34 0BEA070B 		and	fp, fp, r7
 5680 3f38 5646     		mov	r6, r10
 5681 3f3a 5F46     		mov	r7, fp
 5682 3f3c 5640     		eors	r6, r6, r2
 5683 3f3e 5F40     		eors	r7, r7, r3
 5684 3f40 3246     		mov	r2, r6
 5685 3f42 3B46     		mov	r3, r7
 5686 3f44 DDE92667 		ldrd	r6, [sp, #152]
 5687 3f48 B618     		adds	r6, r6, r2
 5688 3f4a 5F41     		adcs	r7, r7, r3
 5689 3f4c 3246     		mov	r2, r6
 5690 3f4e 3B46     		mov	r3, r7
 5691              	.LVL353:
 5692 3f50 DDE92867 		ldrd	r6, [sp, #160]
 5693 3f54 3618     		adds	r6, r6, r0
 5694 3f56 4F41     		adcs	r7, r7, r1
 5695 3f58 B346     		mov	fp, r6
 5696 3f5a BC46     		mov	ip, r7
 5697              	.LVL354:
 5698 3f5c 8618     		adds	r6, r0, r2
 5699 3f5e 41EB0307 		adc	r7, r1, r3
 5700 3f62 CDE92667 		strd	r6, [sp, #152]
 5701              	.LVL355:
 151:..\sha512.c   ****     F(w14,0x06ca6351e003826fULL)
 5702              		.loc 1 151 0
 5703 3f66 5B46     		mov	r3, fp
 5704 3f68 9B0B     		lsrs	r3, r3, #14
 5705 3f6a 5E46     		mov	r6, fp
 5706              	.LVL356:
 5707 3f6c 6746     		mov	r7, ip
 5708 3f6e 43EA8C4E 		orr	lr, r3, ip, lsl #18
 5709 3f72 CDF888EC 		str	lr, [sp, #3208]
 5710 3f76 BB0B     		lsrs	r3, r7, #14
 5711 3f78 43EA8B4E 		orr	lr, r3, fp, lsl #18
 5712 3f7c CDF88CEC 		str	lr, [sp, #3212]
 5713 3f80 B30C     		lsrs	r3, r6, #18
 5714 3f82 43EA8C3E 		orr	lr, r3, ip, lsl #14
 5715 3f86 CDF890EC 		str	lr, [sp, #3216]
 5716 3f8a BB0C     		lsrs	r3, r7, #18
 5717 3f8c 43EA8B3E 		orr	lr, r3, fp, lsl #14
 5718 3f90 CDF894EC 		str	lr, [sp, #3220]
 5719 3f94 0DF68843 		addw	r3, sp, #3208
ARM GAS  C:\Users\bogur\AppData\Local\Temp\ccFZ7DD2.s 			page 104


 5720 3f98 D3E90023 		ldrd	r2, [r3]
 5721              	.LVL357:
 5722 3f9c 0DF54961 		add	r1, sp, #3216
 5723 3fa0 D1E90001 		ldrd	r0, [r1]
 5724              	.LVL358:
 5725 3fa4 4240     		eors	r2, r2, r0
 5726 3fa6 4B40     		eors	r3, r3, r1
 5727 3fa8 F905     		lsls	r1, r7, #23
 5728 3faa 41EA5B2E 		orr	lr, r1, fp, lsr #9
 5729 3fae CDF89CEC 		str	lr, [sp, #3228]
 5730 3fb2 F105     		lsls	r1, r6, #23
 5731 3fb4 41EA5C2E 		orr	lr, r1, ip, lsr #9
 5732 3fb8 CDF898EC 		str	lr, [sp, #3224]
 5733 3fbc 0DF69841 		addw	r1, sp, #3224
 5734 3fc0 D1E90001 		ldrd	r0, [r1]
 5735 3fc4 5040     		eors	r0, r0, r2
 5736 3fc6 5940     		eors	r1, r1, r3
 5737 3fc8 0246     		mov	r2, r0
 5738 3fca 0B46     		mov	r3, r1
 5739 3fcc DDE90001 		ldrd	r0, [sp]
 5740 3fd0 8018     		adds	r0, r0, r2
 5741 3fd2 5941     		adcs	r1, r1, r3
 5742 3fd4 0246     		mov	r2, r0
 5743 3fd6 0B46     		mov	r3, r1
 5744 3fd8 5846     		mov	r0, fp
 5745 3fda 6146     		mov	r1, ip
 5746 3fdc 0BEA0806 		and	r6, fp, r8
 5747 3fe0 0CEA0907 		and	r7, ip, r9
 5748 3fe4 B346     		mov	fp, r6
 5749              	.LVL359:
 5750 3fe6 BC46     		mov	ip, r7
 5751 3fe8 B4AE     		add	r6, sp, #720
 5752 3fea C6E90001 		strd	r0, [r6]
 5753 3fee 24EA0006 		bic	r6, r4, r0
 5754 3ff2 25EA0107 		bic	r7, r5, r1
 5755 3ff6 3046     		mov	r0, r6
 5756 3ff8 3946     		mov	r1, r7
 5757 3ffa 5E46     		mov	r6, fp
 5758 3ffc 6746     		mov	r7, ip
 5759 3ffe 4640     		eors	r6, r6, r0
 5760 4000 4F40     		eors	r7, r7, r1
 5761 4002 9219     		adds	r2, r2, r6
 5762 4004 7B41     		adcs	r3, r3, r7
 5763 4006 DDE91E01 		ldrd	r0, [sp, #120]
 5764 400a 8018     		adds	r0, r0, r2
 5765 400c 5941     		adcs	r1, r1, r3
 5766 400e 0246     		mov	r2, r0
 5767 4010 0B46     		mov	r3, r1
 5768 4012 0FF2A451 		adr	r1, .L17+40
 5769 4016 D1E90001 		ldrd	r0, [r1]
 5770 401a 8018     		adds	r0, r0, r2
 5771 401c 5941     		adcs	r1, r1, r3
 5772              	.LVL360:
 5773 401e DDE926BC 		ldrd	fp, [sp, #152]
 5774 4022 5B46     		mov	r3, fp
 5775 4024 1B0F     		lsrs	r3, r3, #28
 5776 4026 6246     		mov	r2, ip
ARM GAS  C:\Users\bogur\AppData\Local\Temp\ccFZ7DD2.s 			page 105


 5777 4028 43EA0C1E 		orr	lr, r3, ip, lsl #4
 5778 402c CDF8A0EC 		str	lr, [sp, #3232]
 5779 4030 130F     		lsrs	r3, r2, #28
 5780 4032 5A46     		mov	r2, fp
 5781 4034 43EA0B1E 		orr	lr, r3, fp, lsl #4
 5782 4038 CDF8A4EC 		str	lr, [sp, #3236]
 5783 403c 6346     		mov	r3, ip
 5784 403e 9B07     		lsls	r3, r3, #30
 5785 4040 43EA9B0E 		orr	lr, r3, fp, lsr #2
 5786 4044 CDF8ACEC 		str	lr, [sp, #3244]
 5787 4048 9307     		lsls	r3, r2, #30
 5788 404a 43EA9C07 		orr	r7, r3, ip, lsr #2
 5789 404e CDF8A87C 		str	r7, [sp, #3240]
 5790 4052 0DF54A63 		add	r3, sp, #3232
 5791 4056 D3E90023 		ldrd	r2, [r3]
 5792 405a 0DF6A846 		addw	r6, sp, #3240
 5793 405e D6E90067 		ldrd	r6, [r6]
 5794 4062 7240     		eors	r2, r2, r6
 5795 4064 7B40     		eors	r3, r3, r7
 5796 4066 CDE90023 		strd	r2, [sp]
 5797              	.LVL361:
 5798 406a 6346     		mov	r3, ip
 5799 406c 5B06     		lsls	r3, r3, #25
 5800 406e 5A46     		mov	r2, fp
 5801 4070 43EADB1E 		orr	lr, r3, fp, lsr #7
 5802 4074 CDF8B4EC 		str	lr, [sp, #3252]
 5803 4078 5306     		lsls	r3, r2, #25
 5804 407a 43EADC17 		orr	r7, r3, ip, lsr #7
 5805 407e CDF8B07C 		str	r7, [sp, #3248]
 5806 4082 0DF54B63 		add	r3, sp, #3248
 5807 4086 D3E90023 		ldrd	r2, [r3]
 5808 408a DDE90067 		ldrd	r6, [sp]
 5809 408e 7240     		eors	r2, r2, r6
 5810 4090 7B40     		eors	r3, r3, r7
 5811 4092 CDE90023 		strd	r2, [sp]
 5812 4096 DDE92223 		ldrd	r2, [sp, #136]
 5813 409a DDE92E67 		ldrd	r6, [sp, #184]
 5814 409e 7240     		eors	r2, r2, r6
 5815 40a0 7B40     		eors	r3, r3, r7
 5816 40a2 5E46     		mov	r6, fp
 5817 40a4 6746     		mov	r7, ip
 5818 40a6 1640     		ands	r6, r6, r2
 5819 40a8 1F40     		ands	r7, r7, r3
 5820 40aa 3246     		mov	r2, r6
 5821 40ac 3B46     		mov	r3, r7
 5822 40ae DDE92267 		ldrd	r6, [sp, #136]
 5823 40b2 DDE92EAB 		ldrd	r10, [sp, #184]
 5824 40b6 06EA0A06 		and	r6, r6, r10
 5825 40ba 07EA0B07 		and	r7, r7, fp
 5826 40be 5640     		eors	r6, r6, r2
 5827 40c0 5F40     		eors	r7, r7, r3
 5828 40c2 3246     		mov	r2, r6
 5829 40c4 3B46     		mov	r3, r7
 5830 40c6 DDE90067 		ldrd	r6, [sp]
 5831 40ca B618     		adds	r6, r6, r2
 5832 40cc 5F41     		adcs	r7, r7, r3
 5833 40ce 3246     		mov	r2, r6
ARM GAS  C:\Users\bogur\AppData\Local\Temp\ccFZ7DD2.s 			page 106


 5834 40d0 3B46     		mov	r3, r7
 5835              	.LVL362:
 5836 40d2 DDE90467 		ldrd	r6, [sp, #16]
 5837 40d6 3618     		adds	r6, r6, r0
 5838 40d8 4F41     		adcs	r7, r7, r1
 5839 40da B346     		mov	fp, r6
 5840 40dc BC46     		mov	ip, r7
 5841              	.LVL363:
 5842 40de 8618     		adds	r6, r0, r2
 5843 40e0 41EB0307 		adc	r7, r1, r3
 5844 40e4 CDE90067 		strd	r6, [sp]
 5845              	.LVL364:
 152:..\sha512.c   ****     F(w15,0x142929670a0e6e70ULL)
 5846              		.loc 1 152 0
 5847 40e8 5B46     		mov	r3, fp
 5848 40ea 9B0B     		lsrs	r3, r3, #14
 5849 40ec 6046     		mov	r0, ip
 5850              	.LVL365:
 5851 40ee 43EA8C4E 		orr	lr, r3, ip, lsl #18
 5852 40f2 CDF8B8EC 		str	lr, [sp, #3256]
 5853 40f6 830B     		lsrs	r3, r0, #14
 5854 40f8 5846     		mov	r0, fp
 5855 40fa 43EA8B4E 		orr	lr, r3, fp, lsl #18
 5856 40fe CDF8BCEC 		str	lr, [sp, #3260]
 5857 4102 830C     		lsrs	r3, r0, #18
 5858 4104 6046     		mov	r0, ip
 5859 4106 43EA8C3E 		orr	lr, r3, ip, lsl #14
 5860 410a CDF8C0EC 		str	lr, [sp, #3264]
 5861 410e 830C     		lsrs	r3, r0, #18
 5862 4110 43EA8B3E 		orr	lr, r3, fp, lsl #14
 5863 4114 CDF8C4EC 		str	lr, [sp, #3268]
 5864 4118 0DF6B843 		addw	r3, sp, #3256
 5865 411c D3E90023 		ldrd	r2, [r3]
 5866              	.LVL366:
 5867 4120 0DF54C61 		add	r1, sp, #3264
 5868 4124 D1E90001 		ldrd	r0, [r1]
 5869 4128 4240     		eors	r2, r2, r0
 5870 412a 4B40     		eors	r3, r3, r1
 5871 412c 6046     		mov	r0, ip
 5872 412e C105     		lsls	r1, r0, #23
 5873 4130 41EA5B2E 		orr	lr, r1, fp, lsr #9
 5874 4134 CDF8CCEC 		str	lr, [sp, #3276]
 5875 4138 5846     		mov	r0, fp
 5876 413a C105     		lsls	r1, r0, #23
 5877 413c 41EA5C27 		orr	r7, r1, ip, lsr #9
 5878 4140 CDF8C87C 		str	r7, [sp, #3272]
 5879 4144 0DF6C841 		addw	r1, sp, #3272
 5880 4148 D1E90067 		ldrd	r6, [r1]
 5881              	.LVL367:
 5882 414c 5640     		eors	r6, r6, r2
 5883 414e 5F40     		eors	r7, r7, r3
 5884 4150 3219     		adds	r2, r6, r4
 5885 4152 47EB0503 		adc	r3, r7, r5
 5886 4156 B4A9     		add	r1, sp, #720
 5887 4158 D1E90056 		ldrd	r5, [r1]
 5888 415c 5846     		mov	r0, fp
 5889 415e 6146     		mov	r1, ip
ARM GAS  C:\Users\bogur\AppData\Local\Temp\ccFZ7DD2.s 			page 107


 5890 4160 0540     		ands	r5, r5, r0
 5891 4162 0E40     		ands	r6, r6, r1
 5892 4164 2C46     		mov	r4, r5
 5893              	.LVL368:
 5894 4166 3546     		mov	r5, r6
 5895 4168 0DF59B61 		add	r1, sp, #1240
 5896 416c C1E900BC 		strd	fp, [r1]
 5897 4170 28EA0B06 		bic	r6, r8, fp
 5898 4174 29EA0C07 		bic	r7, r9, ip
 5899 4178 3046     		mov	r0, r6
 5900 417a 3946     		mov	r1, r7
 5901 417c 6040     		eors	r0, r0, r4
 5902 417e 6940     		eors	r1, r1, r5
 5903 4180 1218     		adds	r2, r2, r0
 5904 4182 4B41     		adcs	r3, r3, r1
 5905 4184 DDE92001 		ldrd	r0, [sp, #128]
 5906 4188 8018     		adds	r0, r0, r2
 5907 418a 5941     		adcs	r1, r1, r3
 5908 418c 0246     		mov	r2, r0
 5909 418e 0B46     		mov	r3, r1
 5910 4190 0FF22C41 		adr	r1, .L17+48
 5911 4194 D1E90001 		ldrd	r0, [r1]
 5912 4198 8018     		adds	r0, r0, r2
 5913 419a 5941     		adcs	r1, r1, r3
 5914              	.LVL369:
 5915 419c DDE900BC 		ldrd	fp, [sp]
 5916              	.LVL370:
 5917 41a0 5B46     		mov	r3, fp
 5918 41a2 1B0F     		lsrs	r3, r3, #28
 5919 41a4 6446     		mov	r4, ip
 5920 41a6 43EA0C17 		orr	r7, r3, ip, lsl #4
 5921 41aa CDF8D07C 		str	r7, [sp, #3280]
 5922 41ae 230F     		lsrs	r3, r4, #28
 5923 41b0 5C46     		mov	r4, fp
 5924 41b2 43EA0B17 		orr	r7, r3, fp, lsl #4
 5925 41b6 CDF8D47C 		str	r7, [sp, #3284]
 5926 41ba 6346     		mov	r3, ip
 5927 41bc 9B07     		lsls	r3, r3, #30
 5928 41be 43EA9B07 		orr	r7, r3, fp, lsr #2
 5929 41c2 CDF8DC7C 		str	r7, [sp, #3292]
 5930 41c6 A307     		lsls	r3, r4, #30
 5931 41c8 43EA9C07 		orr	r7, r3, ip, lsr #2
 5932 41cc CDF8D87C 		str	r7, [sp, #3288]
 5933 41d0 0DF54D63 		add	r3, sp, #3280
 5934 41d4 D3E90034 		ldrd	r3, [r3]
 5935 41d8 0DF6D842 		addw	r2, sp, #3288
 5936 41dc D2E90056 		ldrd	r5, [r2]
 5937 41e0 6B40     		eors	r3, r3, r5
 5938 41e2 7440     		eors	r4, r4, r6
 5939 41e4 2546     		mov	r5, r4
 5940 41e6 1C46     		mov	r4, r3
 5941 41e8 6346     		mov	r3, ip
 5942 41ea 5B06     		lsls	r3, r3, #25
 5943 41ec 5E46     		mov	r6, fp
 5944 41ee 43EADB1E 		orr	lr, r3, fp, lsr #7
 5945 41f2 CDF8E4EC 		str	lr, [sp, #3300]
 5946 41f6 7306     		lsls	r3, r6, #25
ARM GAS  C:\Users\bogur\AppData\Local\Temp\ccFZ7DD2.s 			page 108


 5947 41f8 43EADC17 		orr	r7, r3, ip, lsr #7
 5948 41fc CDF8E07C 		str	r7, [sp, #3296]
 5949 4200 0DF54E63 		add	r3, sp, #3296
 5950 4204 D3E90023 		ldrd	r2, [r3]
 5951 4208 6240     		eors	r2, r2, r4
 5952 420a 6B40     		eors	r3, r3, r5
 5953 420c 1446     		mov	r4, r2
 5954 420e 1D46     		mov	r5, r3
 5955 4210 DDE926AB 		ldrd	r10, [sp, #152]
 5956 4214 5646     		mov	r6, r10
 5957 4216 5F46     		mov	r7, fp
 5958 4218 DDE92E23 		ldrd	r2, [sp, #184]
 5959 421c 7240     		eors	r2, r2, r6
 5960 421e 7B40     		eors	r3, r3, r7
 5961 4220 DDE90067 		ldrd	r6, [sp]
 5962 4224 1640     		ands	r6, r6, r2
 5963 4226 1F40     		ands	r7, r7, r3
 5964 4228 3246     		mov	r2, r6
 5965 422a 3B46     		mov	r3, r7
 5966 422c 5646     		mov	r6, r10
 5967 422e 5F46     		mov	r7, fp
 5968 4230 DDE92EAB 		ldrd	r10, [sp, #184]
 5969 4234 0AEA060A 		and	r10, r10, r6
 5970 4238 0BEA070B 		and	fp, fp, r7
 5971 423c 5646     		mov	r6, r10
 5972 423e 5F46     		mov	r7, fp
 5973 4240 5640     		eors	r6, r6, r2
 5974 4242 5F40     		eors	r7, r7, r3
 5975 4244 A419     		adds	r4, r4, r6
 5976 4246 7D41     		adcs	r5, r5, r7
 5977              	.LVL371:
 5978 4248 DDE92223 		ldrd	r2, [sp, #136]
 5979 424c 1218     		adds	r2, r2, r0
 5980 424e 4B41     		adcs	r3, r3, r1
 5981 4250 CDE93023 		strd	r2, [sp, #192]
 5982              	.LVL372:
 5983 4254 0619     		adds	r6, r0, r4
 5984 4256 41EB0507 		adc	r7, r1, r5
 5985              	.LVL373:
 153:..\sha512.c   **** 
 154:..\sha512.c   ****     EXPAND
 5986              		.loc 1 154 0
 5987 425a DDE91EAB 		ldrd	r10, [sp, #120]
 5988 425e 5346     		mov	r3, r10
 5989 4260 DB0C     		lsrs	r3, r3, #19
 5990 4262 5846     		mov	r0, fp
 5991              	.LVL374:
 5992 4264 43EA4B3E 		orr	lr, r3, fp, lsl #13
 5993 4268 CDF8E8EC 		str	lr, [sp, #3304]
 5994 426c C30C     		lsrs	r3, r0, #19
 5995 426e 5046     		mov	r0, r10
 5996 4270 43EA4A3E 		orr	lr, r3, r10, lsl #13
 5997 4274 CDF8ECEC 		str	lr, [sp, #3308]
 5998 4278 5B46     		mov	r3, fp
 5999 427a DB00     		lsls	r3, r3, #3
 6000 427c 43EA5A7E 		orr	lr, r3, r10, lsr #29
 6001 4280 CDF8F4EC 		str	lr, [sp, #3316]
ARM GAS  C:\Users\bogur\AppData\Local\Temp\ccFZ7DD2.s 			page 109


 6002 4284 C300     		lsls	r3, r0, #3
 6003 4286 43EA5B7E 		orr	lr, r3, fp, lsr #29
 6004 428a CDF8F0EC 		str	lr, [sp, #3312]
 6005 428e 0DF6E843 		addw	r3, sp, #3304
 6006 4292 D3E90023 		ldrd	r2, [r3]
 6007              	.LVL375:
 6008 4296 0DF54F61 		add	r1, sp, #3312
 6009 429a D1E90001 		ldrd	r0, [r1]
 6010 429e 4240     		eors	r2, r2, r0
 6011 42a0 4B40     		eors	r3, r3, r1
 6012 42a2 1946     		mov	r1, r3
 6013 42a4 5346     		mov	r3, r10
 6014 42a6 9B09     		lsrs	r3, r3, #6
 6015 42a8 5C46     		mov	r4, fp
 6016              	.LVL376:
 6017 42aa 43EA8B6E 		orr	lr, r3, fp, lsl #26
 6018 42ae CDF8D0E1 		str	lr, [sp, #464]
 6019 42b2 A309     		lsrs	r3, r4, #6
 6020 42b4 7593     		str	r3, [sp, #468]
 6021 42b6 74AB     		add	r3, sp, #464
 6022 42b8 D3E90034 		ldrd	r3, [r3]
 6023 42bc 5340     		eors	r3, r3, r2
 6024 42be 4C40     		eors	r4, r4, r1
 6025 42c0 1846     		mov	r0, r3
 6026 42c2 2146     		mov	r1, r4
 6027 42c4 DDE91034 		ldrd	r3, [sp, #64]
 6028 42c8 1B18     		adds	r3, r3, r0
 6029 42ca 4C41     		adcs	r4, r4, r1
 6030 42cc 1846     		mov	r0, r3
 6031 42ce 2146     		mov	r1, r4
 6032 42d0 DDE906AB 		ldrd	r10, [sp, #24]
 6033 42d4 5346     		mov	r3, r10
 6034 42d6 5B08     		lsrs	r3, r3, #1
 6035 42d8 5C46     		mov	r4, fp
 6036 42da 43EACB7E 		orr	lr, r3, fp, lsl #31
 6037 42de CDF8F8EC 		str	lr, [sp, #3320]
 6038 42e2 6308     		lsrs	r3, r4, #1
 6039 42e4 5446     		mov	r4, r10
 6040 42e6 43EACA7E 		orr	lr, r3, r10, lsl #31
 6041 42ea CDF8FCEC 		str	lr, [sp, #3324]
 6042 42ee 230A     		lsrs	r3, r4, #8
 6043 42f0 5C46     		mov	r4, fp
 6044 42f2 43EA0B6E 		orr	lr, r3, fp, lsl #24
 6045 42f6 CDF800ED 		str	lr, [sp, #3328]
 6046 42fa 230A     		lsrs	r3, r4, #8
 6047 42fc 43EA0A6E 		orr	lr, r3, r10, lsl #24
 6048 4300 CDF804ED 		str	lr, [sp, #3332]
 6049 4304 0DF6F843 		addw	r3, sp, #3320
 6050 4308 D3E90034 		ldrd	r3, [r3]
 6051 430c 0DF55062 		add	r2, sp, #3328
 6052 4310 D2E900BC 		ldrd	fp, [r2]
 6053 4314 83EA0B03 		eor	r3, r3, fp
 6054 4318 84EA0C04 		eor	r4, r4, ip
 6055 431c 1A46     		mov	r2, r3
 6056 431e 2346     		mov	r3, r4
 6057 4320 DDE906AB 		ldrd	r10, [sp, #24]
 6058 4324 5446     		mov	r4, r10
ARM GAS  C:\Users\bogur\AppData\Local\Temp\ccFZ7DD2.s 			page 110


 6059 4326 E409     		lsrs	r4, r4, #7
 6060 4328 5D46     		mov	r5, fp
 6061 432a 44EA4B6E 		orr	lr, r4, fp, lsl #25
 6062 432e CDF8D8E1 		str	lr, [sp, #472]
 6063 4332 EC09     		lsrs	r4, r5, #7
 6064 4334 7794     		str	r4, [sp, #476]
 6065 4336 76AC     		add	r4, sp, #472
 6066 4338 D4E90045 		ldrd	r4, [r4]
 6067 433c 5440     		eors	r4, r4, r2
 6068 433e 5D40     		eors	r5, r5, r3
 6069 4340 2218     		adds	r2, r4, r0
 6070 4342 45EB0103 		adc	r3, r5, r1
 6071 4346 DDE92401 		ldrd	r0, [sp, #144]
 6072 434a 8018     		adds	r0, r0, r2
 6073 434c 5941     		adcs	r1, r1, r3
 6074 434e CDE92201 		strd	r0, [sp, #136]
 6075              	.LVL377:
 6076 4352 DDE92045 		ldrd	r4, [sp, #128]
 6077 4356 E30C     		lsrs	r3, r4, #19
 6078 4358 43EA453E 		orr	lr, r3, r5, lsl #13
 6079 435c CDF808ED 		str	lr, [sp, #3336]
 6080 4360 EB0C     		lsrs	r3, r5, #19
 6081 4362 43EA443E 		orr	lr, r3, r4, lsl #13
 6082 4366 CDF80CED 		str	lr, [sp, #3340]
 6083 436a EB00     		lsls	r3, r5, #3
 6084 436c 43EA547E 		orr	lr, r3, r4, lsr #29
 6085 4370 CDF814ED 		str	lr, [sp, #3348]
 6086 4374 E300     		lsls	r3, r4, #3
 6087 4376 43EA557E 		orr	lr, r3, r5, lsr #29
 6088 437a CDF810ED 		str	lr, [sp, #3344]
 6089 437e 0DF60853 		addw	r3, sp, #3336
 6090 4382 D3E90023 		ldrd	r2, [r3]
 6091 4386 0DF55161 		add	r1, sp, #3344
 6092 438a D1E900BC 		ldrd	fp, [r1]
 6093 438e 82EA0B02 		eor	r2, r2, fp
 6094 4392 83EA0C03 		eor	r3, r3, ip
 6095 4396 1946     		mov	r1, r3
 6096 4398 A309     		lsrs	r3, r4, #6
 6097 439a 43EA856E 		orr	lr, r3, r5, lsl #26
 6098 439e CDF8E0E1 		str	lr, [sp, #480]
 6099 43a2 AB09     		lsrs	r3, r5, #6
 6100 43a4 7993     		str	r3, [sp, #484]
 6101 43a6 78AB     		add	r3, sp, #480
 6102 43a8 D3E90034 		ldrd	r3, [r3]
 6103 43ac 5340     		eors	r3, r3, r2
 6104 43ae 4C40     		eors	r4, r4, r1
 6105 43b0 1846     		mov	r0, r3
 6106              	.LVL378:
 6107 43b2 2146     		mov	r1, r4
 6108 43b4 DDE91234 		ldrd	r3, [sp, #72]
 6109 43b8 1B18     		adds	r3, r3, r0
 6110 43ba 4C41     		adcs	r4, r4, r1
 6111 43bc 1846     		mov	r0, r3
 6112 43be 2146     		mov	r1, r4
 6113 43c0 DDE91AAB 		ldrd	r10, [sp, #104]
 6114 43c4 5346     		mov	r3, r10
 6115 43c6 5B08     		lsrs	r3, r3, #1
ARM GAS  C:\Users\bogur\AppData\Local\Temp\ccFZ7DD2.s 			page 111


 6116 43c8 5C46     		mov	r4, fp
 6117 43ca 43EACB7E 		orr	lr, r3, fp, lsl #31
 6118 43ce CDF818ED 		str	lr, [sp, #3352]
 6119 43d2 6308     		lsrs	r3, r4, #1
 6120 43d4 5446     		mov	r4, r10
 6121 43d6 43EACA7E 		orr	lr, r3, r10, lsl #31
 6122 43da CDF81CED 		str	lr, [sp, #3356]
 6123 43de 230A     		lsrs	r3, r4, #8
 6124 43e0 5C46     		mov	r4, fp
 6125 43e2 43EA0B6E 		orr	lr, r3, fp, lsl #24
 6126 43e6 CDF820ED 		str	lr, [sp, #3360]
 6127 43ea 230A     		lsrs	r3, r4, #8
 6128 43ec 43EA0A6E 		orr	lr, r3, r10, lsl #24
 6129 43f0 CDF824ED 		str	lr, [sp, #3364]
 6130 43f4 0DF61853 		addw	r3, sp, #3352
 6131 43f8 D3E90034 		ldrd	r3, [r3]
 6132 43fc 0DF55262 		add	r2, sp, #3360
 6133 4400 D2E900BC 		ldrd	fp, [r2]
 6134 4404 83EA0B03 		eor	r3, r3, fp
 6135 4408 84EA0C04 		eor	r4, r4, ip
 6136 440c 1A46     		mov	r2, r3
 6137 440e 2346     		mov	r3, r4
 6138 4410 DDE91AAB 		ldrd	r10, [sp, #104]
 6139 4414 5446     		mov	r4, r10
 6140 4416 E409     		lsrs	r4, r4, #7
 6141 4418 5D46     		mov	r5, fp
 6142 441a 44EA4B6E 		orr	lr, r4, fp, lsl #25
 6143 441e CDF8E8E1 		str	lr, [sp, #488]
 6144 4422 EC09     		lsrs	r4, r5, #7
 6145 4424 7B94     		str	r4, [sp, #492]
 6146 4426 7AAC     		add	r4, sp, #488
 6147 4428 D4E90045 		ldrd	r4, [r4]
 6148 442c 5440     		eors	r4, r4, r2
 6149 442e 5D40     		eors	r5, r5, r3
 6150 4430 2218     		adds	r2, r4, r0
 6151 4432 45EB0103 		adc	r3, r5, r1
 6152 4436 DDE90601 		ldrd	r0, [sp, #24]
 6153 443a 8018     		adds	r0, r0, r2
 6154 443c 5941     		adcs	r1, r1, r3
 6155 443e CDE92401 		strd	r0, [sp, #144]
 6156              	.LVL379:
 6157 4442 DDE92245 		ldrd	r4, [sp, #136]
 6158 4446 E30C     		lsrs	r3, r4, #19
 6159 4448 43EA453E 		orr	lr, r3, r5, lsl #13
 6160 444c CDF828ED 		str	lr, [sp, #3368]
 6161 4450 EB0C     		lsrs	r3, r5, #19
 6162 4452 43EA443E 		orr	lr, r3, r4, lsl #13
 6163 4456 CDF82CED 		str	lr, [sp, #3372]
 6164 445a EB00     		lsls	r3, r5, #3
 6165 445c 43EA547E 		orr	lr, r3, r4, lsr #29
 6166 4460 CDF834ED 		str	lr, [sp, #3380]
 6167 4464 E300     		lsls	r3, r4, #3
 6168 4466 43EA557E 		orr	lr, r3, r5, lsr #29
 6169 446a CDF830ED 		str	lr, [sp, #3376]
 6170 446e 0DF62853 		addw	r3, sp, #3368
 6171 4472 D3E90023 		ldrd	r2, [r3]
 6172 4476 0DF55361 		add	r1, sp, #3376
ARM GAS  C:\Users\bogur\AppData\Local\Temp\ccFZ7DD2.s 			page 112


 6173 447a D1E900BC 		ldrd	fp, [r1]
 6174 447e 82EA0B02 		eor	r2, r2, fp
 6175 4482 83EA0C03 		eor	r3, r3, ip
 6176 4486 1946     		mov	r1, r3
 6177 4488 A309     		lsrs	r3, r4, #6
 6178 448a 43EA856E 		orr	lr, r3, r5, lsl #26
 6179 448e CDF8F0E1 		str	lr, [sp, #496]
 6180 4492 AB09     		lsrs	r3, r5, #6
 6181 4494 7D93     		str	r3, [sp, #500]
 6182 4496 7CAB     		add	r3, sp, #496
 6183 4498 D3E90034 		ldrd	r3, [r3]
 6184 449c 5340     		eors	r3, r3, r2
 6185 449e 4C40     		eors	r4, r4, r1
 6186 44a0 1846     		mov	r0, r3
 6187              	.LVL380:
 6188 44a2 DDE91423 		ldrd	r2, [sp, #80]
 6189 44a6 1218     		adds	r2, r2, r0
 6190 44a8 6341     		adcs	r3, r3, r4
 6191 44aa 1046     		mov	r0, r2
 6192 44ac 1946     		mov	r1, r3
 6193 44ae DDE91CAB 		ldrd	r10, [sp, #112]
 6194 44b2 5346     		mov	r3, r10
 6195 44b4 5B08     		lsrs	r3, r3, #1
 6196 44b6 5C46     		mov	r4, fp
 6197 44b8 43EACB7E 		orr	lr, r3, fp, lsl #31
 6198 44bc CDF838ED 		str	lr, [sp, #3384]
 6199 44c0 6308     		lsrs	r3, r4, #1
 6200 44c2 5446     		mov	r4, r10
 6201 44c4 43EACA7E 		orr	lr, r3, r10, lsl #31
 6202 44c8 CDF83CED 		str	lr, [sp, #3388]
 6203 44cc 230A     		lsrs	r3, r4, #8
 6204 44ce 5C46     		mov	r4, fp
 6205 44d0 43EA0B6E 		orr	lr, r3, fp, lsl #24
 6206 44d4 CDF840ED 		str	lr, [sp, #3392]
 6207 44d8 230A     		lsrs	r3, r4, #8
 6208 44da 43EA0A6E 		orr	lr, r3, r10, lsl #24
