ARM GAS  C:\Users\bogurad\AppData\Local\Temp\ccPP5wuY.s 			page 1


   1              		.syntax unified
   2              		.cpu cortex-m4
   3              		.eabi_attribute 27, 1
   4              		.fpu fpv4-sp-d16
   5              		.eabi_attribute 20, 1
   6              		.eabi_attribute 21, 1
   7              		.eabi_attribute 23, 3
   8              		.eabi_attribute 24, 1
   9              		.eabi_attribute 25, 1
  10              		.eabi_attribute 26, 1
  11              		.eabi_attribute 30, 1
  12              		.eabi_attribute 34, 1
  13              		.eabi_attribute 18, 4
  14              		.thumb
  15              		.syntax unified
  16              		.file	"symmetric-shake.c"
  17              		.text
  18              	.Ltext0:
  19              		.cfi_sections	.debug_frame
  20              		.section	.text.pqcrystals_kyber1024_ref_kyber_shake128_absorb,"ax",%progbits
  21              		.align	2
  22              		.global	pqcrystals_kyber1024_ref_kyber_shake128_absorb
  23              		.thumb
  24              		.thumb_func
  25              		.type	pqcrystals_kyber1024_ref_kyber_shake128_absorb, %function
  26              	pqcrystals_kyber1024_ref_kyber_shake128_absorb:
  27              	.LFB0:
  28              		.file 1 "..\\symmetric-shake.c"
   1:..\symmetric-shake.c **** #include <stddef.h>
   2:..\symmetric-shake.c **** #include <stdint.h>
   3:..\symmetric-shake.c **** #include "params.h"
   4:..\symmetric-shake.c **** #include "fips202.h"
   5:..\symmetric-shake.c **** #include "symmetric.h"
   6:..\symmetric-shake.c **** 
   7:..\symmetric-shake.c **** /*************************************************
   8:..\symmetric-shake.c **** * Name:        kyber_shake128_absorb
   9:..\symmetric-shake.c **** *
  10:..\symmetric-shake.c **** * Description: Absorb step of the SHAKE128 specialized for the Kyber context.
  11:..\symmetric-shake.c **** *
  12:..\symmetric-shake.c **** * Arguments:   - keccak_state *state: pointer to (uninitialized) output
  13:..\symmetric-shake.c **** *                                     Keccak state
  14:..\symmetric-shake.c **** *              - const uint8_t *seed: pointer to KYBER_SYMBYTES input
  15:..\symmetric-shake.c **** *                                     to be absorbed into state
  16:..\symmetric-shake.c **** *              - uint8_t i            additional byte of input
  17:..\symmetric-shake.c **** *              - uint8_t j            additional byte of input
  18:..\symmetric-shake.c **** **************************************************/
  19:..\symmetric-shake.c **** void kyber_shake128_absorb(keccak_state *state,
  20:..\symmetric-shake.c ****                            const uint8_t seed[KYBER_SYMBYTES],
  21:..\symmetric-shake.c ****                            uint8_t x,
  22:..\symmetric-shake.c ****                            uint8_t y)
  23:..\symmetric-shake.c **** {
  29              		.loc 1 23 0
  30              		.cfi_startproc
  31              		@ args = 0, pretend = 0, frame = 40
  32              		@ frame_needed = 0, uses_anonymous_args = 0
  33              	.LVL0:
  34 0000 70B5     		push	{r4, r5, r6, lr}
ARM GAS  C:\Users\bogurad\AppData\Local\Temp\ccPP5wuY.s 			page 2


  35              		.cfi_def_cfa_offset 16
  36              		.cfi_offset 4, -16
  37              		.cfi_offset 5, -12
  38              		.cfi_offset 6, -8
  39              		.cfi_offset 14, -4
  40 0002 8AB0     		sub	sp, sp, #40
  41              		.cfi_def_cfa_offset 56
  42              	.LVL1:
  24:..\symmetric-shake.c ****   unsigned int i;
  25:..\symmetric-shake.c ****   uint8_t extseed[KYBER_SYMBYTES+2];
  26:..\symmetric-shake.c **** 
  27:..\symmetric-shake.c ****   for(i=0;i<KYBER_SYMBYTES;i++)
  43              		.loc 1 27 0
  44 0004 0024     		movs	r4, #0
  45 0006 05E0     		b	.L2
  46              	.LVL2:
  47              	.L3:
  28:..\symmetric-shake.c ****     extseed[i] = seed[i];
  48              		.loc 1 28 0 discriminator 3
  49 0008 0E5D     		ldrb	r6, [r1, r4]	@ zero_extendqisi2
  50 000a 0AAD     		add	r5, sp, #40
  51 000c 2544     		add	r5, r5, r4
  52 000e 05F8246C 		strb	r6, [r5, #-36]
  27:..\symmetric-shake.c ****     extseed[i] = seed[i];
  53              		.loc 1 27 0 discriminator 3
  54 0012 0134     		adds	r4, r4, #1
  55              	.LVL3:
  56              	.L2:
  27:..\symmetric-shake.c ****     extseed[i] = seed[i];
  57              		.loc 1 27 0 is_stmt 0 discriminator 1
  58 0014 1F2C     		cmp	r4, #31
  59 0016 F7D9     		bls	.L3
  29:..\symmetric-shake.c ****   extseed[i++] = x;
  60              		.loc 1 29 0 is_stmt 1
  61 0018 611C     		adds	r1, r4, #1
  62              	.LVL4:
  63 001a 0AAD     		add	r5, sp, #40
  64 001c 2C44     		add	r4, r4, r5
  65 001e 04F8242C 		strb	r2, [r4, #-36]
  30:..\symmetric-shake.c ****   extseed[i]   = y;
  66              		.loc 1 30 0
  67 0022 2A46     		mov	r2, r5
  68              	.LVL5:
  69 0024 0A44     		add	r2, r2, r1
  70 0026 02F8243C 		strb	r3, [r2, #-36]
  71              	.LVL6:
  31:..\symmetric-shake.c **** 
  32:..\symmetric-shake.c ****   shake128_absorb(state, extseed, sizeof(extseed));
  72              		.loc 1 32 0
  73 002a 2222     		movs	r2, #34
  74 002c 01A9     		add	r1, sp, #4
  75              	.LVL7:
  76 002e FFF7FEFF 		bl	pqcrystals_fips202_ref_shake128_absorb
  77              	.LVL8:
  33:..\symmetric-shake.c **** }
  78              		.loc 1 33 0
  79 0032 0AB0     		add	sp, sp, #40
ARM GAS  C:\Users\bogurad\AppData\Local\Temp\ccPP5wuY.s 			page 3


  80              		.cfi_def_cfa_offset 16
  81              		@ sp needed
  82 0034 70BD     		pop	{r4, r5, r6, pc}
  83              		.cfi_endproc
  84              	.LFE0:
  85              		.size	pqcrystals_kyber1024_ref_kyber_shake128_absorb, .-pqcrystals_kyber1024_ref_kyber_shake128_ab
  86 0036 00BF     		.section	.text.pqcrystals_kyber1024_ref_kyber_shake256_prf,"ax",%progbits
  87              		.align	2
  88              		.global	pqcrystals_kyber1024_ref_kyber_shake256_prf
  89              		.thumb
  90              		.thumb_func
  91              		.type	pqcrystals_kyber1024_ref_kyber_shake256_prf, %function
  92              	pqcrystals_kyber1024_ref_kyber_shake256_prf:
  93              	.LFB1:
  34:..\symmetric-shake.c **** 
  35:..\symmetric-shake.c **** /*************************************************
  36:..\symmetric-shake.c **** * Name:        kyber_shake256_prf
  37:..\symmetric-shake.c **** *
  38:..\symmetric-shake.c **** * Description: Usage of SHAKE256 as a PRF, concatenates secret and public input
  39:..\symmetric-shake.c **** *              and then generates outlen bytes of SHAKE256 output
  40:..\symmetric-shake.c **** *
  41:..\symmetric-shake.c **** * Arguments:   - uint8_t *out:       pointer to output
  42:..\symmetric-shake.c **** *              - size_t outlen:      number of requested output bytes
  43:..\symmetric-shake.c **** *              - const uint8_t *key: pointer to the key
  44:..\symmetric-shake.c **** *                                    (of length KYBER_SYMBYTES)
  45:..\symmetric-shake.c **** *              - uint8_t nonce:      single-byte nonce (public PRF input)
  46:..\symmetric-shake.c **** **************************************************/
  47:..\symmetric-shake.c **** void kyber_shake256_prf(uint8_t *out,
  48:..\symmetric-shake.c ****                         size_t outlen,
  49:..\symmetric-shake.c ****                         const uint8_t key[KYBER_SYMBYTES],
  50:..\symmetric-shake.c ****                         uint8_t nonce)
  51:..\symmetric-shake.c **** {
  94              		.loc 1 51 0
  95              		.cfi_startproc
  96              		@ args = 0, pretend = 0, frame = 40
  97              		@ frame_needed = 0, uses_anonymous_args = 0
  98              	.LVL9:
  99 0000 70B5     		push	{r4, r5, r6, lr}
 100              		.cfi_def_cfa_offset 16
 101              		.cfi_offset 4, -16
 102              		.cfi_offset 5, -12
 103              		.cfi_offset 6, -8
 104              		.cfi_offset 14, -4
 105 0002 8AB0     		sub	sp, sp, #40
 106              		.cfi_def_cfa_offset 56
 107              	.LVL10:
  52:..\symmetric-shake.c ****   unsigned int i;
  53:..\symmetric-shake.c ****   uint8_t extkey[KYBER_SYMBYTES+1];
  54:..\symmetric-shake.c **** 
  55:..\symmetric-shake.c ****   for(i=0;i<KYBER_SYMBYTES;i++)
 108              		.loc 1 55 0
 109 0004 0024     		movs	r4, #0
 110 0006 05E0     		b	.L6
 111              	.LVL11:
 112              	.L7:
  56:..\symmetric-shake.c ****     extkey[i] = key[i];
 113              		.loc 1 56 0 discriminator 3
ARM GAS  C:\Users\bogurad\AppData\Local\Temp\ccPP5wuY.s 			page 4


 114 0008 165D     		ldrb	r6, [r2, r4]	@ zero_extendqisi2
 115 000a 0AAD     		add	r5, sp, #40
 116 000c 2544     		add	r5, r5, r4
 117 000e 05F8246C 		strb	r6, [r5, #-36]
  55:..\symmetric-shake.c ****     extkey[i] = key[i];
 118              		.loc 1 55 0 discriminator 3
 119 0012 0134     		adds	r4, r4, #1
 120              	.LVL12:
 121              	.L6:
  55:..\symmetric-shake.c ****     extkey[i] = key[i];
 122              		.loc 1 55 0 is_stmt 0 discriminator 1
 123 0014 1F2C     		cmp	r4, #31
 124 0016 F7D9     		bls	.L7
  57:..\symmetric-shake.c ****   extkey[i] = nonce;
 125              		.loc 1 57 0 is_stmt 1
 126 0018 0AAA     		add	r2, sp, #40
 127              	.LVL13:
 128 001a 1444     		add	r4, r4, r2
 129              	.LVL14:
 130 001c 04F8243C 		strb	r3, [r4, #-36]
  58:..\symmetric-shake.c **** 
  59:..\symmetric-shake.c ****   shake256(out, outlen, extkey, sizeof(extkey));
 131              		.loc 1 59 0
 132 0020 2123     		movs	r3, #33
 133              	.LVL15:
 134 0022 01AA     		add	r2, sp, #4
 135 0024 FFF7FEFF 		bl	pqcrystals_fips202_ref_shake256
 136              	.LVL16:
  60:..\symmetric-shake.c **** }
 137              		.loc 1 60 0
 138 0028 0AB0     		add	sp, sp, #40
 139              		.cfi_def_cfa_offset 16
 140              		@ sp needed
 141 002a 70BD     		pop	{r4, r5, r6, pc}
 142              		.cfi_endproc
 143              	.LFE1:
 144              		.size	pqcrystals_kyber1024_ref_kyber_shake256_prf, .-pqcrystals_kyber1024_ref_kyber_shake256_prf
 145              		.text
 146              	.Letext0:
 147              		.file 2 "c:\\program files (x86)\\cypress\\psoc creator\\4.4\\psoc creator\\import\\gnu\\arm\\5.4.
 148              		.file 3 "c:\\program files (x86)\\cypress\\psoc creator\\4.4\\psoc creator\\import\\gnu\\arm\\5.4.
 149              		.file 4 "c:\\program files (x86)\\cypress\\psoc creator\\4.4\\psoc creator\\import\\gnu\\arm\\5.4.
 150              		.file 5 "..\\fips202.h"