ARM GAS  C:\Users\bogur\AppData\Local\Temp\ccZf9r1j.s 			page 1


   1              		.syntax unified
   2              		.cpu cortex-m4
   3              		.eabi_attribute 27, 1
   4              		.fpu fpv4-sp-d16
   5              		.eabi_attribute 20, 1
   6              		.eabi_attribute 21, 1
   7              		.eabi_attribute 23, 3
   8              		.eabi_attribute 24, 1
   9              		.eabi_attribute 25, 1
  10              		.eabi_attribute 26, 1
  11              		.eabi_attribute 30, 1
  12              		.eabi_attribute 34, 1
  13              		.eabi_attribute 18, 4
  14              		.thumb
  15              		.syntax unified
  16              		.file	"cbd.c"
  17              		.text
  18              	.Ltext0:
  19              		.cfi_sections	.debug_frame
  20              		.section	.text.load_littleendian,"ax",%progbits
  21              		.align	2
  22              		.thumb
  23              		.thumb_func
  24              		.type	load_littleendian, %function
  25              	load_littleendian:
  26              	.LFB0:
  27              		.file 1 "..\\cbd.c"
   1:..\cbd.c      **** /*---------------------------------------------------------------------
   2:..\cbd.c      **** This file has been adapted from the implementation 
   3:..\cbd.c      **** (available at, Public Domain https://github.com/pq-crystals/kyber) 
   4:..\cbd.c      **** of "CRYSTALS – Kyber: a CCA-secure module-lattice-based KEM"
   5:..\cbd.c      **** by : Joppe Bos, Leo Ducas, Eike Kiltz, Tancrede Lepoint, 
   6:..\cbd.c      **** Vadim Lyubashevsky, John M. Schanck, Peter Schwabe & Damien stehle
   7:..\cbd.c      **** ----------------------------------------------------------------------*/
   8:..\cbd.c      **** 
   9:..\cbd.c      **** #include "SABER_params.h"
  10:..\cbd.c      **** #include "api.h"
  11:..\cbd.c      **** #include "cbd.h"
  12:..\cbd.c      **** #include <stdint.h>
  13:..\cbd.c      **** 
  14:..\cbd.c      **** static uint64_t load_littleendian(const uint8_t *x, int bytes)
  15:..\cbd.c      **** {
  28              		.loc 1 15 0
  29              		.cfi_startproc
  30              		@ args = 0, pretend = 0, frame = 0
  31              		@ frame_needed = 0, uses_anonymous_args = 0
  32              	.LVL0:
  33 0000 2DE9F041 		push	{r4, r5, r6, r7, r8, lr}
  34              		.cfi_def_cfa_offset 24
  35              		.cfi_offset 4, -24
  36              		.cfi_offset 5, -20
  37              		.cfi_offset 6, -16
  38              		.cfi_offset 7, -12
  39              		.cfi_offset 8, -8
  40              		.cfi_offset 14, -4
  41 0004 8446     		mov	ip, r0
  42 0006 8846     		mov	r8, r1
ARM GAS  C:\Users\bogur\AppData\Local\Temp\ccZf9r1j.s 			page 2


  16:..\cbd.c      ****   int i;
  17:..\cbd.c      ****   uint64_t r = x[0];
  43              		.loc 1 17 0
  44 0008 9CF80000 		ldrb	r0, [ip]	@ zero_extendqisi2
  45              	.LVL1:
  46 000c 0021     		movs	r1, #0
  47              	.LVL2:
  18:..\cbd.c      ****   for (i = 1; i < bytes; i++)
  48              		.loc 1 18 0
  49 000e 0124     		movs	r4, #1
  50 0010 13E0     		b	.L2
  51              	.LVL3:
  52              	.L3:
  19:..\cbd.c      ****     r |= (uint64_t)x[i] << (8 * i);
  53              		.loc 1 19 0 discriminator 3
  54 0012 1CF80460 		ldrb	r6, [ip, r4]	@ zero_extendqisi2
  55 0016 E500     		lsls	r5, r4, #3
  56 0018 A5F1200E 		sub	lr, r5, #32
  57 001c C5F12007 		rsb	r7, r5, #32
  58 0020 0023     		movs	r3, #0
  59 0022 06FA0EFE 		lsl	lr, r6, lr
  60 0026 43EA0E03 		orr	r3, r3, lr
  61 002a 26FA07F7 		lsr	r7, r6, r7
  62 002e 3B43     		orrs	r3, r3, r7
  63 0030 06FA05F2 		lsl	r2, r6, r5
  64 0034 1043     		orrs	r0, r0, r2
  65              	.LVL4:
  66 0036 1943     		orrs	r1, r1, r3
  67              	.LVL5:
  18:..\cbd.c      ****   for (i = 1; i < bytes; i++)
  68              		.loc 1 18 0 discriminator 3
  69 0038 0134     		adds	r4, r4, #1
  70              	.LVL6:
  71              	.L2:
  18:..\cbd.c      ****   for (i = 1; i < bytes; i++)
  72              		.loc 1 18 0 is_stmt 0 discriminator 1
  73 003a 4445     		cmp	r4, r8
  74 003c E9DB     		blt	.L3
  20:..\cbd.c      ****   return r;
  21:..\cbd.c      **** }
  75              		.loc 1 21 0 is_stmt 1
  76 003e BDE8F081 		pop	{r4, r5, r6, r7, r8, pc}
  77              		.cfi_endproc
  78              	.LFE0:
  79              		.size	load_littleendian, .-load_littleendian
  80 0042 00BF     		.section	.text.cbd,"ax",%progbits
  81              		.align	2
  82              		.global	cbd
  83              		.thumb
  84              		.thumb_func
  85              		.type	cbd, %function
  86              	cbd:
  87              	.LFB1:
  22:..\cbd.c      **** 
  23:..\cbd.c      **** void cbd(uint16_t s[SABER_N], const uint8_t buf[SABER_POLYCOINBYTES])
  24:..\cbd.c      **** {
  88              		.loc 1 24 0
ARM GAS  C:\Users\bogur\AppData\Local\Temp\ccZf9r1j.s 			page 3


  89              		.cfi_startproc
  90              		@ args = 0, pretend = 0, frame = 0
  91              		@ frame_needed = 0, uses_anonymous_args = 0
  92              	.LVL7:
  93 0000 2DE9F843 		push	{r3, r4, r5, r6, r7, r8, r9, lr}
  94              		.cfi_def_cfa_offset 32
  95              		.cfi_offset 3, -32
  96              		.cfi_offset 4, -28
  97              		.cfi_offset 5, -24
  98              		.cfi_offset 6, -20
  99              		.cfi_offset 7, -16
 100              		.cfi_offset 8, -12
 101              		.cfi_offset 9, -8
 102              		.cfi_offset 14, -4
 103 0004 0546     		mov	r5, r0
 104 0006 0E46     		mov	r6, r1
 105              	.LVL8:
  25:..\cbd.c      **** #if SABER_MU == 6
  26:..\cbd.c      ****   uint32_t t, d, a[4], b[4];
  27:..\cbd.c      ****   int i, j;
  28:..\cbd.c      **** 
  29:..\cbd.c      ****   for (i = 0; i < SABER_N / 4; i++)
 106              		.loc 1 29 0
 107 0008 0024     		movs	r4, #0
 108 000a 32E0     		b	.L6
 109              	.LVL9:
 110              	.L9:
  30:..\cbd.c      ****   {
  31:..\cbd.c      ****     t = load_littleendian(buf + 3 * i, 3);
 111              		.loc 1 31 0
 112 000c 04EB4400 		add	r0, r4, r4, lsl #1
 113 0010 0321     		movs	r1, #3
 114 0012 3044     		add	r0, r0, r6
 115 0014 FFF7FEFF 		bl	load_littleendian
 116              	.LVL10:
  32:..\cbd.c      ****     d = 0;
  33:..\cbd.c      ****     for (j = 0; j < 3; j++)
 117              		.loc 1 33 0
 118 0018 0022     		movs	r2, #0
  32:..\cbd.c      ****     d = 0;
 119              		.loc 1 32 0
 120 001a 1346     		mov	r3, r2
 121              		.loc 1 33 0
 122 001c 05E0     		b	.L7
 123              	.LVL11:
 124              	.L8:
  34:..\cbd.c      ****       d += (t >> j) & 0x249249;
 125              		.loc 1 34 0 discriminator 3
 126 001e 20FA02F7 		lsr	r7, r0, r2
 127 0022 1649     		ldr	r1, .L11
 128 0024 3940     		ands	r1, r1, r7
 129 0026 0B44     		add	r3, r3, r1
 130              	.LVL12:
  33:..\cbd.c      ****       d += (t >> j) & 0x249249;
 131              		.loc 1 33 0 discriminator 3
 132 0028 0132     		adds	r2, r2, #1
 133              	.LVL13:
ARM GAS  C:\Users\bogur\AppData\Local\Temp\ccZf9r1j.s 			page 4


 134              	.L7:
  33:..\cbd.c      ****       d += (t >> j) & 0x249249;
 135              		.loc 1 33 0 is_stmt 0 discriminator 1
 136 002a 022A     		cmp	r2, #2
 137 002c F7DD     		ble	.L8
  35:..\cbd.c      **** 
  36:..\cbd.c      ****     a[0] = d & 0x7;
 138              		.loc 1 36 0 is_stmt 1 discriminator 2
 139 002e 03F0070E 		and	lr, r3, #7
  37:..\cbd.c      ****     b[0] = (d >> 3) & 0x7;
 140              		.loc 1 37 0 discriminator 2
 141 0032 C3F3C209 		ubfx	r9, r3, #3, #3
  38:..\cbd.c      ****     a[1] = (d >> 6) & 0x7;
 142              		.loc 1 38 0 discriminator 2
 143 0036 C3F38217 		ubfx	r7, r3, #6, #3
  39:..\cbd.c      ****     b[1] = (d >> 9) & 0x7;
 144              		.loc 1 39 0 discriminator 2
 145 003a C3F34228 		ubfx	r8, r3, #9, #3
  40:..\cbd.c      ****     a[2] = (d >> 12) & 0x7;
 146              		.loc 1 40 0 discriminator 2
 147 003e C3F30230 		ubfx	r0, r3, #12, #3
 148              	.LVL14:
  41:..\cbd.c      ****     b[2] = (d >> 15) & 0x7;
 149              		.loc 1 41 0 discriminator 2
 150 0042 C3F3C23C 		ubfx	ip, r3, #15, #3
  42:..\cbd.c      ****     a[3] = (d >> 18) & 0x7;
 151              		.loc 1 42 0 discriminator 2
 152 0046 C3F38241 		ubfx	r1, r3, #18, #3
  43:..\cbd.c      ****     b[3] = (d >> 21);
  44:..\cbd.c      **** 
  45:..\cbd.c      ****     s[4 * i + 0] = (uint16_t)(a[0] - b[0]);
 153              		.loc 1 45 0 discriminator 2
 154 004a E200     		lsls	r2, r4, #3
 155              	.LVL15:
 156 004c C9EB0E0E 		rsb	lr, r9, lr
 157 0050 25F834E0 		strh	lr, [r5, r4, lsl #3]	@ movhi
  46:..\cbd.c      ****     s[4 * i + 1] = (uint16_t)(a[1] - b[1]);
 158              		.loc 1 46 0 discriminator 2
 159 0054 02F1020E 		add	lr, r2, #2
 160 0058 C8EB0707 		rsb	r7, r8, r7
 161 005c 25F80E70 		strh	r7, [r5, lr]	@ movhi
  47:..\cbd.c      ****     s[4 * i + 2] = (uint16_t)(a[2] - b[2]);
 162              		.loc 1 47 0 discriminator 2
 163 0060 171D     		adds	r7, r2, #4
 164 0062 CCEB0000 		rsb	r0, ip, r0
 165 0066 E853     		strh	r0, [r5, r7]	@ movhi
  48:..\cbd.c      ****     s[4 * i + 3] = (uint16_t)(a[3] - b[3]);
 166              		.loc 1 48 0 discriminator 2
 167 0068 0632     		adds	r2, r2, #6
 168 006a A1EB5353 		sub	r3, r1, r3, lsr #21
 169              	.LVL16:
 170 006e AB52     		strh	r3, [r5, r2]	@ movhi
  29:..\cbd.c      ****   {
 171              		.loc 1 29 0 discriminator 2
 172 0070 0134     		adds	r4, r4, #1
 173              	.LVL17:
 174              	.L6:
ARM GAS  C:\Users\bogur\AppData\Local\Temp\ccZf9r1j.s 			page 5


  29:..\cbd.c      ****   {
 175              		.loc 1 29 0 is_stmt 0 discriminator 1
 176 0072 3F2C     		cmp	r4, #63
 177 0074 CADD     		ble	.L9
  49:..\cbd.c      ****   }
  50:..\cbd.c      **** #elif SABER_MU == 8 
  51:..\cbd.c      ****   uint32_t t, d, a[4], b[4];
  52:..\cbd.c      ****   int i, j;
  53:..\cbd.c      **** 
  54:..\cbd.c      ****   for (i = 0; i < SABER_N / 4; i++)
  55:..\cbd.c      ****   {
  56:..\cbd.c      ****     t = load_littleendian(buf + 4 * i, 4);
  57:..\cbd.c      ****     d = 0;
  58:..\cbd.c      ****     for (j = 0; j < 4; j++)
  59:..\cbd.c      ****       d += (t >> j) & 0x11111111;
  60:..\cbd.c      **** 
  61:..\cbd.c      ****     a[0] = d & 0xf;
  62:..\cbd.c      ****     b[0] = (d >> 4) & 0xf;
  63:..\cbd.c      ****     a[1] = (d >> 8) & 0xf;
  64:..\cbd.c      ****     b[1] = (d >> 12) & 0xf;
  65:..\cbd.c      ****     a[2] = (d >> 16) & 0xf;
  66:..\cbd.c      ****     b[2] = (d >> 20) & 0xf;
  67:..\cbd.c      ****     a[3] = (d >> 24) & 0xf;
  68:..\cbd.c      ****     b[3] = (d >> 28);
  69:..\cbd.c      **** 
  70:..\cbd.c      ****     s[4 * i + 0] = (uint16_t)(a[0] - b[0]);
  71:..\cbd.c      ****     s[4 * i + 1] = (uint16_t)(a[1] - b[1]);
  72:..\cbd.c      ****     s[4 * i + 2] = (uint16_t)(a[2] - b[2]);
  73:..\cbd.c      ****     s[4 * i + 3] = (uint16_t)(a[3] - b[3]);
  74:..\cbd.c      ****   }
  75:..\cbd.c      **** #elif SABER_MU == 10
  76:..\cbd.c      ****   uint64_t t, d, a[4], b[4];
  77:..\cbd.c      ****   int i, j;
  78:..\cbd.c      **** 
  79:..\cbd.c      ****   for (i = 0; i < SABER_N / 4; i++)
  80:..\cbd.c      ****   {
  81:..\cbd.c      ****     t = load_littleendian(buf + 5 * i, 5);
  82:..\cbd.c      ****     d = 0;
  83:..\cbd.c      ****     for (j = 0; j < 5; j++)
  84:..\cbd.c      ****       d += (t >> j) & 0x0842108421UL;
  85:..\cbd.c      **** 
  86:..\cbd.c      ****     a[0] = d & 0x1f;
  87:..\cbd.c      ****     b[0] = (d >> 5) & 0x1f;
  88:..\cbd.c      ****     a[1] = (d >> 10) & 0x1f;
  89:..\cbd.c      ****     b[1] = (d >> 15) & 0x1f;
  90:..\cbd.c      ****     a[2] = (d >> 20) & 0x1f;
  91:..\cbd.c      ****     b[2] = (d >> 25) & 0x1f;
  92:..\cbd.c      ****     a[3] = (d >> 30) & 0x1f;
  93:..\cbd.c      ****     b[3] = (d >> 35);
  94:..\cbd.c      **** 
  95:..\cbd.c      ****     s[4 * i + 0] = (uint16_t)(a[0] - b[0]);
  96:..\cbd.c      ****     s[4 * i + 1] = (uint16_t)(a[1] - b[1]);
  97:..\cbd.c      ****     s[4 * i + 2] = (uint16_t)(a[2] - b[2]);
  98:..\cbd.c      ****     s[4 * i + 3] = (uint16_t)(a[3] - b[3]);
  99:..\cbd.c      ****   }
 100:..\cbd.c      **** #else
 101:..\cbd.c      **** #error "Unsupported SABER parameter."
ARM GAS  C:\Users\bogur\AppData\Local\Temp\ccZf9r1j.s 			page 6


 102:..\cbd.c      **** #endif
 103:..\cbd.c      **** }
 178              		.loc 1 103 0 is_stmt 1
 179 0076 BDE8F883 		pop	{r3, r4, r5, r6, r7, r8, r9, pc}
 180              	.LVL18:
 181              	.L12:
 182 007a 00BF     		.align	2
 183              	.L11:
 184 007c 49922400 		.word	2396745
 185              		.cfi_endproc
 186              	.LFE1:
 187              		.size	cbd, .-cbd
 188              		.text
 189              	.Letext0:
 190              		.file 2 "c:\\program files (x86)\\cypress\\psoc creator\\4.4\\psoc creator\\import\\gnu\\arm\\5.4.
 191              		.file 3 "c:\\program files (x86)\\cypress\\psoc creator\\4.4\\psoc creator\\import\\gnu\\arm\\5.4.