ARM GAS  C:\Users\bogur\AppData\Local\Temp\ccUN4qv8.s 			page 1


   1              		.syntax unified
   2              		.cpu cortex-m4
   3              		.eabi_attribute 27, 1
   4              		.fpu fpv4-sp-d16
   5              		.eabi_attribute 20, 1
   6              		.eabi_attribute 21, 1
   7              		.eabi_attribute 23, 3
   8              		.eabi_attribute 24, 1
   9              		.eabi_attribute 25, 1
  10              		.eabi_attribute 26, 1
  11              		.eabi_attribute 30, 1
  12              		.eabi_attribute 34, 1
  13              		.eabi_attribute 18, 4
  14              		.thumb
  15              		.syntax unified
  16              		.file	"mainTask.c"
  17              		.text
  18              	.Ltext0:
  19              		.cfi_sections	.debug_frame
  20              		.section	.text.mainTask,"ax",%progbits
  21              		.align	2
  22              		.global	mainTask
  23              		.thumb
  24              		.thumb_func
  25              		.type	mainTask, %function
  26              	mainTask:
  27              	.LFB485:
  28              		.file 1 "mainTask.c"
   1:mainTask.c    **** /* ========================================
   2:mainTask.c    ****  *
   3:mainTask.c    ****  * Copyright YOUR COMPANY, THE YEAR
   4:mainTask.c    ****  * All Rights Reserved
   5:mainTask.c    ****  * UNPUBLISHED, LICENSED SOFTWARE.
   6:mainTask.c    ****  *
   7:mainTask.c    ****  * CONFIDENTIAL AND PROPRIETARY INFORMATION
   8:mainTask.c    ****  * WHICH IS THE PROPERTY OF your company.
   9:mainTask.c    ****  *
  10:mainTask.c    ****  * ========================================
  11:mainTask.c    **** */
  12:mainTask.c    **** 
  13:mainTask.c    **** #include "project.h"
  14:mainTask.c    **** #include "FreeRTOS.h"
  15:mainTask.c    **** #include "task.h"
  16:mainTask.c    **** #include "semphr.h"
  17:mainTask.c    **** #include <stdio.h>
  18:mainTask.c    **** #include <stdlib.h>
  19:mainTask.c    **** #include "../saber_wrapper.h"
  20:mainTask.c    **** 
  21:mainTask.c    **** unsigned char *sk = NULL;
  22:mainTask.c    **** unsigned char *pk = NULL;
  23:mainTask.c    **** unsigned char *ct = NULL;
  24:mainTask.c    **** unsigned char *ss = NULL;
  25:mainTask.c    **** 
  26:mainTask.c    **** // External semaphore from UART task
  27:mainTask.c    **** extern SemaphoreHandle_t uartReadySemaphore;
  28:mainTask.c    **** 
  29:mainTask.c    **** void mainTask(void *arg)
ARM GAS  C:\Users\bogur\AppData\Local\Temp\ccUN4qv8.s 			page 2


  30:mainTask.c    **** {
  29              		.loc 1 30 0
  30              		.cfi_startproc
  31              		@ args = 0, pretend = 0, frame = 0
  32              		@ frame_needed = 0, uses_anonymous_args = 0
  33              	.LVL0:
  34 0000 2DE9F041 		push	{r4, r5, r6, r7, r8, lr}
  35              		.cfi_def_cfa_offset 24
  36              		.cfi_offset 4, -24
  37              		.cfi_offset 5, -20
  38              		.cfi_offset 6, -16
  39              		.cfi_offset 7, -12
  40              		.cfi_offset 8, -8
  41              		.cfi_offset 14, -4
  31:mainTask.c    ****     (void)arg;
  32:mainTask.c    ****     
  33:mainTask.c    ****     // Wait for UART to be ready (block until semaphore is given)
  34:mainTask.c    ****     xSemaphoreTake(uartReadySemaphore, portMAX_DELAY);
  42              		.loc 1 34 0
  43 0004 4FF0FF31 		mov	r1, #-1
  44 0008 494B     		ldr	r3, .L14
  45 000a 1868     		ldr	r0, [r3]
  46              	.LVL1:
  47 000c FFF7FEFF 		bl	xQueueSemaphoreTake
  48              	.LVL2:
  35:mainTask.c    ****     
  36:mainTask.c    ****     printf("Main task started - UART is ready\r\n");
  49              		.loc 1 36 0
  50 0010 4848     		ldr	r0, .L14+4
  51 0012 FFF7FEFF 		bl	puts
  52              	.LVL3:
  37:mainTask.c    ****     
  38:mainTask.c    ****     //Initialize SABER
  39:mainTask.c    ****     if (saber_init(SABER_SECURITY_FIRE) != 0) {
  53              		.loc 1 39 0
  54 0016 0420     		movs	r0, #4
  55 0018 FFF7FEFF 		bl	saber_init
  56              	.LVL4:
  57 001c 10B1     		cbz	r0, .L2
  40:mainTask.c    ****         printf("FireSaber init failed\n");
  58              		.loc 1 40 0
  59 001e 4648     		ldr	r0, .L14+8
  60 0020 FFF7FEFF 		bl	puts
  61              	.LVL5:
  62              	.L2:
  41:mainTask.c    ****     }
  42:mainTask.c    ****     
  43:mainTask.c    ****     // Allocate memory
  44:mainTask.c    ****     const size_t BYTES_SK = saber_get_secret_key_size();
  63              		.loc 1 44 0
  64 0024 FFF7FEFF 		bl	saber_get_secret_key_size
  65              	.LVL6:
  66 0028 0446     		mov	r4, r0
  67              	.LVL7:
  45:mainTask.c    ****     const size_t BYTES_PK = saber_get_public_key_size();
  68              		.loc 1 45 0
  69 002a FFF7FEFF 		bl	saber_get_public_key_size
ARM GAS  C:\Users\bogur\AppData\Local\Temp\ccUN4qv8.s 			page 3


  70              	.LVL8:
  71 002e 0646     		mov	r6, r0
  72              	.LVL9:
  46:mainTask.c    ****     const size_t BYTES_CT = saber_get_ciphertext_size();
  73              		.loc 1 46 0
  74 0030 FFF7FEFF 		bl	saber_get_ciphertext_size
  75              	.LVL10:
  76 0034 0546     		mov	r5, r0
  77              	.LVL11:
  47:mainTask.c    ****     const size_t BYTES_SS = saber_get_shared_secret_size();
  78              		.loc 1 47 0
  79 0036 FFF7FEFF 		bl	saber_get_shared_secret_size
  80              	.LVL12:
  81 003a 8046     		mov	r8, r0
  82              	.LVL13:
  48:mainTask.c    **** 
  49:mainTask.c    ****     
  50:mainTask.c    ****     sk = (unsigned char *) calloc(BYTES_SK, sizeof(unsigned char));
  83              		.loc 1 50 0
  84 003c 0121     		movs	r1, #1
  85 003e 2046     		mov	r0, r4
  86              	.LVL14:
  87 0040 FFF7FEFF 		bl	calloc
  88              	.LVL15:
  89 0044 0746     		mov	r7, r0
  90 0046 3D4C     		ldr	r4, .L14+12
  91              	.LVL16:
  92 0048 2060     		str	r0, [r4]
  51:mainTask.c    ****     pk = (unsigned char *) calloc(BYTES_PK, sizeof(unsigned char));
  93              		.loc 1 51 0
  94 004a 0121     		movs	r1, #1
  95 004c 3046     		mov	r0, r6
  96 004e FFF7FEFF 		bl	calloc
  97              	.LVL17:
  98 0052 0646     		mov	r6, r0
  99              	.LVL18:
 100 0054 6060     		str	r0, [r4, #4]
  52:mainTask.c    ****     ct = (unsigned char *) calloc(BYTES_CT, sizeof(unsigned char));
 101              		.loc 1 52 0
 102 0056 0121     		movs	r1, #1
 103 0058 2846     		mov	r0, r5
 104 005a FFF7FEFF 		bl	calloc
 105              	.LVL19:
 106 005e 0546     		mov	r5, r0
 107              	.LVL20:
 108 0060 A060     		str	r0, [r4, #8]
  53:mainTask.c    ****     ss = (unsigned char *) calloc(BYTES_SS, sizeof(unsigned char));
 109              		.loc 1 53 0
 110 0062 0121     		movs	r1, #1
 111 0064 4046     		mov	r0, r8
 112 0066 FFF7FEFF 		bl	calloc
 113              	.LVL21:
 114 006a E060     		str	r0, [r4, #12]
  54:mainTask.c    **** 
  55:mainTask.c    ****     if (!sk || !pk || !ct || !ss) {
 115              		.loc 1 55 0
 116 006c 17B1     		cbz	r7, .L3
ARM GAS  C:\Users\bogur\AppData\Local\Temp\ccUN4qv8.s 			page 4


 117              		.loc 1 55 0 is_stmt 0 discriminator 1
 118 006e 0EB1     		cbz	r6, .L3
 119              		.loc 1 55 0 discriminator 2
 120 0070 05B1     		cbz	r5, .L3
 121              		.loc 1 55 0 discriminator 3
 122 0072 18B9     		cbnz	r0, .L4
 123              	.L3:
  56:mainTask.c    ****         printf("Memory allocation failed\r\n");
 124              		.loc 1 56 0 is_stmt 1
 125 0074 3248     		ldr	r0, .L14+16
 126 0076 FFF7FEFF 		bl	puts
 127              	.LVL22:
 128 007a 02E0     		b	.L5
 129              	.L4:
  57:mainTask.c    ****     }
  58:mainTask.c    ****     else{
  59:mainTask.c    ****         printf("Correct memory allocation\r\n");
 130              		.loc 1 59 0
 131 007c 3148     		ldr	r0, .L14+20
 132 007e FFF7FEFF 		bl	puts
 133              	.LVL23:
 134              	.L5:
  60:mainTask.c    ****     }
  61:mainTask.c    ****     
  62:mainTask.c    ****     if (saber_keypair(pk, sk) != 0) {
 135              		.loc 1 62 0
 136 0082 2E4B     		ldr	r3, .L14+12
 137 0084 1968     		ldr	r1, [r3]
 138 0086 5868     		ldr	r0, [r3, #4]
 139 0088 FFF7FEFF 		bl	saber_keypair
 140              	.LVL24:
 141 008c 10B1     		cbz	r0, .L6
  63:mainTask.c    ****         printf("Keypair generation failed\n");
 142              		.loc 1 63 0
 143 008e 2E48     		ldr	r0, .L14+24
 144 0090 FFF7FEFF 		bl	puts
 145              	.LVL25:
 146              	.L6:
  64:mainTask.c    ****     }
  65:mainTask.c    ****     printf("Keypair generation succesful\n");
 147              		.loc 1 65 0
 148 0094 2D48     		ldr	r0, .L14+28
 149 0096 FFF7FEFF 		bl	puts
 150              	.LVL26:
  66:mainTask.c    **** 
  67:mainTask.c    ****     if (saber_encapsulate(ct, ss, pk) != 0) {
 151              		.loc 1 67 0
 152 009a 284B     		ldr	r3, .L14+12
 153 009c 5A68     		ldr	r2, [r3, #4]
 154 009e D968     		ldr	r1, [r3, #12]
 155 00a0 9868     		ldr	r0, [r3, #8]
 156 00a2 FFF7FEFF 		bl	saber_encapsulate
 157              	.LVL27:
 158 00a6 10B1     		cbz	r0, .L7
  68:mainTask.c    ****             printf("Encapsulation failed\n");
 159              		.loc 1 68 0
 160 00a8 2948     		ldr	r0, .L14+32
ARM GAS  C:\Users\bogur\AppData\Local\Temp\ccUN4qv8.s 			page 5


 161 00aa FFF7FEFF 		bl	puts
 162              	.LVL28:
 163              	.L7:
  69:mainTask.c    ****     }
  70:mainTask.c    ****     printf("Correct encapsulation\n");
 164              		.loc 1 70 0
 165 00ae 2948     		ldr	r0, .L14+36
 166 00b0 FFF7FEFF 		bl	puts
 167              	.LVL29:
  71:mainTask.c    ****     
  72:mainTask.c    ****     if (saber_decapsulate(ss, ct, sk) != 0) {
 168              		.loc 1 72 0
 169 00b4 214B     		ldr	r3, .L14+12
 170 00b6 1A68     		ldr	r2, [r3]
 171 00b8 9968     		ldr	r1, [r3, #8]
 172 00ba D868     		ldr	r0, [r3, #12]
 173 00bc FFF7FEFF 		bl	saber_decapsulate
 174              	.LVL30:
 175 00c0 10B1     		cbz	r0, .L8
  73:mainTask.c    ****             printf("Encapsulation failed\n");
 176              		.loc 1 73 0
 177 00c2 2348     		ldr	r0, .L14+32
 178 00c4 FFF7FEFF 		bl	puts
 179              	.LVL31:
 180              	.L8:
  74:mainTask.c    ****     }
  75:mainTask.c    ****     
  76:mainTask.c    ****     printf("Correct decapsulation\n");
 181              		.loc 1 76 0
 182 00c8 2348     		ldr	r0, .L14+40
 183 00ca FFF7FEFF 		bl	puts
 184              	.LVL32:
 185              	.L12:
  77:mainTask.c    ****     
  78:mainTask.c    ****     // Your main application loop
  79:mainTask.c    ****     
  80:mainTask.c    **** 
  81:mainTask.c    ****     // Get the minimum amount of free stack space that has existed 
  82:mainTask.c    ****     // since the task started.
  83:mainTask.c    ****     UBaseType_t uxHighWaterMark;
  84:mainTask.c    ****     for(;;)
  85:mainTask.c    ****     {
  86:mainTask.c    ****         
  87:mainTask.c    ****         uxHighWaterMark = uxTaskGetStackHighWaterMark(NULL);
 186              		.loc 1 87 0
 187 00ce 0020     		movs	r0, #0
 188 00d0 FFF7FEFF 		bl	uxTaskGetStackHighWaterMark
 189              	.LVL33:
  88:mainTask.c    ****          if (saber_keypair(pk, sk) != 0) {
 190              		.loc 1 88 0
 191 00d4 194B     		ldr	r3, .L14+12
 192 00d6 1968     		ldr	r1, [r3]
 193 00d8 5868     		ldr	r0, [r3, #4]
 194 00da FFF7FEFF 		bl	saber_keypair
 195              	.LVL34:
 196 00de 10B1     		cbz	r0, .L9
  89:mainTask.c    ****             printf("Keypair generation failed\n");
ARM GAS  C:\Users\bogur\AppData\Local\Temp\ccUN4qv8.s 			page 6


 197              		.loc 1 89 0
 198 00e0 1948     		ldr	r0, .L14+24
 199 00e2 FFF7FEFF 		bl	puts
 200              	.LVL35:
 201              	.L9:
  90:mainTask.c    ****         }
  91:mainTask.c    ****         printf("Keypair generation succesful\n");
 202              		.loc 1 91 0
 203 00e6 1948     		ldr	r0, .L14+28
 204 00e8 FFF7FEFF 		bl	puts
 205              	.LVL36:
  92:mainTask.c    **** 
  93:mainTask.c    ****         if (saber_encapsulate(ct, ss, pk) != 0) {
 206              		.loc 1 93 0
 207 00ec 134B     		ldr	r3, .L14+12
 208 00ee 5A68     		ldr	r2, [r3, #4]
 209 00f0 D968     		ldr	r1, [r3, #12]
 210 00f2 9868     		ldr	r0, [r3, #8]
 211 00f4 FFF7FEFF 		bl	saber_encapsulate
 212              	.LVL37:
 213 00f8 10B1     		cbz	r0, .L10
  94:mainTask.c    ****                 printf("Encapsulation failed\n");
 214              		.loc 1 94 0
 215 00fa 1548     		ldr	r0, .L14+32
 216 00fc FFF7FEFF 		bl	puts
 217              	.LVL38:
 218              	.L10:
  95:mainTask.c    ****         }
  96:mainTask.c    ****         printf("Correct encapsulation\n");
 219              		.loc 1 96 0
 220 0100 1448     		ldr	r0, .L14+36
 221 0102 FFF7FEFF 		bl	puts
 222              	.LVL39:
  97:mainTask.c    ****         
  98:mainTask.c    ****         if (saber_decapsulate(ss, ct, sk) != 0) {
 223              		.loc 1 98 0
 224 0106 0D4B     		ldr	r3, .L14+12
 225 0108 1A68     		ldr	r2, [r3]
 226 010a 9968     		ldr	r1, [r3, #8]
 227 010c D868     		ldr	r0, [r3, #12]
 228 010e FFF7FEFF 		bl	saber_decapsulate
 229              	.LVL40:
 230 0112 10B1     		cbz	r0, .L11
  99:mainTask.c    ****                 printf("Encapsulation failed\n");
 231              		.loc 1 99 0
 232 0114 0E48     		ldr	r0, .L14+32
 233 0116 FFF7FEFF 		bl	puts
 234              	.LVL41:
 235              	.L11:
 100:mainTask.c    ****         }
 101:mainTask.c    ****             
 102:mainTask.c    ****         printf("Correct decapsulation\n");
 236              		.loc 1 102 0
 237 011a 0F48     		ldr	r0, .L14+40
 238 011c FFF7FEFF 		bl	puts
 239              	.LVL42:
 103:mainTask.c    ****         uxHighWaterMark = uxTaskGetStackHighWaterMark(NULL);
ARM GAS  C:\Users\bogur\AppData\Local\Temp\ccUN4qv8.s 			page 7


 240              		.loc 1 103 0
 241 0120 0020     		movs	r0, #0
 242 0122 FFF7FEFF 		bl	uxTaskGetStackHighWaterMark
 243              	.LVL43:
 104:mainTask.c    ****         printf("Minimum free stack: %lu words\n", uxHighWaterMark);
 244              		.loc 1 104 0
 245 0126 0146     		mov	r1, r0
 246 0128 0C48     		ldr	r0, .L14+44
 247              	.LVL44:
 248 012a FFF7FEFF 		bl	printf
 249              	.LVL45:
 105:mainTask.c    ****     }
 250              		.loc 1 105 0
 251 012e CEE7     		b	.L12
 252              	.L15:
 253              		.align	2
 254              	.L14:
 255 0130 00000000 		.word	uartReadySemaphore
 256 0134 00000000 		.word	.LC0
 257 0138 24000000 		.word	.LC1
 258 013c 00000000 		.word	.LANCHOR0
 259 0140 3C000000 		.word	.LC2
 260 0144 58000000 		.word	.LC3
 261 0148 74000000 		.word	.LC4
 262 014c 90000000 		.word	.LC5
 263 0150 B0000000 		.word	.LC6
 264 0154 C8000000 		.word	.LC7
 265 0158 E0000000 		.word	.LC8
 266 015c F8000000 		.word	.LC9
 267              		.cfi_endproc
 268              	.LFE485:
 269              		.size	mainTask, .-mainTask
 270              		.global	ss
 271              		.global	ct
 272              		.global	pk
 273              		.global	sk
 274              		.section	.rodata.str1.4,"aMS",%progbits,1
 275              		.align	2
 276              	.LC0:
 277 0000 4D61696E 		.ascii	"Main task started - UART is ready\015\000"
 277      20746173 
 277      6B207374 
 277      61727465 
 277      64202D20 
 278 0023 00       		.space	1
 279              	.LC1:
 280 0024 46697265 		.ascii	"FireSaber init failed\000"
 280      53616265 
 280      7220696E 
 280      69742066 
 280      61696C65 
 281 003a 0000     		.space	2
 282              	.LC2:
 283 003c 4D656D6F 		.ascii	"Memory allocation failed\015\000"
 283      72792061 
 283      6C6C6F63 
 283      6174696F 
ARM GAS  C:\Users\bogur\AppData\Local\Temp\ccUN4qv8.s 			page 8


 283      6E206661 
 284 0056 0000     		.space	2
 285              	.LC3:
 286 0058 436F7272 		.ascii	"Correct memory allocation\015\000"
 286      65637420 
 286      6D656D6F 
 286      72792061 
 286      6C6C6F63 
 287 0073 00       		.space	1
 288              	.LC4:
 289 0074 4B657970 		.ascii	"Keypair generation failed\000"
 289      61697220 
 289      67656E65 
 289      72617469 
 289      6F6E2066 
 290 008e 0000     		.space	2
 291              	.LC5:
 292 0090 4B657970 		.ascii	"Keypair generation succesful\000"
 292      61697220 
 292      67656E65 
 292      72617469 
 292      6F6E2073 
 293 00ad 000000   		.space	3
 294              	.LC6:
 295 00b0 456E6361 		.ascii	"Encapsulation failed\000"
 295      7073756C 
 295      6174696F 
 295      6E206661 
 295      696C6564 
 296 00c5 000000   		.space	3
 297              	.LC7:
 298 00c8 436F7272 		.ascii	"Correct encapsulation\000"
 298      65637420 
 298      656E6361 
 298      7073756C 
 298      6174696F 
 299 00de 0000     		.space	2
 300              	.LC8:
 301 00e0 436F7272 		.ascii	"Correct decapsulation\000"
 301      65637420 
 301      64656361 
 301      7073756C 
 301      6174696F 
 302 00f6 0000     		.space	2
 303              	.LC9:
 304 00f8 4D696E69 		.ascii	"Minimum free stack: %lu words\012\000"
 304      6D756D20 
 304      66726565 
 304      20737461 
 304      636B3A20 
 305              		.bss
 306              		.align	2
 307              		.set	.LANCHOR0,. + 0
 308              		.type	sk, %object
 309              		.size	sk, 4
 310              	sk:
 311 0000 00000000 		.space	4
ARM GAS  C:\Users\bogur\AppData\Local\Temp\ccUN4qv8.s 			page 9


 312              		.type	pk, %object
 313              		.size	pk, 4
 314              	pk:
 315 0004 00000000 		.space	4
 316              		.type	ct, %object
 317              		.size	ct, 4
 318              	ct:
 319 0008 00000000 		.space	4
 320              		.type	ss, %object
 321              		.size	ss, 4
 322              	ss:
 323 000c 00000000 		.space	4
 324              		.text
 325              	.Letext0:
 326              		.file 2 "c:\\program files (x86)\\cypress\\psoc creator\\4.4\\psoc creator\\import\\gnu\\arm\\5.4.
 327              		.file 3 "c:\\program files (x86)\\cypress\\psoc creator\\4.4\\psoc creator\\import\\gnu\\arm\\5.4.
 328              		.file 4 "c:\\program files (x86)\\cypress\\psoc creator\\4.4\\psoc creator\\import\\gnu\\arm\\5.4.
 329              		.file 5 "Generated_Source\\PSoC6\\pdl\\drivers/peripheral/device/cy_device.h"
 330              		.file 6 "Generated_Source\\PSoC6\\pdl\\drivers/peripheral/scb/cy_scb_uart.h"
 331              		.file 7 "Generated_Source\\PSoC6\\pdl\\rtos/FreeRTOS/10.0.1/Source/portable/GCC/CM4F/portmacro.h"
 332              		.file 8 "Generated_Source\\PSoC6\\pdl\\rtos/FreeRTOS/10.0.1/Source/include/queue.h"
 333              		.file 9 "Generated_Source\\PSoC6\\pdl\\rtos/FreeRTOS/10.0.1/Source/include/semphr.h"
 334              		.file 10 "Generated_Source\\PSoC6\\pdl\\cmsis/include/core_cm4.h"
 335              		.file 11 "Generated_Source\\PSoC6/UART.h"
 336              		.file 12 "../saber_wrapper.h"
 337              		.file 13 "c:\\program files (x86)\\cypress\\psoc creator\\4.4\\psoc creator\\import\\gnu\\arm\\5.4
 338              		.file 14 "Generated_Source\\PSoC6\\pdl\\rtos/FreeRTOS/10.0.1/Source/include/task.h"
 339              		.file 15 "c:\\program files (x86)\\cypress\\psoc creator\\4.4\\psoc creator\\import\\gnu\\arm\\5.4
 340              		.file 16 "<built-in>"