ARM GAS  C:\Users\bogur\AppData\Local\Temp\ccpK1Y07.s 			page 1


   1              		.syntax unified
   2              		.cpu cortex-m4
   3              		.eabi_attribute 27, 1
   4              		.fpu fpv4-sp-d16
   5              		.eabi_attribute 20, 1
   6              		.eabi_attribute 21, 1
   7              		.eabi_attribute 23, 3
   8              		.eabi_attribute 24, 1
   9              		.eabi_attribute 25, 1
  10              		.eabi_attribute 26, 1
  11              		.eabi_attribute 30, 1
  12              		.eabi_attribute 34, 1
  13              		.eabi_attribute 18, 4
  14              		.thumb
  15              		.syntax unified
  16              		.file	"pack_unpack.c"
  17              		.text
  18              	.Ltext0:
  19              		.cfi_sections	.debug_frame
  20              		.section	.text.POLq2BS,"ax",%progbits
  21              		.align	2
  22              		.thumb
  23              		.thumb_func
  24              		.type	POLq2BS, %function
  25              	POLq2BS:
  26              	.LFB3:
  27              		.file 1 "..\\pack_unpack.c"
   1:..\pack_unpack.c **** #include "pack_unpack.h"
   2:..\pack_unpack.c **** #include "api.h"
   3:..\pack_unpack.c **** #include <string.h>
   4:..\pack_unpack.c **** 
   5:..\pack_unpack.c **** void POLT2BS(uint8_t bytes[SABER_SCALEBYTES_KEM], const uint16_t data[SABER_N])
   6:..\pack_unpack.c **** {
   7:..\pack_unpack.c **** 	size_t j, offset_byte, offset_data;
   8:..\pack_unpack.c **** #if SABER_ET == 3
   9:..\pack_unpack.c **** 	for (j = 0; j < SABER_N / 8; j++)
  10:..\pack_unpack.c **** 	{
  11:..\pack_unpack.c **** 		offset_byte = 3 * j;
  12:..\pack_unpack.c **** 		offset_data = 8 * j;
  13:..\pack_unpack.c **** 		bytes[offset_byte + 0] = (data[offset_data + 0] & 0x7) | ((data[offset_data + 1] & 0x7) << 3) | (
  14:..\pack_unpack.c **** 		bytes[offset_byte + 1] = ((data[offset_data + 2] >> 2) & 0x01) | ((data[offset_data + 3] & 0x7) <
  15:..\pack_unpack.c **** 		bytes[offset_byte + 2] = ((data[offset_data + 5] >> 1) & 0x03) | ((data[offset_data + 6] & 0x7) <
  16:..\pack_unpack.c **** 	}
  17:..\pack_unpack.c **** #elif SABER_ET == 4
  18:..\pack_unpack.c **** 	for (j = 0; j < SABER_N / 2; j++)
  19:..\pack_unpack.c **** 	{
  20:..\pack_unpack.c **** 		offset_byte = j;
  21:..\pack_unpack.c **** 		offset_data = 2 * j;
  22:..\pack_unpack.c **** 		bytes[offset_byte] = (data[offset_data] & 0x0f) | ((data[offset_data + 1] & 0x0f) << 4);
  23:..\pack_unpack.c **** 	}
  24:..\pack_unpack.c **** #elif SABER_ET == 6
  25:..\pack_unpack.c **** 	for (j = 0; j < SABER_N / 4; j++)
  26:..\pack_unpack.c **** 	{
  27:..\pack_unpack.c **** 		offset_byte = 3 * j;
  28:..\pack_unpack.c **** 		offset_data = 4 * j;
  29:..\pack_unpack.c **** 		bytes[offset_byte + 0] = (data[offset_data + 0] & 0x3f) | ((data[offset_data + 1] & 0x03) << 6);
  30:..\pack_unpack.c **** 		bytes[offset_byte + 1] = ((data[offset_data + 1] >> 2) & 0x0f) | ((data[offset_data + 2] & 0x0f) 
ARM GAS  C:\Users\bogur\AppData\Local\Temp\ccpK1Y07.s 			page 2


  31:..\pack_unpack.c **** 		bytes[offset_byte + 2] = ((data[offset_data + 2] >> 4) & 0x03) | ((data[offset_data + 3] & 0x3f) 
  32:..\pack_unpack.c **** 	}
  33:..\pack_unpack.c **** #else
  34:..\pack_unpack.c **** #error "Unsupported SABER parameter."
  35:..\pack_unpack.c **** #endif
  36:..\pack_unpack.c **** }
  37:..\pack_unpack.c **** 
  38:..\pack_unpack.c **** void BS2POLT(const uint8_t bytes[SABER_SCALEBYTES_KEM], uint16_t data[SABER_N])
  39:..\pack_unpack.c **** {
  40:..\pack_unpack.c **** 	size_t j, offset_byte, offset_data;
  41:..\pack_unpack.c **** #if SABER_ET == 3
  42:..\pack_unpack.c **** 	for (j = 0; j < SABER_N / 8; j++)
  43:..\pack_unpack.c **** 	{
  44:..\pack_unpack.c **** 		offset_byte = 3 * j;
  45:..\pack_unpack.c **** 		offset_data = 8 * j;
  46:..\pack_unpack.c **** 		data[offset_data + 0] = (bytes[offset_byte + 0]) & 0x07;
  47:..\pack_unpack.c **** 		data[offset_data + 1] = ((bytes[offset_byte + 0]) >> 3) & 0x07;
  48:..\pack_unpack.c **** 		data[offset_data + 2] = (((bytes[offset_byte + 0]) >> 6) & 0x03) | (((bytes[offset_byte + 1]) & 0
  49:..\pack_unpack.c **** 		data[offset_data + 3] = ((bytes[offset_byte + 1]) >> 1) & 0x07;
  50:..\pack_unpack.c **** 		data[offset_data + 4] = ((bytes[offset_byte + 1]) >> 4) & 0x07;
  51:..\pack_unpack.c **** 		data[offset_data + 5] = (((bytes[offset_byte + 1]) >> 7) & 0x01) | (((bytes[offset_byte + 2]) & 0
  52:..\pack_unpack.c **** 		data[offset_data + 6] = ((bytes[offset_byte + 2] >> 2) & 0x07);
  53:..\pack_unpack.c **** 		data[offset_data + 7] = ((bytes[offset_byte + 2] >> 5) & 0x07);
  54:..\pack_unpack.c **** 	}
  55:..\pack_unpack.c **** #elif SABER_ET == 4
  56:..\pack_unpack.c **** 	for (j = 0; j < SABER_N / 2; j++)
  57:..\pack_unpack.c **** 	{
  58:..\pack_unpack.c **** 		offset_byte = j;
  59:..\pack_unpack.c **** 		offset_data = 2 * j;
  60:..\pack_unpack.c **** 		data[offset_data] = bytes[offset_byte] & 0x0f;
  61:..\pack_unpack.c **** 		data[offset_data + 1] = (bytes[offset_byte] >> 4) & 0x0f;
  62:..\pack_unpack.c **** 	}
  63:..\pack_unpack.c **** #elif SABER_ET == 6
  64:..\pack_unpack.c **** 	for (j = 0; j < SABER_N / 4; j++)
  65:..\pack_unpack.c **** 	{
  66:..\pack_unpack.c **** 		offset_byte = 3 * j;
  67:..\pack_unpack.c **** 		offset_data = 4 * j;
  68:..\pack_unpack.c **** 		data[offset_data + 0] = bytes[offset_byte + 0] & 0x3f;
  69:..\pack_unpack.c **** 		data[offset_data + 1] = ((bytes[offset_byte + 0] >> 6) & 0x03) | ((bytes[offset_byte + 1] & 0x0f)
  70:..\pack_unpack.c **** 		data[offset_data + 2] = ((bytes[offset_byte + 1] & 0xff) >> 4) | ((bytes[offset_byte + 2] & 0x03)
  71:..\pack_unpack.c **** 		data[offset_data + 3] = ((bytes[offset_byte + 2] & 0xff) >> 2);
  72:..\pack_unpack.c **** 	}
  73:..\pack_unpack.c **** #else
  74:..\pack_unpack.c **** #error "Unsupported SABER parameter."
  75:..\pack_unpack.c **** #endif
  76:..\pack_unpack.c **** }
  77:..\pack_unpack.c **** 
  78:..\pack_unpack.c **** static void POLq2BS(uint8_t bytes[SABER_POLYBYTES], const uint16_t data[SABER_N])
  79:..\pack_unpack.c **** {
  28              		.loc 1 79 0
  29              		.cfi_startproc
  30              		@ args = 0, pretend = 0, frame = 0
  31              		@ frame_needed = 0, uses_anonymous_args = 0
  32              	.LVL0:
  33 0000 F0B5     		push	{r4, r5, r6, r7, lr}
  34              		.cfi_def_cfa_offset 20
  35              		.cfi_offset 4, -20
ARM GAS  C:\Users\bogur\AppData\Local\Temp\ccpK1Y07.s 			page 3


  36              		.cfi_offset 5, -16
  37              		.cfi_offset 6, -12
  38              		.cfi_offset 7, -8
  39              		.cfi_offset 14, -4
  40              	.LVL1:
  80:..\pack_unpack.c **** 	size_t j, offset_byte, offset_data;
  81:..\pack_unpack.c **** 	for (j = 0; j < SABER_N / 8; j++)
  41              		.loc 1 81 0
  42 0002 0024     		movs	r4, #0
  43 0004 71E0     		b	.L2
  44              	.LVL2:
  45              	.L3:
  82:..\pack_unpack.c **** 	{
  83:..\pack_unpack.c **** 		offset_byte = 13 * j;
  46              		.loc 1 83 0 discriminator 3
  47 0006 04EB4403 		add	r3, r4, r4, lsl #1
  48 000a 04EB8303 		add	r3, r4, r3, lsl #2
  49              	.LVL3:
  84:..\pack_unpack.c **** 		offset_data = 8 * j;
  50              		.loc 1 84 0 discriminator 3
  51 000e E200     		lsls	r2, r4, #3
  52              	.LVL4:
  85:..\pack_unpack.c **** 		bytes[offset_byte + 0] = (data[offset_data + 0] & (0xff));
  53              		.loc 1 85 0 discriminator 3
  54 0010 2501     		lsls	r5, r4, #4
  55 0012 4E5B     		ldrh	r6, [r1, r5]
  56 0014 C654     		strb	r6, [r0, r3]
  86:..\pack_unpack.c **** 		bytes[offset_byte + 1] = ((data[offset_data + 0] >> 8) & 0x1f) | ((data[offset_data + 1] & 0x07) 
  57              		.loc 1 86 0 discriminator 3
  58 0016 5F1C     		adds	r7, r3, #1
  59 0018 4D5B     		ldrh	r5, [r1, r5]
  60 001a 561C     		adds	r6, r2, #1
  61 001c 31F816E0 		ldrh	lr, [r1, r6, lsl #1]
  62 0020 C5F30425 		ubfx	r5, r5, #8, #5
  63 0024 45EA4E15 		orr	r5, r5, lr, lsl #5
  64 0028 C555     		strb	r5, [r0, r7]
  87:..\pack_unpack.c **** 		bytes[offset_byte + 2] = ((data[offset_data + 1] >> 3) & 0xff);
  65              		.loc 1 87 0 discriminator 3
  66 002a 9F1C     		adds	r7, r3, #2
  67 002c 31F81650 		ldrh	r5, [r1, r6, lsl #1]
  68 0030 ED08     		lsrs	r5, r5, #3
  69 0032 C555     		strb	r5, [r0, r7]
  88:..\pack_unpack.c **** 		bytes[offset_byte + 3] = ((data[offset_data + 1] >> 11) & 0x03) | ((data[offset_data + 2] & 0x3f)
  70              		.loc 1 88 0 discriminator 3
  71 0034 DF1C     		adds	r7, r3, #3
  72 0036 31F81650 		ldrh	r5, [r1, r6, lsl #1]
  73 003a 961C     		adds	r6, r2, #2
  74 003c 31F816E0 		ldrh	lr, [r1, r6, lsl #1]
  75 0040 C5F3C125 		ubfx	r5, r5, #11, #2
  76 0044 45EA8E05 		orr	r5, r5, lr, lsl #2
  77 0048 C555     		strb	r5, [r0, r7]
  89:..\pack_unpack.c **** 		bytes[offset_byte + 4] = ((data[offset_data + 2] >> 6) & 0x7f) | ((data[offset_data + 3] & 0x01) 
  78              		.loc 1 89 0 discriminator 3
  79 004a 1F1D     		adds	r7, r3, #4
  80 004c 31F81650 		ldrh	r5, [r1, r6, lsl #1]
  81 0050 D61C     		adds	r6, r2, #3
  82 0052 31F816E0 		ldrh	lr, [r1, r6, lsl #1]
ARM GAS  C:\Users\bogur\AppData\Local\Temp\ccpK1Y07.s 			page 4


  83 0056 C5F38615 		ubfx	r5, r5, #6, #7
  84 005a 45EACE15 		orr	r5, r5, lr, lsl #7
  85 005e C555     		strb	r5, [r0, r7]
  90:..\pack_unpack.c **** 		bytes[offset_byte + 5] = ((data[offset_data + 3] >> 1) & 0xff);
  86              		.loc 1 90 0 discriminator 3
  87 0060 5F1D     		adds	r7, r3, #5
  88 0062 31F81650 		ldrh	r5, [r1, r6, lsl #1]
  89 0066 6D08     		lsrs	r5, r5, #1
  90 0068 C555     		strb	r5, [r0, r7]
  91:..\pack_unpack.c **** 		bytes[offset_byte + 6] = ((data[offset_data + 3] >> 9) & 0x0f) | ((data[offset_data + 4] & 0x0f) 
  91              		.loc 1 91 0 discriminator 3
  92 006a 9F1D     		adds	r7, r3, #6
  93 006c 31F81650 		ldrh	r5, [r1, r6, lsl #1]
  94 0070 161D     		adds	r6, r2, #4
  95 0072 31F816E0 		ldrh	lr, [r1, r6, lsl #1]
  96 0076 C5F34325 		ubfx	r5, r5, #9, #4
  97 007a 45EA0E15 		orr	r5, r5, lr, lsl #4
  98 007e C555     		strb	r5, [r0, r7]
  92:..\pack_unpack.c **** 		bytes[offset_byte + 7] = ((data[offset_data + 4] >> 4) & 0xff);
  99              		.loc 1 92 0 discriminator 3
 100 0080 DF1D     		adds	r7, r3, #7
 101 0082 31F81650 		ldrh	r5, [r1, r6, lsl #1]
 102 0086 2D09     		lsrs	r5, r5, #4
 103 0088 C555     		strb	r5, [r0, r7]
  93:..\pack_unpack.c **** 		bytes[offset_byte + 8] = ((data[offset_data + 4] >> 12) & 0x01) | ((data[offset_data + 5] & 0x7f)
 104              		.loc 1 93 0 discriminator 3
 105 008a 03F10807 		add	r7, r3, #8
 106 008e 31F81650 		ldrh	r5, [r1, r6, lsl #1]
 107 0092 561D     		adds	r6, r2, #5
 108 0094 31F816E0 		ldrh	lr, [r1, r6, lsl #1]
 109 0098 C5F30035 		ubfx	r5, r5, #12, #1
 110 009c 45EA4E05 		orr	r5, r5, lr, lsl #1
 111 00a0 C555     		strb	r5, [r0, r7]
  94:..\pack_unpack.c **** 		bytes[offset_byte + 9] = ((data[offset_data + 5] >> 7) & 0x3f) | ((data[offset_data + 6] & 0x03) 
 112              		.loc 1 94 0 discriminator 3
 113 00a2 03F10907 		add	r7, r3, #9
 114 00a6 31F81650 		ldrh	r5, [r1, r6, lsl #1]
 115 00aa 961D     		adds	r6, r2, #6
 116 00ac 31F816E0 		ldrh	lr, [r1, r6, lsl #1]
 117 00b0 C5F3C515 		ubfx	r5, r5, #7, #6
 118 00b4 45EA8E15 		orr	r5, r5, lr, lsl #6
 119 00b8 C555     		strb	r5, [r0, r7]
  95:..\pack_unpack.c **** 		bytes[offset_byte + 10] = ((data[offset_data + 6] >> 2) & 0xff);
 120              		.loc 1 95 0 discriminator 3
 121 00ba 03F10A07 		add	r7, r3, #10
 122 00be 31F81650 		ldrh	r5, [r1, r6, lsl #1]
 123 00c2 AD08     		lsrs	r5, r5, #2
 124 00c4 C555     		strb	r5, [r0, r7]
  96:..\pack_unpack.c **** 		bytes[offset_byte + 11] = ((data[offset_data + 6] >> 10) & 0x07) | ((data[offset_data + 7] & 0x1f
 125              		.loc 1 96 0 discriminator 3
 126 00c6 03F10B07 		add	r7, r3, #11
 127 00ca 31F81650 		ldrh	r5, [r1, r6, lsl #1]
 128 00ce 0732     		adds	r2, r2, #7
 129              	.LVL5:
 130 00d0 31F81260 		ldrh	r6, [r1, r2, lsl #1]
 131 00d4 C5F38225 		ubfx	r5, r5, #10, #3
 132 00d8 45EAC605 		orr	r5, r5, r6, lsl #3
ARM GAS  C:\Users\bogur\AppData\Local\Temp\ccpK1Y07.s 			page 5


 133 00dc C555     		strb	r5, [r0, r7]
  97:..\pack_unpack.c **** 		bytes[offset_byte + 12] = ((data[offset_data + 7] >> 5) & 0xff);
 134              		.loc 1 97 0 discriminator 3
 135 00de 0C33     		adds	r3, r3, #12
 136              	.LVL6:
 137 00e0 31F81220 		ldrh	r2, [r1, r2, lsl #1]
 138              	.LVL7:
 139 00e4 5209     		lsrs	r2, r2, #5
 140 00e6 C254     		strb	r2, [r0, r3]
  81:..\pack_unpack.c **** 	{
 141              		.loc 1 81 0 discriminator 3
 142 00e8 0134     		adds	r4, r4, #1
 143              	.LVL8:
 144              	.L2:
  81:..\pack_unpack.c **** 	{
 145              		.loc 1 81 0 is_stmt 0 discriminator 1
 146 00ea 1F2C     		cmp	r4, #31
 147 00ec 8BD9     		bls	.L3
  98:..\pack_unpack.c **** 	}
  99:..\pack_unpack.c **** }
 148              		.loc 1 99 0 is_stmt 1
 149 00ee F0BD     		pop	{r4, r5, r6, r7, pc}
 150              		.cfi_endproc
 151              	.LFE3:
 152              		.size	POLq2BS, .-POLq2BS
 153              		.section	.text.BS2POLq,"ax",%progbits
 154              		.align	2
 155              		.thumb
 156              		.thumb_func
 157              		.type	BS2POLq, %function
 158              	BS2POLq:
 159              	.LFB4:
 100:..\pack_unpack.c **** 
 101:..\pack_unpack.c **** static void BS2POLq(const uint8_t bytes[SABER_POLYBYTES], uint16_t data[SABER_N])
 102:..\pack_unpack.c **** {
 160              		.loc 1 102 0
 161              		.cfi_startproc
 162              		@ args = 0, pretend = 0, frame = 0
 163              		@ frame_needed = 0, uses_anonymous_args = 0
 164              	.LVL9:
 165 0000 2DE9F041 		push	{r4, r5, r6, r7, r8, lr}
 166              		.cfi_def_cfa_offset 24
 167              		.cfi_offset 4, -24
 168              		.cfi_offset 5, -20
 169              		.cfi_offset 6, -16
 170              		.cfi_offset 7, -12
 171              		.cfi_offset 8, -8
 172              		.cfi_offset 14, -4
 173              	.LVL10:
 103:..\pack_unpack.c **** 	size_t j, offset_byte, offset_data;
 104:..\pack_unpack.c **** 	for (j = 0; j < SABER_N / 8; j++)
 174              		.loc 1 104 0
 175 0004 0024     		movs	r4, #0
 176 0006 7BE0     		b	.L6
 177              	.LVL11:
 178              	.L7:
 105:..\pack_unpack.c **** 	{
ARM GAS  C:\Users\bogur\AppData\Local\Temp\ccpK1Y07.s 			page 6


 106:..\pack_unpack.c **** 		offset_byte = 13 * j;
 179              		.loc 1 106 0 discriminator 3
 180 0008 04EB4403 		add	r3, r4, r4, lsl #1
 181 000c 04EB8303 		add	r3, r4, r3, lsl #2
 182              	.LVL12:
 107:..\pack_unpack.c **** 		offset_data = 8 * j;
 183              		.loc 1 107 0 discriminator 3
 184 0010 E200     		lsls	r2, r4, #3
 185              	.LVL13:
 108:..\pack_unpack.c **** 		data[offset_data + 0] = (bytes[offset_byte + 0] & (0xff)) | ((bytes[offset_byte + 1] & 0x1f) << 8
 186              		.loc 1 108 0 discriminator 3
 187 0012 4FEA041E 		lsl	lr, r4, #4
 188 0016 C65C     		ldrb	r6, [r0, r3]	@ zero_extendqisi2
 189 0018 5F1C     		adds	r7, r3, #1
 190 001a C55D     		ldrb	r5, [r0, r7]	@ zero_extendqisi2
 191 001c 2D02     		lsls	r5, r5, #8
 192 001e 05F4F855 		and	r5, r5, #7936
 193 0022 3543     		orrs	r5, r5, r6
 194 0024 21F80E50 		strh	r5, [r1, lr]	@ movhi
 109:..\pack_unpack.c **** 		data[offset_data + 1] = (bytes[offset_byte + 1] >> 5 & (0x07)) | ((bytes[offset_byte + 2] & 0xff)
 195              		.loc 1 109 0 discriminator 3
 196 0028 02F1010C 		add	ip, r2, #1
 197 002c C75D     		ldrb	r7, [r0, r7]	@ zero_extendqisi2
 198 002e C618     		adds	r6, r0, r3
 199 0030 96F80280 		ldrb	r8, [r6, #2]	@ zero_extendqisi2
 200 0034 03F1030E 		add	lr, r3, #3
 201 0038 10F80E50 		ldrb	r5, [r0, lr]	@ zero_extendqisi2
 202 003c ED02     		lsls	r5, r5, #11
 203 003e 7F09     		lsrs	r7, r7, #5
 204 0040 47EAC807 		orr	r7, r7, r8, lsl #3
 205 0044 05F4C055 		and	r5, r5, #6144
 206 0048 3D43     		orrs	r5, r5, r7
 207 004a 21F81C50 		strh	r5, [r1, ip, lsl #1]	@ movhi
 110:..\pack_unpack.c **** 		data[offset_data + 2] = (bytes[offset_byte + 3] >> 2 & (0x3f)) | ((bytes[offset_byte + 4] & 0x7f)
 208              		.loc 1 110 0 discriminator 3
 209 004e 02F1020C 		add	ip, r2, #2
 210 0052 10F80EE0 		ldrb	lr, [r0, lr]	@ zero_extendqisi2
 211 0056 1F1D     		adds	r7, r3, #4
 212 0058 C55D     		ldrb	r5, [r0, r7]	@ zero_extendqisi2
 213 005a AD01     		lsls	r5, r5, #6
 214 005c 05F4FE55 		and	r5, r5, #8128
 215 0060 45EA9E05 		orr	r5, r5, lr, lsr #2
 216 0064 21F81C50 		strh	r5, [r1, ip, lsl #1]	@ movhi
 111:..\pack_unpack.c **** 		data[offset_data + 3] = (bytes[offset_byte + 4] >> 7 & (0x01)) | ((bytes[offset_byte + 5] & 0xff)
 217              		.loc 1 111 0 discriminator 3
 218 0068 02F1030C 		add	ip, r2, #3
 219 006c C75D     		ldrb	r7, [r0, r7]	@ zero_extendqisi2
 220 006e 96F80580 		ldrb	r8, [r6, #5]	@ zero_extendqisi2
 221 0072 03F1060E 		add	lr, r3, #6
 222 0076 10F80E50 		ldrb	r5, [r0, lr]	@ zero_extendqisi2
 223 007a 6D02     		lsls	r5, r5, #9
 224 007c FF09     		lsrs	r7, r7, #7
 225 007e 47EA4807 		orr	r7, r7, r8, lsl #1
 226 0082 05F4F055 		and	r5, r5, #7680
 227 0086 3D43     		orrs	r5, r5, r7
 228 0088 21F81C50 		strh	r5, [r1, ip, lsl #1]	@ movhi
 112:..\pack_unpack.c **** 		data[offset_data + 4] = (bytes[offset_byte + 6] >> 4 & (0x0f)) | ((bytes[offset_byte + 7] & 0xff)
ARM GAS  C:\Users\bogur\AppData\Local\Temp\ccpK1Y07.s 			page 7


 229              		.loc 1 112 0 discriminator 3
 230 008c 02F1040C 		add	ip, r2, #4
 231 0090 10F80E70 		ldrb	r7, [r0, lr]	@ zero_extendqisi2
 232 0094 96F80780 		ldrb	r8, [r6, #7]	@ zero_extendqisi2
 233 0098 03F1080E 		add	lr, r3, #8
 234 009c 10F80E50 		ldrb	r5, [r0, lr]	@ zero_extendqisi2
 235 00a0 2D03     		lsls	r5, r5, #12
 236 00a2 3F09     		lsrs	r7, r7, #4
 237 00a4 47EA0817 		orr	r7, r7, r8, lsl #4
 238 00a8 05F48055 		and	r5, r5, #4096
 239 00ac 3D43     		orrs	r5, r5, r7
 240 00ae 21F81C50 		strh	r5, [r1, ip, lsl #1]	@ movhi
 113:..\pack_unpack.c **** 		data[offset_data + 5] = (bytes[offset_byte + 8] >> 1 & (0x7f)) | ((bytes[offset_byte + 9] & 0x3f)
 241              		.loc 1 113 0 discriminator 3
 242 00b2 02F1050C 		add	ip, r2, #5
 243 00b6 10F80EE0 		ldrb	lr, [r0, lr]	@ zero_extendqisi2
 244 00ba 03F10907 		add	r7, r3, #9
 245 00be C55D     		ldrb	r5, [r0, r7]	@ zero_extendqisi2
 246 00c0 ED01     		lsls	r5, r5, #7
 247 00c2 05F4FC55 		and	r5, r5, #8064
 248 00c6 45EA5E05 		orr	r5, r5, lr, lsr #1
 249 00ca 21F81C50 		strh	r5, [r1, ip, lsl #1]	@ movhi
 114:..\pack_unpack.c **** 		data[offset_data + 6] = (bytes[offset_byte + 9] >> 6 & (0x03)) | ((bytes[offset_byte + 10] & 0xff
 250              		.loc 1 114 0 discriminator 3
 251 00ce 02F1060E 		add	lr, r2, #6
 252 00d2 C75D     		ldrb	r7, [r0, r7]	@ zero_extendqisi2
 253 00d4 96F80AC0 		ldrb	ip, [r6, #10]	@ zero_extendqisi2
 254 00d8 0B33     		adds	r3, r3, #11
 255              	.LVL14:
 256 00da C55C     		ldrb	r5, [r0, r3]	@ zero_extendqisi2
 257 00dc AD02     		lsls	r5, r5, #10
 258 00de BF09     		lsrs	r7, r7, #6
 259 00e0 47EA8C07 		orr	r7, r7, ip, lsl #2
 260 00e4 05F4E055 		and	r5, r5, #7168
 261 00e8 3D43     		orrs	r5, r5, r7
 262 00ea 21F81E50 		strh	r5, [r1, lr, lsl #1]	@ movhi
 115:..\pack_unpack.c **** 		data[offset_data + 7] = (bytes[offset_byte + 11] >> 3 & (0x1f)) | ((bytes[offset_byte + 12] & 0xf
 263              		.loc 1 115 0 discriminator 3
 264 00ee 0732     		adds	r2, r2, #7
 265              	.LVL15:
 266 00f0 C35C     		ldrb	r3, [r0, r3]	@ zero_extendqisi2
 267              	.LVL16:
 268 00f2 357B     		ldrb	r5, [r6, #12]	@ zero_extendqisi2
 269 00f4 DB08     		lsrs	r3, r3, #3
 270 00f6 43EA4513 		orr	r3, r3, r5, lsl #5
 271 00fa 21F81230 		strh	r3, [r1, r2, lsl #1]	@ movhi
 104:..\pack_unpack.c **** 	{
 272              		.loc 1 104 0 discriminator 3
 273 00fe 0134     		adds	r4, r4, #1
 274              	.LVL17:
 275              	.L6:
 104:..\pack_unpack.c **** 	{
 276              		.loc 1 104 0 is_stmt 0 discriminator 1
 277 0100 1F2C     		cmp	r4, #31
 278 0102 81D9     		bls	.L7
 116:..\pack_unpack.c **** 	}
 117:..\pack_unpack.c **** }
ARM GAS  C:\Users\bogur\AppData\Local\Temp\ccpK1Y07.s 			page 8


 279              		.loc 1 117 0 is_stmt 1
 280 0104 BDE8F081 		pop	{r4, r5, r6, r7, r8, pc}
 281              		.cfi_endproc
 282              	.LFE4:
 283              		.size	BS2POLq, .-BS2POLq
 284              		.section	.text.POLp2BS,"ax",%progbits
 285              		.align	2
 286              		.thumb
 287              		.thumb_func
 288              		.type	POLp2BS, %function
 289              	POLp2BS:
 290              	.LFB5:
 118:..\pack_unpack.c **** 
 119:..\pack_unpack.c **** static void POLp2BS(uint8_t bytes[SABER_POLYCOMPRESSEDBYTES], const uint16_t data[SABER_N])
 120:..\pack_unpack.c **** {
 291              		.loc 1 120 0
 292              		.cfi_startproc
 293              		@ args = 0, pretend = 0, frame = 0
 294              		@ frame_needed = 0, uses_anonymous_args = 0
 295              	.LVL18:
 296 0000 F0B5     		push	{r4, r5, r6, r7, lr}
 297              		.cfi_def_cfa_offset 20
 298              		.cfi_offset 4, -20
 299              		.cfi_offset 5, -16
 300              		.cfi_offset 6, -12
 301              		.cfi_offset 7, -8
 302              		.cfi_offset 14, -4
 303              	.LVL19:
 121:..\pack_unpack.c **** 	size_t j, offset_byte, offset_data;
 122:..\pack_unpack.c **** 	for (j = 0; j < SABER_N / 4; j++)
 304              		.loc 1 122 0
 305 0002 0024     		movs	r4, #0
 306 0004 2BE0     		b	.L10
 307              	.LVL20:
 308              	.L11:
 123:..\pack_unpack.c **** 	{
 124:..\pack_unpack.c **** 		offset_byte = 5 * j;
 309              		.loc 1 124 0 discriminator 3
 310 0006 A200     		lsls	r2, r4, #2
 311 0008 1319     		adds	r3, r2, r4
 312              	.LVL21:
 125:..\pack_unpack.c **** 		offset_data = 4 * j;
 126:..\pack_unpack.c **** 		bytes[offset_byte + 0] = (data[offset_data + 0] & (0xff));
 313              		.loc 1 126 0 discriminator 3
 314 000a 31F83450 		ldrh	r5, [r1, r4, lsl #3]
 315 000e C554     		strb	r5, [r0, r3]
 127:..\pack_unpack.c **** 		bytes[offset_byte + 1] = ((data[offset_data + 0] >> 8) & 0x03) | ((data[offset_data + 1] & 0x3f) 
 316              		.loc 1 127 0 discriminator 3
 317 0010 5F1C     		adds	r7, r3, #1
 318 0012 31F83450 		ldrh	r5, [r1, r4, lsl #3]
 319 0016 561C     		adds	r6, r2, #1
 320 0018 31F816E0 		ldrh	lr, [r1, r6, lsl #1]
 321 001c C5F30125 		ubfx	r5, r5, #8, #2
 322 0020 45EA8E05 		orr	r5, r5, lr, lsl #2
 323 0024 C555     		strb	r5, [r0, r7]
 128:..\pack_unpack.c **** 		bytes[offset_byte + 2] = ((data[offset_data + 1] >> 6) & 0x0f) | ((data[offset_data + 2] & 0x0f) 
 324              		.loc 1 128 0 discriminator 3
ARM GAS  C:\Users\bogur\AppData\Local\Temp\ccpK1Y07.s 			page 9


 325 0026 9F1C     		adds	r7, r3, #2
 326 0028 31F81650 		ldrh	r5, [r1, r6, lsl #1]
 327 002c 961C     		adds	r6, r2, #2
 328 002e 31F816E0 		ldrh	lr, [r1, r6, lsl #1]
 329 0032 C5F38315 		ubfx	r5, r5, #6, #4
 330 0036 45EA0E15 		orr	r5, r5, lr, lsl #4
 331 003a C555     		strb	r5, [r0, r7]
 129:..\pack_unpack.c **** 		bytes[offset_byte + 3] = ((data[offset_data + 2] >> 4) & 0x3f) | ((data[offset_data + 3] & 0x03) 
 332              		.loc 1 129 0 discriminator 3
 333 003c DF1C     		adds	r7, r3, #3
 334 003e 31F81650 		ldrh	r5, [r1, r6, lsl #1]
 335 0042 0332     		adds	r2, r2, #3
 336              	.LVL22:
 337 0044 31F81260 		ldrh	r6, [r1, r2, lsl #1]
 338 0048 C5F30515 		ubfx	r5, r5, #4, #6
 339 004c 45EA8615 		orr	r5, r5, r6, lsl #6
 340 0050 C555     		strb	r5, [r0, r7]
 130:..\pack_unpack.c **** 		bytes[offset_byte + 4] = ((data[offset_data + 3] >> 2) & 0xff);
 341              		.loc 1 130 0 discriminator 3
 342 0052 0433     		adds	r3, r3, #4
 343              	.LVL23:
 344 0054 31F81220 		ldrh	r2, [r1, r2, lsl #1]
 345              	.LVL24:
 346 0058 9208     		lsrs	r2, r2, #2
 347 005a C254     		strb	r2, [r0, r3]
 122:..\pack_unpack.c **** 	{
 348              		.loc 1 122 0 discriminator 3
 349 005c 0134     		adds	r4, r4, #1
 350              	.LVL25:
 351              	.L10:
 122:..\pack_unpack.c **** 	{
 352              		.loc 1 122 0 is_stmt 0 discriminator 1
 353 005e 3F2C     		cmp	r4, #63
 354 0060 D1D9     		bls	.L11
 131:..\pack_unpack.c **** 	}
 132:..\pack_unpack.c **** }
 355              		.loc 1 132 0 is_stmt 1
 356 0062 F0BD     		pop	{r4, r5, r6, r7, pc}
 357              		.cfi_endproc
 358              	.LFE5:
 359              		.size	POLp2BS, .-POLp2BS
 360              		.section	.text.BS2POLp,"ax",%progbits
 361              		.align	2
 362              		.thumb
 363              		.thumb_func
 364              		.type	BS2POLp, %function
 365              	BS2POLp:
 366              	.LFB6:
 133:..\pack_unpack.c **** 
 134:..\pack_unpack.c **** static void BS2POLp(const uint8_t bytes[SABER_POLYCOMPRESSEDBYTES], uint16_t data[SABER_N])
 135:..\pack_unpack.c **** {
 367              		.loc 1 135 0
 368              		.cfi_startproc
 369              		@ args = 0, pretend = 0, frame = 0
 370              		@ frame_needed = 0, uses_anonymous_args = 0
 371              	.LVL26:
 372 0000 F0B5     		push	{r4, r5, r6, r7, lr}
ARM GAS  C:\Users\bogur\AppData\Local\Temp\ccpK1Y07.s 			page 10


 373              		.cfi_def_cfa_offset 20
 374              		.cfi_offset 4, -20
 375              		.cfi_offset 5, -16
 376              		.cfi_offset 6, -12
 377              		.cfi_offset 7, -8
 378              		.cfi_offset 14, -4
 379              	.LVL27:
 136:..\pack_unpack.c **** 	size_t j, offset_byte, offset_data;
 137:..\pack_unpack.c **** 	for (j = 0; j < SABER_N / 4; j++)
 380              		.loc 1 137 0
 381 0002 0025     		movs	r5, #0
 382 0004 2CE0     		b	.L14
 383              	.LVL28:
 384              	.L15:
 138:..\pack_unpack.c **** 	{
 139:..\pack_unpack.c **** 		offset_byte = 5 * j;
 385              		.loc 1 139 0 discriminator 3
 386 0006 AC00     		lsls	r4, r5, #2
 387 0008 6319     		adds	r3, r4, r5
 388              	.LVL29:
 140:..\pack_unpack.c **** 		offset_data = 4 * j;
 141:..\pack_unpack.c **** 		data[offset_data + 0] = (bytes[offset_byte + 0] & (0xff)) | ((bytes[offset_byte + 1] & 0x03) << 8
 389              		.loc 1 141 0 discriminator 3
 390 000a C65C     		ldrb	r6, [r0, r3]	@ zero_extendqisi2
 391 000c 5F1C     		adds	r7, r3, #1
 392 000e C25D     		ldrb	r2, [r0, r7]	@ zero_extendqisi2
 393 0010 1202     		lsls	r2, r2, #8
 394 0012 02F44072 		and	r2, r2, #768
 395 0016 3243     		orrs	r2, r2, r6
 396 0018 21F83520 		strh	r2, [r1, r5, lsl #3]	@ movhi
 142:..\pack_unpack.c **** 		data[offset_data + 1] = ((bytes[offset_byte + 1] >> 2) & (0x3f)) | ((bytes[offset_byte + 2] & 0x0
 397              		.loc 1 142 0 discriminator 3
 398 001c 04F1010E 		add	lr, r4, #1
 399 0020 C75D     		ldrb	r7, [r0, r7]	@ zero_extendqisi2
 400 0022 9E1C     		adds	r6, r3, #2
 401 0024 825D     		ldrb	r2, [r0, r6]	@ zero_extendqisi2
 402 0026 9201     		lsls	r2, r2, #6
 403 0028 02F47072 		and	r2, r2, #960
 404 002c 42EA9702 		orr	r2, r2, r7, lsr #2
 405 0030 21F81E20 		strh	r2, [r1, lr, lsl #1]	@ movhi
 143:..\pack_unpack.c **** 		data[offset_data + 2] = ((bytes[offset_byte + 2] >> 4) & (0x0f)) | ((bytes[offset_byte + 3] & 0x3
 406              		.loc 1 143 0 discriminator 3
 407 0034 A71C     		adds	r7, r4, #2
 408 0036 10F806E0 		ldrb	lr, [r0, r6]	@ zero_extendqisi2
 409 003a DE1C     		adds	r6, r3, #3
 410 003c 825D     		ldrb	r2, [r0, r6]	@ zero_extendqisi2
 411 003e 1201     		lsls	r2, r2, #4
 412 0040 02F47C72 		and	r2, r2, #1008
 413 0044 42EA1E12 		orr	r2, r2, lr, lsr #4
 414 0048 21F81720 		strh	r2, [r1, r7, lsl #1]	@ movhi
 144:..\pack_unpack.c **** 		data[offset_data + 3] = ((bytes[offset_byte + 3] >> 6) & (0x03)) | ((bytes[offset_byte + 4] & 0xf
 415              		.loc 1 144 0 discriminator 3
 416 004c 0334     		adds	r4, r4, #3
 417              	.LVL30:
 418 004e 825D     		ldrb	r2, [r0, r6]	@ zero_extendqisi2
 419 0050 0344     		add	r3, r3, r0
 420              	.LVL31:
ARM GAS  C:\Users\bogur\AppData\Local\Temp\ccpK1Y07.s 			page 11


 421 0052 1E79     		ldrb	r6, [r3, #4]	@ zero_extendqisi2
 422              	.LVL32:
 423 0054 9309     		lsrs	r3, r2, #6
 424 0056 43EA8603 		orr	r3, r3, r6, lsl #2
 425 005a 21F81430 		strh	r3, [r1, r4, lsl #1]	@ movhi
 137:..\pack_unpack.c **** 	{
 426              		.loc 1 137 0 discriminator 3
 427 005e 0135     		adds	r5, r5, #1
 428              	.LVL33:
 429              	.L14:
 137:..\pack_unpack.c **** 	{
 430              		.loc 1 137 0 is_stmt 0 discriminator 1
 431 0060 3F2D     		cmp	r5, #63
 432 0062 D0D9     		bls	.L15
 145:..\pack_unpack.c **** 	}
 146:..\pack_unpack.c **** }
 433              		.loc 1 146 0 is_stmt 1
 434 0064 F0BD     		pop	{r4, r5, r6, r7, pc}
 435              		.cfi_endproc
 436              	.LFE6:
 437              		.size	BS2POLp, .-BS2POLp
 438 0066 00BF     		.section	.text.POLT2BS,"ax",%progbits
 439              		.align	2
 440              		.global	POLT2BS
 441              		.thumb
 442              		.thumb_func
 443              		.type	POLT2BS, %function
 444              	POLT2BS:
 445              	.LFB1:
   6:..\pack_unpack.c **** 	size_t j, offset_byte, offset_data;
 446              		.loc 1 6 0
 447              		.cfi_startproc
 448              		@ args = 0, pretend = 0, frame = 0
 449              		@ frame_needed = 0, uses_anonymous_args = 0
 450              	.LVL34:
 451 0000 F0B5     		push	{r4, r5, r6, r7, lr}
 452              		.cfi_def_cfa_offset 20
 453              		.cfi_offset 4, -20
 454              		.cfi_offset 5, -16
 455              		.cfi_offset 6, -12
 456              		.cfi_offset 7, -8
 457              		.cfi_offset 14, -4
 458              	.LVL35:
  25:..\pack_unpack.c **** 	{
 459              		.loc 1 25 0
 460 0002 0022     		movs	r2, #0
 461 0004 23E0     		b	.L18
 462              	.LVL36:
 463              	.L19:
  27:..\pack_unpack.c **** 		offset_data = 4 * j;
 464              		.loc 1 27 0 discriminator 3
 465 0006 02EB4204 		add	r4, r2, r2, lsl #1
 466              	.LVL37:
  28:..\pack_unpack.c **** 		bytes[offset_byte + 0] = (data[offset_data + 0] & 0x3f) | ((data[offset_data + 1] & 0x03) << 6);
 467              		.loc 1 28 0 discriminator 3
 468 000a 9300     		lsls	r3, r2, #2
 469              	.LVL38:
ARM GAS  C:\Users\bogur\AppData\Local\Temp\ccpK1Y07.s 			page 12


  29:..\pack_unpack.c **** 		bytes[offset_byte + 1] = ((data[offset_data + 1] >> 2) & 0x0f) | ((data[offset_data + 2] & 0x0f) 
 470              		.loc 1 29 0 discriminator 3
 471 000c 31F81350 		ldrh	r5, [r1, r3, lsl #1]
 472 0010 5E1C     		adds	r6, r3, #1
 473 0012 31F81670 		ldrh	r7, [r1, r6, lsl #1]
 474 0016 05F03F05 		and	r5, r5, #63
 475 001a 45EA8715 		orr	r5, r5, r7, lsl #6
 476 001e 0555     		strb	r5, [r0, r4]
  30:..\pack_unpack.c **** 		bytes[offset_byte + 2] = ((data[offset_data + 2] >> 4) & 0x03) | ((data[offset_data + 3] & 0x3f) 
 477              		.loc 1 30 0 discriminator 3
 478 0020 671C     		adds	r7, r4, #1
 479 0022 31F81650 		ldrh	r5, [r1, r6, lsl #1]
 480 0026 9E1C     		adds	r6, r3, #2
 481 0028 31F816E0 		ldrh	lr, [r1, r6, lsl #1]
 482 002c C5F38305 		ubfx	r5, r5, #2, #4
 483 0030 45EA0E15 		orr	r5, r5, lr, lsl #4
 484 0034 C555     		strb	r5, [r0, r7]
  31:..\pack_unpack.c **** 	}
 485              		.loc 1 31 0 discriminator 3
 486 0036 0234     		adds	r4, r4, #2
 487              	.LVL39:
 488 0038 31F81650 		ldrh	r5, [r1, r6, lsl #1]
 489 003c 0333     		adds	r3, r3, #3
 490              	.LVL40:
 491 003e 31F81360 		ldrh	r6, [r1, r3, lsl #1]
 492 0042 C5F30113 		ubfx	r3, r5, #4, #2
 493              	.LVL41:
 494 0046 43EA8603 		orr	r3, r3, r6, lsl #2
 495 004a 0355     		strb	r3, [r0, r4]
  25:..\pack_unpack.c **** 	{
 496              		.loc 1 25 0 discriminator 3
 497 004c 0132     		adds	r2, r2, #1
 498              	.LVL42:
 499              	.L18:
  25:..\pack_unpack.c **** 	{
 500              		.loc 1 25 0 is_stmt 0 discriminator 1
 501 004e 3F2A     		cmp	r2, #63
 502 0050 D9D9     		bls	.L19
  36:..\pack_unpack.c **** 
 503              		.loc 1 36 0 is_stmt 1
 504 0052 F0BD     		pop	{r4, r5, r6, r7, pc}
 505              		.cfi_endproc
 506              	.LFE1:
 507              		.size	POLT2BS, .-POLT2BS
 508              		.section	.text.BS2POLT,"ax",%progbits
 509              		.align	2
 510              		.global	BS2POLT
 511              		.thumb
 512              		.thumb_func
 513              		.type	BS2POLT, %function
 514              	BS2POLT:
 515              	.LFB2:
  39:..\pack_unpack.c **** 	size_t j, offset_byte, offset_data;
 516              		.loc 1 39 0
 517              		.cfi_startproc
 518              		@ args = 0, pretend = 0, frame = 0
 519              		@ frame_needed = 0, uses_anonymous_args = 0
ARM GAS  C:\Users\bogur\AppData\Local\Temp\ccpK1Y07.s 			page 13


 520              	.LVL43:
 521 0000 F0B5     		push	{r4, r5, r6, r7, lr}
 522              		.cfi_def_cfa_offset 20
 523              		.cfi_offset 4, -20
 524              		.cfi_offset 5, -16
 525              		.cfi_offset 6, -12
 526              		.cfi_offset 7, -8
 527              		.cfi_offset 14, -4
 528              	.LVL44:
  64:..\pack_unpack.c **** 	{
 529              		.loc 1 64 0
 530 0002 0024     		movs	r4, #0
 531 0004 24E0     		b	.L22
 532              	.LVL45:
 533              	.L23:
  66:..\pack_unpack.c **** 		offset_data = 4 * j;
 534              		.loc 1 66 0 discriminator 3
 535 0006 04EB4403 		add	r3, r4, r4, lsl #1
 536              	.LVL46:
  67:..\pack_unpack.c **** 		data[offset_data + 0] = bytes[offset_byte + 0] & 0x3f;
 537              		.loc 1 67 0 discriminator 3
 538 000a A500     		lsls	r5, r4, #2
 539              	.LVL47:
  68:..\pack_unpack.c **** 		data[offset_data + 1] = ((bytes[offset_byte + 0] >> 6) & 0x03) | ((bytes[offset_byte + 1] & 0x0f)
 540              		.loc 1 68 0 discriminator 3
 541 000c C25C     		ldrb	r2, [r0, r3]	@ zero_extendqisi2
 542 000e 02F03F02 		and	r2, r2, #63
 543 0012 21F83420 		strh	r2, [r1, r4, lsl #3]	@ movhi
  69:..\pack_unpack.c **** 		data[offset_data + 2] = ((bytes[offset_byte + 1] & 0xff) >> 4) | ((bytes[offset_byte + 2] & 0x03)
 544              		.loc 1 69 0 discriminator 3
 545 0016 6F1C     		adds	r7, r5, #1
 546 0018 10F803E0 		ldrb	lr, [r0, r3]	@ zero_extendqisi2
 547 001c 5E1C     		adds	r6, r3, #1
 548 001e 825D     		ldrb	r2, [r0, r6]	@ zero_extendqisi2
 549 0020 9200     		lsls	r2, r2, #2
 550 0022 02F03C02 		and	r2, r2, #60
 551 0026 42EA9E12 		orr	r2, r2, lr, lsr #6
 552 002a 21F81720 		strh	r2, [r1, r7, lsl #1]	@ movhi
  70:..\pack_unpack.c **** 		data[offset_data + 3] = ((bytes[offset_byte + 2] & 0xff) >> 2);
 553              		.loc 1 70 0 discriminator 3
 554 002e AF1C     		adds	r7, r5, #2
 555 0030 865D     		ldrb	r6, [r0, r6]	@ zero_extendqisi2
 556 0032 0233     		adds	r3, r3, #2
 557              	.LVL48:
 558 0034 C25C     		ldrb	r2, [r0, r3]	@ zero_extendqisi2
 559 0036 1201     		lsls	r2, r2, #4
 560 0038 02F03002 		and	r2, r2, #48
 561 003c 42EA1612 		orr	r2, r2, r6, lsr #4
 562 0040 21F81720 		strh	r2, [r1, r7, lsl #1]	@ movhi
  71:..\pack_unpack.c **** 	}
 563              		.loc 1 71 0 discriminator 3
 564 0044 0335     		adds	r5, r5, #3
 565              	.LVL49:
 566 0046 C35C     		ldrb	r3, [r0, r3]	@ zero_extendqisi2
 567              	.LVL50:
 568 0048 9B08     		lsrs	r3, r3, #2
 569 004a 21F81530 		strh	r3, [r1, r5, lsl #1]	@ movhi
ARM GAS  C:\Users\bogur\AppData\Local\Temp\ccpK1Y07.s 			page 14


  64:..\pack_unpack.c **** 	{
 570              		.loc 1 64 0 discriminator 3
 571 004e 0134     		adds	r4, r4, #1
 572              	.LVL51:
 573              	.L22:
  64:..\pack_unpack.c **** 	{
 574              		.loc 1 64 0 is_stmt 0 discriminator 1
 575 0050 3F2C     		cmp	r4, #63
 576 0052 D8D9     		bls	.L23
  76:..\pack_unpack.c **** 
 577              		.loc 1 76 0 is_stmt 1
 578 0054 F0BD     		pop	{r4, r5, r6, r7, pc}
 579              		.cfi_endproc
 580              	.LFE2:
 581              		.size	BS2POLT, .-BS2POLT
 582 0056 00BF     		.section	.text.POLVECq2BS,"ax",%progbits
 583              		.align	2
 584              		.global	POLVECq2BS
 585              		.thumb
 586              		.thumb_func
 587              		.type	POLVECq2BS, %function
 588              	POLVECq2BS:
 589              	.LFB7:
 147:..\pack_unpack.c **** 
 148:..\pack_unpack.c **** void POLVECq2BS(uint8_t bytes[SABER_POLYVECBYTES], const uint16_t data[SABER_L][SABER_N])
 149:..\pack_unpack.c **** {
 590              		.loc 1 149 0
 591              		.cfi_startproc
 592              		@ args = 0, pretend = 0, frame = 0
 593              		@ frame_needed = 0, uses_anonymous_args = 0
 594              	.LVL52:
 595 0000 70B5     		push	{r4, r5, r6, lr}
 596              		.cfi_def_cfa_offset 16
 597              		.cfi_offset 4, -16
 598              		.cfi_offset 5, -12
 599              		.cfi_offset 6, -8
 600              		.cfi_offset 14, -4
 601 0002 0646     		mov	r6, r0
 602 0004 0D46     		mov	r5, r1
 603              	.LVL53:
 150:..\pack_unpack.c **** 	size_t i;
 151:..\pack_unpack.c **** 	for (i = 0; i < SABER_L; i++)
 604              		.loc 1 151 0
 605 0006 0024     		movs	r4, #0
 606 0008 08E0     		b	.L26
 607              	.LVL54:
 608              	.L27:
 152:..\pack_unpack.c **** 	{
 153:..\pack_unpack.c **** 		POLq2BS(bytes + i * SABER_POLYBYTES, data[i]);
 609              		.loc 1 153 0 discriminator 3
 610 000a 05EB4421 		add	r1, r5, r4, lsl #9
 611 000e 4FF4D070 		mov	r0, #416
 612 0012 00FB0460 		mla	r0, r0, r4, r6
 613 0016 FFF7FEFF 		bl	POLq2BS
 614              	.LVL55:
 151:..\pack_unpack.c **** 	{
 615              		.loc 1 151 0 discriminator 3
ARM GAS  C:\Users\bogur\AppData\Local\Temp\ccpK1Y07.s 			page 15


 616 001a 0134     		adds	r4, r4, #1
 617              	.LVL56:
 618              	.L26:
 151:..\pack_unpack.c **** 	{
 619              		.loc 1 151 0 is_stmt 0 discriminator 1
 620 001c 032C     		cmp	r4, #3
 621 001e F4D9     		bls	.L27
 154:..\pack_unpack.c **** 	}
 155:..\pack_unpack.c **** }
 622              		.loc 1 155 0 is_stmt 1
 623 0020 70BD     		pop	{r4, r5, r6, pc}
 624              		.cfi_endproc
 625              	.LFE7:
 626              		.size	POLVECq2BS, .-POLVECq2BS
 627 0022 00BF     		.section	.text.BS2POLVECq,"ax",%progbits
 628              		.align	2
 629              		.global	BS2POLVECq
 630              		.thumb
 631              		.thumb_func
 632              		.type	BS2POLVECq, %function
 633              	BS2POLVECq:
 634              	.LFB8:
 156:..\pack_unpack.c **** 
 157:..\pack_unpack.c **** void BS2POLVECq(const uint8_t bytes[SABER_POLYVECBYTES], uint16_t data[SABER_L][SABER_N])
 158:..\pack_unpack.c **** {
 635              		.loc 1 158 0
 636              		.cfi_startproc
 637              		@ args = 0, pretend = 0, frame = 0
 638              		@ frame_needed = 0, uses_anonymous_args = 0
 639              	.LVL57:
 640 0000 70B5     		push	{r4, r5, r6, lr}
 641              		.cfi_def_cfa_offset 16
 642              		.cfi_offset 4, -16
 643              		.cfi_offset 5, -12
 644              		.cfi_offset 6, -8
 645              		.cfi_offset 14, -4
 646 0002 0646     		mov	r6, r0
 647 0004 0D46     		mov	r5, r1
 648              	.LVL58:
 159:..\pack_unpack.c **** 	size_t i;
 160:..\pack_unpack.c **** 	for (i = 0; i < SABER_L; i++)
 649              		.loc 1 160 0
 650 0006 0024     		movs	r4, #0
 651 0008 08E0     		b	.L30
 652              	.LVL59:
 653              	.L31:
 161:..\pack_unpack.c **** 	{
 162:..\pack_unpack.c **** 		BS2POLq(bytes + i * SABER_POLYBYTES, data[i]);
 654              		.loc 1 162 0 discriminator 3
 655 000a 05EB4421 		add	r1, r5, r4, lsl #9
 656 000e 4FF4D070 		mov	r0, #416
 657 0012 00FB0460 		mla	r0, r0, r4, r6
 658 0016 FFF7FEFF 		bl	BS2POLq
 659              	.LVL60:
 160:..\pack_unpack.c **** 	{
 660              		.loc 1 160 0 discriminator 3
 661 001a 0134     		adds	r4, r4, #1
ARM GAS  C:\Users\bogur\AppData\Local\Temp\ccpK1Y07.s 			page 16


 662              	.LVL61:
 663              	.L30:
 160:..\pack_unpack.c **** 	{
 664              		.loc 1 160 0 is_stmt 0 discriminator 1
 665 001c 032C     		cmp	r4, #3
 666 001e F4D9     		bls	.L31
 163:..\pack_unpack.c **** 	}
 164:..\pack_unpack.c **** }
 667              		.loc 1 164 0 is_stmt 1
 668 0020 70BD     		pop	{r4, r5, r6, pc}
 669              		.cfi_endproc
 670              	.LFE8:
 671              		.size	BS2POLVECq, .-BS2POLVECq
 672 0022 00BF     		.section	.text.POLVECp2BS,"ax",%progbits
 673              		.align	2
 674              		.global	POLVECp2BS
 675              		.thumb
 676              		.thumb_func
 677              		.type	POLVECp2BS, %function
 678              	POLVECp2BS:
 679              	.LFB9:
 165:..\pack_unpack.c **** 
 166:..\pack_unpack.c **** void POLVECp2BS(uint8_t bytes[SABER_POLYVECCOMPRESSEDBYTES], const uint16_t data[SABER_L][SABER_N])
 167:..\pack_unpack.c **** {
 680              		.loc 1 167 0
 681              		.cfi_startproc
 682              		@ args = 0, pretend = 0, frame = 0
 683              		@ frame_needed = 0, uses_anonymous_args = 0
 684              	.LVL62:
 685 0000 70B5     		push	{r4, r5, r6, lr}
 686              		.cfi_def_cfa_offset 16
 687              		.cfi_offset 4, -16
 688              		.cfi_offset 5, -12
 689              		.cfi_offset 6, -8
 690              		.cfi_offset 14, -4
 691 0002 0646     		mov	r6, r0
 692 0004 0D46     		mov	r5, r1
 693              	.LVL63:
 168:..\pack_unpack.c **** 	size_t i;
 169:..\pack_unpack.c **** 	for (i = 0; i < SABER_L; i++)
 694              		.loc 1 169 0
 695 0006 0024     		movs	r4, #0
 696 0008 08E0     		b	.L34
 697              	.LVL64:
 698              	.L35:
 170:..\pack_unpack.c **** 	{
 171:..\pack_unpack.c **** 		POLp2BS(bytes + i * (SABER_EP * SABER_N / 8), data[i]);
 699              		.loc 1 171 0 discriminator 3
 700 000a 04EB8403 		add	r3, r4, r4, lsl #2
 701 000e 9801     		lsls	r0, r3, #6
 702 0010 05EB4421 		add	r1, r5, r4, lsl #9
 703 0014 3044     		add	r0, r0, r6
 704 0016 FFF7FEFF 		bl	POLp2BS
 705              	.LVL65:
 169:..\pack_unpack.c **** 	{
 706              		.loc 1 169 0 discriminator 3
 707 001a 0134     		adds	r4, r4, #1
ARM GAS  C:\Users\bogur\AppData\Local\Temp\ccpK1Y07.s 			page 17


 708              	.LVL66:
 709              	.L34:
 169:..\pack_unpack.c **** 	{
 710              		.loc 1 169 0 is_stmt 0 discriminator 1
 711 001c 032C     		cmp	r4, #3
 712 001e F4D9     		bls	.L35
 172:..\pack_unpack.c **** 	}
 173:..\pack_unpack.c **** }
 713              		.loc 1 173 0 is_stmt 1
 714 0020 70BD     		pop	{r4, r5, r6, pc}
 715              		.cfi_endproc
 716              	.LFE9:
 717              		.size	POLVECp2BS, .-POLVECp2BS
 718 0022 00BF     		.section	.text.BS2POLVECp,"ax",%progbits
 719              		.align	2
 720              		.global	BS2POLVECp
 721              		.thumb
 722              		.thumb_func
 723              		.type	BS2POLVECp, %function
 724              	BS2POLVECp:
 725              	.LFB10:
 174:..\pack_unpack.c **** 
 175:..\pack_unpack.c **** void BS2POLVECp(const uint8_t bytes[SABER_POLYVECCOMPRESSEDBYTES], uint16_t data[SABER_L][SABER_N])
 176:..\pack_unpack.c **** {
 726              		.loc 1 176 0
 727              		.cfi_startproc
 728              		@ args = 0, pretend = 0, frame = 0
 729              		@ frame_needed = 0, uses_anonymous_args = 0
 730              	.LVL67:
 731 0000 70B5     		push	{r4, r5, r6, lr}
 732              		.cfi_def_cfa_offset 16
 733              		.cfi_offset 4, -16
 734              		.cfi_offset 5, -12
 735              		.cfi_offset 6, -8
 736              		.cfi_offset 14, -4
 737 0002 0646     		mov	r6, r0
 738 0004 0D46     		mov	r5, r1
 739              	.LVL68:
 177:..\pack_unpack.c **** 	size_t i;
 178:..\pack_unpack.c **** 	for (i = 0; i < SABER_L; i++)
 740              		.loc 1 178 0
 741 0006 0024     		movs	r4, #0
 742 0008 08E0     		b	.L38
 743              	.LVL69:
 744              	.L39:
 179:..\pack_unpack.c **** 	{
 180:..\pack_unpack.c **** 		BS2POLp(bytes + i * (SABER_EP * SABER_N / 8), data[i]);
 745              		.loc 1 180 0 discriminator 3
 746 000a 04EB8403 		add	r3, r4, r4, lsl #2
 747 000e 9801     		lsls	r0, r3, #6
 748 0010 05EB4421 		add	r1, r5, r4, lsl #9
 749 0014 3044     		add	r0, r0, r6
 750 0016 FFF7FEFF 		bl	BS2POLp
 751              	.LVL70:
 178:..\pack_unpack.c **** 	{
 752              		.loc 1 178 0 discriminator 3
 753 001a 0134     		adds	r4, r4, #1
ARM GAS  C:\Users\bogur\AppData\Local\Temp\ccpK1Y07.s 			page 18


 754              	.LVL71:
 755              	.L38:
 178:..\pack_unpack.c **** 	{
 756              		.loc 1 178 0 is_stmt 0 discriminator 1
 757 001c 032C     		cmp	r4, #3
 758 001e F4D9     		bls	.L39
 181:..\pack_unpack.c **** 	}
 182:..\pack_unpack.c **** }
 759              		.loc 1 182 0 is_stmt 1
 760 0020 70BD     		pop	{r4, r5, r6, pc}
 761              		.cfi_endproc
 762              	.LFE10:
 763              		.size	BS2POLVECp, .-BS2POLVECp
 764 0022 00BF     		.section	.text.BS2POLmsg,"ax",%progbits
 765              		.align	2
 766              		.global	BS2POLmsg
 767              		.thumb
 768              		.thumb_func
 769              		.type	BS2POLmsg, %function
 770              	BS2POLmsg:
 771              	.LFB11:
 183:..\pack_unpack.c **** 
 184:..\pack_unpack.c **** void BS2POLmsg(const uint8_t bytes[SABER_KEYBYTES], uint16_t data[SABER_N])
 185:..\pack_unpack.c **** {
 772              		.loc 1 185 0
 773              		.cfi_startproc
 774              		@ args = 0, pretend = 0, frame = 0
 775              		@ frame_needed = 0, uses_anonymous_args = 0
 776              		@ link register save eliminated.
 777              	.LVL72:
 778 0000 30B4     		push	{r4, r5}
 779              		.cfi_def_cfa_offset 8
 780              		.cfi_offset 4, -8
 781              		.cfi_offset 5, -4
 782              	.LVL73:
 186:..\pack_unpack.c **** 	size_t i, j;
 187:..\pack_unpack.c **** 	for (j = 0; j < SABER_KEYBYTES; j++)
 783              		.loc 1 187 0
 784 0002 0024     		movs	r4, #0
 785 0004 0DE0     		b	.L42
 786              	.LVL74:
 787              	.L43:
 188:..\pack_unpack.c **** 	{
 189:..\pack_unpack.c **** 		for (i = 0; i < 8; i++)
 190:..\pack_unpack.c **** 		{
 191:..\pack_unpack.c **** 			data[j * 8 + i] = ((bytes[j] >> i) & 0x01);
 788              		.loc 1 191 0 discriminator 3
 789 0006 02EBC405 		add	r5, r2, r4, lsl #3
 790 000a 035D     		ldrb	r3, [r0, r4]	@ zero_extendqisi2
 791 000c 1341     		asrs	r3, r3, r2
 792 000e 03F00103 		and	r3, r3, #1
 793 0012 21F81530 		strh	r3, [r1, r5, lsl #1]	@ movhi
 189:..\pack_unpack.c **** 		{
 794              		.loc 1 189 0 discriminator 3
 795 0016 0132     		adds	r2, r2, #1
 796              	.LVL75:
 797 0018 00E0     		b	.L44
ARM GAS  C:\Users\bogur\AppData\Local\Temp\ccpK1Y07.s 			page 19


 798              	.LVL76:
 799              	.L45:
 800 001a 0022     		movs	r2, #0
 801              	.L44:
 802              	.LVL77:
 189:..\pack_unpack.c **** 		{
 803              		.loc 1 189 0 is_stmt 0 discriminator 1
 804 001c 072A     		cmp	r2, #7
 805 001e F2D9     		bls	.L43
 187:..\pack_unpack.c **** 	{
 806              		.loc 1 187 0 is_stmt 1 discriminator 2
 807 0020 0134     		adds	r4, r4, #1
 808              	.LVL78:
 809              	.L42:
 187:..\pack_unpack.c **** 	{
 810              		.loc 1 187 0 is_stmt 0 discriminator 1
 811 0022 1F2C     		cmp	r4, #31
 812 0024 F9D9     		bls	.L45
 192:..\pack_unpack.c **** 		}
 193:..\pack_unpack.c **** 	}
 194:..\pack_unpack.c **** }
 813              		.loc 1 194 0 is_stmt 1
 814 0026 30BC     		pop	{r4, r5}
 815              		.cfi_restore 5
 816              		.cfi_restore 4
 817              		.cfi_def_cfa_offset 0
 818              	.LVL79:
 819 0028 7047     		bx	lr
 820              		.cfi_endproc
 821              	.LFE11:
 822              		.size	BS2POLmsg, .-BS2POLmsg
 823 002a 00BF     		.section	.text.POLmsg2BS,"ax",%progbits
 824              		.align	2
 825              		.global	POLmsg2BS
 826              		.thumb
 827              		.thumb_func
 828              		.type	POLmsg2BS, %function
 829              	POLmsg2BS:
 830              	.LFB12:
 195:..\pack_unpack.c **** 
 196:..\pack_unpack.c **** void POLmsg2BS(uint8_t bytes[SABER_KEYBYTES], const uint16_t data[SABER_N])
 197:..\pack_unpack.c **** {
 831              		.loc 1 197 0
 832              		.cfi_startproc
 833              		@ args = 0, pretend = 0, frame = 0
 834              		@ frame_needed = 0, uses_anonymous_args = 0
 835              	.LVL80:
 836 0000 38B5     		push	{r3, r4, r5, lr}
 837              		.cfi_def_cfa_offset 16
 838              		.cfi_offset 3, -16
 839              		.cfi_offset 4, -12
 840              		.cfi_offset 5, -8
 841              		.cfi_offset 14, -4
 842 0002 0446     		mov	r4, r0
 843 0004 0D46     		mov	r5, r1
 198:..\pack_unpack.c **** 	size_t i, j;
 199:..\pack_unpack.c **** 	memset(bytes, 0, SABER_KEYBYTES);
ARM GAS  C:\Users\bogur\AppData\Local\Temp\ccpK1Y07.s 			page 20


 844              		.loc 1 199 0
 845 0006 2022     		movs	r2, #32
 846 0008 0021     		movs	r1, #0
 847              	.LVL81:
 848 000a FFF7FEFF 		bl	memset
 849              	.LVL82:
 200:..\pack_unpack.c **** 
 201:..\pack_unpack.c **** 	for (j = 0; j < SABER_KEYBYTES; j++)
 850              		.loc 1 201 0
 851 000e 0021     		movs	r1, #0
 852 0010 0FE0     		b	.L48
 853              	.LVL83:
 854              	.L49:
 202:..\pack_unpack.c **** 	{
 203:..\pack_unpack.c **** 		for (i = 0; i < 8; i++)
 204:..\pack_unpack.c **** 		{
 205:..\pack_unpack.c **** 			bytes[j] = bytes[j] | ((data[j * 8 + i] & 0x01) << i);
 855              		.loc 1 205 0 discriminator 3
 856 0012 605C     		ldrb	r0, [r4, r1]	@ zero_extendqisi2
 857 0014 02EBC103 		add	r3, r2, r1, lsl #3
 858 0018 35F81330 		ldrh	r3, [r5, r3, lsl #1]
 859 001c 03F00103 		and	r3, r3, #1
 860 0020 9340     		lsls	r3, r3, r2
 861 0022 0343     		orrs	r3, r3, r0
 862 0024 6354     		strb	r3, [r4, r1]
 203:..\pack_unpack.c **** 		{
 863              		.loc 1 203 0 discriminator 3
 864 0026 0132     		adds	r2, r2, #1
 865              	.LVL84:
 866 0028 00E0     		b	.L50
 867              	.LVL85:
 868              	.L51:
 869 002a 0022     		movs	r2, #0
 870              	.L50:
 871              	.LVL86:
 203:..\pack_unpack.c **** 		{
 872              		.loc 1 203 0 is_stmt 0 discriminator 1
 873 002c 072A     		cmp	r2, #7
 874 002e F0D9     		bls	.L49
 201:..\pack_unpack.c **** 	{
 875              		.loc 1 201 0 is_stmt 1 discriminator 2
 876 0030 0131     		adds	r1, r1, #1
 877              	.LVL87:
 878              	.L48:
 201:..\pack_unpack.c **** 	{
 879              		.loc 1 201 0 is_stmt 0 discriminator 1
 880 0032 1F29     		cmp	r1, #31
 881 0034 F9D9     		bls	.L51
 206:..\pack_unpack.c **** 		}
 207:..\pack_unpack.c **** 	}
 208:..\pack_unpack.c **** }
 882              		.loc 1 208 0 is_stmt 1
 883 0036 38BD     		pop	{r3, r4, r5, pc}
 884              		.cfi_endproc
 885              	.LFE12:
 886              		.size	POLmsg2BS, .-POLmsg2BS
 887              		.text
ARM GAS  C:\Users\bogur\AppData\Local\Temp\ccpK1Y07.s 			page 21


 888              	.Letext0:
 889              		.file 2 "c:\\program files (x86)\\cypress\\psoc creator\\4.4\\psoc creator\\import\\gnu\\arm\\5.4.
 890              		.file 3 "c:\\program files (x86)\\cypress\\psoc creator\\4.4\\psoc creator\\import\\gnu\\arm\\5.4.
 891              		.file 4 "c:\\program files (x86)\\cypress\\psoc creator\\4.4\\psoc creator\\import\\gnu\\arm\\5.4.