ARM GAS  C:\Users\bogur\AppData\Local\Temp\ccgV5Xrf.s 			page 1


   1              		.syntax unified
   2              		.cpu cortex-m4
   3              		.eabi_attribute 27, 1
   4              		.fpu fpv4-sp-d16
   5              		.eabi_attribute 20, 1
   6              		.eabi_attribute 21, 1
   7              		.eabi_attribute 23, 3
   8              		.eabi_attribute 24, 1
   9              		.eabi_attribute 25, 1
  10              		.eabi_attribute 26, 1
  11              		.eabi_attribute 30, 1
  12              		.eabi_attribute 34, 1
  13              		.eabi_attribute 18, 4
  14              		.thumb
  15              		.syntax unified
  16              		.file	"saber_wrapper.c"
  17              		.text
  18              	.Ltext0:
  19              		.cfi_sections	.debug_frame
  20              		.section	.text.saber_init,"ax",%progbits
  21              		.align	2
  22              		.global	saber_init
  23              		.thumb
  24              		.thumb_func
  25              		.type	saber_init, %function
  26              	saber_init:
  27              	.LFB0:
  28              		.file 1 "..\\saber_wrapper.c"
   1:..\saber_wrapper.c **** #include "saber_wrapper.h"
   2:..\saber_wrapper.c **** #include "SABER_params.h"
   3:..\saber_wrapper.c **** #include "api.h"
   4:..\saber_wrapper.c **** 
   5:..\saber_wrapper.c **** // Current security level
   6:..\saber_wrapper.c **** static saber_security_level_t current_security_level = SABER_SECURITY_FIRE;
   7:..\saber_wrapper.c **** 
   8:..\saber_wrapper.c **** // Static flag to indicate if the library has been initialized
   9:..\saber_wrapper.c **** static int is_initialized = 0;
  10:..\saber_wrapper.c **** 
  11:..\saber_wrapper.c **** int saber_init(saber_security_level_t security_level) {
  29              		.loc 1 11 0
  30              		.cfi_startproc
  31              		@ args = 0, pretend = 0, frame = 0
  32              		@ frame_needed = 0, uses_anonymous_args = 0
  33              		@ link register save eliminated.
  34              	.LVL0:
  12:..\saber_wrapper.c ****     // Validate security level
  13:..\saber_wrapper.c ****     if (security_level != SABER_SECURITY_LIGHT && 
  14:..\saber_wrapper.c ****         security_level != SABER_SECURITY_SABER && 
  35              		.loc 1 14 0
  36 0000 831E     		subs	r3, r0, #2
  37 0002 DBB2     		uxtb	r3, r3
  13:..\saber_wrapper.c ****         security_level != SABER_SECURITY_SABER && 
  38              		.loc 1 13 0
  39 0004 022B     		cmp	r3, #2
  40 0006 06D8     		bhi	.L3
  15:..\saber_wrapper.c ****         security_level != SABER_SECURITY_FIRE) {
  16:..\saber_wrapper.c ****         return -1;
ARM GAS  C:\Users\bogur\AppData\Local\Temp\ccgV5Xrf.s 			page 2


  17:..\saber_wrapper.c ****     }
  18:..\saber_wrapper.c ****     
  19:..\saber_wrapper.c ****     // Check if the compiled version matches the requested security level
  20:..\saber_wrapper.c ****     #if SABER_L == 2
  21:..\saber_wrapper.c ****         if (security_level != SABER_SECURITY_LIGHT) {
  22:..\saber_wrapper.c ****             return -2; // Compiled for LightSaber but different level requested
  23:..\saber_wrapper.c ****         }
  24:..\saber_wrapper.c ****     #elif SABER_L == 3
  25:..\saber_wrapper.c ****         if (security_level != SABER_SECURITY_SABER) {
  26:..\saber_wrapper.c ****             return -2; // Compiled for Saber but different level requested
  27:..\saber_wrapper.c ****         }
  28:..\saber_wrapper.c ****     #elif SABER_L == 4
  29:..\saber_wrapper.c ****         if (security_level != SABER_SECURITY_FIRE) {
  41              		.loc 1 29 0
  42 0008 0428     		cmp	r0, #4
  43 000a 07D1     		bne	.L4
  30:..\saber_wrapper.c ****             return -2; // Compiled for FireSaber but different level requested
  31:..\saber_wrapper.c ****         }
  32:..\saber_wrapper.c ****     #else
  33:..\saber_wrapper.c ****         return -3; // Unsupported SABER_L value
  34:..\saber_wrapper.c ****     #endif
  35:..\saber_wrapper.c ****     
  36:..\saber_wrapper.c ****     // Store security level (for runtime checking)
  37:..\saber_wrapper.c ****     current_security_level = security_level;
  38:..\saber_wrapper.c ****     is_initialized = 1;
  44              		.loc 1 38 0
  45 000c 0122     		movs	r2, #1
  46 000e 054B     		ldr	r3, .L5
  47 0010 1A60     		str	r2, [r3]
  39:..\saber_wrapper.c ****     
  40:..\saber_wrapper.c ****     return 0;
  48              		.loc 1 40 0
  49 0012 0020     		movs	r0, #0
  50              	.LVL1:
  51 0014 7047     		bx	lr
  52              	.LVL2:
  53              	.L3:
  16:..\saber_wrapper.c ****     }
  54              		.loc 1 16 0
  55 0016 4FF0FF30 		mov	r0, #-1
  56              	.LVL3:
  57 001a 7047     		bx	lr
  58              	.LVL4:
  59              	.L4:
  30:..\saber_wrapper.c ****             return -2; // Compiled for FireSaber but different level requested
  60              		.loc 1 30 0
  61 001c 6FF00100 		mvn	r0, #1
  62              	.LVL5:
  41:..\saber_wrapper.c **** }
  63              		.loc 1 41 0
  64 0020 7047     		bx	lr
  65              	.L6:
  66 0022 00BF     		.align	2
  67              	.L5:
  68 0024 00000000 		.word	.LANCHOR0
  69              		.cfi_endproc
  70              	.LFE0:
ARM GAS  C:\Users\bogur\AppData\Local\Temp\ccgV5Xrf.s 			page 3


  71              		.size	saber_init, .-saber_init
  72              		.section	.text.saber_get_public_key_size,"ax",%progbits
  73              		.align	2
  74              		.global	saber_get_public_key_size
  75              		.thumb
  76              		.thumb_func
  77              		.type	saber_get_public_key_size, %function
  78              	saber_get_public_key_size:
  79              	.LFB1:
  42:..\saber_wrapper.c **** 
  43:..\saber_wrapper.c **** size_t saber_get_public_key_size(void) {
  80              		.loc 1 43 0
  81              		.cfi_startproc
  82              		@ args = 0, pretend = 0, frame = 0
  83              		@ frame_needed = 0, uses_anonymous_args = 0
  84              		@ link register save eliminated.
  44:..\saber_wrapper.c ****     return CRYPTO_PUBLICKEYBYTES;
  45:..\saber_wrapper.c **** }
  85              		.loc 1 45 0
  86 0000 4FF4A460 		mov	r0, #1312
  87 0004 7047     		bx	lr
  88              		.cfi_endproc
  89              	.LFE1:
  90              		.size	saber_get_public_key_size, .-saber_get_public_key_size
  91 0006 00BF     		.section	.text.saber_get_secret_key_size,"ax",%progbits
  92              		.align	2
  93              		.global	saber_get_secret_key_size
  94              		.thumb
  95              		.thumb_func
  96              		.type	saber_get_secret_key_size, %function
  97              	saber_get_secret_key_size:
  98              	.LFB2:
  46:..\saber_wrapper.c **** 
  47:..\saber_wrapper.c **** size_t saber_get_secret_key_size(void) {
  99              		.loc 1 47 0
 100              		.cfi_startproc
 101              		@ args = 0, pretend = 0, frame = 0
 102              		@ frame_needed = 0, uses_anonymous_args = 0
 103              		@ link register save eliminated.
  48:..\saber_wrapper.c ****     return CRYPTO_SECRETKEYBYTES;
  49:..\saber_wrapper.c **** }
 104              		.loc 1 49 0
 105 0000 4FF43E60 		mov	r0, #3040
 106 0004 7047     		bx	lr
 107              		.cfi_endproc
 108              	.LFE2:
 109              		.size	saber_get_secret_key_size, .-saber_get_secret_key_size
 110 0006 00BF     		.section	.text.saber_get_ciphertext_size,"ax",%progbits
 111              		.align	2
 112              		.global	saber_get_ciphertext_size
 113              		.thumb
 114              		.thumb_func
 115              		.type	saber_get_ciphertext_size, %function
 116              	saber_get_ciphertext_size:
 117              	.LFB3:
  50:..\saber_wrapper.c **** 
  51:..\saber_wrapper.c **** size_t saber_get_ciphertext_size(void) {
ARM GAS  C:\Users\bogur\AppData\Local\Temp\ccgV5Xrf.s 			page 4


 118              		.loc 1 51 0
 119              		.cfi_startproc
 120              		@ args = 0, pretend = 0, frame = 0
 121              		@ frame_needed = 0, uses_anonymous_args = 0
 122              		@ link register save eliminated.
  52:..\saber_wrapper.c ****     return CRYPTO_CIPHERTEXTBYTES;
  53:..\saber_wrapper.c **** }
 123              		.loc 1 53 0
 124 0000 4FF4B860 		mov	r0, #1472
 125 0004 7047     		bx	lr
 126              		.cfi_endproc
 127              	.LFE3:
 128              		.size	saber_get_ciphertext_size, .-saber_get_ciphertext_size
 129 0006 00BF     		.section	.text.saber_get_shared_secret_size,"ax",%progbits
 130              		.align	2
 131              		.global	saber_get_shared_secret_size
 132              		.thumb
 133              		.thumb_func
 134              		.type	saber_get_shared_secret_size, %function
 135              	saber_get_shared_secret_size:
 136              	.LFB4:
  54:..\saber_wrapper.c **** 
  55:..\saber_wrapper.c **** size_t saber_get_shared_secret_size(void) {
 137              		.loc 1 55 0
 138              		.cfi_startproc
 139              		@ args = 0, pretend = 0, frame = 0
 140              		@ frame_needed = 0, uses_anonymous_args = 0
 141              		@ link register save eliminated.
  56:..\saber_wrapper.c ****     return CRYPTO_BYTES;
  57:..\saber_wrapper.c **** }
 142              		.loc 1 57 0
 143 0000 2020     		movs	r0, #32
 144 0002 7047     		bx	lr
 145              		.cfi_endproc
 146              	.LFE4:
 147              		.size	saber_get_shared_secret_size, .-saber_get_shared_secret_size
 148              		.section	.text.saber_keypair,"ax",%progbits
 149              		.align	2
 150              		.global	saber_keypair
 151              		.thumb
 152              		.thumb_func
 153              		.type	saber_keypair, %function
 154              	saber_keypair:
 155              	.LFB5:
  58:..\saber_wrapper.c **** 
  59:..\saber_wrapper.c **** int saber_keypair(unsigned char *pk, unsigned char *sk) {
 156              		.loc 1 59 0
 157              		.cfi_startproc
 158              		@ args = 0, pretend = 0, frame = 0
 159              		@ frame_needed = 0, uses_anonymous_args = 0
 160              	.LVL6:
 161 0000 08B5     		push	{r3, lr}
 162              		.cfi_def_cfa_offset 8
 163              		.cfi_offset 3, -8
 164              		.cfi_offset 14, -4
  60:..\saber_wrapper.c ****     if (!is_initialized) return -1;
 165              		.loc 1 60 0
ARM GAS  C:\Users\bogur\AppData\Local\Temp\ccgV5Xrf.s 			page 5


 166 0002 084B     		ldr	r3, .L17
 167 0004 1B68     		ldr	r3, [r3]
 168 0006 23B1     		cbz	r3, .L13
  61:..\saber_wrapper.c ****     if (pk == NULL || sk == NULL) return -2;
 169              		.loc 1 61 0
 170 0008 30B1     		cbz	r0, .L14
 171              		.loc 1 61 0 is_stmt 0 discriminator 2
 172 000a 41B1     		cbz	r1, .L15
  62:..\saber_wrapper.c ****     return crypto_kem_keypair(pk, sk);
 173              		.loc 1 62 0 is_stmt 1
 174 000c FFF7FEFF 		bl	crypto_kem_keypair
 175              	.LVL7:
 176 0010 08BD     		pop	{r3, pc}
 177              	.LVL8:
 178              	.L13:
  60:..\saber_wrapper.c ****     if (!is_initialized) return -1;
 179              		.loc 1 60 0
 180 0012 4FF0FF30 		mov	r0, #-1
 181              	.LVL9:
 182 0016 08BD     		pop	{r3, pc}
 183              	.LVL10:
 184              	.L14:
  61:..\saber_wrapper.c ****     if (pk == NULL || sk == NULL) return -2;
 185              		.loc 1 61 0
 186 0018 6FF00100 		mvn	r0, #1
 187              	.LVL11:
 188 001c 08BD     		pop	{r3, pc}
 189              	.LVL12:
 190              	.L15:
 191 001e 6FF00100 		mvn	r0, #1
 192              	.LVL13:
  63:..\saber_wrapper.c **** }
 193              		.loc 1 63 0
 194 0022 08BD     		pop	{r3, pc}
 195              	.L18:
 196              		.align	2
 197              	.L17:
 198 0024 00000000 		.word	.LANCHOR0
 199              		.cfi_endproc
 200              	.LFE5:
 201              		.size	saber_keypair, .-saber_keypair
 202              		.section	.text.saber_encapsulate,"ax",%progbits
 203              		.align	2
 204              		.global	saber_encapsulate
 205              		.thumb
 206              		.thumb_func
 207              		.type	saber_encapsulate, %function
 208              	saber_encapsulate:
 209              	.LFB6:
  64:..\saber_wrapper.c **** 
  65:..\saber_wrapper.c **** int saber_encapsulate(unsigned char *ct, unsigned char *ss, const unsigned char *pk) {
 210              		.loc 1 65 0
 211              		.cfi_startproc
 212              		@ args = 0, pretend = 0, frame = 0
 213              		@ frame_needed = 0, uses_anonymous_args = 0
 214              	.LVL14:
 215 0000 08B5     		push	{r3, lr}
ARM GAS  C:\Users\bogur\AppData\Local\Temp\ccgV5Xrf.s 			page 6


 216              		.cfi_def_cfa_offset 8
 217              		.cfi_offset 3, -8
 218              		.cfi_offset 14, -4
  66:..\saber_wrapper.c ****     if (!is_initialized) return -1;
 219              		.loc 1 66 0
 220 0002 0A4B     		ldr	r3, .L26
 221 0004 1B68     		ldr	r3, [r3]
 222 0006 2BB1     		cbz	r3, .L21
  67:..\saber_wrapper.c ****     if (ct == NULL || ss == NULL || pk == NULL) return -2;
 223              		.loc 1 67 0
 224 0008 38B1     		cbz	r0, .L22
 225              		.loc 1 67 0 is_stmt 0 discriminator 2
 226 000a 49B1     		cbz	r1, .L23
 227              		.loc 1 67 0 discriminator 4
 228 000c 5AB1     		cbz	r2, .L24
  68:..\saber_wrapper.c ****     return crypto_kem_enc(ct, ss, pk);
 229              		.loc 1 68 0 is_stmt 1
 230 000e FFF7FEFF 		bl	crypto_kem_enc
 231              	.LVL15:
 232 0012 08BD     		pop	{r3, pc}
 233              	.LVL16:
 234              	.L21:
  66:..\saber_wrapper.c ****     if (!is_initialized) return -1;
 235              		.loc 1 66 0
 236 0014 4FF0FF30 		mov	r0, #-1
 237              	.LVL17:
 238 0018 08BD     		pop	{r3, pc}
 239              	.LVL18:
 240              	.L22:
  67:..\saber_wrapper.c ****     if (ct == NULL || ss == NULL || pk == NULL) return -2;
 241              		.loc 1 67 0
 242 001a 6FF00100 		mvn	r0, #1
 243              	.LVL19:
 244 001e 08BD     		pop	{r3, pc}
 245              	.LVL20:
 246              	.L23:
 247 0020 6FF00100 		mvn	r0, #1
 248              	.LVL21:
 249 0024 08BD     		pop	{r3, pc}
 250              	.LVL22:
 251              	.L24:
 252 0026 6FF00100 		mvn	r0, #1
 253              	.LVL23:
  69:..\saber_wrapper.c **** }
 254              		.loc 1 69 0
 255 002a 08BD     		pop	{r3, pc}
 256              	.L27:
 257              		.align	2
 258              	.L26:
 259 002c 00000000 		.word	.LANCHOR0
 260              		.cfi_endproc
 261              	.LFE6:
 262              		.size	saber_encapsulate, .-saber_encapsulate
 263              		.section	.text.saber_decapsulate,"ax",%progbits
 264              		.align	2
 265              		.global	saber_decapsulate
 266              		.thumb
ARM GAS  C:\Users\bogur\AppData\Local\Temp\ccgV5Xrf.s 			page 7


 267              		.thumb_func
 268              		.type	saber_decapsulate, %function
 269              	saber_decapsulate:
 270              	.LFB7:
  70:..\saber_wrapper.c **** 
  71:..\saber_wrapper.c **** int saber_decapsulate(unsigned char *ss, const unsigned char *ct, const unsigned char *sk) {
 271              		.loc 1 71 0
 272              		.cfi_startproc
 273              		@ args = 0, pretend = 0, frame = 0
 274              		@ frame_needed = 0, uses_anonymous_args = 0
 275              	.LVL24:
 276 0000 08B5     		push	{r3, lr}
 277              		.cfi_def_cfa_offset 8
 278              		.cfi_offset 3, -8
 279              		.cfi_offset 14, -4
  72:..\saber_wrapper.c ****     if (!is_initialized) return -1;
 280              		.loc 1 72 0
 281 0002 0A4B     		ldr	r3, .L35
 282 0004 1B68     		ldr	r3, [r3]
 283 0006 2BB1     		cbz	r3, .L30
  73:..\saber_wrapper.c ****     if (ss == NULL || ct == NULL || sk == NULL) return -2;
 284              		.loc 1 73 0
 285 0008 38B1     		cbz	r0, .L31
 286              		.loc 1 73 0 is_stmt 0 discriminator 2
 287 000a 49B1     		cbz	r1, .L32
 288              		.loc 1 73 0 discriminator 4
 289 000c 5AB1     		cbz	r2, .L33
  74:..\saber_wrapper.c ****     return crypto_kem_dec(ss, ct, sk);
 290              		.loc 1 74 0 is_stmt 1
 291 000e FFF7FEFF 		bl	crypto_kem_dec
 292              	.LVL25:
 293 0012 08BD     		pop	{r3, pc}
 294              	.LVL26:
 295              	.L30:
  72:..\saber_wrapper.c ****     if (!is_initialized) return -1;
 296              		.loc 1 72 0
 297 0014 4FF0FF30 		mov	r0, #-1
 298              	.LVL27:
 299 0018 08BD     		pop	{r3, pc}
 300              	.LVL28:
 301              	.L31:
  73:..\saber_wrapper.c ****     if (ss == NULL || ct == NULL || sk == NULL) return -2;
 302              		.loc 1 73 0
 303 001a 6FF00100 		mvn	r0, #1
 304              	.LVL29:
 305 001e 08BD     		pop	{r3, pc}
 306              	.LVL30:
 307              	.L32:
 308 0020 6FF00100 		mvn	r0, #1
 309              	.LVL31:
 310 0024 08BD     		pop	{r3, pc}
 311              	.LVL32:
 312              	.L33:
 313 0026 6FF00100 		mvn	r0, #1
 314              	.LVL33:
  75:..\saber_wrapper.c **** }...
 315              		.loc 1 75 0
ARM GAS  C:\Users\bogur\AppData\Local\Temp\ccgV5Xrf.s 			page 8


 316 002a 08BD     		pop	{r3, pc}
 317              	.L36:
 318              		.align	2
 319              	.L35:
 320 002c 00000000 		.word	.LANCHOR0
 321              		.cfi_endproc
 322              	.LFE7:
 323              		.size	saber_decapsulate, .-saber_decapsulate
 324              		.bss
 325              		.align	2
 326              		.set	.LANCHOR0,. + 0
 327              		.type	is_initialized, %object
 328              		.size	is_initialized, 4
 329              	is_initialized:
 330 0000 00000000 		.space	4
 331              		.text
 332              	.Letext0:
 333              		.file 2 "c:\\program files (x86)\\cypress\\psoc creator\\4.4\\psoc creator\\import\\gnu\\arm\\5.4.
 334              		.file 3 "..\\saber_wrapper.h"
 335              		.file 4 "..\\api.h"