ARM GAS  C:\Users\bogur\AppData\Local\Temp\ccB2EB5Z.s 			page 1


   1              		.syntax unified
   2              		.cpu cortex-m4
   3              		.eabi_attribute 27, 1
   4              		.fpu fpv4-sp-d16
   5              		.eabi_attribute 20, 1
   6              		.eabi_attribute 21, 1
   7              		.eabi_attribute 23, 3
   8              		.eabi_attribute 24, 1
   9              		.eabi_attribute 25, 1
  10              		.eabi_attribute 26, 1
  11              		.eabi_attribute 30, 1
  12              		.eabi_attribute 34, 1
  13              		.eabi_attribute 18, 4
  14              		.thumb
  15              		.syntax unified
  16              		.file	"verify.c"
  17              		.text
  18              	.Ltext0:
  19              		.cfi_sections	.debug_frame
  20              		.section	.text.verify,"ax",%progbits
  21              		.align	2
  22              		.global	verify
  23              		.thumb
  24              		.thumb_func
  25              		.type	verify, %function
  26              	verify:
  27              	.LFB1:
  28              		.file 1 "..\\verify.c"
   1:..\verify.c   **** /*-------------------------------------------------
   2:..\verify.c   **** This file has been adapted from the implementation 
   3:..\verify.c   **** (available at https://github.com/pq-crystals/kyber) of 
   4:..\verify.c   **** "CRYSTALS – Kyber: a CCA-secure module-lattice-based KEM"
   5:..\verify.c   ****  by : Joppe Bos, Leo Ducas, Eike Kiltz, Tancrede Lepoint, 
   6:..\verify.c   **** Vadim Lyubashevsky, John M. Schanck, Peter Schwabe & Damien stehle
   7:..\verify.c   **** ----------------------------------------------------*/
   8:..\verify.c   **** #include <string.h>
   9:..\verify.c   **** #include <stdint.h>
  10:..\verify.c   **** #include "verify.h"
  11:..\verify.c   **** 
  12:..\verify.c   **** /* returns 0 for equal strings, 1 for non-equal strings */
  13:..\verify.c   **** int verify(const unsigned char *a, const unsigned char *b, size_t len)
  14:..\verify.c   **** {
  29              		.loc 1 14 0
  30              		.cfi_startproc
  31              		@ args = 0, pretend = 0, frame = 0
  32              		@ frame_needed = 0, uses_anonymous_args = 0
  33              		@ link register save eliminated.
  34              	.LVL0:
  35 0000 2DE97003 		push	{r4, r5, r6, r8, r9}
  36              		.cfi_def_cfa_offset 20
  37              		.cfi_offset 4, -20
  38              		.cfi_offset 5, -16
  39              		.cfi_offset 6, -12
  40              		.cfi_offset 8, -8
  41              		.cfi_offset 9, -4
  42              	.LVL1:
  15:..\verify.c   ****   uint64_t r;
ARM GAS  C:\Users\bogur\AppData\Local\Temp\ccB2EB5Z.s 			page 2


  16:..\verify.c   ****   size_t i;
  17:..\verify.c   ****   r = 0;
  18:..\verify.c   **** 
  19:..\verify.c   ****   for (i = 0; i < len; i++)
  43              		.loc 1 19 0
  44 0004 0026     		movs	r6, #0
  17:..\verify.c   **** 
  45              		.loc 1 17 0
  46 0006 4FF00008 		mov	r8, #0
  47 000a 4FF00009 		mov	r9, #0
  48              		.loc 1 19 0
  49 000e 09E0     		b	.L2
  50              	.LVL2:
  51              	.L3:
  20:..\verify.c   ****     r |= a[i] ^ b[i];
  52              		.loc 1 20 0 discriminator 3
  53 0010 845D     		ldrb	r4, [r0, r6]	@ zero_extendqisi2
  54 0012 8B5D     		ldrb	r3, [r1, r6]	@ zero_extendqisi2
  55 0014 5C40     		eors	r4, r4, r3
  56 0016 E4B2     		uxtb	r4, r4
  57 0018 0025     		movs	r5, #0
  58 001a 48EA0408 		orr	r8, r8, r4
  59              	.LVL3:
  60 001e 49EA0509 		orr	r9, r9, r5
  61              	.LVL4:
  19:..\verify.c   ****     r |= a[i] ^ b[i];
  62              		.loc 1 19 0 discriminator 3
  63 0022 0136     		adds	r6, r6, #1
  64              	.LVL5:
  65              	.L2:
  19:..\verify.c   ****     r |= a[i] ^ b[i];
  66              		.loc 1 19 0 is_stmt 0 discriminator 1
  67 0024 9642     		cmp	r6, r2
  68 0026 F3D3     		bcc	.L3
  21:..\verify.c   **** 
  22:..\verify.c   ****   r = (-r) >> 63;
  69              		.loc 1 22 0 is_stmt 1
  70 0028 D8F10008 		rsbs	r8, r8, #0
  71              	.LVL6:
  72 002c 69EB4909 		sbc	r9, r9, r9, lsl #1
  73              	.LVL7:
  23:..\verify.c   ****   return r;
  24:..\verify.c   **** }
  74              		.loc 1 24 0
  75 0030 4FEAD970 		lsr	r0, r9, #31
  76              	.LVL8:
  77 0034 BDE87003 		pop	{r4, r5, r6, r8, r9}
  78              		.cfi_restore 9
  79              		.cfi_restore 8
  80              		.cfi_restore 6
  81              		.cfi_restore 5
  82              		.cfi_restore 4
  83              		.cfi_def_cfa_offset 0
  84              	.LVL9:
  85 0038 7047     		bx	lr
  86              		.cfi_endproc
  87              	.LFE1:
ARM GAS  C:\Users\bogur\AppData\Local\Temp\ccB2EB5Z.s 			page 3


  88              		.size	verify, .-verify
  89 003a 00BF     		.section	.text.cmov,"ax",%progbits
  90              		.align	2
  91              		.global	cmov
  92              		.thumb
  93              		.thumb_func
  94              		.type	cmov, %function
  95              	cmov:
  96              	.LFB2:
  25:..\verify.c   **** 
  26:..\verify.c   **** /* b = 1 means mov, b = 0 means don't mov*/
  27:..\verify.c   **** void cmov(unsigned char *r, const unsigned char *x, size_t len, unsigned char b)
  28:..\verify.c   **** {
  97              		.loc 1 28 0
  98              		.cfi_startproc
  99              		@ args = 0, pretend = 0, frame = 0
 100              		@ frame_needed = 0, uses_anonymous_args = 0
 101              		@ link register save eliminated.
 102              	.LVL10:
 103 0000 70B4     		push	{r4, r5, r6}
 104              		.cfi_def_cfa_offset 12
 105              		.cfi_offset 4, -12
 106              		.cfi_offset 5, -8
 107              		.cfi_offset 6, -4
  29:..\verify.c   ****   size_t i;
  30:..\verify.c   **** 
  31:..\verify.c   ****   b = -b;
 108              		.loc 1 31 0
 109 0002 5B42     		negs	r3, r3
 110              	.LVL11:
 111 0004 DBB2     		uxtb	r3, r3
 112              	.LVL12:
  32:..\verify.c   ****   for (i = 0; i < len; i++)
 113              		.loc 1 32 0
 114 0006 0025     		movs	r5, #0
 115 0008 06E0     		b	.L6
 116              	.LVL13:
 117              	.L7:
  33:..\verify.c   ****     r[i] ^= b & (x[i] ^ r[i]);
 118              		.loc 1 33 0 discriminator 3
 119 000a 4C5D     		ldrb	r4, [r1, r5]	@ zero_extendqisi2
 120 000c 465D     		ldrb	r6, [r0, r5]	@ zero_extendqisi2
 121 000e 7440     		eors	r4, r4, r6
 122 0010 1C40     		ands	r4, r4, r3
 123 0012 7440     		eors	r4, r4, r6
 124 0014 4455     		strb	r4, [r0, r5]
  32:..\verify.c   ****   for (i = 0; i < len; i++)
 125              		.loc 1 32 0 discriminator 3
 126 0016 0135     		adds	r5, r5, #1
 127              	.LVL14:
 128              	.L6:
  32:..\verify.c   ****   for (i = 0; i < len; i++)
 129              		.loc 1 32 0 is_stmt 0 discriminator 1
 130 0018 9542     		cmp	r5, r2
 131 001a F6D3     		bcc	.L7
  34:..\verify.c   **** }
 132              		.loc 1 34 0 is_stmt 1
ARM GAS  C:\Users\bogur\AppData\Local\Temp\ccB2EB5Z.s 			page 4


 133 001c 70BC     		pop	{r4, r5, r6}
 134              		.cfi_restore 6
 135              		.cfi_restore 5
 136              		.cfi_restore 4
 137              		.cfi_def_cfa_offset 0
 138              	.LVL15:
 139 001e 7047     		bx	lr
 140              		.cfi_endproc
 141              	.LFE2:
 142              		.size	cmov, .-cmov
 143              		.text
 144              	.Letext0:
 145              		.file 2 "c:\\program files (x86)\\cypress\\psoc creator\\4.4\\psoc creator\\import\\gnu\\arm\\5.4.
 146              		.file 3 "c:\\program files (x86)\\cypress\\psoc creator\\4.4\\psoc creator\\import\\gnu\\arm\\5.4.
 147              		.file 4 "c:\\program files (x86)\\cypress\\psoc creator\\4.4\\psoc creator\\import\\gnu\\arm\\5.4.