ARM GAS  C:\Users\bogur\AppData\Local\Temp\ccOdlH9R.s 			page 1


   1              		.syntax unified
   2              		.cpu cortex-m4
   3              		.eabi_attribute 27, 1
   4              		.fpu fpv4-sp-d16
   5              		.eabi_attribute 20, 1
   6              		.eabi_attribute 21, 1
   7              		.eabi_attribute 23, 3
   8              		.eabi_attribute 24, 1
   9              		.eabi_attribute 25, 1
  10              		.eabi_attribute 26, 1
  11              		.eabi_attribute 30, 1
  12              		.eabi_attribute 34, 1
  13              		.eabi_attribute 18, 4
  14              		.thumb
  15              		.syntax unified
  16              		.file	"hqc.c"
  17              		.text
  18              	.Ltext0:
  19              		.cfi_sections	.debug_frame
  20              		.section	.text.PQCLEAN_HQC256_CLEAN_hqc_pke_keygen,"ax",%progbits
  21              		.align	2
  22              		.global	PQCLEAN_HQC256_CLEAN_hqc_pke_keygen
  23              		.thumb
  24              		.thumb_func
  25              		.type	PQCLEAN_HQC256_CLEAN_hqc_pke_keygen, %function
  26              	PQCLEAN_HQC256_CLEAN_hqc_pke_keygen:
  27              	.LFB0:
  28              		.file 1 "..\\hqc.c"
   1:..\hqc.c      **** #include "code.h"
   2:..\hqc.c      **** #include "gf2x.h"
   3:..\hqc.c      **** #include "hqc.h"
   4:..\hqc.c      **** #include "parameters.h"
   5:..\hqc.c      **** #include "parsing.h"
   6:..\hqc.c      **** #include "randombytes.h"
   7:..\hqc.c      **** #include "shake_prng.h"
   8:..\hqc.c      **** #include "vector.h"
   9:..\hqc.c      **** #include <stdint.h>
  10:..\hqc.c      **** /**
  11:..\hqc.c      ****  * @file hqc.c
  12:..\hqc.c      ****  * @brief Implementation of hqc.h
  13:..\hqc.c      ****  */
  14:..\hqc.c      **** 
  15:..\hqc.c      **** 
  16:..\hqc.c      **** 
  17:..\hqc.c      **** /**
  18:..\hqc.c      ****  * @brief Keygen of the HQC_PKE IND_CPA scheme
  19:..\hqc.c      ****  *
  20:..\hqc.c      ****  * The public key is composed of the syndrome <b>s</b> as well as the <b>seed</b> used to generate 
  21:..\hqc.c      ****  *
  22:..\hqc.c      ****  * The secret key is composed of the <b>seed</b> used to generate vectors <b>x</b> and  <b>y</b>.
  23:..\hqc.c      ****  * As a technicality, the public key is appended to the secret key in order to respect NIST API.
  24:..\hqc.c      ****  *
  25:..\hqc.c      ****  * @param[out] pk String containing the public key
  26:..\hqc.c      ****  * @param[out] sk String containing the secret key
  27:..\hqc.c      ****  */
  28:..\hqc.c      **** void PQCLEAN_HQC256_CLEAN_hqc_pke_keygen(uint8_t *pk, uint8_t *sk) {
  29              		.loc 1 28 0
ARM GAS  C:\Users\bogur\AppData\Local\Temp\ccOdlH9R.s 			page 2


  30              		.cfi_startproc
  31              		@ args = 0, pretend = 0, frame = 28952
  32              		@ frame_needed = 0, uses_anonymous_args = 0
  33              	.LVL0:
  34 0000 2DE9F041 		push	{r4, r5, r6, r7, r8, lr}
  35              		.cfi_def_cfa_offset 24
  36              		.cfi_offset 4, -24
  37              		.cfi_offset 5, -20
  38              		.cfi_offset 6, -16
  39              		.cfi_offset 7, -12
  40              		.cfi_offset 8, -8
  41              		.cfi_offset 14, -4
  42 0004 ADF5E24D 		sub	sp, sp, #28928
  43              		.cfi_def_cfa_offset 28952
  44 0008 86B0     		sub	sp, sp, #24
  45              		.cfi_def_cfa_offset 28976
  46 000a 0646     		mov	r6, r0
  47 000c 8846     		mov	r8, r1
  29:..\hqc.c      ****     seedexpander_state sk_seedexpander;
  30:..\hqc.c      ****     seedexpander_state pk_seedexpander;
  31:..\hqc.c      ****     uint8_t sk_seed[SEED_BYTES] = {0};
  48              		.loc 1 31 0
  49 000e 2824     		movs	r4, #40
  50 0010 2246     		mov	r2, r4
  51 0012 0021     		movs	r1, #0
  52              	.LVL1:
  53 0014 0DF5E140 		add	r0, sp, #28800
  54              	.LVL2:
  55 0018 6830     		adds	r0, r0, #104
  56 001a FFF7FEFF 		bl	memset
  57              	.LVL3:
  32:..\hqc.c      ****     uint8_t sigma[VEC_K_SIZE_BYTES] = {0};
  58              		.loc 1 32 0
  59 001e 2027     		movs	r7, #32
  60 0020 3A46     		mov	r2, r7
  61 0022 0021     		movs	r1, #0
  62 0024 0DF5E140 		add	r0, sp, #28800
  63 0028 4830     		adds	r0, r0, #72
  64 002a FFF7FEFF 		bl	memset
  65              	.LVL4:
  33:..\hqc.c      ****     uint8_t pk_seed[SEED_BYTES] = {0};
  66              		.loc 1 33 0
  67 002e 2246     		mov	r2, r4
  68 0030 0021     		movs	r1, #0
  69 0032 0DF5E140 		add	r0, sp, #28800
  70 0036 2030     		adds	r0, r0, #32
  71 0038 FFF7FEFF 		bl	memset
  72              	.LVL5:
  34:..\hqc.c      ****     uint64_t x[VEC_N_SIZE_64] = {0};
  73              		.loc 1 34 0
  74 003c 41F62845 		movw	r5, #7208
  75 0040 2A46     		mov	r2, r5
  76 0042 0021     		movs	r1, #0
  77 0044 0DF5A840 		add	r0, sp, #21504
  78 0048 7830     		adds	r0, r0, #120
  79 004a FFF7FEFF 		bl	memset
  80              	.LVL6:
ARM GAS  C:\Users\bogur\AppData\Local\Temp\ccOdlH9R.s 			page 3


  35:..\hqc.c      ****     uint64_t y[VEC_N_SIZE_64] = {0};
  81              		.loc 1 35 0
  82 004e 2A46     		mov	r2, r5
  83 0050 0021     		movs	r1, #0
  84 0052 0DF56150 		add	r0, sp, #14400
  85 0056 1030     		adds	r0, r0, #16
  86 0058 FFF7FEFF 		bl	memset
  87              	.LVL7:
  36:..\hqc.c      ****     uint64_t h[VEC_N_SIZE_64] = {0};
  88              		.loc 1 36 0
  89 005c 2A46     		mov	r2, r5
  90 005e 0021     		movs	r1, #0
  91 0060 0DEB0500 		add	r0, sp, r5
  92 0064 FFF7FEFF 		bl	memset
  93              	.LVL8:
  37:..\hqc.c      ****     uint64_t s[VEC_N_SIZE_64] = {0};
  94              		.loc 1 37 0
  95 0068 2A46     		mov	r2, r5
  96 006a 0021     		movs	r1, #0
  97 006c 6846     		mov	r0, sp
  98 006e FFF7FEFF 		bl	memset
  99              	.LVL9:
  38:..\hqc.c      **** 
  39:..\hqc.c      ****     // Create seed_expanders for public key and secret key
  40:..\hqc.c      ****     randombytes(sk_seed, SEED_BYTES);
 100              		.loc 1 40 0
 101 0072 2146     		mov	r1, r4
 102 0074 0DF5E140 		add	r0, sp, #28800
 103 0078 6830     		adds	r0, r0, #104
 104 007a FFF7FEFF 		bl	randombytes
 105              	.LVL10:
  41:..\hqc.c      ****     randombytes(sigma, VEC_K_SIZE_BYTES);
 106              		.loc 1 41 0
 107 007e 3946     		mov	r1, r7
 108 0080 0DF5E140 		add	r0, sp, #28800
 109 0084 4830     		adds	r0, r0, #72
 110 0086 FFF7FEFF 		bl	randombytes
 111              	.LVL11:
  42:..\hqc.c      ****     PQCLEAN_HQC256_CLEAN_seedexpander_init(&sk_seedexpander, sk_seed, SEED_BYTES);
 112              		.loc 1 42 0
 113 008a 2246     		mov	r2, r4
 114 008c 0DF5E141 		add	r1, sp, #28800
 115 0090 6831     		adds	r1, r1, #104
 116 0092 0DF5E240 		add	r0, sp, #28928
 117 0096 1430     		adds	r0, r0, #20
 118 0098 FFF7FEFF 		bl	PQCLEAN_HQC256_CLEAN_seedexpander_init
 119              	.LVL12:
  43:..\hqc.c      **** 
  44:..\hqc.c      ****     randombytes(pk_seed, SEED_BYTES);
 120              		.loc 1 44 0
 121 009c 2146     		mov	r1, r4
 122 009e 0DF5E140 		add	r0, sp, #28800
 123 00a2 2030     		adds	r0, r0, #32
 124 00a4 FFF7FEFF 		bl	randombytes
 125              	.LVL13:
  45:..\hqc.c      ****     PQCLEAN_HQC256_CLEAN_seedexpander_init(&pk_seedexpander, pk_seed, SEED_BYTES);
 126              		.loc 1 45 0
ARM GAS  C:\Users\bogur\AppData\Local\Temp\ccOdlH9R.s 			page 4


 127 00a8 2246     		mov	r2, r4
 128 00aa 0DF5E141 		add	r1, sp, #28800
 129 00ae 2031     		adds	r1, r1, #32
 130 00b0 0DF5E240 		add	r0, sp, #28928
 131 00b4 1030     		adds	r0, r0, #16
 132 00b6 FFF7FEFF 		bl	PQCLEAN_HQC256_CLEAN_seedexpander_init
 133              	.LVL14:
  46:..\hqc.c      **** 
  47:..\hqc.c      ****     // Compute secret key
  48:..\hqc.c      ****     PQCLEAN_HQC256_CLEAN_vect_set_random_fixed_weight(&sk_seedexpander, x, PARAM_OMEGA);
 134              		.loc 1 48 0
 135 00ba 8322     		movs	r2, #131
 136 00bc 0DF5A841 		add	r1, sp, #21504
 137 00c0 7831     		adds	r1, r1, #120
 138 00c2 0DF5E240 		add	r0, sp, #28928
 139 00c6 1430     		adds	r0, r0, #20
 140 00c8 FFF7FEFF 		bl	PQCLEAN_HQC256_CLEAN_vect_set_random_fixed_weight
 141              	.LVL15:
  49:..\hqc.c      ****     PQCLEAN_HQC256_CLEAN_vect_set_random_fixed_weight(&sk_seedexpander, y, PARAM_OMEGA);
 142              		.loc 1 49 0
 143 00cc 8322     		movs	r2, #131
 144 00ce 0DF56151 		add	r1, sp, #14400
 145 00d2 1031     		adds	r1, r1, #16
 146 00d4 0DF5E240 		add	r0, sp, #28928
 147 00d8 1430     		adds	r0, r0, #20
 148 00da FFF7FEFF 		bl	PQCLEAN_HQC256_CLEAN_vect_set_random_fixed_weight
 149              	.LVL16:
  50:..\hqc.c      **** 
  51:..\hqc.c      ****     // Compute public key
  52:..\hqc.c      ****     PQCLEAN_HQC256_CLEAN_vect_set_random(&pk_seedexpander, h);
 150              		.loc 1 52 0
 151 00de 0DEB0501 		add	r1, sp, r5
 152 00e2 0DF5E240 		add	r0, sp, #28928
 153 00e6 1030     		adds	r0, r0, #16
 154 00e8 FFF7FEFF 		bl	PQCLEAN_HQC256_CLEAN_vect_set_random
 155              	.LVL17:
  53:..\hqc.c      ****     PQCLEAN_HQC256_CLEAN_vect_mul(s, y, h);
 156              		.loc 1 53 0
 157 00ec 0DEB0502 		add	r2, sp, r5
 158 00f0 0DF56151 		add	r1, sp, #14400
 159 00f4 1031     		adds	r1, r1, #16
 160 00f6 6846     		mov	r0, sp
 161 00f8 FFF7FEFF 		bl	PQCLEAN_HQC256_CLEAN_vect_mul
 162              	.LVL18:
  54:..\hqc.c      ****     PQCLEAN_HQC256_CLEAN_vect_add(s, x, s, VEC_N_SIZE_64);
 163              		.loc 1 54 0
 164 00fc 40F28533 		movw	r3, #901
 165 0100 6A46     		mov	r2, sp
 166 0102 0DF5A841 		add	r1, sp, #21504
 167 0106 7831     		adds	r1, r1, #120
 168 0108 6846     		mov	r0, sp
 169 010a FFF7FEFF 		bl	PQCLEAN_HQC256_CLEAN_vect_add
 170              	.LVL19:
  55:..\hqc.c      **** 
  56:..\hqc.c      ****     // Parse keys to string
  57:..\hqc.c      ****     PQCLEAN_HQC256_CLEAN_hqc_public_key_to_string(pk, pk_seed, s);
 171              		.loc 1 57 0
ARM GAS  C:\Users\bogur\AppData\Local\Temp\ccOdlH9R.s 			page 5


 172 010e 6A46     		mov	r2, sp
 173 0110 0DF5E141 		add	r1, sp, #28800
 174 0114 2031     		adds	r1, r1, #32
 175 0116 3046     		mov	r0, r6
 176 0118 FFF7FEFF 		bl	PQCLEAN_HQC256_CLEAN_hqc_public_key_to_string
 177              	.LVL20:
  58:..\hqc.c      ****     PQCLEAN_HQC256_CLEAN_hqc_secret_key_to_string(sk, sk_seed, sigma, pk);
 178              		.loc 1 58 0
 179 011c 3346     		mov	r3, r6
 180 011e 0DF5E142 		add	r2, sp, #28800
 181 0122 4832     		adds	r2, r2, #72
 182 0124 0DF5E141 		add	r1, sp, #28800
 183 0128 6831     		adds	r1, r1, #104
 184 012a 4046     		mov	r0, r8
 185 012c FFF7FEFF 		bl	PQCLEAN_HQC256_CLEAN_hqc_secret_key_to_string
 186              	.LVL21:
  59:..\hqc.c      **** 
  60:..\hqc.c      ****     PQCLEAN_HQC256_CLEAN_seedexpander_release(&pk_seedexpander);
 187              		.loc 1 60 0
 188 0130 0DF5E240 		add	r0, sp, #28928
 189 0134 1030     		adds	r0, r0, #16
 190 0136 FFF7FEFF 		bl	PQCLEAN_HQC256_CLEAN_seedexpander_release
 191              	.LVL22:
  61:..\hqc.c      ****     PQCLEAN_HQC256_CLEAN_seedexpander_release(&sk_seedexpander);
 192              		.loc 1 61 0
 193 013a 0DF5E240 		add	r0, sp, #28928
 194 013e 1430     		adds	r0, r0, #20
 195 0140 FFF7FEFF 		bl	PQCLEAN_HQC256_CLEAN_seedexpander_release
 196              	.LVL23:
  62:..\hqc.c      **** }
 197              		.loc 1 62 0
 198 0144 0DF5E24D 		add	sp, sp, #28928
 199 0148 06B0     		add	sp, sp, #24
 200              		.cfi_def_cfa_offset 24
 201              		@ sp needed
 202 014a BDE8F081 		pop	{r4, r5, r6, r7, r8, pc}
 203              		.cfi_endproc
 204              	.LFE0:
 205              		.size	PQCLEAN_HQC256_CLEAN_hqc_pke_keygen, .-PQCLEAN_HQC256_CLEAN_hqc_pke_keygen
 206 014e 00BF     		.section	.text.PQCLEAN_HQC256_CLEAN_hqc_pke_encrypt,"ax",%progbits
 207              		.align	2
 208              		.global	PQCLEAN_HQC256_CLEAN_hqc_pke_encrypt
 209              		.thumb
 210              		.thumb_func
 211              		.type	PQCLEAN_HQC256_CLEAN_hqc_pke_encrypt, %function
 212              	PQCLEAN_HQC256_CLEAN_hqc_pke_encrypt:
 213              	.LFB1:
  63:..\hqc.c      **** 
  64:..\hqc.c      **** 
  65:..\hqc.c      **** 
  66:..\hqc.c      **** /**
  67:..\hqc.c      ****  * @brief Encryption of the HQC_PKE IND_CPA scheme
  68:..\hqc.c      ****  *
  69:..\hqc.c      ****  * The cihertext is composed of vectors <b>u</b> and <b>v</b>.
  70:..\hqc.c      ****  *
  71:..\hqc.c      ****  * @param[out] u Vector u (first part of the ciphertext)
  72:..\hqc.c      ****  * @param[out] v Vector v (second part of the ciphertext)
ARM GAS  C:\Users\bogur\AppData\Local\Temp\ccOdlH9R.s 			page 6


  73:..\hqc.c      ****  * @param[in] m Vector representing the message to encrypt
  74:..\hqc.c      ****  * @param[in] theta Seed used to derive randomness required for encryption
  75:..\hqc.c      ****  * @param[in] pk String containing the public key
  76:..\hqc.c      ****  */
  77:..\hqc.c      **** void PQCLEAN_HQC256_CLEAN_hqc_pke_encrypt(uint64_t *u, uint64_t *v, uint8_t *m, uint8_t *theta, con
 214              		.loc 1 77 0
 215              		.cfi_startproc
 216              		@ args = 4, pretend = 0, frame = 50464
 217              		@ frame_needed = 0, uses_anonymous_args = 0
 218              	.LVL24:
 219 0000 2DE9F041 		push	{r4, r5, r6, r7, r8, lr}
 220              		.cfi_def_cfa_offset 24
 221              		.cfi_offset 4, -24
 222              		.cfi_offset 5, -20
 223              		.cfi_offset 6, -16
 224              		.cfi_offset 7, -12
 225              		.cfi_offset 8, -8
 226              		.cfi_offset 14, -4
 227 0004 ADF5454D 		sub	sp, sp, #50432
 228              		.cfi_def_cfa_offset 50456
 229 0008 88B0     		sub	sp, sp, #32
 230              		.cfi_def_cfa_offset 50488
 231 000a 0646     		mov	r6, r0
 232 000c 0D46     		mov	r5, r1
 233 000e 1746     		mov	r7, r2
 234 0010 9846     		mov	r8, r3
  78:..\hqc.c      ****     seedexpander_state vec_seedexpander;
  79:..\hqc.c      ****     uint64_t h[VEC_N_SIZE_64] = {0};
 235              		.loc 1 79 0
 236 0012 41F62844 		movw	r4, #7208
 237 0016 2246     		mov	r2, r4
 238              	.LVL25:
 239 0018 0021     		movs	r1, #0
 240              	.LVL26:
 241 001a 0DF52840 		add	r0, sp, #43008
 242              	.LVL27:
 243 001e F030     		adds	r0, r0, #240
 244 0020 FFF7FEFF 		bl	memset
 245              	.LVL28:
  80:..\hqc.c      ****     uint64_t s[VEC_N_SIZE_64] = {0};
 246              		.loc 1 80 0
 247 0024 2246     		mov	r2, r4
 248 0026 0021     		movs	r1, #0
 249 0028 0DF50C40 		add	r0, sp, #35840
 250 002c C830     		adds	r0, r0, #200
 251 002e FFF7FEFF 		bl	memset
 252              	.LVL29:
  81:..\hqc.c      ****     uint64_t r1[VEC_N_SIZE_64] = {0};
 253              		.loc 1 81 0
 254 0032 2246     		mov	r2, r4
 255 0034 0021     		movs	r1, #0
 256 0036 0DF5E140 		add	r0, sp, #28800
 257 003a 2030     		adds	r0, r0, #32
 258 003c FFF7FEFF 		bl	memset
 259              	.LVL30:
  82:..\hqc.c      ****     uint64_t r2[VEC_N_SIZE_64] = {0};
 260              		.loc 1 82 0
ARM GAS  C:\Users\bogur\AppData\Local\Temp\ccOdlH9R.s 			page 7


 261 0040 2246     		mov	r2, r4
 262 0042 0021     		movs	r1, #0
 263 0044 0DF5A840 		add	r0, sp, #21504
 264 0048 7830     		adds	r0, r0, #120
 265 004a FFF7FEFF 		bl	memset
 266              	.LVL31:
  83:..\hqc.c      ****     uint64_t e[VEC_N_SIZE_64] = {0};
 267              		.loc 1 83 0
 268 004e 2246     		mov	r2, r4
 269 0050 0021     		movs	r1, #0
 270 0052 0DF56150 		add	r0, sp, #14400
 271 0056 1030     		adds	r0, r0, #16
 272 0058 FFF7FEFF 		bl	memset
 273              	.LVL32:
  84:..\hqc.c      ****     uint64_t tmp1[VEC_N_SIZE_64] = {0};
 274              		.loc 1 84 0
 275 005c 2246     		mov	r2, r4
 276 005e 0021     		movs	r1, #0
 277 0060 0DEB0400 		add	r0, sp, r4
 278 0064 FFF7FEFF 		bl	memset
 279              	.LVL33:
  85:..\hqc.c      ****     uint64_t tmp2[VEC_N_SIZE_64] = {0};
 280              		.loc 1 85 0
 281 0068 2246     		mov	r2, r4
 282 006a 0021     		movs	r1, #0
 283 006c 6846     		mov	r0, sp
 284 006e FFF7FEFF 		bl	memset
 285              	.LVL34:
  86:..\hqc.c      **** 
  87:..\hqc.c      ****     // Create seed_expander from theta
  88:..\hqc.c      ****     PQCLEAN_HQC256_CLEAN_seedexpander_init(&vec_seedexpander, theta, SEED_BYTES);
 286              		.loc 1 88 0
 287 0072 2822     		movs	r2, #40
 288 0074 4146     		mov	r1, r8
 289 0076 0DF54540 		add	r0, sp, #50432
 290 007a 1C30     		adds	r0, r0, #28
 291 007c FFF7FEFF 		bl	PQCLEAN_HQC256_CLEAN_seedexpander_init
 292              	.LVL35:
  89:..\hqc.c      **** 
  90:..\hqc.c      ****     // Retrieve h and s from public key
  91:..\hqc.c      ****     PQCLEAN_HQC256_CLEAN_hqc_public_key_from_string(h, s, pk);
 293              		.loc 1 91 0
 294 0080 0DF54543 		add	r3, sp, #50432
 295 0084 3833     		adds	r3, r3, #56
 296 0086 1A68     		ldr	r2, [r3]
 297 0088 0DF50C41 		add	r1, sp, #35840
 298 008c C831     		adds	r1, r1, #200
 299 008e 0DF52840 		add	r0, sp, #43008
 300 0092 F030     		adds	r0, r0, #240
 301 0094 FFF7FEFF 		bl	PQCLEAN_HQC256_CLEAN_hqc_public_key_from_string
 302              	.LVL36:
  92:..\hqc.c      **** 
  93:..\hqc.c      ****     // Generate r1, r2 and e
  94:..\hqc.c      ****     PQCLEAN_HQC256_CLEAN_vect_set_random_fixed_weight(&vec_seedexpander, r1, PARAM_OMEGA_R);
 303              		.loc 1 94 0
 304 0098 9522     		movs	r2, #149
 305 009a 0DF5E141 		add	r1, sp, #28800
ARM GAS  C:\Users\bogur\AppData\Local\Temp\ccOdlH9R.s 			page 8


 306 009e 2031     		adds	r1, r1, #32
 307 00a0 0DF54540 		add	r0, sp, #50432
 308 00a4 1C30     		adds	r0, r0, #28
 309 00a6 FFF7FEFF 		bl	PQCLEAN_HQC256_CLEAN_vect_set_random_fixed_weight
 310              	.LVL37:
  95:..\hqc.c      ****     PQCLEAN_HQC256_CLEAN_vect_set_random_fixed_weight(&vec_seedexpander, r2, PARAM_OMEGA_R);
 311              		.loc 1 95 0
 312 00aa 9522     		movs	r2, #149
 313 00ac 0DF5A841 		add	r1, sp, #21504
 314 00b0 7831     		adds	r1, r1, #120
 315 00b2 0DF54540 		add	r0, sp, #50432
 316 00b6 1C30     		adds	r0, r0, #28
 317 00b8 FFF7FEFF 		bl	PQCLEAN_HQC256_CLEAN_vect_set_random_fixed_weight
 318              	.LVL38:
  96:..\hqc.c      ****     PQCLEAN_HQC256_CLEAN_vect_set_random_fixed_weight(&vec_seedexpander, e, PARAM_OMEGA_E);
 319              		.loc 1 96 0
 320 00bc 9522     		movs	r2, #149
 321 00be 0DF56151 		add	r1, sp, #14400
 322 00c2 1031     		adds	r1, r1, #16
 323 00c4 0DF54540 		add	r0, sp, #50432
 324 00c8 1C30     		adds	r0, r0, #28
 325 00ca FFF7FEFF 		bl	PQCLEAN_HQC256_CLEAN_vect_set_random_fixed_weight
 326              	.LVL39:
  97:..\hqc.c      **** 
  98:..\hqc.c      ****     // Compute u = r1 + r2.h
  99:..\hqc.c      ****     PQCLEAN_HQC256_CLEAN_vect_mul(u, r2, h);
 327              		.loc 1 99 0
 328 00ce 0DF52842 		add	r2, sp, #43008
 329 00d2 F032     		adds	r2, r2, #240
 330 00d4 0DF5A841 		add	r1, sp, #21504
 331 00d8 7831     		adds	r1, r1, #120
 332 00da 3046     		mov	r0, r6
 333 00dc FFF7FEFF 		bl	PQCLEAN_HQC256_CLEAN_vect_mul
 334              	.LVL40:
 100:..\hqc.c      ****     PQCLEAN_HQC256_CLEAN_vect_add(u, r1, u, VEC_N_SIZE_64);
 335              		.loc 1 100 0
 336 00e0 40F28533 		movw	r3, #901
 337 00e4 3246     		mov	r2, r6
 338 00e6 0DF5E141 		add	r1, sp, #28800
 339 00ea 2031     		adds	r1, r1, #32
 340 00ec 3046     		mov	r0, r6
 341 00ee FFF7FEFF 		bl	PQCLEAN_HQC256_CLEAN_vect_add
 342              	.LVL41:
 101:..\hqc.c      **** 
 102:..\hqc.c      ****     // Compute v = m.G by encoding the message
 103:..\hqc.c      ****     PQCLEAN_HQC256_CLEAN_code_encode(v, m);
 343              		.loc 1 103 0
 344 00f2 3946     		mov	r1, r7
 345 00f4 2846     		mov	r0, r5
 346 00f6 FFF7FEFF 		bl	PQCLEAN_HQC256_CLEAN_code_encode
 347              	.LVL42:
 104:..\hqc.c      ****     PQCLEAN_HQC256_CLEAN_vect_resize(tmp1, PARAM_N, v, PARAM_N1N2);
 348              		.loc 1 104 0
 349 00fa 4FF46143 		mov	r3, #57600
 350 00fe 2A46     		mov	r2, r5
 351 0100 4EF22511 		movw	r1, #57637
 352 0104 0DEB0400 		add	r0, sp, r4
ARM GAS  C:\Users\bogur\AppData\Local\Temp\ccOdlH9R.s 			page 9


 353 0108 FFF7FEFF 		bl	PQCLEAN_HQC256_CLEAN_vect_resize
 354              	.LVL43:
 105:..\hqc.c      **** 
 106:..\hqc.c      ****     // Compute v = m.G + s.r2 + e
 107:..\hqc.c      ****     PQCLEAN_HQC256_CLEAN_vect_mul(tmp2, r2, s);
 355              		.loc 1 107 0
 356 010c 0DF50C42 		add	r2, sp, #35840
 357 0110 C832     		adds	r2, r2, #200
 358 0112 0DF5A841 		add	r1, sp, #21504
 359 0116 7831     		adds	r1, r1, #120
 360 0118 6846     		mov	r0, sp
 361 011a FFF7FEFF 		bl	PQCLEAN_HQC256_CLEAN_vect_mul
 362              	.LVL44:
 108:..\hqc.c      ****     PQCLEAN_HQC256_CLEAN_vect_add(tmp2, e, tmp2, VEC_N_SIZE_64);
 363              		.loc 1 108 0
 364 011e 40F28533 		movw	r3, #901
 365 0122 6A46     		mov	r2, sp
 366 0124 0DF56151 		add	r1, sp, #14400
 367 0128 1031     		adds	r1, r1, #16
 368 012a 6846     		mov	r0, sp
 369 012c FFF7FEFF 		bl	PQCLEAN_HQC256_CLEAN_vect_add
 370              	.LVL45:
 109:..\hqc.c      ****     PQCLEAN_HQC256_CLEAN_vect_add(tmp2, tmp1, tmp2, VEC_N_SIZE_64);
 371              		.loc 1 109 0
 372 0130 40F28533 		movw	r3, #901
 373 0134 6A46     		mov	r2, sp
 374 0136 0DEB0401 		add	r1, sp, r4
 375 013a 6846     		mov	r0, sp
 376 013c FFF7FEFF 		bl	PQCLEAN_HQC256_CLEAN_vect_add
 377              	.LVL46:
 110:..\hqc.c      ****     PQCLEAN_HQC256_CLEAN_vect_resize(v, PARAM_N1N2, tmp2, PARAM_N);
 378              		.loc 1 110 0
 379 0140 4EF22513 		movw	r3, #57637
 380 0144 6A46     		mov	r2, sp
 381 0146 4FF46141 		mov	r1, #57600
 382 014a 2846     		mov	r0, r5
 383 014c FFF7FEFF 		bl	PQCLEAN_HQC256_CLEAN_vect_resize
 384              	.LVL47:
 111:..\hqc.c      **** 
 112:..\hqc.c      ****     PQCLEAN_HQC256_CLEAN_seedexpander_release(&vec_seedexpander);
 385              		.loc 1 112 0
 386 0150 0DF54540 		add	r0, sp, #50432
 387 0154 1C30     		adds	r0, r0, #28
 388 0156 FFF7FEFF 		bl	PQCLEAN_HQC256_CLEAN_seedexpander_release
 389              	.LVL48:
 113:..\hqc.c      **** }
 390              		.loc 1 113 0
 391 015a 0DF5454D 		add	sp, sp, #50432
 392 015e 08B0     		add	sp, sp, #32
 393              		.cfi_def_cfa_offset 24
 394              		@ sp needed
 395 0160 BDE8F081 		pop	{r4, r5, r6, r7, r8, pc}
 396              		.cfi_endproc
 397              	.LFE1:
 398              		.size	PQCLEAN_HQC256_CLEAN_hqc_pke_encrypt, .-PQCLEAN_HQC256_CLEAN_hqc_pke_encrypt
 399              		.section	.text.PQCLEAN_HQC256_CLEAN_hqc_pke_decrypt,"ax",%progbits
 400              		.align	2
ARM GAS  C:\Users\bogur\AppData\Local\Temp\ccOdlH9R.s 			page 10


 401              		.global	PQCLEAN_HQC256_CLEAN_hqc_pke_decrypt
 402              		.thumb
 403              		.thumb_func
 404              		.type	PQCLEAN_HQC256_CLEAN_hqc_pke_decrypt, %function
 405              	PQCLEAN_HQC256_CLEAN_hqc_pke_decrypt:
 406              	.LFB2:
 114:..\hqc.c      **** 
 115:..\hqc.c      **** 
 116:..\hqc.c      **** 
 117:..\hqc.c      **** /**
 118:..\hqc.c      ****  * @brief Decryption of the HQC_PKE IND_CPA scheme
 119:..\hqc.c      ****  *
 120:..\hqc.c      ****  * @param[out] m Vector representing the decrypted message
 121:..\hqc.c      ****  * @param[in] u Vector u (first part of the ciphertext)
 122:..\hqc.c      ****  * @param[in] v Vector v (second part of the ciphertext)
 123:..\hqc.c      ****  * @param[in] sk String containing the secret key
 124:..\hqc.c      ****  * @returns 0
 125:..\hqc.c      ****  */
 126:..\hqc.c      **** uint8_t PQCLEAN_HQC256_CLEAN_hqc_pke_decrypt(uint8_t *m, uint8_t *sigma, const uint64_t *u, const u
 407              		.loc 1 126 0
 408              		.cfi_startproc
 409              		@ args = 4, pretend = 0, frame = 36080
 410              		@ frame_needed = 0, uses_anonymous_args = 0
 411              	.LVL49:
 412 0000 2DE9F041 		push	{r4, r5, r6, r7, r8, lr}
 413              		.cfi_def_cfa_offset 24
 414              		.cfi_offset 4, -24
 415              		.cfi_offset 5, -20
 416              		.cfi_offset 6, -16
 417              		.cfi_offset 7, -12
 418              		.cfi_offset 8, -8
 419              		.cfi_offset 14, -4
 420 0004 ADF50C4D 		sub	sp, sp, #35840
 421              		.cfi_def_cfa_offset 35864
 422 0008 BEB0     		sub	sp, sp, #248
 423              		.cfi_def_cfa_offset 36112
 424 000a 0546     		mov	r5, r0
 425 000c 8846     		mov	r8, r1
 426 000e 1646     		mov	r6, r2
 427 0010 1F46     		mov	r7, r3
 127:..\hqc.c      ****     uint64_t x[VEC_N_SIZE_64] = {0};
 428              		.loc 1 127 0
 429 0012 41F62844 		movw	r4, #7208
 430 0016 2246     		mov	r2, r4
 431              	.LVL50:
 432 0018 0021     		movs	r1, #0
 433              	.LVL51:
 434 001a 0DF5E140 		add	r0, sp, #28800
 435              	.LVL52:
 436 001e 5030     		adds	r0, r0, #80
 437 0020 FFF7FEFF 		bl	memset
 438              	.LVL53:
 128:..\hqc.c      ****     uint64_t y[VEC_N_SIZE_64] = {0};
 439              		.loc 1 128 0
 440 0024 2246     		mov	r2, r4
 441 0026 0021     		movs	r1, #0
 442 0028 0DF5A940 		add	r0, sp, #21632
ARM GAS  C:\Users\bogur\AppData\Local\Temp\ccOdlH9R.s 			page 11


 443 002c 2830     		adds	r0, r0, #40
 444 002e FFF7FEFF 		bl	memset
 445              	.LVL54:
 129:..\hqc.c      ****     uint8_t pk[PUBLIC_KEY_BYTES] = {0};
 446              		.loc 1 129 0
 447 0032 41F64D42 		movw	r2, #7245
 448 0036 0021     		movs	r1, #0
 449 0038 0DF56150 		add	r0, sp, #14400
 450 003c 1830     		adds	r0, r0, #24
 451 003e FFF7FEFF 		bl	memset
 452              	.LVL55:
 130:..\hqc.c      ****     uint64_t tmp1[VEC_N_SIZE_64] = {0};
 453              		.loc 1 130 0
 454 0042 2246     		mov	r2, r4
 455 0044 0021     		movs	r1, #0
 456 0046 0DF5E150 		add	r0, sp, #7200
 457 004a 1030     		adds	r0, r0, #16
 458 004c FFF7FEFF 		bl	memset
 459              	.LVL56:
 131:..\hqc.c      ****     uint64_t tmp2[VEC_N_SIZE_64] = {0};
 460              		.loc 1 131 0
 461 0050 2246     		mov	r2, r4
 462 0052 0021     		movs	r1, #0
 463 0054 02A8     		add	r0, sp, #8
 464 0056 FFF7FEFF 		bl	memset
 465              	.LVL57:
 132:..\hqc.c      **** 
 133:..\hqc.c      ****     // Retrieve x, y, pk from secret key
 134:..\hqc.c      ****     PQCLEAN_HQC256_CLEAN_hqc_secret_key_from_string(x, y, sigma, pk, sk);
 466              		.loc 1 134 0
 467 005a 0DF50D43 		add	r3, sp, #36096
 468 005e 1033     		adds	r3, r3, #16
 469 0060 1B68     		ldr	r3, [r3]
 470 0062 0093     		str	r3, [sp]
 471 0064 0DF56153 		add	r3, sp, #14400
 472 0068 1833     		adds	r3, r3, #24
 473 006a 4246     		mov	r2, r8
 474 006c 0DF5A941 		add	r1, sp, #21632
 475 0070 2831     		adds	r1, r1, #40
 476 0072 0DF5E140 		add	r0, sp, #28800
 477 0076 5030     		adds	r0, r0, #80
 478 0078 FFF7FEFF 		bl	PQCLEAN_HQC256_CLEAN_hqc_secret_key_from_string
 479              	.LVL58:
 135:..\hqc.c      **** 
 136:..\hqc.c      ****     // Compute v - u.y
 137:..\hqc.c      ****     PQCLEAN_HQC256_CLEAN_vect_resize(tmp1, PARAM_N, v, PARAM_N1N2);
 480              		.loc 1 137 0
 481 007c 4FF46143 		mov	r3, #57600
 482 0080 3A46     		mov	r2, r7
 483 0082 4EF22511 		movw	r1, #57637
 484 0086 0DF5E150 		add	r0, sp, #7200
 485 008a 1030     		adds	r0, r0, #16
 486 008c FFF7FEFF 		bl	PQCLEAN_HQC256_CLEAN_vect_resize
 487              	.LVL59:
 138:..\hqc.c      ****     PQCLEAN_HQC256_CLEAN_vect_mul(tmp2, y, u);
 488              		.loc 1 138 0
 489 0090 3246     		mov	r2, r6
ARM GAS  C:\Users\bogur\AppData\Local\Temp\ccOdlH9R.s 			page 12


 490 0092 0DF5A941 		add	r1, sp, #21632
 491 0096 2831     		adds	r1, r1, #40
 492 0098 02A8     		add	r0, sp, #8
 493 009a FFF7FEFF 		bl	PQCLEAN_HQC256_CLEAN_vect_mul
 494              	.LVL60:
 139:..\hqc.c      ****     PQCLEAN_HQC256_CLEAN_vect_add(tmp2, tmp1, tmp2, VEC_N_SIZE_64);
 495              		.loc 1 139 0
 496 009e 40F28533 		movw	r3, #901
 497 00a2 02AA     		add	r2, sp, #8
 498 00a4 0DF5E151 		add	r1, sp, #7200
 499 00a8 1031     		adds	r1, r1, #16
 500 00aa 1046     		mov	r0, r2
 501 00ac FFF7FEFF 		bl	PQCLEAN_HQC256_CLEAN_vect_add
 502              	.LVL61:
 140:..\hqc.c      **** 
 141:..\hqc.c      **** 
 142:..\hqc.c      ****     // Compute m by decoding v - u.y
 143:..\hqc.c      ****     PQCLEAN_HQC256_CLEAN_code_decode(m, tmp2);
 503              		.loc 1 143 0
 504 00b0 02A9     		add	r1, sp, #8
 505 00b2 2846     		mov	r0, r5
 506 00b4 FFF7FEFF 		bl	PQCLEAN_HQC256_CLEAN_code_decode
 507              	.LVL62:
 144:..\hqc.c      **** 
 145:..\hqc.c      ****     return 0;
 146:..\hqc.c      **** }
 508              		.loc 1 146 0
 509 00b8 0020     		movs	r0, #0
 510 00ba 0DF50C4D 		add	sp, sp, #35840
 511 00be 3EB0     		add	sp, sp, #248
 512              		.cfi_def_cfa_offset 24
 513              		@ sp needed
 514 00c0 BDE8F081 		pop	{r4, r5, r6, r7, r8, pc}
 515              		.cfi_endproc
 516              	.LFE2:
 517              		.size	PQCLEAN_HQC256_CLEAN_hqc_pke_decrypt, .-PQCLEAN_HQC256_CLEAN_hqc_pke_decrypt
 518              		.text
 519              	.Letext0:
 520              		.file 2 "c:\\program files (x86)\\cypress\\psoc creator\\4.4\\psoc creator\\import\\gnu\\arm\\5.4.
 521              		.file 3 "c:\\program files (x86)\\cypress\\psoc creator\\4.4\\psoc creator\\import\\gnu\\arm\\5.4.
 522              		.file 4 "..\\fips202.h"
 523              		.file 5 "..\\shake_prng.h"
 524              		.file 6 "..\\randombytes.h"
 525              		.file 7 "..\\vector.h"
 526              		.file 8 "..\\gf2x.h"
 527              		.file 9 "..\\parsing.h"
 528              		.file 10 "..\\code.h"