ARM GAS  C:\Users\bogur\AppData\Local\Temp\ccnIXZyc.s 			page 1


   1              		.syntax unified
   2              		.cpu cortex-m4
   3              		.eabi_attribute 27, 1
   4              		.fpu fpv4-sp-d16
   5              		.eabi_attribute 20, 1
   6              		.eabi_attribute 21, 1
   7              		.eabi_attribute 23, 3
   8              		.eabi_attribute 24, 1
   9              		.eabi_attribute 25, 1
  10              		.eabi_attribute 26, 1
  11              		.eabi_attribute 30, 1
  12              		.eabi_attribute 34, 1
  13              		.eabi_attribute 18, 4
  14              		.thumb
  15              		.syntax unified
  16              		.file	"cbd.c"
  17              		.text
  18              	.Ltext0:
  19              		.cfi_sections	.debug_frame
  20              		.section	.text.load32_littleendian,"ax",%progbits
  21              		.align	2
  22              		.thumb
  23              		.thumb_func
  24              		.type	load32_littleendian, %function
  25              	load32_littleendian:
  26              	.LFB0:
  27              		.file 1 "..\\cbd.c"
   1:..\cbd.c      **** #include <stdint.h>
   2:..\cbd.c      **** #include "params.h"
   3:..\cbd.c      **** #include "cbd.h"
   4:..\cbd.c      **** 
   5:..\cbd.c      **** /*************************************************
   6:..\cbd.c      **** * Name:        load32_littleendian
   7:..\cbd.c      **** *
   8:..\cbd.c      **** * Description: load 4 bytes into a 32-bit integer
   9:..\cbd.c      **** *              in little-endian order
  10:..\cbd.c      **** *
  11:..\cbd.c      **** * Arguments:   - const uint8_t *x: pointer to input byte array
  12:..\cbd.c      **** *
  13:..\cbd.c      **** * Returns 32-bit unsigned integer loaded from x
  14:..\cbd.c      **** **************************************************/
  15:..\cbd.c      **** static uint32_t load32_littleendian(const uint8_t x[4])
  16:..\cbd.c      **** {
  28              		.loc 1 16 0
  29              		.cfi_startproc
  30              		@ args = 0, pretend = 0, frame = 0
  31              		@ frame_needed = 0, uses_anonymous_args = 0
  32              		@ link register save eliminated.
  33              	.LVL0:
  17:..\cbd.c      ****   uint32_t r;
  18:..\cbd.c      ****   r  = (uint32_t)x[0];
  34              		.loc 1 18 0
  35 0000 0378     		ldrb	r3, [r0]	@ zero_extendqisi2
  36              	.LVL1:
  19:..\cbd.c      ****   r |= (uint32_t)x[1] << 8;
  37              		.loc 1 19 0
  38 0002 4278     		ldrb	r2, [r0, #1]	@ zero_extendqisi2
ARM GAS  C:\Users\bogur\AppData\Local\Temp\ccnIXZyc.s 			page 2


  39 0004 43EA0223 		orr	r3, r3, r2, lsl #8
  40              	.LVL2:
  20:..\cbd.c      ****   r |= (uint32_t)x[2] << 16;
  41              		.loc 1 20 0
  42 0008 8278     		ldrb	r2, [r0, #2]	@ zero_extendqisi2
  43 000a 43EA0243 		orr	r3, r3, r2, lsl #16
  44              	.LVL3:
  21:..\cbd.c      ****   r |= (uint32_t)x[3] << 24;
  45              		.loc 1 21 0
  46 000e C078     		ldrb	r0, [r0, #3]	@ zero_extendqisi2
  47              	.LVL4:
  22:..\cbd.c      ****   return r;
  23:..\cbd.c      **** }
  48              		.loc 1 23 0
  49 0010 43EA0060 		orr	r0, r3, r0, lsl #24
  50              	.LVL5:
  51 0014 7047     		bx	lr
  52              		.cfi_endproc
  53              	.LFE0:
  54              		.size	load32_littleendian, .-load32_littleendian
  55 0016 00BF     		.section	.text.cbd2,"ax",%progbits
  56              		.align	2
  57              		.thumb
  58              		.thumb_func
  59              		.type	cbd2, %function
  60              	cbd2:
  61              	.LFB1:
  24:..\cbd.c      **** 
  25:..\cbd.c      **** /*************************************************
  26:..\cbd.c      **** * Name:        load24_littleendian
  27:..\cbd.c      **** *
  28:..\cbd.c      **** * Description: load 3 bytes into a 32-bit integer
  29:..\cbd.c      **** *              in little-endian order
  30:..\cbd.c      **** *              This function is only needed for Kyber-512
  31:..\cbd.c      **** *
  32:..\cbd.c      **** * Arguments:   - const uint8_t *x: pointer to input byte array
  33:..\cbd.c      **** *
  34:..\cbd.c      **** * Returns 32-bit unsigned integer loaded from x (most significant byte is zero)
  35:..\cbd.c      **** **************************************************/
  36:..\cbd.c      **** #if KYBER_ETA1 == 3
  37:..\cbd.c      **** static uint32_t load24_littleendian(const uint8_t x[3])
  38:..\cbd.c      **** {
  39:..\cbd.c      ****   uint32_t r;
  40:..\cbd.c      ****   r  = (uint32_t)x[0];
  41:..\cbd.c      ****   r |= (uint32_t)x[1] << 8;
  42:..\cbd.c      ****   r |= (uint32_t)x[2] << 16;
  43:..\cbd.c      ****   return r;
  44:..\cbd.c      **** }
  45:..\cbd.c      **** #endif
  46:..\cbd.c      **** 
  47:..\cbd.c      **** 
  48:..\cbd.c      **** /*************************************************
  49:..\cbd.c      **** * Name:        cbd2
  50:..\cbd.c      **** *
  51:..\cbd.c      **** * Description: Given an array of uniformly random bytes, compute
  52:..\cbd.c      **** *              polynomial with coefficients distributed according to
  53:..\cbd.c      **** *              a centered binomial distribution with parameter eta=2
ARM GAS  C:\Users\bogur\AppData\Local\Temp\ccnIXZyc.s 			page 3


  54:..\cbd.c      **** *
  55:..\cbd.c      **** * Arguments:   - poly *r:            pointer to output polynomial
  56:..\cbd.c      **** *              - const uint8_t *buf: pointer to input byte array
  57:..\cbd.c      **** **************************************************/
  58:..\cbd.c      **** static void cbd2(poly *r, const uint8_t buf[2*KYBER_N/4])
  59:..\cbd.c      **** {
  62              		.loc 1 59 0
  63              		.cfi_startproc
  64              		@ args = 0, pretend = 0, frame = 0
  65              		@ frame_needed = 0, uses_anonymous_args = 0
  66              	.LVL6:
  67 0000 F8B5     		push	{r3, r4, r5, r6, r7, lr}
  68              		.cfi_def_cfa_offset 24
  69              		.cfi_offset 3, -24
  70              		.cfi_offset 4, -20
  71              		.cfi_offset 5, -16
  72              		.cfi_offset 6, -12
  73              		.cfi_offset 7, -8
  74              		.cfi_offset 14, -4
  75 0002 0546     		mov	r5, r0
  76 0004 0E46     		mov	r6, r1
  77              	.LVL7:
  60:..\cbd.c      ****   unsigned int i,j;
  61:..\cbd.c      ****   uint32_t t,d;
  62:..\cbd.c      ****   int16_t a,b;
  63:..\cbd.c      **** 
  64:..\cbd.c      ****   for(i=0;i<KYBER_N/8;i++) {
  78              		.loc 1 64 0
  79 0006 0024     		movs	r4, #0
  80 0008 1EE0     		b	.L3
  81              	.LVL8:
  82              	.L6:
  65:..\cbd.c      ****     t  = load32_littleendian(buf+4*i);
  83              		.loc 1 65 0
  84 000a 06EB8400 		add	r0, r6, r4, lsl #2
  85 000e FFF7FEFF 		bl	load32_littleendian
  86              	.LVL9:
  66:..\cbd.c      ****     d  = t & 0x55555555;
  87              		.loc 1 66 0
  88 0012 00F05533 		and	r3, r0, #1431655765
  89              	.LVL10:
  67:..\cbd.c      ****     d += (t>>1) & 0x55555555;
  90              		.loc 1 67 0
  91 0016 4008     		lsrs	r0, r0, #1
  92              	.LVL11:
  93 0018 00F05530 		and	r0, r0, #1431655765
  94 001c 1844     		add	r0, r0, r3
  95              	.LVL12:
  68:..\cbd.c      **** 
  69:..\cbd.c      ****     for(j=0;j<8;j++) {
  96              		.loc 1 69 0
  97 001e 0021     		movs	r1, #0
  98 0020 0FE0     		b	.L4
  99              	.LVL13:
 100              	.L5:
  70:..\cbd.c      ****       a = (d >> (4*j+0)) & 0x3;
 101              		.loc 1 70 0 discriminator 3
ARM GAS  C:\Users\bogur\AppData\Local\Temp\ccnIXZyc.s 			page 4


 102 0022 8B00     		lsls	r3, r1, #2
 103 0024 20FA03F2 		lsr	r2, r0, r3
 104 0028 02F00302 		and	r2, r2, #3
 105              	.LVL14:
  71:..\cbd.c      ****       b = (d >> (4*j+2)) & 0x3;
 106              		.loc 1 71 0 discriminator 3
 107 002c 0233     		adds	r3, r3, #2
 108 002e 20FA03F3 		lsr	r3, r0, r3
 109 0032 03F00303 		and	r3, r3, #3
 110              	.LVL15:
  72:..\cbd.c      ****       r->coeffs[8*i+j] = a - b;
 111              		.loc 1 72 0 discriminator 3
 112 0036 01EBC407 		add	r7, r1, r4, lsl #3
 113 003a D31A     		subs	r3, r2, r3
 114              	.LVL16:
 115 003c 25F81730 		strh	r3, [r5, r7, lsl #1]	@ movhi
  69:..\cbd.c      ****       a = (d >> (4*j+0)) & 0x3;
 116              		.loc 1 69 0 discriminator 3
 117 0040 0131     		adds	r1, r1, #1
 118              	.LVL17:
 119              	.L4:
  69:..\cbd.c      ****       a = (d >> (4*j+0)) & 0x3;
 120              		.loc 1 69 0 is_stmt 0 discriminator 1
 121 0042 0729     		cmp	r1, #7
 122 0044 EDD9     		bls	.L5
  64:..\cbd.c      ****     t  = load32_littleendian(buf+4*i);
 123              		.loc 1 64 0 is_stmt 1 discriminator 2
 124 0046 0134     		adds	r4, r4, #1
 125              	.LVL18:
 126              	.L3:
  64:..\cbd.c      ****     t  = load32_littleendian(buf+4*i);
 127              		.loc 1 64 0 is_stmt 0 discriminator 1
 128 0048 1F2C     		cmp	r4, #31
 129 004a DED9     		bls	.L6
  73:..\cbd.c      ****     }
  74:..\cbd.c      ****   }
  75:..\cbd.c      **** }
 130              		.loc 1 75 0 is_stmt 1
 131 004c F8BD     		pop	{r3, r4, r5, r6, r7, pc}
 132              		.cfi_endproc
 133              	.LFE1:
 134              		.size	cbd2, .-cbd2
 135 004e 00BF     		.section	.text.pqcrystals_kyber1024_ref_cbd_eta1,"ax",%progbits
 136              		.align	2
 137              		.global	pqcrystals_kyber1024_ref_cbd_eta1
 138              		.thumb
 139              		.thumb_func
 140              		.type	pqcrystals_kyber1024_ref_cbd_eta1, %function
 141              	pqcrystals_kyber1024_ref_cbd_eta1:
 142              	.LFB2:
  76:..\cbd.c      **** 
  77:..\cbd.c      **** /*************************************************
  78:..\cbd.c      **** * Name:        cbd3
  79:..\cbd.c      **** *
  80:..\cbd.c      **** * Description: Given an array of uniformly random bytes, compute
  81:..\cbd.c      **** *              polynomial with coefficients distributed according to
  82:..\cbd.c      **** *              a centered binomial distribution with parameter eta=3
ARM GAS  C:\Users\bogur\AppData\Local\Temp\ccnIXZyc.s 			page 5


  83:..\cbd.c      **** *              This function is only needed for Kyber-512
  84:..\cbd.c      **** *
  85:..\cbd.c      **** * Arguments:   - poly *r:            pointer to output polynomial
  86:..\cbd.c      **** *              - const uint8_t *buf: pointer to input byte array
  87:..\cbd.c      **** **************************************************/
  88:..\cbd.c      **** #if KYBER_ETA1 == 3
  89:..\cbd.c      **** static void cbd3(poly *r, const uint8_t buf[3*KYBER_N/4])
  90:..\cbd.c      **** {
  91:..\cbd.c      ****   unsigned int i,j;
  92:..\cbd.c      ****   uint32_t t,d;
  93:..\cbd.c      ****   int16_t a,b;
  94:..\cbd.c      **** 
  95:..\cbd.c      ****   for(i=0;i<KYBER_N/4;i++) {
  96:..\cbd.c      ****     t  = load24_littleendian(buf+3*i);
  97:..\cbd.c      ****     d  = t & 0x00249249;
  98:..\cbd.c      ****     d += (t>>1) & 0x00249249;
  99:..\cbd.c      ****     d += (t>>2) & 0x00249249;
 100:..\cbd.c      **** 
 101:..\cbd.c      ****     for(j=0;j<4;j++) {
 102:..\cbd.c      ****       a = (d >> (6*j+0)) & 0x7;
 103:..\cbd.c      ****       b = (d >> (6*j+3)) & 0x7;
 104:..\cbd.c      ****       r->coeffs[4*i+j] = a - b;
 105:..\cbd.c      ****     }
 106:..\cbd.c      ****   }
 107:..\cbd.c      **** }
 108:..\cbd.c      **** #endif
 109:..\cbd.c      **** 
 110:..\cbd.c      **** void cbd_eta1(poly *r, const uint8_t buf[KYBER_ETA1*KYBER_N/4])
 111:..\cbd.c      **** {
 143              		.loc 1 111 0
 144              		.cfi_startproc
 145              		@ args = 0, pretend = 0, frame = 0
 146              		@ frame_needed = 0, uses_anonymous_args = 0
 147              	.LVL19:
 148 0000 08B5     		push	{r3, lr}
 149              		.cfi_def_cfa_offset 8
 150              		.cfi_offset 3, -8
 151              		.cfi_offset 14, -4
 112:..\cbd.c      **** #if KYBER_ETA1 == 2
 113:..\cbd.c      ****   cbd2(r, buf);
 152              		.loc 1 113 0
 153 0002 FFF7FEFF 		bl	cbd2
 154              	.LVL20:
 155 0006 08BD     		pop	{r3, pc}
 156              		.cfi_endproc
 157              	.LFE2:
 158              		.size	pqcrystals_kyber1024_ref_cbd_eta1, .-pqcrystals_kyber1024_ref_cbd_eta1
 159              		.section	.text.pqcrystals_kyber1024_ref_cbd_eta2,"ax",%progbits
 160              		.align	2
 161              		.global	pqcrystals_kyber1024_ref_cbd_eta2
 162              		.thumb
 163              		.thumb_func
 164              		.type	pqcrystals_kyber1024_ref_cbd_eta2, %function
 165              	pqcrystals_kyber1024_ref_cbd_eta2:
 166              	.LFB3:
 114:..\cbd.c      **** #elif KYBER_ETA1 == 3
 115:..\cbd.c      ****   cbd3(r, buf);
ARM GAS  C:\Users\bogur\AppData\Local\Temp\ccnIXZyc.s 			page 6


 116:..\cbd.c      **** #else
 117:..\cbd.c      **** #error "This implementation requires eta1 in {2,3}"
 118:..\cbd.c      **** #endif
 119:..\cbd.c      **** }
 120:..\cbd.c      **** 
 121:..\cbd.c      **** void cbd_eta2(poly *r, const uint8_t buf[KYBER_ETA1*KYBER_N/4])
 122:..\cbd.c      **** {
 167              		.loc 1 122 0
 168              		.cfi_startproc
 169              		@ args = 0, pretend = 0, frame = 0
 170              		@ frame_needed = 0, uses_anonymous_args = 0
 171              	.LVL21:
 172 0000 08B5     		push	{r3, lr}
 173              		.cfi_def_cfa_offset 8
 174              		.cfi_offset 3, -8
 175              		.cfi_offset 14, -4
 123:..\cbd.c      **** #if KYBER_ETA2 != 2
 124:..\cbd.c      **** #error "This implementation requires eta2 = 2"
 125:..\cbd.c      **** #else
 126:..\cbd.c      ****   cbd2(r, buf);
 176              		.loc 1 126 0
 177 0002 FFF7FEFF 		bl	cbd2
 178              	.LVL22:
 179 0006 08BD     		pop	{r3, pc}
 180              		.cfi_endproc
 181              	.LFE3:
 182              		.size	pqcrystals_kyber1024_ref_cbd_eta2, .-pqcrystals_kyber1024_ref_cbd_eta2
 183              		.text
 184              	.Letext0:
 185              		.file 2 "c:\\program files (x86)\\cypress\\psoc creator\\4.4\\psoc creator\\import\\gnu\\arm\\5.4.
 186              		.file 3 "c:\\program files (x86)\\cypress\\psoc creator\\4.4\\psoc creator\\import\\gnu\\arm\\5.4.
 187              		.file 4 "..\\poly.h"