ARM GAS  C:\Users\bogur\AppData\Local\Temp\cc4rWh5U.s 			page 1


   1              		.syntax unified
   2              		.cpu cortex-m4
   3              		.eabi_attribute 27, 1
   4              		.fpu fpv4-sp-d16
   5              		.eabi_attribute 20, 1
   6              		.eabi_attribute 21, 1
   7              		.eabi_attribute 23, 3
   8              		.eabi_attribute 24, 1
   9              		.eabi_attribute 25, 1
  10              		.eabi_attribute 26, 1
  11              		.eabi_attribute 30, 1
  12              		.eabi_attribute 34, 1
  13              		.eabi_attribute 18, 4
  14              		.thumb
  15              		.syntax unified
  16              		.file	"sha256.c"
  17              		.text
  18              	.Ltext0:
  19              		.cfi_sections	.debug_frame
  20              		.section	.text.load_bigendian,"ax",%progbits
  21              		.align	2
  22              		.thumb
  23              		.thumb_func
  24              		.type	load_bigendian, %function
  25              	load_bigendian:
  26              	.LFB0:
  27              		.file 1 "..\\sha256.c"
   1:..\sha256.c   **** /* Adapted from Public Domain code by D. J. Bernstein. */
   2:..\sha256.c   **** 
   3:..\sha256.c   **** #include <stddef.h>
   4:..\sha256.c   **** #include <stdint.h>
   5:..\sha256.c   **** #include "sha2.h"
   6:..\sha256.c   **** 
   7:..\sha256.c   **** static uint32_t load_bigendian(const uint8_t *x)
   8:..\sha256.c   **** {
  28              		.loc 1 8 0
  29              		.cfi_startproc
  30              		@ args = 0, pretend = 0, frame = 0
  31              		@ frame_needed = 0, uses_anonymous_args = 0
  32              		@ link register save eliminated.
  33              	.LVL0:
   9:..\sha256.c   ****   return
  10:..\sha256.c   ****       (uint32_t) (x[3]) \
  34              		.loc 1 10 0
  35 0000 C378     		ldrb	r3, [r0, #3]	@ zero_extendqisi2
  11:..\sha256.c   ****   | (((uint32_t) (x[2])) << 8) \
  36              		.loc 1 11 0
  37 0002 8278     		ldrb	r2, [r0, #2]	@ zero_extendqisi2
  38 0004 43EA0223 		orr	r3, r3, r2, lsl #8
  12:..\sha256.c   ****   | (((uint32_t) (x[1])) << 16) \
  39              		.loc 1 12 0
  40 0008 4278     		ldrb	r2, [r0, #1]	@ zero_extendqisi2
  41 000a 43EA0243 		orr	r3, r3, r2, lsl #16
  13:..\sha256.c   ****   | (((uint32_t) (x[0])) << 24)
  42              		.loc 1 13 0
  43 000e 0078     		ldrb	r0, [r0]	@ zero_extendqisi2
  44              	.LVL1:
ARM GAS  C:\Users\bogur\AppData\Local\Temp\cc4rWh5U.s 			page 2


  14:..\sha256.c   ****   ;
  15:..\sha256.c   **** }
  45              		.loc 1 15 0
  46 0010 43EA0060 		orr	r0, r3, r0, lsl #24
  47 0014 7047     		bx	lr
  48              		.cfi_endproc
  49              	.LFE0:
  50              		.size	load_bigendian, .-load_bigendian
  51 0016 00BF     		.section	.text.store_bigendian,"ax",%progbits
  52              		.align	2
  53              		.thumb
  54              		.thumb_func
  55              		.type	store_bigendian, %function
  56              	store_bigendian:
  57              	.LFB1:
  16:..\sha256.c   **** 
  17:..\sha256.c   **** static void store_bigendian(uint8_t *x,uint32_t u)
  18:..\sha256.c   **** {
  58              		.loc 1 18 0
  59              		.cfi_startproc
  60              		@ args = 0, pretend = 0, frame = 0
  61              		@ frame_needed = 0, uses_anonymous_args = 0
  62              		@ link register save eliminated.
  63              	.LVL2:
  19:..\sha256.c   ****   x[3] = u; u >>= 8;
  64              		.loc 1 19 0
  65 0000 C170     		strb	r1, [r0, #3]
  66 0002 0B0A     		lsrs	r3, r1, #8
  67              	.LVL3:
  20:..\sha256.c   ****   x[2] = u; u >>= 8;
  68              		.loc 1 20 0
  69 0004 8370     		strb	r3, [r0, #2]
  70 0006 0B0C     		lsrs	r3, r1, #16
  71              	.LVL4:
  21:..\sha256.c   ****   x[1] = u; u >>= 8;
  72              		.loc 1 21 0
  73 0008 4370     		strb	r3, [r0, #1]
  74 000a 090E     		lsrs	r1, r1, #24
  75              	.LVL5:
  22:..\sha256.c   ****   x[0] = u;
  76              		.loc 1 22 0
  77 000c 0170     		strb	r1, [r0]
  78 000e 7047     		bx	lr
  79              		.cfi_endproc
  80              	.LFE1:
  81              		.size	store_bigendian, .-store_bigendian
  82              		.section	.text.crypto_hashblocks_sha256,"ax",%progbits
  83              		.align	2
  84              		.thumb
  85              		.thumb_func
  86              		.type	crypto_hashblocks_sha256, %function
  87              	crypto_hashblocks_sha256:
  88              	.LFB2:
  23:..\sha256.c   **** }
  24:..\sha256.c   **** 
  25:..\sha256.c   **** #define SHR(x,c) ((x) >> (c))
  26:..\sha256.c   **** #define ROTR(x,c) (((x) >> (c)) | ((x) << (32 - (c))))
ARM GAS  C:\Users\bogur\AppData\Local\Temp\cc4rWh5U.s 			page 3


  27:..\sha256.c   **** 
  28:..\sha256.c   **** #define Ch(x,y,z) ((x & y) ^ (~x & z))
  29:..\sha256.c   **** #define Maj(x,y,z) ((x & y) ^ (x & z) ^ (y & z))
  30:..\sha256.c   **** #define Sigma0(x) (ROTR(x, 2) ^ ROTR(x,13) ^ ROTR(x,22))
  31:..\sha256.c   **** #define Sigma1(x) (ROTR(x, 6) ^ ROTR(x,11) ^ ROTR(x,25))
  32:..\sha256.c   **** #define sigma0(x) (ROTR(x, 7) ^ ROTR(x,18) ^ SHR(x, 3))
  33:..\sha256.c   **** #define sigma1(x) (ROTR(x,17) ^ ROTR(x,19) ^ SHR(x,10))
  34:..\sha256.c   **** 
  35:..\sha256.c   **** #define M(w0,w14,w9,w1) w0 = sigma1(w14) + w9 + sigma0(w1) + w0;
  36:..\sha256.c   **** 
  37:..\sha256.c   **** #define EXPAND \
  38:..\sha256.c   ****   M(w0 ,w14,w9 ,w1 ) \
  39:..\sha256.c   ****   M(w1 ,w15,w10,w2 ) \
  40:..\sha256.c   ****   M(w2 ,w0 ,w11,w3 ) \
  41:..\sha256.c   ****   M(w3 ,w1 ,w12,w4 ) \
  42:..\sha256.c   ****   M(w4 ,w2 ,w13,w5 ) \
  43:..\sha256.c   ****   M(w5 ,w3 ,w14,w6 ) \
  44:..\sha256.c   ****   M(w6 ,w4 ,w15,w7 ) \
  45:..\sha256.c   ****   M(w7 ,w5 ,w0 ,w8 ) \
  46:..\sha256.c   ****   M(w8 ,w6 ,w1 ,w9 ) \
  47:..\sha256.c   ****   M(w9 ,w7 ,w2 ,w10) \
  48:..\sha256.c   ****   M(w10,w8 ,w3 ,w11) \
  49:..\sha256.c   ****   M(w11,w9 ,w4 ,w12) \
  50:..\sha256.c   ****   M(w12,w10,w5 ,w13) \
  51:..\sha256.c   ****   M(w13,w11,w6 ,w14) \
  52:..\sha256.c   ****   M(w14,w12,w7 ,w15) \
  53:..\sha256.c   ****   M(w15,w13,w8 ,w0 )
  54:..\sha256.c   **** 
  55:..\sha256.c   **** #define F(w,k) \
  56:..\sha256.c   ****   T1 = h + Sigma1(e) + Ch(e,f,g) + k + w; \
  57:..\sha256.c   ****   T2 = Sigma0(a) + Maj(a,b,c); \
  58:..\sha256.c   ****   h = g; \
  59:..\sha256.c   ****   g = f; \
  60:..\sha256.c   ****   f = e; \
  61:..\sha256.c   ****   e = d + T1; \
  62:..\sha256.c   ****   d = c; \
  63:..\sha256.c   ****   c = b; \
  64:..\sha256.c   ****   b = a; \
  65:..\sha256.c   ****   a = T1 + T2;
  66:..\sha256.c   **** 
  67:..\sha256.c   **** static int crypto_hashblocks_sha256(uint8_t *statebytes,const uint8_t *in,size_t inlen)
  68:..\sha256.c   **** {
  89              		.loc 1 68 0
  90              		.cfi_startproc
  91              		@ args = 0, pretend = 0, frame = 152
  92              		@ frame_needed = 0, uses_anonymous_args = 0
  93              	.LVL6:
  94 0000 2DE9F04F 		push	{r4, r5, r6, r7, r8, r9, r10, fp, lr}
  95              		.cfi_def_cfa_offset 36
  96              		.cfi_offset 4, -36
  97              		.cfi_offset 5, -32
  98              		.cfi_offset 6, -28
  99              		.cfi_offset 7, -24
 100              		.cfi_offset 8, -20
 101              		.cfi_offset 9, -16
 102              		.cfi_offset 10, -12
 103              		.cfi_offset 11, -8
ARM GAS  C:\Users\bogur\AppData\Local\Temp\cc4rWh5U.s 			page 4


 104              		.cfi_offset 14, -4
 105 0004 A7B0     		sub	sp, sp, #156
 106              		.cfi_def_cfa_offset 192
 107 0006 0446     		mov	r4, r0
 108 0008 1D90     		str	r0, [sp, #116]
 109 000a 0191     		str	r1, [sp, #4]
 110 000c 1592     		str	r2, [sp, #84]
  69:..\sha256.c   ****   uint32_t state[8];
  70:..\sha256.c   ****   uint32_t a;
  71:..\sha256.c   ****   uint32_t b;
  72:..\sha256.c   ****   uint32_t c;
  73:..\sha256.c   ****   uint32_t d;
  74:..\sha256.c   ****   uint32_t e;
  75:..\sha256.c   ****   uint32_t f;
  76:..\sha256.c   ****   uint32_t g;
  77:..\sha256.c   ****   uint32_t h;
  78:..\sha256.c   ****   uint32_t T1;
  79:..\sha256.c   ****   uint32_t T2;
  80:..\sha256.c   **** 
  81:..\sha256.c   ****   a = load_bigendian(statebytes +  0); state[0] = a;
 111              		.loc 1 81 0
 112 000e FFF7FEFF 		bl	load_bigendian
 113              	.LVL7:
 114 0012 8146     		mov	r9, r0
 115              	.LVL8:
 116 0014 1E90     		str	r0, [sp, #120]
  82:..\sha256.c   ****   b = load_bigendian(statebytes +  4); state[1] = b;
 117              		.loc 1 82 0
 118 0016 2346     		mov	r3, r4
 119 0018 0433     		adds	r3, r3, #4
 120 001a 1693     		str	r3, [sp, #88]
 121 001c 1846     		mov	r0, r3
 122              	.LVL9:
 123 001e FFF7FEFF 		bl	load_bigendian
 124              	.LVL10:
 125 0022 8346     		mov	fp, r0
 126              	.LVL11:
 127 0024 1F90     		str	r0, [sp, #124]
  83:..\sha256.c   ****   c = load_bigendian(statebytes +  8); state[2] = c;
 128              		.loc 1 83 0
 129 0026 04F10803 		add	r3, r4, #8
 130 002a 1793     		str	r3, [sp, #92]
 131 002c 1846     		mov	r0, r3
 132              	.LVL12:
 133 002e FFF7FEFF 		bl	load_bigendian
 134              	.LVL13:
 135 0032 0290     		str	r0, [sp, #8]
 136 0034 2090     		str	r0, [sp, #128]
  84:..\sha256.c   ****   d = load_bigendian(statebytes + 12); state[3] = d;
 137              		.loc 1 84 0
 138 0036 04F10C02 		add	r2, r4, #12
 139 003a 1892     		str	r2, [sp, #96]
 140 003c 1046     		mov	r0, r2
 141              	.LVL14:
 142 003e FFF7FEFF 		bl	load_bigendian
 143              	.LVL15:
 144 0042 0646     		mov	r6, r0
ARM GAS  C:\Users\bogur\AppData\Local\Temp\cc4rWh5U.s 			page 5


 145              	.LVL16:
 146 0044 2190     		str	r0, [sp, #132]
  85:..\sha256.c   ****   e = load_bigendian(statebytes + 16); state[4] = e;
 147              		.loc 1 85 0
 148 0046 04F11002 		add	r2, r4, #16
 149 004a 1992     		str	r2, [sp, #100]
 150 004c 1046     		mov	r0, r2
 151              	.LVL17:
 152 004e FFF7FEFF 		bl	load_bigendian
 153              	.LVL18:
 154 0052 8046     		mov	r8, r0
 155              	.LVL19:
 156 0054 2290     		str	r0, [sp, #136]
  86:..\sha256.c   ****   f = load_bigendian(statebytes + 20); state[5] = f;
 157              		.loc 1 86 0
 158 0056 2246     		mov	r2, r4
 159 0058 1432     		adds	r2, r2, #20
 160 005a 1A92     		str	r2, [sp, #104]
 161 005c 1046     		mov	r0, r2
 162              	.LVL20:
 163 005e FFF7FEFF 		bl	load_bigendian
 164              	.LVL21:
 165 0062 8246     		mov	r10, r0
 166              	.LVL22:
 167 0064 2390     		str	r0, [sp, #140]
  87:..\sha256.c   ****   g = load_bigendian(statebytes + 24); state[6] = g;
 168              		.loc 1 87 0
 169 0066 04F11802 		add	r2, r4, #24
 170 006a 1B92     		str	r2, [sp, #108]
 171 006c 1046     		mov	r0, r2
 172              	.LVL23:
 173 006e FFF7FEFF 		bl	load_bigendian
 174              	.LVL24:
 175 0072 0746     		mov	r7, r0
 176              	.LVL25:
 177 0074 2490     		str	r0, [sp, #144]
  88:..\sha256.c   ****   h = load_bigendian(statebytes + 28); state[7] = h;
 178              		.loc 1 88 0
 179 0076 04F11C02 		add	r2, r4, #28
 180 007a 1C92     		str	r2, [sp, #112]
 181 007c 1046     		mov	r0, r2
 182              	.LVL26:
 183 007e FFF7FEFF 		bl	load_bigendian
 184              	.LVL27:
 185 0082 2590     		str	r0, [sp, #148]
 186 0084 5D46     		mov	r5, fp
 187 0086 3A46     		mov	r2, r7
 188 0088 4746     		mov	r7, r8
 189              	.LVL28:
 190 008a 8346     		mov	fp, r0
 191              	.LVL29:
 192 008c 4C46     		mov	r4, r9
 193              	.LVL30:
 194 008e B146     		mov	r9, r6
 195              	.LVL31:
 196 0090 029E     		ldr	r6, [sp, #8]
 197              	.LVL32:
ARM GAS  C:\Users\bogur\AppData\Local\Temp\cc4rWh5U.s 			page 6


 198 0092 9046     		mov	r8, r2
 199              	.LVL33:
  89:..\sha256.c   **** 
  90:..\sha256.c   ****   while (inlen >= 64) {
 200              		.loc 1 90 0
 201 0094 01F0ABBD 		b	.L4
 202              	.LVL34:
 203              	.L5:
 204              	.LBB2:
  91:..\sha256.c   ****     uint32_t w0  = load_bigendian(in +  0);
 205              		.loc 1 91 0
 206 0098 0198     		ldr	r0, [sp, #4]
 207 009a FFF7FEFF 		bl	load_bigendian
 208              	.LVL35:
 209 009e 1390     		str	r0, [sp, #76]
 210              	.LVL36:
  92:..\sha256.c   ****     uint32_t w1  = load_bigendian(in +  4);
 211              		.loc 1 92 0
 212 00a0 019B     		ldr	r3, [sp, #4]
 213 00a2 181D     		adds	r0, r3, #4
 214              	.LVL37:
 215 00a4 FFF7FEFF 		bl	load_bigendian
 216              	.LVL38:
 217 00a8 0290     		str	r0, [sp, #8]
 218              	.LVL39:
  93:..\sha256.c   ****     uint32_t w2  = load_bigendian(in +  8);
 219              		.loc 1 93 0
 220 00aa 019A     		ldr	r2, [sp, #4]
 221 00ac 02F10800 		add	r0, r2, #8
 222              	.LVL40:
 223 00b0 FFF7FEFF 		bl	load_bigendian
 224              	.LVL41:
 225 00b4 0390     		str	r0, [sp, #12]
 226              	.LVL42:
  94:..\sha256.c   ****     uint32_t w3  = load_bigendian(in + 12);
 227              		.loc 1 94 0
 228 00b6 0199     		ldr	r1, [sp, #4]
 229 00b8 01F10C00 		add	r0, r1, #12
 230              	.LVL43:
 231 00bc FFF7FEFF 		bl	load_bigendian
 232              	.LVL44:
 233 00c0 0490     		str	r0, [sp, #16]
 234              	.LVL45:
  95:..\sha256.c   ****     uint32_t w4  = load_bigendian(in + 16);
 235              		.loc 1 95 0
 236 00c2 019B     		ldr	r3, [sp, #4]
 237 00c4 03F11000 		add	r0, r3, #16
 238              	.LVL46:
 239 00c8 FFF7FEFF 		bl	load_bigendian
 240              	.LVL47:
 241 00cc 0590     		str	r0, [sp, #20]
 242              	.LVL48:
  96:..\sha256.c   ****     uint32_t w5  = load_bigendian(in + 20);
 243              		.loc 1 96 0
 244 00ce 019A     		ldr	r2, [sp, #4]
 245 00d0 02F11400 		add	r0, r2, #20
 246              	.LVL49:
ARM GAS  C:\Users\bogur\AppData\Local\Temp\cc4rWh5U.s 			page 7


 247 00d4 FFF7FEFF 		bl	load_bigendian
 248              	.LVL50:
 249 00d8 0690     		str	r0, [sp, #24]
 250              	.LVL51:
  97:..\sha256.c   ****     uint32_t w6  = load_bigendian(in + 24);
 251              		.loc 1 97 0
 252 00da 0199     		ldr	r1, [sp, #4]
 253 00dc 01F11800 		add	r0, r1, #24
 254              	.LVL52:
 255 00e0 FFF7FEFF 		bl	load_bigendian
 256              	.LVL53:
 257 00e4 0790     		str	r0, [sp, #28]
 258              	.LVL54:
  98:..\sha256.c   ****     uint32_t w7  = load_bigendian(in + 28);
 259              		.loc 1 98 0
 260 00e6 019B     		ldr	r3, [sp, #4]
 261 00e8 03F11C00 		add	r0, r3, #28
 262              	.LVL55:
 263 00ec FFF7FEFF 		bl	load_bigendian
 264              	.LVL56:
 265 00f0 0890     		str	r0, [sp, #32]
 266              	.LVL57:
  99:..\sha256.c   ****     uint32_t w8  = load_bigendian(in + 32);
 267              		.loc 1 99 0
 268 00f2 019A     		ldr	r2, [sp, #4]
 269 00f4 02F12000 		add	r0, r2, #32
 270              	.LVL58:
 271 00f8 FFF7FEFF 		bl	load_bigendian
 272              	.LVL59:
 273 00fc 0990     		str	r0, [sp, #36]
 274              	.LVL60:
 100:..\sha256.c   ****     uint32_t w9  = load_bigendian(in + 36);
 275              		.loc 1 100 0
 276 00fe 0199     		ldr	r1, [sp, #4]
 277 0100 01F12400 		add	r0, r1, #36
 278              	.LVL61:
 279 0104 FFF7FEFF 		bl	load_bigendian
 280              	.LVL62:
 281 0108 1090     		str	r0, [sp, #64]
 282              	.LVL63:
 101:..\sha256.c   ****     uint32_t w10 = load_bigendian(in + 40);
 283              		.loc 1 101 0
 284 010a 019B     		ldr	r3, [sp, #4]
 285 010c 03F12800 		add	r0, r3, #40
 286              	.LVL64:
 287 0110 FFF7FEFF 		bl	load_bigendian
 288              	.LVL65:
 289 0114 0A90     		str	r0, [sp, #40]
 290              	.LVL66:
 102:..\sha256.c   ****     uint32_t w11 = load_bigendian(in + 44);
 291              		.loc 1 102 0
 292 0116 019A     		ldr	r2, [sp, #4]
 293 0118 02F12C00 		add	r0, r2, #44
 294              	.LVL67:
 295 011c FFF7FEFF 		bl	load_bigendian
 296              	.LVL68:
 297 0120 0B90     		str	r0, [sp, #44]
ARM GAS  C:\Users\bogur\AppData\Local\Temp\cc4rWh5U.s 			page 8


 298              	.LVL69:
 103:..\sha256.c   ****     uint32_t w12 = load_bigendian(in + 48);
 299              		.loc 1 103 0
 300 0122 0199     		ldr	r1, [sp, #4]
 301 0124 01F13000 		add	r0, r1, #48
 302              	.LVL70:
 303 0128 FFF7FEFF 		bl	load_bigendian
 304              	.LVL71:
 305 012c 0C90     		str	r0, [sp, #48]
 306              	.LVL72:
 104:..\sha256.c   ****     uint32_t w13 = load_bigendian(in + 52);
 307              		.loc 1 104 0
 308 012e 019B     		ldr	r3, [sp, #4]
 309 0130 03F13400 		add	r0, r3, #52
 310              	.LVL73:
 311 0134 FFF7FEFF 		bl	load_bigendian
 312              	.LVL74:
 313 0138 0D90     		str	r0, [sp, #52]
 314              	.LVL75:
 105:..\sha256.c   ****     uint32_t w14 = load_bigendian(in + 56);
 315              		.loc 1 105 0
 316 013a 019A     		ldr	r2, [sp, #4]
 317 013c 02F13800 		add	r0, r2, #56
 318              	.LVL76:
 319 0140 FFF7FEFF 		bl	load_bigendian
 320              	.LVL77:
 321 0144 1190     		str	r0, [sp, #68]
 322              	.LVL78:
 106:..\sha256.c   ****     uint32_t w15 = load_bigendian(in + 60);
 323              		.loc 1 106 0
 324 0146 0199     		ldr	r1, [sp, #4]
 325 0148 01F13C00 		add	r0, r1, #60
 326              	.LVL79:
 327 014c FFF7FEFF 		bl	load_bigendian
 328              	.LVL80:
 329 0150 0E90     		str	r0, [sp, #56]
 330              	.LVL81:
 107:..\sha256.c   **** 
 108:..\sha256.c   ****     F(w0 ,0x428a2f98)
 331              		.loc 1 108 0
 332 0152 4FEAF723 		ror	r3, r7, #11
 333 0156 83EAB713 		eor	r3, r3, r7, ror #6
 334 015a 83EA7763 		eor	r3, r3, r7, ror #25
 335 015e 9B44     		add	fp, fp, r3
 336              	.LVL82:
 337 0160 07EA0A02 		and	r2, r7, r10
 338 0164 28EA0703 		bic	r3, r8, r7
 339 0168 5340     		eors	r3, r3, r2
 340 016a 9B44     		add	fp, fp, r3
 341 016c 139B     		ldr	r3, [sp, #76]
 342 016e 9B44     		add	fp, fp, r3
 343 0170 F04A     		ldr	r2, .L7
 344 0172 5A44     		add	r2, r2, fp
 345              	.LVL83:
 346 0174 4FEA7433 		ror	r3, r4, #13
 347 0178 83EAB403 		eor	r3, r3, r4, ror #2
 348 017c 83EAB45C 		eor	ip, r3, r4, ror #22
ARM GAS  C:\Users\bogur\AppData\Local\Temp\cc4rWh5U.s 			page 9


 349 0180 04EA050E 		and	lr, r4, r5
 350 0184 04EA0601 		and	r1, r4, r6
 351 0188 8EEA0101 		eor	r1, lr, r1
 352 018c 05EA0600 		and	r0, r5, r6
 353              	.LVL84:
 354 0190 4140     		eors	r1, r1, r0
 355 0192 0CEB0103 		add	r3, ip, r1
 356              	.LVL85:
 357 0196 09EB0200 		add	r0, r9, r2
 358              	.LVL86:
 359 019a D118     		adds	r1, r2, r3
 360              	.LVL87:
 109:..\sha256.c   ****     F(w1 ,0x71374491)
 361              		.loc 1 109 0
 362 019c 4FEAF023 		ror	r3, r0, #11
 363              	.LVL88:
 364 01a0 83EAB013 		eor	r3, r3, r0, ror #6
 365 01a4 83EA7063 		eor	r3, r3, r0, ror #25
 366 01a8 9844     		add	r8, r8, r3
 367              	.LVL89:
 368 01aa 07EA0002 		and	r2, r7, r0
 369              	.LVL90:
 370 01ae 2AEA0003 		bic	r3, r10, r0
 371 01b2 5340     		eors	r3, r3, r2
 372 01b4 9844     		add	r8, r8, r3
 373 01b6 029B     		ldr	r3, [sp, #8]
 374 01b8 9844     		add	r8, r8, r3
 375 01ba DF4B     		ldr	r3, .L7+4
 376 01bc 4344     		add	r3, r3, r8
 377              	.LVL91:
 378 01be 4FEA713C 		ror	ip, r1, #13
 379              	.LVL92:
 380 01c2 8CEAB10C 		eor	ip, ip, r1, ror #2
 381 01c6 8CEAB15C 		eor	ip, ip, r1, ror #22
 382 01ca 84EA0502 		eor	r2, r4, r5
 383 01ce 0A40     		ands	r2, r2, r1
 384 01d0 8EEA0202 		eor	r2, lr, r2
 385 01d4 9444     		add	ip, ip, r2
 386              	.LVL93:
 387 01d6 06EB0308 		add	r8, r6, r3
 388              	.LVL94:
 389 01da 6344     		add	r3, r3, ip
 390              	.LVL95:
 110:..\sha256.c   ****     F(w2 ,0xb5c0fbcf)
 391              		.loc 1 110 0
 392 01dc 4FEAF822 		ror	r2, r8, #11
 393 01e0 82EAB812 		eor	r2, r2, r8, ror #6
 394 01e4 82EA7862 		eor	r2, r2, r8, ror #25
 395 01e8 9244     		add	r10, r10, r2
 396              	.LVL96:
 397 01ea 00EA0806 		and	r6, r0, r8
 398 01ee 27EA0802 		bic	r2, r7, r8
 399 01f2 7240     		eors	r2, r2, r6
 400 01f4 9244     		add	r10, r10, r2
 401 01f6 039E     		ldr	r6, [sp, #12]
 402 01f8 B244     		add	r10, r10, r6
 403 01fa D04A     		ldr	r2, .L7+8
ARM GAS  C:\Users\bogur\AppData\Local\Temp\cc4rWh5U.s 			page 10


 404 01fc 5244     		add	r2, r2, r10
 405              	.LVL97:
 406 01fe 4FEA733E 		ror	lr, r3, #13
 407 0202 8EEAB30E 		eor	lr, lr, r3, ror #2
 408 0206 8EEAB35E 		eor	lr, lr, r3, ror #22
 409 020a 84EA010C 		eor	ip, r4, r1
 410              	.LVL98:
 411 020e 0CEA030C 		and	ip, ip, r3
 412 0212 04EA0106 		and	r6, r4, r1
 413 0216 8CEA0606 		eor	r6, ip, r6
 414 021a B644     		add	lr, lr, r6
 415              	.LVL99:
 416 021c 05EB020C 		add	ip, r5, r2
 417              	.LVL100:
 418 0220 7244     		add	r2, r2, lr
 419              	.LVL101:
 111:..\sha256.c   ****     F(w3 ,0xe9b5dba5)
 420              		.loc 1 111 0
 421 0222 4FEAFC25 		ror	r5, ip, #11
 422 0226 85EABC15 		eor	r5, r5, ip, ror #6
 423 022a 85EA7C65 		eor	r5, r5, ip, ror #25
 424 022e 2F44     		add	r7, r7, r5
 425              	.LVL102:
 426 0230 08EA0C06 		and	r6, r8, ip
 427 0234 20EA0C05 		bic	r5, r0, ip
 428 0238 7540     		eors	r5, r5, r6
 429 023a 2F44     		add	r7, r7, r5
 430 023c 049E     		ldr	r6, [sp, #16]
 431 023e 3744     		add	r7, r7, r6
 432 0240 BF4D     		ldr	r5, .L7+12
 433 0242 3D44     		add	r5, r5, r7
 434              	.LVL103:
 435 0244 4FEA7237 		ror	r7, r2, #13
 436 0248 87EAB207 		eor	r7, r7, r2, ror #2
 437 024c 87EAB257 		eor	r7, r7, r2, ror #22
 438 0250 81EA030E 		eor	lr, r1, r3
 439              	.LVL104:
 440 0254 0EEA020E 		and	lr, lr, r2
 441 0258 01EA0306 		and	r6, r1, r3
 442 025c 8EEA0606 		eor	r6, lr, r6
 443 0260 3744     		add	r7, r7, r6
 444              	.LVL105:
 445 0262 04EB050E 		add	lr, r4, r5
 446              	.LVL106:
 447 0266 3D44     		add	r5, r5, r7
 448              	.LVL107:
 112:..\sha256.c   ****     F(w4 ,0x3956c25b)
 449              		.loc 1 112 0
 450 0268 4FEAFE24 		ror	r4, lr, #11
 451 026c 84EABE14 		eor	r4, r4, lr, ror #6
 452 0270 84EA7E64 		eor	r4, r4, lr, ror #25
 453 0274 2044     		add	r0, r0, r4
 454              	.LVL108:
 455 0276 0CEA0E06 		and	r6, ip, lr
 456 027a 28EA0E04 		bic	r4, r8, lr
 457 027e 7440     		eors	r4, r4, r6
 458 0280 2044     		add	r0, r0, r4
ARM GAS  C:\Users\bogur\AppData\Local\Temp\cc4rWh5U.s 			page 11


 459 0282 059F     		ldr	r7, [sp, #20]
 460              	.LVL109:
 461 0284 3844     		add	r0, r0, r7
 462 0286 AF4F     		ldr	r7, .L7+16
 463 0288 0744     		add	r7, r7, r0
 464              	.LVL110:
 465 028a 4FEA7536 		ror	r6, r5, #13
 466 028e 86EAB506 		eor	r6, r6, r5, ror #2
 467 0292 86EAB556 		eor	r6, r6, r5, ror #22
 468 0296 83EA0204 		eor	r4, r3, r2
 469 029a 2C40     		ands	r4, r4, r5
 470 029c 03EA0200 		and	r0, r3, r2
 471 02a0 4440     		eors	r4, r4, r0
 472 02a2 3444     		add	r4, r4, r6
 473              	.LVL111:
 474 02a4 CE19     		adds	r6, r1, r7
 475              	.LVL112:
 476 02a6 3C44     		add	r4, r4, r7
 477              	.LVL113:
 113:..\sha256.c   ****     F(w5 ,0x59f111f1)
 478              		.loc 1 113 0
 479 02a8 4FEAF621 		ror	r1, r6, #11
 480 02ac 81EAB611 		eor	r1, r1, r6, ror #6
 481 02b0 81EA7661 		eor	r1, r1, r6, ror #25
 482 02b4 8844     		add	r8, r8, r1
 483              	.LVL114:
 484 02b6 0EEA0600 		and	r0, lr, r6
 485              	.LVL115:
 486 02ba 2CEA0601 		bic	r1, ip, r6
 487 02be 4140     		eors	r1, r1, r0
 488 02c0 8844     		add	r8, r8, r1
 489 02c2 069F     		ldr	r7, [sp, #24]
 490              	.LVL116:
 491 02c4 B844     		add	r8, r8, r7
 492 02c6 A049     		ldr	r1, .L7+20
 493 02c8 4144     		add	r1, r1, r8
 494              	.LVL117:
 495 02ca 4FEA7437 		ror	r7, r4, #13
 496 02ce 87EAB407 		eor	r7, r7, r4, ror #2
 497 02d2 87EAB457 		eor	r7, r7, r4, ror #22
 498 02d6 82EA0508 		eor	r8, r2, r5
 499 02da 08EA0408 		and	r8, r8, r4
 500 02de 02EA0500 		and	r0, r2, r5
 501 02e2 88EA0000 		eor	r0, r8, r0
 502 02e6 0744     		add	r7, r7, r0
 503              	.LVL118:
 504 02e8 0B44     		add	r3, r3, r1
 505              	.LVL119:
 506 02ea 3944     		add	r1, r1, r7
 507              	.LVL120:
 114:..\sha256.c   ****     F(w6 ,0x923f82a4)
 508              		.loc 1 114 0
 509 02ec 4FEAF320 		ror	r0, r3, #11
 510 02f0 80EAB310 		eor	r0, r0, r3, ror #6
 511 02f4 80EA7360 		eor	r0, r0, r3, ror #25
 512 02f8 8444     		add	ip, ip, r0
 513              	.LVL121:
ARM GAS  C:\Users\bogur\AppData\Local\Temp\cc4rWh5U.s 			page 12


 514 02fa 06EA0307 		and	r7, r6, r3
 515              	.LVL122:
 516 02fe 2EEA0300 		bic	r0, lr, r3
 517 0302 7840     		eors	r0, r0, r7
 518 0304 8444     		add	ip, ip, r0
 519 0306 079F     		ldr	r7, [sp, #28]
 520 0308 BC44     		add	ip, ip, r7
 521 030a 9048     		ldr	r0, .L7+24
 522 030c 6044     		add	r0, r0, ip
 523              	.LVL123:
 524 030e 4FEA713C 		ror	ip, r1, #13
 525 0312 8CEAB10C 		eor	ip, ip, r1, ror #2
 526 0316 8CEAB15C 		eor	ip, ip, r1, ror #22
 527 031a 85EA0408 		eor	r8, r5, r4
 528              	.LVL124:
 529 031e 08EA0108 		and	r8, r8, r1
 530 0322 05EA0407 		and	r7, r5, r4
 531 0326 88EA0707 		eor	r7, r8, r7
 532 032a BC44     		add	ip, ip, r7
 533              	.LVL125:
 534 032c 1718     		adds	r7, r2, r0
 535              	.LVL126:
 536 032e 6044     		add	r0, r0, ip
 537              	.LVL127:
 115:..\sha256.c   ****     F(w7 ,0xab1c5ed5)
 538              		.loc 1 115 0
 539 0330 4FEAF722 		ror	r2, r7, #11
 540 0334 82EAB712 		eor	r2, r2, r7, ror #6
 541 0338 82EA7762 		eor	r2, r2, r7, ror #25
 542 033c 9644     		add	lr, lr, r2
 543              	.LVL128:
 544 033e 03EA070C 		and	ip, r3, r7
 545              	.LVL129:
 546 0342 26EA0702 		bic	r2, r6, r7
 547 0346 8CEA0202 		eor	r2, ip, r2
 548 034a 9644     		add	lr, lr, r2
 549 034c 089A     		ldr	r2, [sp, #32]
 550 034e 9644     		add	lr, lr, r2
 551 0350 7F4A     		ldr	r2, .L7+28
 552 0352 7244     		add	r2, r2, lr
 553              	.LVL130:
 554 0354 4FEA703C 		ror	ip, r0, #13
 555 0358 8CEAB00C 		eor	ip, ip, r0, ror #2
 556 035c 8CEAB05C 		eor	ip, ip, r0, ror #22
 557 0360 84EA0108 		eor	r8, r4, r1
 558              	.LVL131:
 559 0364 08EA0008 		and	r8, r8, r0
 560 0368 04EA010E 		and	lr, r4, r1
 561 036c 88EA0E0E 		eor	lr, r8, lr
 562 0370 F444     		add	ip, ip, lr
 563              	.LVL132:
 564 0372 05EB0208 		add	r8, r5, r2
 565              	.LVL133:
 566 0376 6244     		add	r2, r2, ip
 567              	.LVL134:
 116:..\sha256.c   ****     F(w8 ,0xd807aa98)
 568              		.loc 1 116 0
ARM GAS  C:\Users\bogur\AppData\Local\Temp\cc4rWh5U.s 			page 13


 569 0378 4FEAF825 		ror	r5, r8, #11
 570 037c 85EAB815 		eor	r5, r5, r8, ror #6
 571 0380 85EA7865 		eor	r5, r5, r8, ror #25
 572 0384 2E44     		add	r6, r6, r5
 573              	.LVL135:
 574 0386 07EA080E 		and	lr, r7, r8
 575 038a 23EA0805 		bic	r5, r3, r8
 576 038e 8EEA0505 		eor	r5, lr, r5
 577 0392 3544     		add	r5, r5, r6
 578 0394 099E     		ldr	r6, [sp, #36]
 579 0396 3544     		add	r5, r5, r6
 580 0398 6E4E     		ldr	r6, .L7+32
 581 039a 2E44     		add	r6, r6, r5
 582              	.LVL136:
 583 039c 4FEA723E 		ror	lr, r2, #13
 584 03a0 8EEAB20E 		eor	lr, lr, r2, ror #2
 585 03a4 8EEAB25E 		eor	lr, lr, r2, ror #22
 586 03a8 81EA000C 		eor	ip, r1, r0
 587              	.LVL137:
 588 03ac 0CEA020C 		and	ip, ip, r2
 589 03b0 01EA0005 		and	r5, r1, r0
 590 03b4 8CEA0505 		eor	r5, ip, r5
 591 03b8 AE44     		add	lr, lr, r5
 592              	.LVL138:
 593 03ba 04EB060C 		add	ip, r4, r6
 594              	.LVL139:
 595 03be 7644     		add	r6, r6, lr
 596              	.LVL140:
 117:..\sha256.c   ****     F(w9 ,0x12835b01)
 597              		.loc 1 117 0
 598 03c0 4FEAFC24 		ror	r4, ip, #11
 599 03c4 84EABC14 		eor	r4, r4, ip, ror #6
 600 03c8 84EA7C64 		eor	r4, r4, ip, ror #25
 601 03cc 2344     		add	r3, r3, r4
 602              	.LVL141:
 603 03ce 08EA0C05 		and	r5, r8, ip
 604 03d2 27EA0C04 		bic	r4, r7, ip
 605 03d6 6C40     		eors	r4, r4, r5
 606 03d8 2344     		add	r3, r3, r4
 607 03da 109C     		ldr	r4, [sp, #64]
 608 03dc 2344     		add	r3, r3, r4
 609 03de 5E4D     		ldr	r5, .L7+36
 610 03e0 1D44     		add	r5, r5, r3
 611              	.LVL142:
 612 03e2 4FEA7634 		ror	r4, r6, #13
 613 03e6 84EAB604 		eor	r4, r4, r6, ror #2
 614 03ea 84EAB654 		eor	r4, r4, r6, ror #22
 615 03ee 80EA020B 		eor	fp, r0, r2
 616 03f2 0BEA060B 		and	fp, fp, r6
 617 03f6 00EA0203 		and	r3, r0, r2
 618 03fa 8BEA030B 		eor	fp, fp, r3
 619 03fe A344     		add	fp, fp, r4
 620              	.LVL143:
 621 0400 01EB050E 		add	lr, r1, r5
 622              	.LVL144:
 623 0404 AB44     		add	fp, fp, r5
 624              	.LVL145:
ARM GAS  C:\Users\bogur\AppData\Local\Temp\cc4rWh5U.s 			page 14


 118:..\sha256.c   ****     F(w10,0x243185be)
 625              		.loc 1 118 0
 626 0406 4FEAFE23 		ror	r3, lr, #11
 627              	.LVL146:
 628 040a 83EABE13 		eor	r3, r3, lr, ror #6
 629 040e 83EA7E63 		eor	r3, r3, lr, ror #25
 630 0412 1F44     		add	r7, r7, r3
 631              	.LVL147:
 632 0414 0CEA0E01 		and	r1, ip, lr
 633 0418 28EA0E03 		bic	r3, r8, lr
 634 041c 4B40     		eors	r3, r3, r1
 635 041e 1F44     		add	r7, r7, r3
 636 0420 0A9B     		ldr	r3, [sp, #40]
 637 0422 1F44     		add	r7, r7, r3
 638 0424 4D4D     		ldr	r5, .L7+40
 639              	.LVL148:
 640 0426 3D44     		add	r5, r5, r7
 641              	.LVL149:
 642 0428 4FEA7B34 		ror	r4, fp, #13
 643              	.LVL150:
 644 042c 84EABB04 		eor	r4, r4, fp, ror #2
 645 0430 84EABB54 		eor	r4, r4, fp, ror #22
 646 0434 82EA0601 		eor	r1, r2, r6
 647 0438 01EA0B01 		and	r1, r1, fp
 648 043c 02EA0603 		and	r3, r2, r6
 649 0440 5940     		eors	r1, r1, r3
 650 0442 2144     		add	r1, r1, r4
 651              	.LVL151:
 652 0444 4719     		adds	r7, r0, r5
 653              	.LVL152:
 654 0446 05EB010A 		add	r10, r5, r1
 655              	.LVL153:
 119:..\sha256.c   ****     F(w11,0x550c7dc3)
 656              		.loc 1 119 0
 657 044a 4FEAF725 		ror	r5, r7, #11
 658              	.LVL154:
 659 044e 85EAB715 		eor	r5, r5, r7, ror #6
 660 0452 85EA7765 		eor	r5, r5, r7, ror #25
 661 0456 4544     		add	r5, r5, r8
 662 0458 0EEA0708 		and	r8, lr, r7
 663              	.LVL155:
 664 045c 2CEA0703 		bic	r3, ip, r7
 665 0460 88EA0308 		eor	r8, r8, r3
 666 0464 A844     		add	r8, r8, r5
 667 0466 0B9B     		ldr	r3, [sp, #44]
 668 0468 9844     		add	r8, r8, r3
 669 046a 3D4D     		ldr	r5, .L7+44
 670 046c 4544     		add	r5, r5, r8
 671              	.LVL156:
 672 046e 4FEA7A31 		ror	r1, r10, #13
 673              	.LVL157:
 674 0472 81EABA01 		eor	r1, r1, r10, ror #2
 675 0476 81EABA51 		eor	r1, r1, r10, ror #22
 676 047a 86EA0B04 		eor	r4, r6, fp
 677              	.LVL158:
 678 047e 04EA0A04 		and	r4, r4, r10
 679 0482 06EA0B03 		and	r3, r6, fp
ARM GAS  C:\Users\bogur\AppData\Local\Temp\cc4rWh5U.s 			page 15


 680 0486 5C40     		eors	r4, r4, r3
 681 0488 0C44     		add	r4, r4, r1
 682              	.LVL159:
 683 048a 5019     		adds	r0, r2, r5
 684              	.LVL160:
 685 048c 05EB0409 		add	r9, r5, r4
 686              	.LVL161:
 120:..\sha256.c   ****     F(w12,0x72be5d74)
 687              		.loc 1 120 0
 688 0490 4FEAF024 		ror	r4, r0, #11
 689              	.LVL162:
 690 0494 84EAB014 		eor	r4, r4, r0, ror #6
 691 0498 84EA7064 		eor	r4, r4, r0, ror #25
 692 049c 6444     		add	r4, r4, ip
 693 049e 07EA000C 		and	ip, r7, r0
 694              	.LVL163:
 695 04a2 2EEA0003 		bic	r3, lr, r0
 696              	.LVL164:
 697 04a6 8CEA0303 		eor	r3, ip, r3
 698 04aa 1C44     		add	r4, r4, r3
 699 04ac 0C9A     		ldr	r2, [sp, #48]
 700 04ae 1444     		add	r4, r4, r2
 701 04b0 2C4D     		ldr	r5, .L7+48
 702              	.LVL165:
 703 04b2 2544     		add	r5, r5, r4
 704              	.LVL166:
 705 04b4 4FEA7931 		ror	r1, r9, #13
 706              	.LVL167:
 707 04b8 81EAB901 		eor	r1, r1, r9, ror #2
 708 04bc 81EAB951 		eor	r1, r1, r9, ror #22
 709 04c0 8BEA0A03 		eor	r3, fp, r10
 710 04c4 03EA0903 		and	r3, r3, r9
 711 04c8 0BEA0A02 		and	r2, fp, r10
 712 04cc 5340     		eors	r3, r3, r2
 713 04ce 0B44     		add	r3, r3, r1
 714              	.LVL168:
 715 04d0 2E44     		add	r6, r6, r5
 716              	.LVL169:
 717 04d2 2B44     		add	r3, r3, r5
 718              	.LVL170:
 121:..\sha256.c   ****     F(w13,0x80deb1fe)
 719              		.loc 1 121 0
 720 04d4 4FEAF621 		ror	r1, r6, #11
 721              	.LVL171:
 722 04d8 81EAB611 		eor	r1, r1, r6, ror #6
 723 04dc 81EA7661 		eor	r1, r1, r6, ror #25
 724 04e0 7144     		add	r1, r1, lr
 725 04e2 00EA060E 		and	lr, r0, r6
 726              	.LVL172:
 727 04e6 27EA0602 		bic	r2, r7, r6
 728              	.LVL173:
 729 04ea 8EEA0202 		eor	r2, lr, r2
 730 04ee 1144     		add	r1, r1, r2
 731 04f0 0D9D     		ldr	r5, [sp, #52]
 732              	.LVL174:
 733 04f2 2944     		add	r1, r1, r5
 734 04f4 1C4A     		ldr	r2, .L7+52
ARM GAS  C:\Users\bogur\AppData\Local\Temp\cc4rWh5U.s 			page 16


 735 04f6 0A44     		add	r2, r2, r1
 736              	.LVL175:
 737 04f8 4FEA7334 		ror	r4, r3, #13
 738 04fc 84EAB304 		eor	r4, r4, r3, ror #2
 739 0500 84EAB354 		eor	r4, r4, r3, ror #22
 740 0504 8AEA0905 		eor	r5, r10, r9
 741 0508 1D40     		ands	r5, r5, r3
 742 050a 0AEA0901 		and	r1, r10, r9
 743 050e 6940     		eors	r1, r1, r5
 744 0510 0C44     		add	r4, r4, r1
 745              	.LVL176:
 746 0512 0BEB0205 		add	r5, fp, r2
 747              	.LVL177:
 748 0516 2244     		add	r2, r2, r4
 749              	.LVL178:
 122:..\sha256.c   ****     F(w14,0x9bdc06a7)
 750              		.loc 1 122 0
 751 0518 4FEAF521 		ror	r1, r5, #11
 752 051c 81EAB511 		eor	r1, r1, r5, ror #6
 753 0520 81EA7561 		eor	r1, r1, r5, ror #25
 754 0524 0F44     		add	r7, r7, r1
 755              	.LVL179:
 756 0526 06EA0504 		and	r4, r6, r5
 757              	.LVL180:
 758 052a 1295     		str	r5, [sp, #72]
 759 052c 20EA0501 		bic	r1, r0, r5
 760 0530 1CE0     		b	.L8
 761              	.L9:
 762 0532 00BF     		.align	2
 763              	.L7:
 764 0534 982F8A42 		.word	1116352408
 765 0538 91443771 		.word	1899447441
 766 053c CFFBC0B5 		.word	-1245643825
 767 0540 A5DBB5E9 		.word	-373957723
 768 0544 5BC25639 		.word	961987163
 769 0548 F111F159 		.word	1508970993
 770 054c A4823F92 		.word	-1841331548
 771 0550 D55E1CAB 		.word	-1424204075
 772 0554 98AA07D8 		.word	-670586216
 773 0558 015B8312 		.word	310598401
 774 055c BE853124 		.word	607225278
 775 0560 C37D0C55 		.word	1426881987
 776 0564 745DBE72 		.word	1925078388
 777 0568 FEB1DE80 		.word	-2132889090
 778              	.L8:
 779 056c 6140     		eors	r1, r1, r4
 780 056e 3944     		add	r1, r1, r7
 781 0570 119D     		ldr	r5, [sp, #68]
 782              	.LVL181:
 783 0572 2944     		add	r1, r1, r5
 784 0574 D84F     		ldr	r7, .L10
 785 0576 0F44     		add	r7, r7, r1
 786              	.LVL182:
 787 0578 4FEA7234 		ror	r4, r2, #13
 788 057c 84EAB204 		eor	r4, r4, r2, ror #2
 789 0580 84EAB254 		eor	r4, r4, r2, ror #22
 790 0584 89EA0308 		eor	r8, r9, r3
ARM GAS  C:\Users\bogur\AppData\Local\Temp\cc4rWh5U.s 			page 17


 791 0588 08EA0208 		and	r8, r8, r2
 792 058c 09EA0301 		and	r1, r9, r3
 793 0590 88EA0108 		eor	r8, r8, r1
 794 0594 A044     		add	r8, r8, r4
 795              	.LVL183:
 796 0596 0AEB0701 		add	r1, r10, r7
 797              	.LVL184:
 798 059a B844     		add	r8, r8, r7
 799              	.LVL185:
 123:..\sha256.c   ****     F(w15,0xc19bf174)
 800              		.loc 1 123 0
 801 059c 4FEAF124 		ror	r4, r1, #11
 802              	.LVL186:
 803 05a0 84EAB114 		eor	r4, r4, r1, ror #6
 804 05a4 84EA7164 		eor	r4, r4, r1, ror #25
 805 05a8 2044     		add	r0, r0, r4
 806              	.LVL187:
 807 05aa 129C     		ldr	r4, [sp, #72]
 808 05ac 04EA0107 		and	r7, r4, r1
 809              	.LVL188:
 810 05b0 26EA0104 		bic	r4, r6, r1
 811 05b4 7C40     		eors	r4, r4, r7
 812 05b6 2044     		add	r0, r0, r4
 813 05b8 0E9C     		ldr	r4, [sp, #56]
 814 05ba 2044     		add	r0, r0, r4
 815 05bc C74F     		ldr	r7, .L10+4
 816 05be 0744     		add	r7, r7, r0
 817              	.LVL189:
 818 05c0 4FEA7834 		ror	r4, r8, #13
 819 05c4 84EAB804 		eor	r4, r4, r8, ror #2
 820 05c8 84EAB854 		eor	r4, r4, r8, ror #22
 821 05cc 83EA020E 		eor	lr, r3, r2
 822 05d0 0EEA080E 		and	lr, lr, r8
 823 05d4 03EA0200 		and	r0, r3, r2
 824 05d8 8EEA0000 		eor	r0, lr, r0
 825 05dc 2044     		add	r0, r0, r4
 826              	.LVL190:
 827 05de 09EB070E 		add	lr, r9, r7
 828 05e2 CDF83CE0 		str	lr, [sp, #60]
 829              	.LVL191:
 830 05e6 3C18     		adds	r4, r7, r0
 831 05e8 1494     		str	r4, [sp, #80]
 832              	.LVL192:
 124:..\sha256.c   **** 
 125:..\sha256.c   ****     EXPAND
 833              		.loc 1 125 0
 834 05ea 4FEAF54C 		ror	ip, r5, #19
 835 05ee 8CEA754C 		eor	ip, ip, r5, ror #17
 836 05f2 8CEA952C 		eor	ip, ip, r5, lsr #10
 837 05f6 109F     		ldr	r7, [sp, #64]
 838              	.LVL193:
 839 05f8 BC44     		add	ip, ip, r7
 840 05fa 029C     		ldr	r4, [sp, #8]
 841              	.LVL194:
 842 05fc 4FEAB440 		ror	r0, r4, #18
 843              	.LVL195:
 844 0600 A646     		mov	lr, r4
ARM GAS  C:\Users\bogur\AppData\Local\Temp\cc4rWh5U.s 			page 18


 845              	.LVL196:
 846 0602 80EAF410 		eor	r0, r0, r4, ror #7
 847 0606 80EADE00 		eor	r0, r0, lr, lsr #3
 848 060a 0CEB000E 		add	lr, ip, r0
 849 060e 1398     		ldr	r0, [sp, #76]
 850 0610 8644     		add	lr, lr, r0
 851              	.LVL197:
 852 0612 0E9C     		ldr	r4, [sp, #56]
 853 0614 4FEAF449 		ror	r9, r4, #19
 854 0618 89EA7449 		eor	r9, r9, r4, ror #17
 855 061c 89EA9429 		eor	r9, r9, r4, lsr #10
 856 0620 0A98     		ldr	r0, [sp, #40]
 857 0622 8144     		add	r9, r9, r0
 858 0624 039C     		ldr	r4, [sp, #12]
 859 0626 4FEAB440 		ror	r0, r4, #18
 860 062a A446     		mov	ip, r4
 861 062c 80EAF410 		eor	r0, r0, r4, ror #7
 862 0630 80EADC00 		eor	r0, r0, ip, lsr #3
 863 0634 09EB000B 		add	fp, r9, r0
 864 0638 029C     		ldr	r4, [sp, #8]
 865 063a A344     		add	fp, fp, r4
 866              	.LVL198:
 867 063c 4FEAFE49 		ror	r9, lr, #19
 868 0640 89EA7E49 		eor	r9, r9, lr, ror #17
 869 0644 89EA9E29 		eor	r9, r9, lr, lsr #10
 870 0648 0B98     		ldr	r0, [sp, #44]
 871 064a 8144     		add	r9, r9, r0
 872 064c 049C     		ldr	r4, [sp, #16]
 873 064e 4FEAB440 		ror	r0, r4, #18
 874 0652 A446     		mov	ip, r4
 875 0654 80EAF410 		eor	r0, r0, r4, ror #7
 876 0658 80EADC00 		eor	r0, r0, ip, lsr #3
 877 065c 09EB000C 		add	ip, r9, r0
 878 0660 039C     		ldr	r4, [sp, #12]
 879 0662 A444     		add	ip, ip, r4
 880              	.LVL199:
 881 0664 4FEAFB49 		ror	r9, fp, #19
 882 0668 89EA7B49 		eor	r9, r9, fp, ror #17
 883 066c 89EA9B29 		eor	r9, r9, fp, lsr #10
 884 0670 0C98     		ldr	r0, [sp, #48]
 885 0672 8144     		add	r9, r9, r0
 886 0674 059C     		ldr	r4, [sp, #20]
 887 0676 4FEAB440 		ror	r0, r4, #18
 888 067a A246     		mov	r10, r4
 889 067c 80EAF410 		eor	r0, r0, r4, ror #7
 890 0680 80EADA00 		eor	r0, r0, r10, lsr #3
 891 0684 4844     		add	r0, r0, r9
 892 0686 049C     		ldr	r4, [sp, #16]
 893 0688 2018     		adds	r0, r4, r0
 894 068a 0290     		str	r0, [sp, #8]
 895              	.LVL200:
 896 068c 4FEAFC49 		ror	r9, ip, #19
 897 0690 89EA7C49 		eor	r9, r9, ip, ror #17
 898 0694 89EA9C29 		eor	r9, r9, ip, lsr #10
 899 0698 0D98     		ldr	r0, [sp, #52]
 900              	.LVL201:
 901 069a 8144     		add	r9, r9, r0
ARM GAS  C:\Users\bogur\AppData\Local\Temp\cc4rWh5U.s 			page 19


 902 069c 069C     		ldr	r4, [sp, #24]
 903 069e 4FEAB440 		ror	r0, r4, #18
 904 06a2 A246     		mov	r10, r4
 905 06a4 80EAF410 		eor	r0, r0, r4, ror #7
 906 06a8 80EADA00 		eor	r0, r0, r10, lsr #3
 907 06ac 4844     		add	r0, r0, r9
 908 06ae 059C     		ldr	r4, [sp, #20]
 909 06b0 2018     		adds	r0, r4, r0
 910 06b2 0390     		str	r0, [sp, #12]
 911              	.LVL202:
 912 06b4 029C     		ldr	r4, [sp, #8]
 913 06b6 4FEAF449 		ror	r9, r4, #19
 914 06ba 89EA7449 		eor	r9, r9, r4, ror #17
 915 06be 89EA9429 		eor	r9, r9, r4, lsr #10
 916 06c2 A944     		add	r9, r9, r5
 917 06c4 079C     		ldr	r4, [sp, #28]
 918 06c6 4FEAB440 		ror	r0, r4, #18
 919              	.LVL203:
 920 06ca A246     		mov	r10, r4
 921 06cc 80EAF410 		eor	r0, r0, r4, ror #7
 922 06d0 80EADA00 		eor	r0, r0, r10, lsr #3
 923 06d4 4844     		add	r0, r0, r9
 924 06d6 069C     		ldr	r4, [sp, #24]
 925 06d8 2018     		adds	r0, r4, r0
 926 06da 0490     		str	r0, [sp, #16]
 927              	.LVL204:
 928 06dc 039C     		ldr	r4, [sp, #12]
 929 06de 4FEAF44A 		ror	r10, r4, #19
 930 06e2 8AEA744A 		eor	r10, r10, r4, ror #17
 931 06e6 8AEA942A 		eor	r10, r10, r4, lsr #10
 932 06ea 0E98     		ldr	r0, [sp, #56]
 933              	.LVL205:
 934 06ec 8244     		add	r10, r10, r0
 935 06ee 089C     		ldr	r4, [sp, #32]
 936 06f0 4FEAB440 		ror	r0, r4, #18
 937 06f4 A146     		mov	r9, r4
 938 06f6 80EAF410 		eor	r0, r0, r4, ror #7
 939 06fa 80EAD900 		eor	r0, r0, r9, lsr #3
 940 06fe 5044     		add	r0, r0, r10
 941 0700 079C     		ldr	r4, [sp, #28]
 942 0702 2018     		adds	r0, r4, r0
 943 0704 0590     		str	r0, [sp, #20]
 944              	.LVL206:
 945 0706 049C     		ldr	r4, [sp, #16]
 946 0708 4FEAF44A 		ror	r10, r4, #19
 947 070c 8AEA744A 		eor	r10, r10, r4, ror #17
 948 0710 8AEA942A 		eor	r10, r10, r4, lsr #10
 949 0714 F244     		add	r10, r10, lr
 950 0716 099C     		ldr	r4, [sp, #36]
 951 0718 4FEAB440 		ror	r0, r4, #18
 952              	.LVL207:
 953 071c A146     		mov	r9, r4
 954 071e 80EAF410 		eor	r0, r0, r4, ror #7
 955 0722 80EAD900 		eor	r0, r0, r9, lsr #3
 956 0726 5044     		add	r0, r0, r10
 957 0728 089C     		ldr	r4, [sp, #32]
 958 072a 2018     		adds	r0, r4, r0
ARM GAS  C:\Users\bogur\AppData\Local\Temp\cc4rWh5U.s 			page 20


 959 072c 0690     		str	r0, [sp, #24]
 960              	.LVL208:
 961 072e 059C     		ldr	r4, [sp, #20]
 962 0730 4FEAF44A 		ror	r10, r4, #19
 963 0734 8AEA744A 		eor	r10, r10, r4, ror #17
 964 0738 8AEA942A 		eor	r10, r10, r4, lsr #10
 965 073c DA44     		add	r10, r10, fp
 966 073e 4FEAB740 		ror	r0, r7, #18
 967              	.LVL209:
 968 0742 80EAF710 		eor	r0, r0, r7, ror #7
 969 0746 80EAD700 		eor	r0, r0, r7, lsr #3
 970 074a 5044     		add	r0, r0, r10
 971 074c 099C     		ldr	r4, [sp, #36]
 972 074e 2018     		adds	r0, r4, r0
 973 0750 0790     		str	r0, [sp, #28]
 974              	.LVL210:
 975 0752 069C     		ldr	r4, [sp, #24]
 976 0754 4FEAF449 		ror	r9, r4, #19
 977 0758 89EA7449 		eor	r9, r9, r4, ror #17
 978 075c 89EA9429 		eor	r9, r9, r4, lsr #10
 979 0760 E144     		add	r9, r9, ip
 980 0762 0A9C     		ldr	r4, [sp, #40]
 981 0764 4FEAB440 		ror	r0, r4, #18
 982              	.LVL211:
 983 0768 80EAF410 		eor	r0, r0, r4, ror #7
 984 076c 80EAD400 		eor	r0, r0, r4, lsr #3
 985 0770 4844     		add	r0, r0, r9
 986 0772 109F     		ldr	r7, [sp, #64]
 987 0774 3818     		adds	r0, r7, r0
 988 0776 0890     		str	r0, [sp, #32]
 989              	.LVL212:
 990 0778 079C     		ldr	r4, [sp, #28]
 991 077a 4FEAF449 		ror	r9, r4, #19
 992 077e 89EA7449 		eor	r9, r9, r4, ror #17
 993 0782 89EA9429 		eor	r9, r9, r4, lsr #10
 994 0786 0298     		ldr	r0, [sp, #8]
 995              	.LVL213:
 996 0788 8144     		add	r9, r9, r0
 997 078a 0B9C     		ldr	r4, [sp, #44]
 998 078c 4FEAB440 		ror	r0, r4, #18
 999 0790 80EAF410 		eor	r0, r0, r4, ror #7
 1000 0794 80EAD400 		eor	r0, r0, r4, lsr #3
 1001 0798 4844     		add	r0, r0, r9
 1002 079a 0A9F     		ldr	r7, [sp, #40]
 1003 079c 3818     		adds	r0, r7, r0
 1004 079e 0990     		str	r0, [sp, #36]
 1005              	.LVL214:
 1006 07a0 089C     		ldr	r4, [sp, #32]
 1007 07a2 4FEAF449 		ror	r9, r4, #19
 1008 07a6 89EA7449 		eor	r9, r9, r4, ror #17
 1009 07aa 89EA9429 		eor	r9, r9, r4, lsr #10
 1010 07ae 0398     		ldr	r0, [sp, #12]
 1011              	.LVL215:
 1012 07b0 8144     		add	r9, r9, r0
 1013 07b2 0C9C     		ldr	r4, [sp, #48]
 1014 07b4 4FEAB440 		ror	r0, r4, #18
 1015 07b8 80EAF410 		eor	r0, r0, r4, ror #7
ARM GAS  C:\Users\bogur\AppData\Local\Temp\cc4rWh5U.s 			page 21


 1016 07bc 80EAD400 		eor	r0, r0, r4, lsr #3
 1017 07c0 4844     		add	r0, r0, r9
 1018 07c2 0B9F     		ldr	r7, [sp, #44]
 1019 07c4 3818     		adds	r0, r7, r0
 1020 07c6 0A90     		str	r0, [sp, #40]
 1021              	.LVL216:
 1022 07c8 099C     		ldr	r4, [sp, #36]
 1023 07ca 4FEAF449 		ror	r9, r4, #19
 1024 07ce 89EA7449 		eor	r9, r9, r4, ror #17
 1025 07d2 89EA9429 		eor	r9, r9, r4, lsr #10
 1026 07d6 0498     		ldr	r0, [sp, #16]
 1027              	.LVL217:
 1028 07d8 8144     		add	r9, r9, r0
 1029 07da 0D9C     		ldr	r4, [sp, #52]
 1030 07dc 4FEAB440 		ror	r0, r4, #18
 1031 07e0 80EAF410 		eor	r0, r0, r4, ror #7
 1032 07e4 80EAD400 		eor	r0, r0, r4, lsr #3
 1033 07e8 4844     		add	r0, r0, r9
 1034 07ea 0C9F     		ldr	r7, [sp, #48]
 1035 07ec 3818     		adds	r0, r7, r0
 1036 07ee 0B90     		str	r0, [sp, #44]
 1037              	.LVL218:
 1038 07f0 0A9C     		ldr	r4, [sp, #40]
 1039 07f2 4FEAF449 		ror	r9, r4, #19
 1040 07f6 89EA7449 		eor	r9, r9, r4, ror #17
 1041 07fa 89EA9429 		eor	r9, r9, r4, lsr #10
 1042 07fe 0598     		ldr	r0, [sp, #20]
 1043              	.LVL219:
 1044 0800 8144     		add	r9, r9, r0
 1045 0802 4FEAB540 		ror	r0, r5, #18
 1046 0806 AA46     		mov	r10, r5
 1047 0808 80EAF510 		eor	r0, r0, r5, ror #7
 1048 080c 80EAD500 		eor	r0, r0, r5, lsr #3
 1049 0810 4844     		add	r0, r0, r9
 1050 0812 0D9F     		ldr	r7, [sp, #52]
 1051 0814 3D18     		adds	r5, r7, r0
 1052 0816 0C95     		str	r5, [sp, #48]
 1053              	.LVL220:
 1054 0818 0B98     		ldr	r0, [sp, #44]
 1055 081a 4FEAF049 		ror	r9, r0, #19
 1056 081e 89EA7049 		eor	r9, r9, r0, ror #17
 1057 0822 89EA9029 		eor	r9, r9, r0, lsr #10
 1058 0826 069D     		ldr	r5, [sp, #24]
 1059              	.LVL221:
 1060 0828 A944     		add	r9, r9, r5
 1061 082a 0E9C     		ldr	r4, [sp, #56]
 1062 082c 4FEAB440 		ror	r0, r4, #18
 1063 0830 80EAF410 		eor	r0, r0, r4, ror #7
 1064 0834 80EAD400 		eor	r0, r0, r4, lsr #3
 1065 0838 4844     		add	r0, r0, r9
 1066 083a 5546     		mov	r5, r10
 1067 083c 0544     		add	r5, r5, r0
 1068 083e 1395     		str	r5, [sp, #76]
 1069              	.LVL222:
 1070 0840 0C98     		ldr	r0, [sp, #48]
 1071 0842 4FEAF049 		ror	r9, r0, #19
 1072 0846 89EA7049 		eor	r9, r9, r0, ror #17
ARM GAS  C:\Users\bogur\AppData\Local\Temp\cc4rWh5U.s 			page 22


 1073 084a 89EA9029 		eor	r9, r9, r0, lsr #10
 1074 084e 079D     		ldr	r5, [sp, #28]
 1075              	.LVL223:
 1076 0850 A944     		add	r9, r9, r5
 1077 0852 4FEABE40 		ror	r0, lr, #18
 1078 0856 80EAFE10 		eor	r0, r0, lr, ror #7
 1079 085a 80EADE00 		eor	r0, r0, lr, lsr #3
 1080 085e 4844     		add	r0, r0, r9
 1081 0860 2546     		mov	r5, r4
 1082 0862 0544     		add	r5, r5, r0
 1083 0864 0D95     		str	r5, [sp, #52]
 1084              	.LVL224:
 126:..\sha256.c   **** 
 127:..\sha256.c   ****     F(w0 ,0xe49b69c1)
 1085              		.loc 1 127 0
 1086 0866 0F9D     		ldr	r5, [sp, #60]
 1087              	.LVL225:
 1088 0868 2F46     		mov	r7, r5
 1089 086a 4FEAF520 		ror	r0, r5, #11
 1090 086e 80EAB510 		eor	r0, r0, r5, ror #6
 1091 0872 80EA7560 		eor	r0, r0, r5, ror #25
 1092 0876 0644     		add	r6, r6, r0
 1093              	.LVL226:
 1094 0878 01EA0509 		and	r9, r1, r5
 1095 087c 1298     		ldr	r0, [sp, #72]
 1096 087e 20EA0500 		bic	r0, r0, r5
 1097 0882 89EA0000 		eor	r0, r9, r0
 1098 0886 3044     		add	r0, r0, r6
 1099 0888 7044     		add	r0, r0, lr
 1100 088a 154E     		ldr	r6, .L10+8
 1101 088c 0644     		add	r6, r6, r0
 1102              	.LVL227:
 1103 088e 1498     		ldr	r0, [sp, #80]
 1104 0890 0446     		mov	r4, r0
 1105 0892 4FEA7039 		ror	r9, r0, #13
 1106 0896 89EAB009 		eor	r9, r9, r0, ror #2
 1107 089a 89EAB059 		eor	r9, r9, r0, ror #22
 1108 089e 82EA080A 		eor	r10, r2, r8
 1109 08a2 0AEA000A 		and	r10, r10, r0
 1110 08a6 02EA0800 		and	r0, r2, r8
 1111 08aa 8AEA0000 		eor	r0, r10, r0
 1112 08ae 8144     		add	r9, r9, r0
 1113              	.LVL228:
 1114 08b0 3344     		add	r3, r3, r6
 1115              	.LVL229:
 1116 08b2 4E44     		add	r6, r6, r9
 1117              	.LVL230:
 128:..\sha256.c   ****     F(w1 ,0xefbe4786)
 1118              		.loc 1 128 0
 1119 08b4 4FEAF320 		ror	r0, r3, #11
 1120 08b8 80EAB310 		eor	r0, r0, r3, ror #6
 1121 08bc 80EA7360 		eor	r0, r0, r3, ror #25
 1122 08c0 129D     		ldr	r5, [sp, #72]
 1123 08c2 0544     		add	r5, r5, r0
 1124 08c4 07EA0309 		and	r9, r7, r3
 1125              	.LVL231:
 1126 08c8 21EA0300 		bic	r0, r1, r3
ARM GAS  C:\Users\bogur\AppData\Local\Temp\cc4rWh5U.s 			page 23


 1127 08cc 89EA0000 		eor	r0, r9, r0
 1128 08d0 2844     		add	r0, r0, r5
 1129 08d2 5844     		add	r0, r0, fp
 1130 08d4 06E0     		b	.L11
 1131              	.L12:
 1132 08d6 00BF     		.align	2
 1133              	.L10:
 1134 08d8 A706DC9B 		.word	-1680079193
 1135 08dc 74F19BC1 		.word	-1046744716
 1136 08e0 C1699BE4 		.word	-459576895
 1137              	.L11:
 1138 08e4 F04D     		ldr	r5, .L13
 1139 08e6 0544     		add	r5, r5, r0
 1140              	.LVL232:
 1141 08e8 4FEA7639 		ror	r9, r6, #13
 1142 08ec 89EAB609 		eor	r9, r9, r6, ror #2
 1143 08f0 89EAB659 		eor	r9, r9, r6, ror #22
 1144 08f4 88EA040A 		eor	r10, r8, r4
 1145              	.LVL233:
 1146 08f8 0AEA060A 		and	r10, r10, r6
 1147 08fc 08EA0400 		and	r0, r8, r4
 1148 0900 8AEA0000 		eor	r0, r10, r0
 1149 0904 8144     		add	r9, r9, r0
 1150              	.LVL234:
 1151 0906 2A44     		add	r2, r2, r5
 1152              	.LVL235:
 1153 0908 4D44     		add	r5, r5, r9
 1154              	.LVL236:
 129:..\sha256.c   ****     F(w2 ,0x0fc19dc6)
 1155              		.loc 1 129 0
 1156 090a 4FEAF220 		ror	r0, r2, #11
 1157 090e 80EAB210 		eor	r0, r0, r2, ror #6
 1158 0912 80EA7260 		eor	r0, r0, r2, ror #25
 1159 0916 0144     		add	r1, r1, r0
 1160              	.LVL237:
 1161 0918 03EA0209 		and	r9, r3, r2
 1162              	.LVL238:
 1163 091c 27EA0200 		bic	r0, r7, r2
 1164 0920 89EA0000 		eor	r0, r9, r0
 1165 0924 0844     		add	r0, r0, r1
 1166 0926 6044     		add	r0, r0, ip
 1167 0928 E049     		ldr	r1, .L13+4
 1168 092a 0144     		add	r1, r1, r0
 1169              	.LVL239:
 1170 092c 4FEA7539 		ror	r9, r5, #13
 1171 0930 89EAB509 		eor	r9, r9, r5, ror #2
 1172 0934 89EAB559 		eor	r9, r9, r5, ror #22
 1173 0938 84EA060A 		eor	r10, r4, r6
 1174              	.LVL240:
 1175 093c 0AEA050A 		and	r10, r10, r5
 1176 0940 04EA0600 		and	r0, r4, r6
 1177 0944 8AEA0000 		eor	r0, r10, r0
 1178 0948 8144     		add	r9, r9, r0
 1179              	.LVL241:
 1180 094a 8844     		add	r8, r8, r1
 1181              	.LVL242:
 1182 094c 4944     		add	r1, r1, r9
ARM GAS  C:\Users\bogur\AppData\Local\Temp\cc4rWh5U.s 			page 24


 1183              	.LVL243:
 130:..\sha256.c   ****     F(w3 ,0x240ca1cc)
 1184              		.loc 1 130 0
 1185 094e 4FEAF820 		ror	r0, r8, #11
 1186 0952 80EAB810 		eor	r0, r0, r8, ror #6
 1187 0956 80EA7860 		eor	r0, r0, r8, ror #25
 1188 095a 0F9F     		ldr	r7, [sp, #60]
 1189 095c 0744     		add	r7, r7, r0
 1190 095e 3C46     		mov	r4, r7
 1191 0960 02EA0809 		and	r9, r2, r8
 1192              	.LVL244:
 1193 0964 23EA0800 		bic	r0, r3, r8
 1194 0968 89EA0000 		eor	r0, r9, r0
 1195 096c 0444     		add	r4, r4, r0
 1196 096e 0298     		ldr	r0, [sp, #8]
 1197 0970 0444     		add	r4, r4, r0
 1198 0972 CF48     		ldr	r0, .L13+8
 1199 0974 2044     		add	r0, r0, r4
 1200              	.LVL245:
 1201 0976 4FEA7139 		ror	r9, r1, #13
 1202 097a 89EAB109 		eor	r9, r9, r1, ror #2
 1203 097e 89EAB159 		eor	r9, r9, r1, ror #22
 1204 0982 86EA050A 		eor	r10, r6, r5
 1205              	.LVL246:
 1206 0986 0AEA010A 		and	r10, r10, r1
 1207 098a 06EA0504 		and	r4, r6, r5
 1208 098e 8AEA0404 		eor	r4, r10, r4
 1209 0992 A144     		add	r9, r9, r4
 1210              	.LVL247:
 1211 0994 149C     		ldr	r4, [sp, #80]
 1212 0996 0444     		add	r4, r4, r0
 1213 0998 2746     		mov	r7, r4
 1214              	.LVL248:
 1215 099a 4844     		add	r0, r0, r9
 1216              	.LVL249:
 131:..\sha256.c   ****     F(w4 ,0x2de92c6f)
 1217              		.loc 1 131 0
 1218 099c 4FEAF424 		ror	r4, r4, #11
 1219              	.LVL250:
 1220 09a0 84EAB714 		eor	r4, r4, r7, ror #6
 1221 09a4 84EA7764 		eor	r4, r4, r7, ror #25
 1222 09a8 2344     		add	r3, r3, r4
 1223              	.LVL251:
 1224 09aa 08EA0709 		and	r9, r8, r7
 1225              	.LVL252:
 1226 09ae 22EA0704 		bic	r4, r2, r7
 1227 09b2 89EA0404 		eor	r4, r9, r4
 1228 09b6 2344     		add	r3, r3, r4
 1229 09b8 039C     		ldr	r4, [sp, #12]
 1230 09ba 2344     		add	r3, r3, r4
 1231 09bc BD4C     		ldr	r4, .L13+12
 1232 09be 1C44     		add	r4, r4, r3
 1233              	.LVL253:
 1234 09c0 4FEA7039 		ror	r9, r0, #13
 1235 09c4 89EAB009 		eor	r9, r9, r0, ror #2
 1236 09c8 89EAB059 		eor	r9, r9, r0, ror #22
 1237 09cc 85EA010A 		eor	r10, r5, r1
ARM GAS  C:\Users\bogur\AppData\Local\Temp\cc4rWh5U.s 			page 25


 1238              	.LVL254:
 1239 09d0 0AEA000A 		and	r10, r10, r0
 1240 09d4 05EA0103 		and	r3, r5, r1
 1241 09d8 8AEA0303 		eor	r3, r10, r3
 1242 09dc 9944     		add	r9, r9, r3
 1243              	.LVL255:
 1244 09de 2644     		add	r6, r6, r4
 1245              	.LVL256:
 1246 09e0 4C44     		add	r4, r4, r9
 1247              	.LVL257:
 132:..\sha256.c   ****     F(w5 ,0x4a7484aa)
 1248              		.loc 1 132 0
 1249 09e2 4FEAF623 		ror	r3, r6, #11
 1250 09e6 83EAB613 		eor	r3, r3, r6, ror #6
 1251 09ea 83EA7663 		eor	r3, r3, r6, ror #25
 1252 09ee 1A44     		add	r2, r2, r3
 1253              	.LVL258:
 1254 09f0 07EA0609 		and	r9, r7, r6
 1255              	.LVL259:
 1256 09f4 28EA0603 		bic	r3, r8, r6
 1257 09f8 89EA0303 		eor	r3, r9, r3
 1258 09fc 1344     		add	r3, r3, r2
 1259 09fe 049A     		ldr	r2, [sp, #16]
 1260 0a00 1344     		add	r3, r3, r2
 1261 0a02 AD4A     		ldr	r2, .L13+16
 1262 0a04 1A44     		add	r2, r2, r3
 1263              	.LVL260:
 1264 0a06 4FEA7439 		ror	r9, r4, #13
 1265 0a0a 89EAB409 		eor	r9, r9, r4, ror #2
 1266 0a0e 89EAB459 		eor	r9, r9, r4, ror #22
 1267 0a12 81EA000A 		eor	r10, r1, r0
 1268              	.LVL261:
 1269 0a16 0AEA040A 		and	r10, r10, r4
 1270 0a1a 01EA0003 		and	r3, r1, r0
 1271 0a1e 8AEA0303 		eor	r3, r10, r3
 1272 0a22 9944     		add	r9, r9, r3
 1273              	.LVL262:
 1274 0a24 1544     		add	r5, r5, r2
 1275              	.LVL263:
 1276 0a26 4A44     		add	r2, r2, r9
 1277              	.LVL264:
 133:..\sha256.c   ****     F(w6 ,0x5cb0a9dc)
 1278              		.loc 1 133 0
 1279 0a28 4FEAF523 		ror	r3, r5, #11
 1280 0a2c 83EAB513 		eor	r3, r3, r5, ror #6
 1281 0a30 83EA7563 		eor	r3, r3, r5, ror #25
 1282 0a34 9844     		add	r8, r8, r3
 1283              	.LVL265:
 1284 0a36 06EA0509 		and	r9, r6, r5
 1285              	.LVL266:
 1286 0a3a 27EA0503 		bic	r3, r7, r5
 1287 0a3e 89EA0303 		eor	r3, r9, r3
 1288 0a42 9844     		add	r8, r8, r3
 1289 0a44 059B     		ldr	r3, [sp, #20]
 1290 0a46 9844     		add	r8, r8, r3
 1291 0a48 9C4B     		ldr	r3, .L13+20
 1292 0a4a 4344     		add	r3, r3, r8
ARM GAS  C:\Users\bogur\AppData\Local\Temp\cc4rWh5U.s 			page 26


 1293              	.LVL267:
 1294 0a4c 4FEA7239 		ror	r9, r2, #13
 1295 0a50 89EAB209 		eor	r9, r9, r2, ror #2
 1296 0a54 89EAB259 		eor	r9, r9, r2, ror #22
 1297 0a58 80EA040A 		eor	r10, r0, r4
 1298              	.LVL268:
 1299 0a5c 0AEA020A 		and	r10, r10, r2
 1300 0a60 00EA0408 		and	r8, r0, r4
 1301 0a64 8AEA0808 		eor	r8, r10, r8
 1302 0a68 C144     		add	r9, r9, r8
 1303              	.LVL269:
 1304 0a6a 1944     		add	r1, r1, r3
 1305              	.LVL270:
 1306 0a6c 4B44     		add	r3, r3, r9
 1307              	.LVL271:
 134:..\sha256.c   ****     F(w7 ,0x76f988da)
 1308              		.loc 1 134 0
 1309 0a6e 4FEAF128 		ror	r8, r1, #11
 1310 0a72 88EAB118 		eor	r8, r8, r1, ror #6
 1311 0a76 88EA7168 		eor	r8, r8, r1, ror #25
 1312 0a7a 4744     		add	r7, r7, r8
 1313              	.LVL272:
 1314 0a7c 05EA0109 		and	r9, r5, r1
 1315              	.LVL273:
 1316 0a80 26EA0108 		bic	r8, r6, r1
 1317 0a84 89EA0808 		eor	r8, r9, r8
 1318 0a88 B844     		add	r8, r8, r7
 1319 0a8a 069F     		ldr	r7, [sp, #24]
 1320 0a8c 4744     		add	r7, r7, r8
 1321 0a8e DFF84CA2 		ldr	r10, .L13+52
 1322              	.LVL274:
 1323 0a92 BA44     		add	r10, r10, r7
 1324              	.LVL275:
 1325 0a94 4FEA7339 		ror	r9, r3, #13
 1326 0a98 89EAB309 		eor	r9, r9, r3, ror #2
 1327 0a9c 89EAB359 		eor	r9, r9, r3, ror #22
 1328 0aa0 84EA0208 		eor	r8, r4, r2
 1329 0aa4 08EA0308 		and	r8, r8, r3
 1330 0aa8 04EA0207 		and	r7, r4, r2
 1331 0aac 88EA0708 		eor	r8, r8, r7
 1332 0ab0 C844     		add	r8, r8, r9
 1333              	.LVL276:
 1334 0ab2 5044     		add	r0, r0, r10
 1335              	.LVL277:
 1336 0ab4 D044     		add	r8, r8, r10
 1337              	.LVL278:
 135:..\sha256.c   ****     F(w8 ,0x983e5152)
 1338              		.loc 1 135 0
 1339 0ab6 4FEAF027 		ror	r7, r0, #11
 1340              	.LVL279:
 1341 0aba 87EAB017 		eor	r7, r7, r0, ror #6
 1342 0abe 87EA7067 		eor	r7, r7, r0, ror #25
 1343 0ac2 3E44     		add	r6, r6, r7
 1344              	.LVL280:
 1345 0ac4 01EA0009 		and	r9, r1, r0
 1346              	.LVL281:
 1347 0ac8 25EA0007 		bic	r7, r5, r0
ARM GAS  C:\Users\bogur\AppData\Local\Temp\cc4rWh5U.s 			page 27


 1348 0acc 89EA0707 		eor	r7, r9, r7
 1349 0ad0 3E44     		add	r6, r6, r7
 1350 0ad2 079F     		ldr	r7, [sp, #28]
 1351 0ad4 3E44     		add	r6, r6, r7
 1352 0ad6 7A4F     		ldr	r7, .L13+24
 1353 0ad8 3744     		add	r7, r7, r6
 1354              	.LVL282:
 1355 0ada 4FEA7839 		ror	r9, r8, #13
 1356 0ade 89EAB809 		eor	r9, r9, r8, ror #2
 1357 0ae2 89EAB859 		eor	r9, r9, r8, ror #22
 1358 0ae6 82EA030A 		eor	r10, r2, r3
 1359 0aea 0AEA080A 		and	r10, r10, r8
 1360 0aee 02EA0306 		and	r6, r2, r3
 1361 0af2 8AEA0606 		eor	r6, r10, r6
 1362 0af6 B144     		add	r9, r9, r6
 1363              	.LVL283:
 1364 0af8 3C44     		add	r4, r4, r7
 1365              	.LVL284:
 1366 0afa 4F44     		add	r7, r7, r9
 1367              	.LVL285:
 136:..\sha256.c   ****     F(w9 ,0xa831c66d)
 1368              		.loc 1 136 0
 1369 0afc 4FEAF426 		ror	r6, r4, #11
 1370 0b00 86EAB416 		eor	r6, r6, r4, ror #6
 1371 0b04 86EA7466 		eor	r6, r6, r4, ror #25
 1372 0b08 3544     		add	r5, r5, r6
 1373              	.LVL286:
 1374 0b0a 00EA0409 		and	r9, r0, r4
 1375              	.LVL287:
 1376 0b0e 21EA0406 		bic	r6, r1, r4
 1377 0b12 89EA0606 		eor	r6, r9, r6
 1378 0b16 3544     		add	r5, r5, r6
 1379 0b18 089E     		ldr	r6, [sp, #32]
 1380 0b1a 3544     		add	r5, r5, r6
 1381 0b1c 694E     		ldr	r6, .L13+28
 1382 0b1e 2E44     		add	r6, r6, r5
 1383              	.LVL288:
 1384 0b20 4FEA7739 		ror	r9, r7, #13
 1385 0b24 89EAB709 		eor	r9, r9, r7, ror #2
 1386 0b28 89EAB759 		eor	r9, r9, r7, ror #22
 1387 0b2c 83EA080A 		eor	r10, r3, r8
 1388              	.LVL289:
 1389 0b30 0AEA070A 		and	r10, r10, r7
 1390 0b34 03EA0805 		and	r5, r3, r8
 1391 0b38 8AEA0505 		eor	r5, r10, r5
 1392 0b3c A944     		add	r9, r9, r5
 1393              	.LVL290:
 1394 0b3e 3244     		add	r2, r2, r6
 1395              	.LVL291:
 1396 0b40 4E44     		add	r6, r6, r9
 1397              	.LVL292:
 137:..\sha256.c   ****     F(w10,0xb00327c8)
 1398              		.loc 1 137 0
 1399 0b42 4FEAF225 		ror	r5, r2, #11
 1400 0b46 85EAB215 		eor	r5, r5, r2, ror #6
 1401 0b4a 85EA7265 		eor	r5, r5, r2, ror #25
 1402 0b4e 2944     		add	r1, r1, r5
ARM GAS  C:\Users\bogur\AppData\Local\Temp\cc4rWh5U.s 			page 28


 1403              	.LVL293:
 1404 0b50 04EA0209 		and	r9, r4, r2
 1405              	.LVL294:
 1406 0b54 20EA0205 		bic	r5, r0, r2
 1407 0b58 89EA0505 		eor	r5, r9, r5
 1408 0b5c 0D44     		add	r5, r5, r1
 1409 0b5e 0999     		ldr	r1, [sp, #36]
 1410 0b60 0D44     		add	r5, r5, r1
 1411 0b62 5949     		ldr	r1, .L13+32
 1412 0b64 2944     		add	r1, r1, r5
 1413              	.LVL295:
 1414 0b66 4FEA7639 		ror	r9, r6, #13
 1415 0b6a 89EAB609 		eor	r9, r9, r6, ror #2
 1416 0b6e 89EAB659 		eor	r9, r9, r6, ror #22
 1417 0b72 88EA070A 		eor	r10, r8, r7
 1418              	.LVL296:
 1419 0b76 0AEA060A 		and	r10, r10, r6
 1420 0b7a 08EA0705 		and	r5, r8, r7
 1421 0b7e 8AEA0505 		eor	r5, r10, r5
 1422 0b82 A944     		add	r9, r9, r5
 1423              	.LVL297:
 1424 0b84 0B44     		add	r3, r3, r1
 1425              	.LVL298:
 1426 0b86 4944     		add	r1, r1, r9
 1427              	.LVL299:
 138:..\sha256.c   ****     F(w11,0xbf597fc7)
 1428              		.loc 1 138 0
 1429 0b88 4FEAF325 		ror	r5, r3, #11
 1430 0b8c 85EAB315 		eor	r5, r5, r3, ror #6
 1431 0b90 85EA7365 		eor	r5, r5, r3, ror #25
 1432 0b94 2844     		add	r0, r0, r5
 1433              	.LVL300:
 1434 0b96 02EA0309 		and	r9, r2, r3
 1435              	.LVL301:
 1436 0b9a 24EA0305 		bic	r5, r4, r3
 1437 0b9e 89EA0505 		eor	r5, r9, r5
 1438 0ba2 0544     		add	r5, r5, r0
 1439 0ba4 0A98     		ldr	r0, [sp, #40]
 1440 0ba6 0544     		add	r5, r5, r0
 1441 0ba8 4848     		ldr	r0, .L13+36
 1442 0baa 2844     		add	r0, r0, r5
 1443              	.LVL302:
 1444 0bac 4FEA7139 		ror	r9, r1, #13
 1445 0bb0 89EAB109 		eor	r9, r9, r1, ror #2
 1446 0bb4 89EAB159 		eor	r9, r9, r1, ror #22
 1447 0bb8 87EA060A 		eor	r10, r7, r6
 1448              	.LVL303:
 1449 0bbc 0AEA010A 		and	r10, r10, r1
 1450 0bc0 07EA0605 		and	r5, r7, r6
 1451 0bc4 8AEA0505 		eor	r5, r10, r5
 1452 0bc8 A944     		add	r9, r9, r5
 1453              	.LVL304:
 1454 0bca 8044     		add	r8, r8, r0
 1455              	.LVL305:
 1456 0bcc 4844     		add	r0, r0, r9
 1457              	.LVL306:
 139:..\sha256.c   ****     F(w12,0xc6e00bf3)
ARM GAS  C:\Users\bogur\AppData\Local\Temp\cc4rWh5U.s 			page 29


 1458              		.loc 1 139 0
 1459 0bce 4FEAF825 		ror	r5, r8, #11
 1460 0bd2 85EAB815 		eor	r5, r5, r8, ror #6
 1461 0bd6 85EA7865 		eor	r5, r5, r8, ror #25
 1462 0bda 2C44     		add	r4, r4, r5
 1463              	.LVL307:
 1464 0bdc 03EA0809 		and	r9, r3, r8
 1465              	.LVL308:
 1466 0be0 22EA0805 		bic	r5, r2, r8
 1467 0be4 89EA0505 		eor	r5, r9, r5
 1468 0be8 2C44     		add	r4, r4, r5
 1469 0bea 0B9D     		ldr	r5, [sp, #44]
 1470 0bec 2C44     		add	r4, r4, r5
 1471 0bee 384D     		ldr	r5, .L13+40
 1472 0bf0 2544     		add	r5, r5, r4
 1473              	.LVL309:
 1474 0bf2 4FEA7039 		ror	r9, r0, #13
 1475 0bf6 89EAB009 		eor	r9, r9, r0, ror #2
 1476 0bfa 89EAB059 		eor	r9, r9, r0, ror #22
 1477 0bfe 86EA010A 		eor	r10, r6, r1
 1478              	.LVL310:
 1479 0c02 0AEA000A 		and	r10, r10, r0
 1480 0c06 06EA0104 		and	r4, r6, r1
 1481 0c0a 8AEA0404 		eor	r4, r10, r4
 1482 0c0e A144     		add	r9, r9, r4
 1483              	.LVL311:
 1484 0c10 2F44     		add	r7, r7, r5
 1485              	.LVL312:
 1486 0c12 4D44     		add	r5, r5, r9
 1487              	.LVL313:
 140:..\sha256.c   ****     F(w13,0xd5a79147)
 1488              		.loc 1 140 0
 1489 0c14 4FEAF724 		ror	r4, r7, #11
 1490 0c18 84EAB714 		eor	r4, r4, r7, ror #6
 1491 0c1c 84EA7764 		eor	r4, r4, r7, ror #25
 1492 0c20 2244     		add	r2, r2, r4
 1493              	.LVL314:
 1494 0c22 08EA0709 		and	r9, r8, r7
 1495              	.LVL315:
 1496 0c26 23EA0704 		bic	r4, r3, r7
 1497 0c2a 89EA0404 		eor	r4, r9, r4
 1498 0c2e 2244     		add	r2, r2, r4
 1499 0c30 0C9C     		ldr	r4, [sp, #48]
 1500 0c32 2244     		add	r2, r2, r4
 1501 0c34 274C     		ldr	r4, .L13+44
 1502 0c36 1444     		add	r4, r4, r2
 1503              	.LVL316:
 1504 0c38 4FEA7539 		ror	r9, r5, #13
 1505 0c3c 89EAB509 		eor	r9, r9, r5, ror #2
 1506 0c40 89EAB559 		eor	r9, r9, r5, ror #22
 1507 0c44 81EA000A 		eor	r10, r1, r0
 1508              	.LVL317:
 1509 0c48 0AEA050A 		and	r10, r10, r5
 1510 0c4c 01EA0002 		and	r2, r1, r0
 1511 0c50 8AEA0202 		eor	r2, r10, r2
 1512 0c54 9144     		add	r9, r9, r2
 1513              	.LVL318:
ARM GAS  C:\Users\bogur\AppData\Local\Temp\cc4rWh5U.s 			page 30


 1514 0c56 2644     		add	r6, r6, r4
 1515              	.LVL319:
 1516 0c58 4C44     		add	r4, r4, r9
 1517              	.LVL320:
 141:..\sha256.c   ****     F(w14,0x06ca6351)
 1518              		.loc 1 141 0
 1519 0c5a 4FEAF622 		ror	r2, r6, #11
 1520 0c5e 1496     		str	r6, [sp, #80]
 1521 0c60 82EAB612 		eor	r2, r2, r6, ror #6
 1522 0c64 82EA7662 		eor	r2, r2, r6, ror #25
 1523 0c68 1344     		add	r3, r3, r2
 1524              	.LVL321:
 1525 0c6a 07EA0609 		and	r9, r7, r6
 1526              	.LVL322:
 1527 0c6e 28EA0602 		bic	r2, r8, r6
 1528 0c72 89EA0202 		eor	r2, r9, r2
 1529 0c76 1344     		add	r3, r3, r2
 1530 0c78 139E     		ldr	r6, [sp, #76]
 1531              	.LVL323:
 1532 0c7a 3344     		add	r3, r3, r6
 1533 0c7c 164A     		ldr	r2, .L13+48
 1534 0c7e 1A44     		add	r2, r2, r3
 1535              	.LVL324:
 1536 0c80 4FEA7439 		ror	r9, r4, #13
 1537 0c84 89EAB409 		eor	r9, r9, r4, ror #2
 1538 0c88 89EAB459 		eor	r9, r9, r4, ror #22
 1539 0c8c 80EA050A 		eor	r10, r0, r5
 1540              	.LVL325:
 1541 0c90 0AEA040A 		and	r10, r10, r4
 1542 0c94 00EA0503 		and	r3, r0, r5
 1543 0c98 8AEA0303 		eor	r3, r10, r3
 1544 0c9c 4B44     		add	r3, r3, r9
 1545              	.LVL326:
 1546 0c9e 01EB0209 		add	r9, r1, r2
 1547              	.LVL327:
 1548 0ca2 1A44     		add	r2, r2, r3
 1549 0ca4 1CE0     		b	.L14
 1550              	.L15:
 1551 0ca6 00BF     		.align	2
 1552              	.L13:
 1553 0ca8 8647BEEF 		.word	-272742522
 1554 0cac C69DC10F 		.word	264347078
 1555 0cb0 CCA10C24 		.word	604807628
 1556 0cb4 6F2CE92D 		.word	770255983
 1557 0cb8 AA84744A 		.word	1249150122
 1558 0cbc DCA9B05C 		.word	1555081692
 1559 0cc0 52513E98 		.word	-1740746414
 1560 0cc4 6DC631A8 		.word	-1473132947
 1561 0cc8 C82703B0 		.word	-1341970488
 1562 0ccc C77F59BF 		.word	-1084653625
 1563 0cd0 F30BE0C6 		.word	-958395405
 1564 0cd4 4791A7D5 		.word	-710438585
 1565 0cd8 5163CA06 		.word	113926993
 1566 0cdc DA88F976 		.word	1996064986
 1567              	.L14:
 1568              	.LVL328:
 142:..\sha256.c   ****     F(w15,0x14292967)
ARM GAS  C:\Users\bogur\AppData\Local\Temp\cc4rWh5U.s 			page 31


 1569              		.loc 1 142 0
 1570 0ce0 4FEAF923 		ror	r3, r9, #11
 1571              	.LVL329:
 1572 0ce4 83EAB913 		eor	r3, r3, r9, ror #6
 1573 0ce8 83EA7963 		eor	r3, r3, r9, ror #25
 1574 0cec 9844     		add	r8, r8, r3
 1575              	.LVL330:
 1576 0cee 149B     		ldr	r3, [sp, #80]
 1577 0cf0 03EA0901 		and	r1, r3, r9
 1578 0cf4 27EA0903 		bic	r3, r7, r9
 1579 0cf8 4B40     		eors	r3, r3, r1
 1580 0cfa 9844     		add	r8, r8, r3
 1581 0cfc 0D9B     		ldr	r3, [sp, #52]
 1582 0cfe 9844     		add	r8, r8, r3
 1583 0d00 DFF82CA7 		ldr	r10, .L16+56
 1584              	.LVL331:
 1585 0d04 C244     		add	r10, r10, r8
 1586              	.LVL332:
 1587 0d06 4FEA7231 		ror	r1, r2, #13
 1588 0d0a 81EAB201 		eor	r1, r1, r2, ror #2
 1589 0d0e 81EAB251 		eor	r1, r1, r2, ror #22
 1590 0d12 85EA0408 		eor	r8, r5, r4
 1591 0d16 08EA0208 		and	r8, r8, r2
 1592 0d1a 05EA0403 		and	r3, r5, r4
 1593 0d1e 88EA0303 		eor	r3, r8, r3
 1594 0d22 0B44     		add	r3, r3, r1
 1595              	.LVL333:
 1596 0d24 5044     		add	r0, r0, r10
 1597              	.LVL334:
 1598 0d26 5344     		add	r3, r3, r10
 1599              	.LVL335:
 143:..\sha256.c   **** 
 144:..\sha256.c   ****     EXPAND
 1600              		.loc 1 144 0
 1601 0d28 4FEAF648 		ror	r8, r6, #19
 1602              	.LVL336:
 1603 0d2c 88EA7648 		eor	r8, r8, r6, ror #17
 1604 0d30 88EA9628 		eor	r8, r8, r6, lsr #10
 1605 0d34 0899     		ldr	r1, [sp, #32]
 1606              	.LVL337:
 1607 0d36 8844     		add	r8, r8, r1
 1608 0d38 4FEABB41 		ror	r1, fp, #18
 1609 0d3c 81EAFB11 		eor	r1, r1, fp, ror #7
 1610 0d40 81EADB01 		eor	r1, r1, fp, lsr #3
 1611 0d44 4144     		add	r1, r1, r8
 1612 0d46 8E44     		add	lr, lr, r1
 1613              	.LVL338:
 1614 0d48 CDF838E0 		str	lr, [sp, #56]
 1615              	.LVL339:
 1616 0d4c 0D9E     		ldr	r6, [sp, #52]
 1617 0d4e 4FEAF64E 		ror	lr, r6, #19
 1618              	.LVL340:
 1619 0d52 8EEA764E 		eor	lr, lr, r6, ror #17
 1620 0d56 8EEA962E 		eor	lr, lr, r6, lsr #10
 1621 0d5a 0999     		ldr	r1, [sp, #36]
 1622 0d5c 8E44     		add	lr, lr, r1
 1623 0d5e 4FEABC41 		ror	r1, ip, #18
ARM GAS  C:\Users\bogur\AppData\Local\Temp\cc4rWh5U.s 			page 32


 1624 0d62 81EAFC11 		eor	r1, r1, ip, ror #7
 1625 0d66 81EADC01 		eor	r1, r1, ip, lsr #3
 1626 0d6a 7144     		add	r1, r1, lr
 1627 0d6c 0BEB010E 		add	lr, fp, r1
 1628 0d70 CDF83CE0 		str	lr, [sp, #60]
 1629              	.LVL341:
 1630 0d74 0E9E     		ldr	r6, [sp, #56]
 1631 0d76 4FEAF648 		ror	r8, r6, #19
 1632 0d7a 88EA7648 		eor	r8, r8, r6, ror #17
 1633 0d7e 88EA9628 		eor	r8, r8, r6, lsr #10
 1634 0d82 0A99     		ldr	r1, [sp, #40]
 1635 0d84 8844     		add	r8, r8, r1
 1636 0d86 029E     		ldr	r6, [sp, #8]
 1637 0d88 4FEAB641 		ror	r1, r6, #18
 1638 0d8c B646     		mov	lr, r6
 1639              	.LVL342:
 1640 0d8e 81EAF611 		eor	r1, r1, r6, ror #7
 1641 0d92 81EADE01 		eor	r1, r1, lr, lsr #3
 1642 0d96 8844     		add	r8, r8, r1
 1643 0d98 0CEB080E 		add	lr, ip, r8
 1644 0d9c CDF840E0 		str	lr, [sp, #64]
 1645              	.LVL343:
 1646 0da0 0F9E     		ldr	r6, [sp, #60]
 1647 0da2 4FEAF64C 		ror	ip, r6, #19
 1648 0da6 8CEA764C 		eor	ip, ip, r6, ror #17
 1649 0daa 8CEA962C 		eor	ip, ip, r6, lsr #10
 1650 0dae 0B99     		ldr	r1, [sp, #44]
 1651 0db0 8C44     		add	ip, ip, r1
 1652 0db2 039E     		ldr	r6, [sp, #12]
 1653 0db4 4FEAB641 		ror	r1, r6, #18
 1654 0db8 B646     		mov	lr, r6
 1655              	.LVL344:
 1656 0dba 81EAF611 		eor	r1, r1, r6, ror #7
 1657 0dbe 81EADE01 		eor	r1, r1, lr, lsr #3
 1658 0dc2 8C44     		add	ip, ip, r1
 1659 0dc4 029E     		ldr	r6, [sp, #8]
 1660 0dc6 B646     		mov	lr, r6
 1661 0dc8 E644     		add	lr, lr, ip
 1662 0dca CDF844E0 		str	lr, [sp, #68]
 1663              	.LVL345:
 1664 0dce 109E     		ldr	r6, [sp, #64]
 1665 0dd0 4FEAF64E 		ror	lr, r6, #19
 1666              	.LVL346:
 1667 0dd4 8EEA764E 		eor	lr, lr, r6, ror #17
 1668 0dd8 8EEA962E 		eor	lr, lr, r6, lsr #10
 1669 0ddc 0C99     		ldr	r1, [sp, #48]
 1670 0dde 8E44     		add	lr, lr, r1
 1671 0de0 049E     		ldr	r6, [sp, #16]
 1672 0de2 4FEAB641 		ror	r1, r6, #18
 1673 0de6 B446     		mov	ip, r6
 1674 0de8 81EAF611 		eor	r1, r1, r6, ror #7
 1675 0dec 81EADC01 		eor	r1, r1, ip, lsr #3
 1676 0df0 7144     		add	r1, r1, lr
 1677 0df2 039E     		ldr	r6, [sp, #12]
 1678 0df4 0E44     		add	r6, r6, r1
 1679 0df6 1296     		str	r6, [sp, #72]
 1680              	.LVL347:
ARM GAS  C:\Users\bogur\AppData\Local\Temp\cc4rWh5U.s 			page 33


 1681 0df8 119E     		ldr	r6, [sp, #68]
 1682              	.LVL348:
 1683 0dfa 4FEAF64B 		ror	fp, r6, #19
 1684 0dfe 8BEA764B 		eor	fp, fp, r6, ror #17
 1685 0e02 8BEA962B 		eor	fp, fp, r6, lsr #10
 1686 0e06 1399     		ldr	r1, [sp, #76]
 1687 0e08 8B44     		add	fp, fp, r1
 1688 0e0a 059E     		ldr	r6, [sp, #20]
 1689 0e0c 4FEAB641 		ror	r1, r6, #18
 1690 0e10 B646     		mov	lr, r6
 1691 0e12 81EAF611 		eor	r1, r1, r6, ror #7
 1692 0e16 81EADE01 		eor	r1, r1, lr, lsr #3
 1693 0e1a 5944     		add	r1, r1, fp
 1694 0e1c 6646     		mov	r6, ip
 1695 0e1e 0E44     		add	r6, r6, r1
 1696 0e20 0496     		str	r6, [sp, #16]
 1697              	.LVL349:
 1698 0e22 1299     		ldr	r1, [sp, #72]
 1699 0e24 4FEAF14A 		ror	r10, r1, #19
 1700              	.LVL350:
 1701 0e28 8AEA714A 		eor	r10, r10, r1, ror #17
 1702 0e2c 8AEA912A 		eor	r10, r10, r1, lsr #10
 1703 0e30 0D99     		ldr	r1, [sp, #52]
 1704 0e32 8A44     		add	r10, r10, r1
 1705 0e34 069E     		ldr	r6, [sp, #24]
 1706              	.LVL351:
 1707 0e36 4FEAB641 		ror	r1, r6, #18
 1708 0e3a B646     		mov	lr, r6
 1709 0e3c 81EAF611 		eor	r1, r1, r6, ror #7
 1710 0e40 81EADE01 		eor	r1, r1, lr, lsr #3
 1711 0e44 8A44     		add	r10, r10, r1
 1712 0e46 059E     		ldr	r6, [sp, #20]
 1713 0e48 B646     		mov	lr, r6
 1714 0e4a D644     		add	lr, lr, r10
 1715 0e4c CDF814E0 		str	lr, [sp, #20]
 1716              	.LVL352:
 1717 0e50 0499     		ldr	r1, [sp, #16]
 1718 0e52 4FEAF14A 		ror	r10, r1, #19
 1719 0e56 8AEA714A 		eor	r10, r10, r1, ror #17
 1720 0e5a 8AEA912A 		eor	r10, r10, r1, lsr #10
 1721 0e5e 0E9E     		ldr	r6, [sp, #56]
 1722 0e60 B244     		add	r10, r10, r6
 1723 0e62 079E     		ldr	r6, [sp, #28]
 1724 0e64 4FEAB641 		ror	r1, r6, #18
 1725 0e68 B646     		mov	lr, r6
 1726              	.LVL353:
 1727 0e6a 81EAF611 		eor	r1, r1, r6, ror #7
 1728 0e6e 81EADE01 		eor	r1, r1, lr, lsr #3
 1729 0e72 8A44     		add	r10, r10, r1
 1730 0e74 069E     		ldr	r6, [sp, #24]
 1731 0e76 B646     		mov	lr, r6
 1732 0e78 D644     		add	lr, lr, r10
 1733 0e7a CDF818E0 		str	lr, [sp, #24]
 1734              	.LVL354:
 1735 0e7e 0599     		ldr	r1, [sp, #20]
 1736 0e80 4FEAF14A 		ror	r10, r1, #19
 1737 0e84 8AEA714A 		eor	r10, r10, r1, ror #17
ARM GAS  C:\Users\bogur\AppData\Local\Temp\cc4rWh5U.s 			page 34


 1738 0e88 8AEA912A 		eor	r10, r10, r1, lsr #10
 1739 0e8c 0F99     		ldr	r1, [sp, #60]
 1740 0e8e 8A44     		add	r10, r10, r1
 1741 0e90 089E     		ldr	r6, [sp, #32]
 1742 0e92 4FEAB641 		ror	r1, r6, #18
 1743 0e96 B646     		mov	lr, r6
 1744              	.LVL355:
 1745 0e98 81EAF611 		eor	r1, r1, r6, ror #7
 1746 0e9c 81EADE01 		eor	r1, r1, lr, lsr #3
 1747 0ea0 8A44     		add	r10, r10, r1
 1748 0ea2 079E     		ldr	r6, [sp, #28]
 1749 0ea4 B646     		mov	lr, r6
 1750 0ea6 D644     		add	lr, lr, r10
 1751 0ea8 CDF81CE0 		str	lr, [sp, #28]
 1752              	.LVL356:
 1753 0eac 0699     		ldr	r1, [sp, #24]
 1754 0eae 4FEAF14B 		ror	fp, r1, #19
 1755 0eb2 8BEA714B 		eor	fp, fp, r1, ror #17
 1756 0eb6 8BEA912B 		eor	fp, fp, r1, lsr #10
 1757 0eba 109E     		ldr	r6, [sp, #64]
 1758 0ebc B344     		add	fp, fp, r6
 1759 0ebe 099E     		ldr	r6, [sp, #36]
 1760 0ec0 4FEAB641 		ror	r1, r6, #18
 1761 0ec4 B646     		mov	lr, r6
 1762              	.LVL357:
 1763 0ec6 81EAF611 		eor	r1, r1, r6, ror #7
 1764 0eca 81EADE01 		eor	r1, r1, lr, lsr #3
 1765 0ece 5944     		add	r1, r1, fp
 1766 0ed0 089E     		ldr	r6, [sp, #32]
 1767 0ed2 7118     		adds	r1, r6, r1
 1768 0ed4 0891     		str	r1, [sp, #32]
 1769              	.LVL358:
 1770 0ed6 079E     		ldr	r6, [sp, #28]
 1771 0ed8 4FEAF64B 		ror	fp, r6, #19
 1772 0edc 8BEA764B 		eor	fp, fp, r6, ror #17
 1773 0ee0 8BEA962B 		eor	fp, fp, r6, lsr #10
 1774 0ee4 119E     		ldr	r6, [sp, #68]
 1775 0ee6 B344     		add	fp, fp, r6
 1776 0ee8 0A9E     		ldr	r6, [sp, #40]
 1777 0eea 4FEAB641 		ror	r1, r6, #18
 1778              	.LVL359:
 1779 0eee B646     		mov	lr, r6
 1780 0ef0 81EAF611 		eor	r1, r1, r6, ror #7
 1781 0ef4 81EADE01 		eor	r1, r1, lr, lsr #3
 1782 0ef8 5944     		add	r1, r1, fp
 1783 0efa 099E     		ldr	r6, [sp, #36]
 1784 0efc 7118     		adds	r1, r6, r1
 1785 0efe 0991     		str	r1, [sp, #36]
 1786              	.LVL360:
 1787 0f00 089E     		ldr	r6, [sp, #32]
 1788 0f02 4FEAF64B 		ror	fp, r6, #19
 1789 0f06 8BEA764B 		eor	fp, fp, r6, ror #17
 1790 0f0a 8BEA962B 		eor	fp, fp, r6, lsr #10
 1791 0f0e 1299     		ldr	r1, [sp, #72]
 1792              	.LVL361:
 1793 0f10 8B44     		add	fp, fp, r1
 1794 0f12 0B9E     		ldr	r6, [sp, #44]
ARM GAS  C:\Users\bogur\AppData\Local\Temp\cc4rWh5U.s 			page 35


 1795 0f14 4FEAB641 		ror	r1, r6, #18
 1796 0f18 B646     		mov	lr, r6
 1797 0f1a 81EAF611 		eor	r1, r1, r6, ror #7
 1798 0f1e 81EADE01 		eor	r1, r1, lr, lsr #3
 1799 0f22 5944     		add	r1, r1, fp
 1800 0f24 0A9E     		ldr	r6, [sp, #40]
 1801 0f26 0E44     		add	r6, r6, r1
 1802 0f28 0A96     		str	r6, [sp, #40]
 1803              	.LVL362:
 1804 0f2a 0999     		ldr	r1, [sp, #36]
 1805 0f2c 4FEAF14B 		ror	fp, r1, #19
 1806 0f30 8BEA714B 		eor	fp, fp, r1, ror #17
 1807 0f34 8BEA912B 		eor	fp, fp, r1, lsr #10
 1808 0f38 0499     		ldr	r1, [sp, #16]
 1809 0f3a 8B44     		add	fp, fp, r1
 1810 0f3c 0C9E     		ldr	r6, [sp, #48]
 1811              	.LVL363:
 1812 0f3e 4FEAB641 		ror	r1, r6, #18
 1813 0f42 B646     		mov	lr, r6
 1814 0f44 81EAF611 		eor	r1, r1, r6, ror #7
 1815 0f48 81EADE01 		eor	r1, r1, lr, lsr #3
 1816 0f4c 5944     		add	r1, r1, fp
 1817 0f4e 0B9E     		ldr	r6, [sp, #44]
 1818 0f50 7118     		adds	r1, r6, r1
 1819 0f52 0B91     		str	r1, [sp, #44]
 1820              	.LVL364:
 1821 0f54 0A9E     		ldr	r6, [sp, #40]
 1822 0f56 4FEAF64B 		ror	fp, r6, #19
 1823 0f5a 8BEA764B 		eor	fp, fp, r6, ror #17
 1824 0f5e 8BEA962B 		eor	fp, fp, r6, lsr #10
 1825 0f62 0599     		ldr	r1, [sp, #20]
 1826              	.LVL365:
 1827 0f64 8B44     		add	fp, fp, r1
 1828 0f66 139E     		ldr	r6, [sp, #76]
 1829 0f68 4FEAB641 		ror	r1, r6, #18
 1830 0f6c B646     		mov	lr, r6
 1831 0f6e 81EAF611 		eor	r1, r1, r6, ror #7
 1832 0f72 81EADE01 		eor	r1, r1, lr, lsr #3
 1833 0f76 5944     		add	r1, r1, fp
 1834 0f78 0C9E     		ldr	r6, [sp, #48]
 1835 0f7a 0E44     		add	r6, r6, r1
 1836 0f7c 0C96     		str	r6, [sp, #48]
 1837              	.LVL366:
 1838 0f7e 0B99     		ldr	r1, [sp, #44]
 1839 0f80 4FEAF14B 		ror	fp, r1, #19
 1840 0f84 8BEA714B 		eor	fp, fp, r1, ror #17
 1841 0f88 8BEA912B 		eor	fp, fp, r1, lsr #10
 1842 0f8c 0699     		ldr	r1, [sp, #24]
 1843 0f8e 8B44     		add	fp, fp, r1
 1844 0f90 0D9E     		ldr	r6, [sp, #52]
 1845              	.LVL367:
 1846 0f92 4FEAB641 		ror	r1, r6, #18
 1847 0f96 B646     		mov	lr, r6
 1848 0f98 81EAF611 		eor	r1, r1, r6, ror #7
 1849 0f9c 81EADE01 		eor	r1, r1, lr, lsr #3
 1850 0fa0 5944     		add	r1, r1, fp
 1851 0fa2 139E     		ldr	r6, [sp, #76]
ARM GAS  C:\Users\bogur\AppData\Local\Temp\cc4rWh5U.s 			page 36


 1852 0fa4 0E44     		add	r6, r6, r1
 1853 0fa6 0296     		str	r6, [sp, #8]
 1854              	.LVL368:
 1855 0fa8 0C99     		ldr	r1, [sp, #48]
 1856 0faa 4FEAF14B 		ror	fp, r1, #19
 1857 0fae 8BEA714B 		eor	fp, fp, r1, ror #17
 1858 0fb2 8BEA912B 		eor	fp, fp, r1, lsr #10
 1859 0fb6 079E     		ldr	r6, [sp, #28]
 1860              	.LVL369:
 1861 0fb8 B344     		add	fp, fp, r6
 1862 0fba 0E9E     		ldr	r6, [sp, #56]
 1863 0fbc 4FEAB641 		ror	r1, r6, #18
 1864 0fc0 B646     		mov	lr, r6
 1865 0fc2 81EAF611 		eor	r1, r1, r6, ror #7
 1866 0fc6 81EADE01 		eor	r1, r1, lr, lsr #3
 1867 0fca 5944     		add	r1, r1, fp
 1868 0fcc 0D9E     		ldr	r6, [sp, #52]
 1869 0fce 0E44     		add	r6, r6, r1
 1870 0fd0 0396     		str	r6, [sp, #12]
 1871              	.LVL370:
 145:..\sha256.c   **** 
 146:..\sha256.c   ****     F(w0 ,0x27b70a85)
 1872              		.loc 1 146 0
 1873 0fd2 4FEAF021 		ror	r1, r0, #11
 1874 0fd6 81EAB011 		eor	r1, r1, r0, ror #6
 1875 0fda 81EA7061 		eor	r1, r1, r0, ror #25
 1876 0fde 0F44     		add	r7, r7, r1
 1877              	.LVL371:
 1878 0fe0 09EA000E 		and	lr, r9, r0
 1879 0fe4 1499     		ldr	r1, [sp, #80]
 1880 0fe6 21EA0001 		bic	r1, r1, r0
 1881 0fea 8EEA0101 		eor	r1, lr, r1
 1882 0fee 0F44     		add	r7, r7, r1
 1883 0ff0 0E9E     		ldr	r6, [sp, #56]
 1884              	.LVL372:
 1885 0ff2 3744     		add	r7, r7, r6
 1886 0ff4 DFF83CE4 		ldr	lr, .L16+60
 1887 0ff8 BE44     		add	lr, lr, r7
 1888              	.LVL373:
 1889 0ffa 4FEA7337 		ror	r7, r3, #13
 1890 0ffe 87EAB307 		eor	r7, r7, r3, ror #2
 1891 1002 87EAB357 		eor	r7, r7, r3, ror #22
 1892 1006 84EA020C 		eor	ip, r4, r2
 1893 100a 0CEA030C 		and	ip, ip, r3
 1894 100e 04EA0201 		and	r1, r4, r2
 1895 1012 8CEA010C 		eor	ip, ip, r1
 1896 1016 BC44     		add	ip, ip, r7
 1897              	.LVL374:
 1898 1018 7544     		add	r5, r5, lr
 1899              	.LVL375:
 1900 101a F444     		add	ip, ip, lr
 1901              	.LVL376:
 147:..\sha256.c   ****     F(w1 ,0x2e1b2138)
 1902              		.loc 1 147 0
 1903 101c 4FEAF521 		ror	r1, r5, #11
 1904              	.LVL377:
 1905 1020 81EAB511 		eor	r1, r1, r5, ror #6
ARM GAS  C:\Users\bogur\AppData\Local\Temp\cc4rWh5U.s 			page 37


 1906 1024 81EA7561 		eor	r1, r1, r5, ror #25
 1907 1028 149E     		ldr	r6, [sp, #80]
 1908 102a 0E44     		add	r6, r6, r1
 1909 102c 00EA0507 		and	r7, r0, r5
 1910              	.LVL378:
 1911 1030 29EA0501 		bic	r1, r9, r5
 1912 1034 7940     		eors	r1, r1, r7
 1913 1036 0E44     		add	r6, r6, r1
 1914 1038 0F9F     		ldr	r7, [sp, #60]
 1915 103a 3E44     		add	r6, r6, r7
 1916 103c EE4F     		ldr	r7, .L16
 1917 103e 3744     		add	r7, r7, r6
 1918              	.LVL379:
 1919 1040 4FEA7C36 		ror	r6, ip, #13
 1920 1044 86EABC06 		eor	r6, r6, ip, ror #2
 1921 1048 86EABC56 		eor	r6, r6, ip, ror #22
 1922 104c 82EA030E 		eor	lr, r2, r3
 1923 1050 0EEA0C0E 		and	lr, lr, ip
 1924 1054 02EA0301 		and	r1, r2, r3
 1925 1058 8EEA010E 		eor	lr, lr, r1
 1926 105c B644     		add	lr, lr, r6
 1927              	.LVL380:
 1928 105e 3C44     		add	r4, r4, r7
 1929              	.LVL381:
 1930 1060 BE44     		add	lr, lr, r7
 1931              	.LVL382:
 148:..\sha256.c   ****     F(w2 ,0x4d2c6dfc)
 1932              		.loc 1 148 0
 1933 1062 4FEAF421 		ror	r1, r4, #11
 1934              	.LVL383:
 1935 1066 81EAB411 		eor	r1, r1, r4, ror #6
 1936 106a 81EA7461 		eor	r1, r1, r4, ror #25
 1937 106e 4944     		add	r1, r1, r9
 1938 1070 05EA0409 		and	r9, r5, r4
 1939              	.LVL384:
 1940 1074 20EA0406 		bic	r6, r0, r4
 1941              	.LVL385:
 1942 1078 89EA0606 		eor	r6, r9, r6
 1943 107c 3144     		add	r1, r1, r6
 1944 107e 109F     		ldr	r7, [sp, #64]
 1945              	.LVL386:
 1946 1080 3944     		add	r1, r1, r7
 1947 1082 DE4F     		ldr	r7, .L16+4
 1948 1084 0F44     		add	r7, r7, r1
 1949              	.LVL387:
 1950 1086 4FEA7E36 		ror	r6, lr, #13
 1951 108a 86EABE06 		eor	r6, r6, lr, ror #2
 1952 108e 86EABE56 		eor	r6, r6, lr, ror #22
 1953 1092 83EA0C08 		eor	r8, r3, ip
 1954 1096 08EA0E08 		and	r8, r8, lr
 1955 109a 03EA0C01 		and	r1, r3, ip
 1956 109e 88EA0101 		eor	r1, r8, r1
 1957 10a2 0E44     		add	r6, r6, r1
 1958              	.LVL388:
 1959 10a4 3A44     		add	r2, r2, r7
 1960              	.LVL389:
 1961 10a6 3744     		add	r7, r7, r6
ARM GAS  C:\Users\bogur\AppData\Local\Temp\cc4rWh5U.s 			page 38


 1962              	.LVL390:
 149:..\sha256.c   ****     F(w3 ,0x53380d13)
 1963              		.loc 1 149 0
 1964 10a8 4FEAF221 		ror	r1, r2, #11
 1965 10ac 81EAB211 		eor	r1, r1, r2, ror #6
 1966 10b0 81EA7261 		eor	r1, r1, r2, ror #25
 1967 10b4 0844     		add	r0, r0, r1
 1968              	.LVL391:
 1969 10b6 04EA0206 		and	r6, r4, r2
 1970              	.LVL392:
 1971 10ba 25EA0201 		bic	r1, r5, r2
 1972 10be 7140     		eors	r1, r1, r6
 1973 10c0 0844     		add	r0, r0, r1
 1974 10c2 119E     		ldr	r6, [sp, #68]
 1975 10c4 3044     		add	r0, r0, r6
 1976 10c6 CE4E     		ldr	r6, .L16+8
 1977 10c8 0644     		add	r6, r6, r0
 1978              	.LVL393:
 1979 10ca 4FEA7730 		ror	r0, r7, #13
 1980 10ce 80EAB700 		eor	r0, r0, r7, ror #2
 1981 10d2 80EAB750 		eor	r0, r0, r7, ror #22
 1982 10d6 8CEA0E08 		eor	r8, ip, lr
 1983              	.LVL394:
 1984 10da 08EA0708 		and	r8, r8, r7
 1985 10de 0CEA0E01 		and	r1, ip, lr
 1986 10e2 88EA0101 		eor	r1, r8, r1
 1987 10e6 0844     		add	r0, r0, r1
 1988              	.LVL395:
 1989 10e8 03EB060A 		add	r10, r3, r6
 1990              	.LVL396:
 1991 10ec 0644     		add	r6, r6, r0
 1992              	.LVL397:
 150:..\sha256.c   ****     F(w4 ,0x650a7354)
 1993              		.loc 1 150 0
 1994 10ee 4FEAFA23 		ror	r3, r10, #11
 1995 10f2 83EABA13 		eor	r3, r3, r10, ror #6
 1996 10f6 83EA7A63 		eor	r3, r3, r10, ror #25
 1997 10fa 1D44     		add	r5, r5, r3
 1998              	.LVL398:
 1999 10fc 02EA0A01 		and	r1, r2, r10
 2000 1100 24EA0A03 		bic	r3, r4, r10
 2001 1104 4B40     		eors	r3, r3, r1
 2002 1106 1D44     		add	r5, r5, r3
 2003 1108 1298     		ldr	r0, [sp, #72]
 2004              	.LVL399:
 2005 110a 0544     		add	r5, r5, r0
 2006 110c BD48     		ldr	r0, .L16+12
 2007 110e 2844     		add	r0, r0, r5
 2008              	.LVL400:
 2009 1110 4FEA7631 		ror	r1, r6, #13
 2010 1114 81EAB601 		eor	r1, r1, r6, ror #2
 2011 1118 81EAB651 		eor	r1, r1, r6, ror #22
 2012 111c 8EEA0705 		eor	r5, lr, r7
 2013 1120 3540     		ands	r5, r5, r6
 2014 1122 0EEA0703 		and	r3, lr, r7
 2015 1126 5D40     		eors	r5, r5, r3
 2016 1128 0D44     		add	r5, r5, r1
ARM GAS  C:\Users\bogur\AppData\Local\Temp\cc4rWh5U.s 			page 39


 2017              	.LVL401:
 2018 112a 8444     		add	ip, ip, r0
 2019              	.LVL402:
 2020 112c 0544     		add	r5, r5, r0
 2021              	.LVL403:
 151:..\sha256.c   ****     F(w5 ,0x766a0abb)
 2022              		.loc 1 151 0
 2023 112e 4FEAFC23 		ror	r3, ip, #11
 2024              	.LVL404:
 2025 1132 83EABC13 		eor	r3, r3, ip, ror #6
 2026 1136 83EA7C63 		eor	r3, r3, ip, ror #25
 2027 113a 1C44     		add	r4, r4, r3
 2028              	.LVL405:
 2029 113c 0AEA0C01 		and	r1, r10, ip
 2030              	.LVL406:
 2031 1140 22EA0C03 		bic	r3, r2, ip
 2032 1144 4B40     		eors	r3, r3, r1
 2033 1146 1C44     		add	r4, r4, r3
 2034 1148 0498     		ldr	r0, [sp, #16]
 2035              	.LVL407:
 2036 114a 0444     		add	r4, r4, r0
 2037 114c AE48     		ldr	r0, .L16+16
 2038 114e 2044     		add	r0, r0, r4
 2039              	.LVL408:
 2040 1150 4FEA7531 		ror	r1, r5, #13
 2041 1154 81EAB501 		eor	r1, r1, r5, ror #2
 2042 1158 81EAB551 		eor	r1, r1, r5, ror #22
 2043 115c 87EA0604 		eor	r4, r7, r6
 2044 1160 2C40     		ands	r4, r4, r5
 2045 1162 07EA0603 		and	r3, r7, r6
 2046 1166 5C40     		eors	r4, r4, r3
 2047 1168 0C44     		add	r4, r4, r1
 2048              	.LVL409:
 2049 116a 8644     		add	lr, lr, r0
 2050              	.LVL410:
 2051 116c 0444     		add	r4, r4, r0
 2052              	.LVL411:
 152:..\sha256.c   ****     F(w6 ,0x81c2c92e)
 2053              		.loc 1 152 0
 2054 116e 4FEAFE23 		ror	r3, lr, #11
 2055              	.LVL412:
 2056 1172 83EABE13 		eor	r3, r3, lr, ror #6
 2057 1176 83EA7E63 		eor	r3, r3, lr, ror #25
 2058 117a 1A44     		add	r2, r2, r3
 2059              	.LVL413:
 2060 117c 0CEA0E01 		and	r1, ip, lr
 2061              	.LVL414:
 2062 1180 2AEA0E03 		bic	r3, r10, lr
 2063 1184 4B40     		eors	r3, r3, r1
 2064 1186 1A44     		add	r2, r2, r3
 2065 1188 059B     		ldr	r3, [sp, #20]
 2066 118a 1A44     		add	r2, r2, r3
 2067 118c 9F49     		ldr	r1, .L16+20
 2068 118e 1144     		add	r1, r1, r2
 2069              	.LVL415:
 2070 1190 4FEA7432 		ror	r2, r4, #13
 2071 1194 82EAB402 		eor	r2, r2, r4, ror #2
ARM GAS  C:\Users\bogur\AppData\Local\Temp\cc4rWh5U.s 			page 40


 2072 1198 82EAB452 		eor	r2, r2, r4, ror #22
 2073 119c 86EA0500 		eor	r0, r6, r5
 2074 11a0 2040     		ands	r0, r0, r4
 2075 11a2 06EA0503 		and	r3, r6, r5
 2076 11a6 5840     		eors	r0, r0, r3
 2077 11a8 1044     		add	r0, r0, r2
 2078              	.LVL416:
 2079 11aa 07EB0109 		add	r9, r7, r1
 2080              	.LVL417:
 2081 11ae 0844     		add	r0, r0, r1
 2082              	.LVL418:
 153:..\sha256.c   ****     F(w7 ,0x92722c85)
 2083              		.loc 1 153 0
 2084 11b0 4FEAF923 		ror	r3, r9, #11
 2085              	.LVL419:
 2086 11b4 83EAB913 		eor	r3, r3, r9, ror #6
 2087 11b8 83EA7963 		eor	r3, r3, r9, ror #25
 2088 11bc 9A44     		add	r10, r10, r3
 2089              	.LVL420:
 2090 11be 0EEA0903 		and	r3, lr, r9
 2091 11c2 2CEA0902 		bic	r2, ip, r9
 2092              	.LVL421:
 2093 11c6 5A40     		eors	r2, r2, r3
 2094 11c8 9244     		add	r10, r10, r2
 2095 11ca 069A     		ldr	r2, [sp, #24]
 2096 11cc 9244     		add	r10, r10, r2
 2097 11ce 904F     		ldr	r7, .L16+24
 2098 11d0 5744     		add	r7, r7, r10
 2099              	.LVL422:
 2100 11d2 4FEA7031 		ror	r1, r0, #13
 2101 11d6 81EAB001 		eor	r1, r1, r0, ror #2
 2102 11da 81EAB051 		eor	r1, r1, r0, ror #22
 2103 11de 85EA0402 		eor	r2, r5, r4
 2104 11e2 0240     		ands	r2, r2, r0
 2105 11e4 05EA0403 		and	r3, r5, r4
 2106 11e8 5A40     		eors	r2, r2, r3
 2107 11ea 0A44     		add	r2, r2, r1
 2108              	.LVL423:
 2109 11ec 06EB0708 		add	r8, r6, r7
 2110              	.LVL424:
 2111 11f0 3A44     		add	r2, r2, r7
 2112              	.LVL425:
 154:..\sha256.c   ****     F(w8 ,0xa2bfe8a1)
 2113              		.loc 1 154 0
 2114 11f2 4FEAF823 		ror	r3, r8, #11
 2115              	.LVL426:
 2116 11f6 83EAB813 		eor	r3, r3, r8, ror #6
 2117 11fa 83EA7863 		eor	r3, r3, r8, ror #25
 2118 11fe 9C44     		add	ip, ip, r3
 2119              	.LVL427:
 2120 1200 09EA0801 		and	r1, r9, r8
 2121              	.LVL428:
 2122 1204 2EEA0803 		bic	r3, lr, r8
 2123 1208 4B40     		eors	r3, r3, r1
 2124 120a 9C44     		add	ip, ip, r3
 2125 120c 079F     		ldr	r7, [sp, #28]
 2126              	.LVL429:
ARM GAS  C:\Users\bogur\AppData\Local\Temp\cc4rWh5U.s 			page 41


 2127 120e BC44     		add	ip, ip, r7
 2128 1210 804F     		ldr	r7, .L16+28
 2129 1212 6744     		add	r7, r7, ip
 2130              	.LVL430:
 2131 1214 4FEA7236 		ror	r6, r2, #13
 2132 1218 86EAB206 		eor	r6, r6, r2, ror #2
 2133 121c 86EAB256 		eor	r6, r6, r2, ror #22
 2134 1220 84EA0003 		eor	r3, r4, r0
 2135 1224 1340     		ands	r3, r3, r2
 2136 1226 04EA0001 		and	r1, r4, r0
 2137 122a 4B40     		eors	r3, r3, r1
 2138 122c 3344     		add	r3, r3, r6
 2139              	.LVL431:
 2140 122e 05EB070C 		add	ip, r5, r7
 2141              	.LVL432:
 2142 1232 3B44     		add	r3, r3, r7
 2143              	.LVL433:
 155:..\sha256.c   ****     F(w9 ,0xa81a664b)
 2144              		.loc 1 155 0
 2145 1234 4FEAFC21 		ror	r1, ip, #11
 2146              	.LVL434:
 2147 1238 81EABC11 		eor	r1, r1, ip, ror #6
 2148 123c 81EA7C61 		eor	r1, r1, ip, ror #25
 2149 1240 8E44     		add	lr, lr, r1
 2150              	.LVL435:
 2151 1242 08EA0C05 		and	r5, r8, ip
 2152 1246 29EA0C01 		bic	r1, r9, ip
 2153 124a 6940     		eors	r1, r1, r5
 2154 124c 8E44     		add	lr, lr, r1
 2155 124e 089D     		ldr	r5, [sp, #32]
 2156 1250 AE44     		add	lr, lr, r5
 2157 1252 714E     		ldr	r6, .L16+32
 2158              	.LVL436:
 2159 1254 7644     		add	r6, r6, lr
 2160              	.LVL437:
 2161 1256 4FEA7335 		ror	r5, r3, #13
 2162 125a 85EAB305 		eor	r5, r5, r3, ror #2
 2163 125e 85EAB355 		eor	r5, r5, r3, ror #22
 2164 1262 80EA0207 		eor	r7, r0, r2
 2165 1266 1F40     		ands	r7, r7, r3
 2166 1268 00EA0201 		and	r1, r0, r2
 2167 126c 4F40     		eors	r7, r7, r1
 2168 126e 2F44     		add	r7, r7, r5
 2169              	.LVL438:
 2170 1270 04EB060E 		add	lr, r4, r6
 2171              	.LVL439:
 2172 1274 06EB070A 		add	r10, r6, r7
 2173              	.LVL440:
 156:..\sha256.c   ****     F(w10,0xc24b8b70)
 2174              		.loc 1 156 0
 2175 1278 4FEAFE27 		ror	r7, lr, #11
 2176              	.LVL441:
 2177 127c 87EABE17 		eor	r7, r7, lr, ror #6
 2178 1280 87EA7E67 		eor	r7, r7, lr, ror #25
 2179 1284 4F44     		add	r7, r7, r9
 2180 1286 0CEA0E09 		and	r9, ip, lr
 2181              	.LVL442:
ARM GAS  C:\Users\bogur\AppData\Local\Temp\cc4rWh5U.s 			page 42


 2182 128a 28EA0E01 		bic	r1, r8, lr
 2183              	.LVL443:
 2184 128e 89EA0101 		eor	r1, r9, r1
 2185 1292 0F44     		add	r7, r7, r1
 2186 1294 099C     		ldr	r4, [sp, #36]
 2187 1296 2744     		add	r7, r7, r4
 2188 1298 604D     		ldr	r5, .L16+36
 2189              	.LVL444:
 2190 129a 3D44     		add	r5, r5, r7
 2191              	.LVL445:
 2192 129c 4FEA7A34 		ror	r4, r10, #13
 2193 12a0 84EABA04 		eor	r4, r4, r10, ror #2
 2194 12a4 84EABA54 		eor	r4, r4, r10, ror #22
 2195 12a8 82EA0306 		eor	r6, r2, r3
 2196 12ac 06EA0A06 		and	r6, r6, r10
 2197 12b0 02EA0301 		and	r1, r2, r3
 2198 12b4 4E40     		eors	r6, r6, r1
 2199 12b6 2644     		add	r6, r6, r4
 2200              	.LVL446:
 2201 12b8 4119     		adds	r1, r0, r5
 2202              	.LVL447:
 2203 12ba 05EB0609 		add	r9, r5, r6
 2204              	.LVL448:
 157:..\sha256.c   ****     F(w11,0xc76c51a3)
 2205              		.loc 1 157 0
 2206 12be 4FEAF126 		ror	r6, r1, #11
 2207              	.LVL449:
 2208 12c2 86EAB116 		eor	r6, r6, r1, ror #6
 2209 12c6 86EA7166 		eor	r6, r6, r1, ror #25
 2210 12ca 4644     		add	r6, r6, r8
 2211 12cc 0EEA0108 		and	r8, lr, r1
 2212              	.LVL450:
 2213 12d0 2CEA0100 		bic	r0, ip, r1
 2214 12d4 88EA0000 		eor	r0, r8, r0
 2215 12d8 0644     		add	r6, r6, r0
 2216 12da 0A9C     		ldr	r4, [sp, #40]
 2217              	.LVL451:
 2218 12dc 2644     		add	r6, r6, r4
 2219 12de 504F     		ldr	r7, .L16+40
 2220 12e0 3744     		add	r7, r7, r6
 2221              	.LVL452:
 2222 12e2 4FEA7934 		ror	r4, r9, #13
 2223 12e6 84EAB904 		eor	r4, r4, r9, ror #2
 2224 12ea 84EAB954 		eor	r4, r4, r9, ror #22
 2225 12ee 83EA0A05 		eor	r5, r3, r10
 2226 12f2 05EA0905 		and	r5, r5, r9
 2227 12f6 03EA0A00 		and	r0, r3, r10
 2228 12fa 4540     		eors	r5, r5, r0
 2229 12fc 2544     		add	r5, r5, r4
 2230              	.LVL453:
 2231 12fe 3A44     		add	r2, r2, r7
 2232              	.LVL454:
 2233 1300 07EB0508 		add	r8, r7, r5
 2234              	.LVL455:
 158:..\sha256.c   ****     F(w12,0xd192e819)
 2235              		.loc 1 158 0
 2236 1304 4FEAF225 		ror	r5, r2, #11
ARM GAS  C:\Users\bogur\AppData\Local\Temp\cc4rWh5U.s 			page 43


 2237              	.LVL456:
 2238 1308 85EAB215 		eor	r5, r5, r2, ror #6
 2239 130c 85EA7265 		eor	r5, r5, r2, ror #25
 2240 1310 6544     		add	r5, r5, ip
 2241 1312 01EA020C 		and	ip, r1, r2
 2242              	.LVL457:
 2243 1316 2EEA0200 		bic	r0, lr, r2
 2244              	.LVL458:
 2245 131a 8CEA0000 		eor	r0, ip, r0
 2246 131e 0544     		add	r5, r5, r0
 2247 1320 0B98     		ldr	r0, [sp, #44]
 2248 1322 0544     		add	r5, r5, r0
 2249 1324 3F4E     		ldr	r6, .L16+44
 2250 1326 2E44     		add	r6, r6, r5
 2251              	.LVL459:
 2252 1328 4FEA7835 		ror	r5, r8, #13
 2253 132c 85EAB805 		eor	r5, r5, r8, ror #2
 2254 1330 85EAB855 		eor	r5, r5, r8, ror #22
 2255 1334 8AEA0904 		eor	r4, r10, r9
 2256              	.LVL460:
 2257 1338 04EA0804 		and	r4, r4, r8
 2258 133c 0AEA0900 		and	r0, r10, r9
 2259 1340 4440     		eors	r4, r4, r0
 2260 1342 2C44     		add	r4, r4, r5
 2261              	.LVL461:
 2262 1344 9D19     		adds	r5, r3, r6
 2263 1346 2B46     		mov	r3, r5
 2264              	.LVL462:
 2265 1348 3444     		add	r4, r4, r6
 2266              	.LVL463:
 159:..\sha256.c   ****     F(w13,0xd6990624)
 2267              		.loc 1 159 0
 2268 134a 4FEAF520 		ror	r0, r5, #11
 2269              	.LVL464:
 2270 134e 80EAB510 		eor	r0, r0, r5, ror #6
 2271 1352 80EA7560 		eor	r0, r0, r5, ror #25
 2272 1356 8644     		add	lr, lr, r0
 2273              	.LVL465:
 2274 1358 1540     		ands	r5, r5, r2
 2275 135a 21EA0300 		bic	r0, r1, r3
 2276 135e 6840     		eors	r0, r0, r5
 2277 1360 8644     		add	lr, lr, r0
 2278 1362 0C9D     		ldr	r5, [sp, #48]
 2279 1364 AE44     		add	lr, lr, r5
 2280 1366 3048     		ldr	r0, .L16+48
 2281 1368 7044     		add	r0, r0, lr
 2282              	.LVL466:
 2283 136a 4FEA7436 		ror	r6, r4, #13
 2284 136e 86EAB406 		eor	r6, r6, r4, ror #2
 2285 1372 86EAB456 		eor	r6, r6, r4, ror #22
 2286 1376 89EA0807 		eor	r7, r9, r8
 2287 137a 2740     		ands	r7, r7, r4
 2288 137c 09EA0805 		and	r5, r9, r8
 2289 1380 7D40     		eors	r5, r5, r7
 2290 1382 2E44     		add	r6, r6, r5
 2291              	.LVL467:
 2292 1384 0AEB0007 		add	r7, r10, r0
ARM GAS  C:\Users\bogur\AppData\Local\Temp\cc4rWh5U.s 			page 44


 2293              	.LVL468:
 2294 1388 3044     		add	r0, r0, r6
 2295              	.LVL469:
 160:..\sha256.c   ****     F(w14,0xf40e3585)
 2296              		.loc 1 160 0
 2297 138a 4FEAF725 		ror	r5, r7, #11
 2298 138e 85EAB715 		eor	r5, r5, r7, ror #6
 2299 1392 85EA7765 		eor	r5, r5, r7, ror #25
 2300 1396 2944     		add	r1, r1, r5
 2301              	.LVL470:
 2302 1398 1393     		str	r3, [sp, #76]
 2303 139a 1E46     		mov	r6, r3
 2304              	.LVL471:
 2305 139c 3E40     		ands	r6, r6, r7
 2306 139e 22EA0705 		bic	r5, r2, r7
 2307 13a2 7540     		eors	r5, r5, r6
 2308 13a4 0D44     		add	r5, r5, r1
 2309 13a6 029B     		ldr	r3, [sp, #8]
 2310              	.LVL472:
 2311 13a8 1D44     		add	r5, r5, r3
 2312 13aa 2049     		ldr	r1, .L16+52
 2313 13ac 2944     		add	r1, r1, r5
 2314              	.LVL473:
 2315 13ae 4FEA7036 		ror	r6, r0, #13
 2316 13b2 86EAB006 		eor	r6, r6, r0, ror #2
 2317 13b6 86EAB056 		eor	r6, r6, r0, ror #22
 2318 13ba 88EA040E 		eor	lr, r8, r4
 2319 13be 0EEA000E 		and	lr, lr, r0
 2320 13c2 08EA0405 		and	r5, r8, r4
 2321 13c6 8EEA0505 		eor	r5, lr, r5
 2322 13ca 3544     		add	r5, r5, r6
 2323              	.LVL474:
 2324 13cc 09EB0106 		add	r6, r9, r1
 2325              	.LVL475:
 2326 13d0 2944     		add	r1, r1, r5
 2327              	.LVL476:
 161:..\sha256.c   ****     F(w15,0x106aa070)
 2328              		.loc 1 161 0
 2329 13d2 4FEAF625 		ror	r5, r6, #11
 2330              	.LVL477:
 2331 13d6 85EAB615 		eor	r5, r5, r6, ror #6
 2332 13da 85EA7665 		eor	r5, r5, r6, ror #25
 2333 13de 2A44     		add	r2, r2, r5
 2334              	.LVL478:
 2335 13e0 07EA060E 		and	lr, r7, r6
 2336              	.LVL479:
 2337 13e4 139D     		ldr	r5, [sp, #76]
 2338 13e6 25EA0605 		bic	r5, r5, r6
 2339 13ea 8EEA0505 		eor	r5, lr, r5
 2340 13ee 1544     		add	r5, r5, r2
 2341 13f0 039A     		ldr	r2, [sp, #12]
 2342 13f2 1544     		add	r5, r5, r2
 2343 13f4 20E0     		b	.L17
 2344              	.L18:
 2345 13f6 00BF     		.align	2
 2346              	.L16:
 2347 13f8 38211B2E 		.word	773529912
ARM GAS  C:\Users\bogur\AppData\Local\Temp\cc4rWh5U.s 			page 45


 2348 13fc FC6D2C4D 		.word	1294757372
 2349 1400 130D3853 		.word	1396182291
 2350 1404 54730A65 		.word	1695183700
 2351 1408 BB0A6A76 		.word	1986661051
 2352 140c 2EC9C281 		.word	-2117940946
 2353 1410 852C7292 		.word	-1838011259
 2354 1414 A1E8BFA2 		.word	-1564481375
 2355 1418 4B661AA8 		.word	-1474664885
 2356 141c 708B4BC2 		.word	-1035236496
 2357 1420 A3516CC7 		.word	-949202525
 2358 1424 19E892D1 		.word	-778901479
 2359 1428 240699D6 		.word	-694614492
 2360 142c 85350EF4 		.word	-200395387
 2361 1430 67292914 		.word	338241895
 2362 1434 850AB727 		.word	666307205
 2363              	.L17:
 2364 1438 DC4A     		ldr	r2, .L19
 2365 143a 2A44     		add	r2, r2, r5
 2366              	.LVL480:
 2367 143c 4FEA713E 		ror	lr, r1, #13
 2368 1440 8EEAB10E 		eor	lr, lr, r1, ror #2
 2369 1444 8EEAB15E 		eor	lr, lr, r1, ror #22
 2370 1448 84EA000C 		eor	ip, r4, r0
 2371 144c 0CEA010C 		and	ip, ip, r1
 2372 1450 04EA0005 		and	r5, r4, r0
 2373 1454 8CEA0505 		eor	r5, ip, r5
 2374 1458 AE44     		add	lr, lr, r5
 2375              	.LVL481:
 2376 145a 08EB0205 		add	r5, r8, r2
 2377              	.LVL482:
 2378 145e 7244     		add	r2, r2, lr
 2379              	.LVL483:
 162:..\sha256.c   **** 
 163:..\sha256.c   ****     EXPAND
 2380              		.loc 1 163 0
 2381 1460 9E46     		mov	lr, r3
 2382              	.LVL484:
 2383 1462 4FEAF34C 		ror	ip, r3, #19
 2384              	.LVL485:
 2385 1466 8CEA7E4C 		eor	ip, ip, lr, ror #17
 2386 146a 8CEA9E2C 		eor	ip, ip, lr, lsr #10
 2387 146e 089B     		ldr	r3, [sp, #32]
 2388 1470 9C44     		add	ip, ip, r3
 2389 1472 0F9B     		ldr	r3, [sp, #60]
 2390 1474 4FEAB34E 		ror	lr, r3, #18
 2391 1478 9846     		mov	r8, r3
 2392 147a 8EEAF31E 		eor	lr, lr, r3, ror #7
 2393 147e 8EEAD80E 		eor	lr, lr, r8, lsr #3
 2394 1482 E644     		add	lr, lr, ip
 2395 1484 0E9B     		ldr	r3, [sp, #56]
 2396 1486 9E44     		add	lr, lr, r3
 2397              	.LVL486:
 2398 1488 039B     		ldr	r3, [sp, #12]
 2399 148a 9C46     		mov	ip, r3
 2400 148c 4FEAF348 		ror	r8, r3, #19
 2401 1490 88EA7C48 		eor	r8, r8, ip, ror #17
 2402 1494 88EA9C28 		eor	r8, r8, ip, lsr #10
ARM GAS  C:\Users\bogur\AppData\Local\Temp\cc4rWh5U.s 			page 46


 2403 1498 099B     		ldr	r3, [sp, #36]
 2404 149a 9844     		add	r8, r8, r3
 2405 149c 109B     		ldr	r3, [sp, #64]
 2406 149e 4FEAB34C 		ror	ip, r3, #18
 2407 14a2 9946     		mov	r9, r3
 2408 14a4 8CEAF31C 		eor	ip, ip, r3, ror #7
 2409 14a8 8CEAD90C 		eor	ip, ip, r9, lsr #3
 2410 14ac 08EB0C09 		add	r9, r8, ip
 2411 14b0 0F9B     		ldr	r3, [sp, #60]
 2412 14b2 9944     		add	r9, r9, r3
 2413              	.LVL487:
 2414 14b4 4FEAFE4A 		ror	r10, lr, #19
 2415 14b8 8AEA7E4A 		eor	r10, r10, lr, ror #17
 2416 14bc 8AEA9E2A 		eor	r10, r10, lr, lsr #10
 2417 14c0 0A9B     		ldr	r3, [sp, #40]
 2418 14c2 9A44     		add	r10, r10, r3
 2419 14c4 119B     		ldr	r3, [sp, #68]
 2420 14c6 4FEAB34C 		ror	ip, r3, #18
 2421 14ca 9846     		mov	r8, r3
 2422 14cc 8CEAF31C 		eor	ip, ip, r3, ror #7
 2423 14d0 8CEAD80C 		eor	ip, ip, r8, lsr #3
 2424 14d4 0AEB0C08 		add	r8, r10, ip
 2425 14d8 109B     		ldr	r3, [sp, #64]
 2426 14da 9844     		add	r8, r8, r3
 2427              	.LVL488:
 2428 14dc 4FEAF94A 		ror	r10, r9, #19
 2429 14e0 8AEA794A 		eor	r10, r10, r9, ror #17
 2430 14e4 8AEA992A 		eor	r10, r10, r9, lsr #10
 2431 14e8 0B9B     		ldr	r3, [sp, #44]
 2432 14ea 9A44     		add	r10, r10, r3
 2433 14ec 129B     		ldr	r3, [sp, #72]
 2434 14ee 4FEAB34C 		ror	ip, r3, #18
 2435 14f2 9B46     		mov	fp, r3
 2436 14f4 8CEAF31C 		eor	ip, ip, r3, ror #7
 2437 14f8 8CEADB0C 		eor	ip, ip, fp, lsr #3
 2438 14fc D444     		add	ip, ip, r10
 2439 14fe 119B     		ldr	r3, [sp, #68]
 2440 1500 9C44     		add	ip, ip, r3
 2441              	.LVL489:
 2442 1502 4FEAF84B 		ror	fp, r8, #19
 2443 1506 8BEA784B 		eor	fp, fp, r8, ror #17
 2444 150a 8BEA982B 		eor	fp, fp, r8, lsr #10
 2445 150e 0C9B     		ldr	r3, [sp, #48]
 2446 1510 9B44     		add	fp, fp, r3
 2447 1512 049B     		ldr	r3, [sp, #16]
 2448 1514 4FEAB34A 		ror	r10, r3, #18
 2449 1518 8AEAF31A 		eor	r10, r10, r3, ror #7
 2450 151c 8AEAD30A 		eor	r10, r10, r3, lsr #3
 2451 1520 DA44     		add	r10, r10, fp
 2452 1522 129B     		ldr	r3, [sp, #72]
 2453 1524 9A44     		add	r10, r3, r10
 2454 1526 CDF834A0 		str	r10, [sp, #52]
 2455              	.LVL490:
 2456 152a 4FEAFC4B 		ror	fp, ip, #19
 2457 152e 8BEA7C4B 		eor	fp, fp, ip, ror #17
 2458 1532 8BEA9C2B 		eor	fp, fp, ip, lsr #10
 2459 1536 029B     		ldr	r3, [sp, #8]
ARM GAS  C:\Users\bogur\AppData\Local\Temp\cc4rWh5U.s 			page 47


 2460 1538 9B44     		add	fp, fp, r3
 2461 153a 059B     		ldr	r3, [sp, #20]
 2462 153c 4FEAB34A 		ror	r10, r3, #18
 2463              	.LVL491:
 2464 1540 8AEAF31A 		eor	r10, r10, r3, ror #7
 2465 1544 8AEAD30A 		eor	r10, r10, r3, lsr #3
 2466 1548 DA44     		add	r10, r10, fp
 2467 154a 049B     		ldr	r3, [sp, #16]
 2468 154c 9A44     		add	r10, r3, r10
 2469 154e CDF810A0 		str	r10, [sp, #16]
 2470              	.LVL492:
 2471 1552 0D9B     		ldr	r3, [sp, #52]
 2472 1554 9A46     		mov	r10, r3
 2473              	.LVL493:
 2474 1556 4FEAF34B 		ror	fp, r3, #19
 2475 155a 8BEA7A4B 		eor	fp, fp, r10, ror #17
 2476 155e 8BEA9A2B 		eor	fp, fp, r10, lsr #10
 2477 1562 039B     		ldr	r3, [sp, #12]
 2478 1564 9B44     		add	fp, fp, r3
 2479 1566 069B     		ldr	r3, [sp, #24]
 2480 1568 4FEAB34A 		ror	r10, r3, #18
 2481 156c 8AEAF31A 		eor	r10, r10, r3, ror #7
 2482 1570 8AEAD30A 		eor	r10, r10, r3, lsr #3
 2483 1574 DA44     		add	r10, r10, fp
 2484 1576 059B     		ldr	r3, [sp, #20]
 2485 1578 9A44     		add	r10, r3, r10
 2486 157a CDF814A0 		str	r10, [sp, #20]
 2487              	.LVL494:
 2488 157e 049B     		ldr	r3, [sp, #16]
 2489 1580 9A46     		mov	r10, r3
 2490              	.LVL495:
 2491 1582 4FEAF34B 		ror	fp, r3, #19
 2492 1586 8BEA7A4B 		eor	fp, fp, r10, ror #17
 2493 158a 8BEA9A2B 		eor	fp, fp, r10, lsr #10
 2494 158e F344     		add	fp, fp, lr
 2495 1590 079B     		ldr	r3, [sp, #28]
 2496 1592 4FEAB34A 		ror	r10, r3, #18
 2497 1596 8AEAF31A 		eor	r10, r10, r3, ror #7
 2498 159a 8AEAD30A 		eor	r10, r10, r3, lsr #3
 2499 159e DA44     		add	r10, r10, fp
 2500 15a0 069B     		ldr	r3, [sp, #24]
 2501 15a2 9A44     		add	r10, r3, r10
 2502 15a4 CDF818A0 		str	r10, [sp, #24]
 2503              	.LVL496:
 2504 15a8 059B     		ldr	r3, [sp, #20]
 2505 15aa 9A46     		mov	r10, r3
 2506              	.LVL497:
 2507 15ac 4FEAF34B 		ror	fp, r3, #19
 2508 15b0 8BEA7A4B 		eor	fp, fp, r10, ror #17
 2509 15b4 8BEA9A2B 		eor	fp, fp, r10, lsr #10
 2510 15b8 CB44     		add	fp, fp, r9
 2511 15ba 089B     		ldr	r3, [sp, #32]
 2512 15bc 4FEAB34A 		ror	r10, r3, #18
 2513 15c0 8AEAF31A 		eor	r10, r10, r3, ror #7
 2514 15c4 8AEAD30A 		eor	r10, r10, r3, lsr #3
 2515 15c8 DA44     		add	r10, r10, fp
 2516 15ca 079B     		ldr	r3, [sp, #28]
ARM GAS  C:\Users\bogur\AppData\Local\Temp\cc4rWh5U.s 			page 48


 2517 15cc 9A44     		add	r10, r3, r10
 2518 15ce CDF81CA0 		str	r10, [sp, #28]
 2519              	.LVL498:
 2520 15d2 069B     		ldr	r3, [sp, #24]
 2521 15d4 9A46     		mov	r10, r3
 2522              	.LVL499:
 2523 15d6 4FEAF34B 		ror	fp, r3, #19
 2524 15da 8BEA7A4B 		eor	fp, fp, r10, ror #17
 2525 15de 8BEA9A2B 		eor	fp, fp, r10, lsr #10
 2526 15e2 C344     		add	fp, fp, r8
 2527 15e4 099B     		ldr	r3, [sp, #36]
 2528 15e6 4FEAB34A 		ror	r10, r3, #18
 2529 15ea 8AEAF31A 		eor	r10, r10, r3, ror #7
 2530 15ee 8AEAD30A 		eor	r10, r10, r3, lsr #3
 2531 15f2 DA44     		add	r10, r10, fp
 2532 15f4 089B     		ldr	r3, [sp, #32]
 2533 15f6 9A44     		add	r10, r3, r10
 2534 15f8 CDF820A0 		str	r10, [sp, #32]
 2535              	.LVL500:
 2536 15fc 079B     		ldr	r3, [sp, #28]
 2537 15fe 9A46     		mov	r10, r3
 2538              	.LVL501:
 2539 1600 4FEAF34B 		ror	fp, r3, #19
 2540 1604 8BEA7A4B 		eor	fp, fp, r10, ror #17
 2541 1608 8BEA9A2B 		eor	fp, fp, r10, lsr #10
 2542 160c E344     		add	fp, fp, ip
 2543 160e 0A9B     		ldr	r3, [sp, #40]
 2544 1610 4FEAB34A 		ror	r10, r3, #18
 2545 1614 8AEAF31A 		eor	r10, r10, r3, ror #7
 2546 1618 8AEAD30A 		eor	r10, r10, r3, lsr #3
 2547 161c DA44     		add	r10, r10, fp
 2548 161e 099B     		ldr	r3, [sp, #36]
 2549 1620 9A44     		add	r10, r3, r10
 2550 1622 CDF824A0 		str	r10, [sp, #36]
 2551              	.LVL502:
 2552 1626 089B     		ldr	r3, [sp, #32]
 2553 1628 9A46     		mov	r10, r3
 2554              	.LVL503:
 2555 162a 4FEAF34B 		ror	fp, r3, #19
 2556 162e 8BEA7A4B 		eor	fp, fp, r10, ror #17
 2557 1632 8BEA9A2B 		eor	fp, fp, r10, lsr #10
 2558 1636 0D9B     		ldr	r3, [sp, #52]
 2559 1638 9B44     		add	fp, fp, r3
 2560 163a 0B9B     		ldr	r3, [sp, #44]
 2561 163c 4FEAB34A 		ror	r10, r3, #18
 2562 1640 8AEAF31A 		eor	r10, r10, r3, ror #7
 2563 1644 8AEAD30A 		eor	r10, r10, r3, lsr #3
 2564 1648 DA44     		add	r10, r10, fp
 2565 164a 0A9B     		ldr	r3, [sp, #40]
 2566 164c 9A44     		add	r10, r3, r10
 2567 164e CDF828A0 		str	r10, [sp, #40]
 2568              	.LVL504:
 2569 1652 099B     		ldr	r3, [sp, #36]
 2570 1654 9A46     		mov	r10, r3
 2571              	.LVL505:
 2572 1656 4FEAF34B 		ror	fp, r3, #19
 2573 165a 8BEA7A4B 		eor	fp, fp, r10, ror #17
ARM GAS  C:\Users\bogur\AppData\Local\Temp\cc4rWh5U.s 			page 49


 2574 165e 8BEA9A2B 		eor	fp, fp, r10, lsr #10
 2575 1662 049B     		ldr	r3, [sp, #16]
 2576 1664 9B44     		add	fp, fp, r3
 2577 1666 0C9B     		ldr	r3, [sp, #48]
 2578 1668 4FEAB34A 		ror	r10, r3, #18
 2579 166c 8AEAF31A 		eor	r10, r10, r3, ror #7
 2580 1670 8AEAD30A 		eor	r10, r10, r3, lsr #3
 2581 1674 DA44     		add	r10, r10, fp
 2582 1676 0B9B     		ldr	r3, [sp, #44]
 2583 1678 9A44     		add	r10, r3, r10
 2584 167a CDF82CA0 		str	r10, [sp, #44]
 2585              	.LVL506:
 2586 167e 0A9B     		ldr	r3, [sp, #40]
 2587 1680 9A46     		mov	r10, r3
 2588              	.LVL507:
 2589 1682 4FEAF34B 		ror	fp, r3, #19
 2590 1686 8BEA7A4B 		eor	fp, fp, r10, ror #17
 2591 168a 8BEA9A2B 		eor	fp, fp, r10, lsr #10
 2592 168e 059B     		ldr	r3, [sp, #20]
 2593 1690 9B44     		add	fp, fp, r3
 2594 1692 029B     		ldr	r3, [sp, #8]
 2595 1694 4FEAB34A 		ror	r10, r3, #18
 2596 1698 8AEAF31A 		eor	r10, r10, r3, ror #7
 2597 169c 8AEAD30A 		eor	r10, r10, r3, lsr #3
 2598 16a0 DA44     		add	r10, r10, fp
 2599 16a2 0C9B     		ldr	r3, [sp, #48]
 2600 16a4 9A44     		add	r10, r3, r10
 2601 16a6 CDF830A0 		str	r10, [sp, #48]
 2602              	.LVL508:
 2603 16aa 0B9B     		ldr	r3, [sp, #44]
 2604 16ac 9A46     		mov	r10, r3
 2605              	.LVL509:
 2606 16ae 4FEAF34B 		ror	fp, r3, #19
 2607 16b2 8BEA7A4B 		eor	fp, fp, r10, ror #17
 2608 16b6 8BEA9A2B 		eor	fp, fp, r10, lsr #10
 2609 16ba 069B     		ldr	r3, [sp, #24]
 2610 16bc 9B44     		add	fp, fp, r3
 2611 16be 039B     		ldr	r3, [sp, #12]
 2612 16c0 4FEAB34A 		ror	r10, r3, #18
 2613 16c4 8AEAF31A 		eor	r10, r10, r3, ror #7
 2614 16c8 8AEAD30A 		eor	r10, r10, r3, lsr #3
 2615 16cc DA44     		add	r10, r10, fp
 2616 16ce 029B     		ldr	r3, [sp, #8]
 2617 16d0 9A44     		add	r10, r3, r10
 2618 16d2 CDF808A0 		str	r10, [sp, #8]
 2619              	.LVL510:
 2620 16d6 0C9B     		ldr	r3, [sp, #48]
 2621 16d8 9A46     		mov	r10, r3
 2622              	.LVL511:
 2623 16da 4FEAF34B 		ror	fp, r3, #19
 2624 16de 8BEA7A4B 		eor	fp, fp, r10, ror #17
 2625 16e2 8BEA9A2B 		eor	fp, fp, r10, lsr #10
 2626 16e6 079B     		ldr	r3, [sp, #28]
 2627 16e8 9B44     		add	fp, fp, r3
 2628 16ea 4FEABE4A 		ror	r10, lr, #18
 2629 16ee 8AEAFE1A 		eor	r10, r10, lr, ror #7
 2630 16f2 8AEADE0A 		eor	r10, r10, lr, lsr #3
ARM GAS  C:\Users\bogur\AppData\Local\Temp\cc4rWh5U.s 			page 50


 2631 16f6 DA44     		add	r10, r10, fp
 2632 16f8 039B     		ldr	r3, [sp, #12]
 2633 16fa 9A44     		add	r10, r3, r10
 2634 16fc CDF80CA0 		str	r10, [sp, #12]
 2635              	.LVL512:
 164:..\sha256.c   **** 
 165:..\sha256.c   ****     F(w0 ,0x19a4c116)
 2636              		.loc 1 165 0
 2637 1700 4FEAF52A 		ror	r10, r5, #11
 2638              	.LVL513:
 2639 1704 8AEAB51A 		eor	r10, r10, r5, ror #6
 2640 1708 8AEA756A 		eor	r10, r10, r5, ror #25
 2641 170c 139B     		ldr	r3, [sp, #76]
 2642 170e 5344     		add	r3, r3, r10
 2643 1710 06EA050B 		and	fp, r6, r5
 2644 1714 27EA050A 		bic	r10, r7, r5
 2645 1718 8BEA0A0A 		eor	r10, fp, r10
 2646 171c 5344     		add	r3, r3, r10
 2647 171e 9E44     		add	lr, lr, r3
 2648              	.LVL514:
 2649 1720 DFF88CB0 		ldr	fp, .L19+4
 2650 1724 F344     		add	fp, fp, lr
 2651              	.LVL515:
 2652 1726 4FEA723E 		ror	lr, r2, #13
 2653 172a 8EEAB20E 		eor	lr, lr, r2, ror #2
 2654 172e 8EEAB25E 		eor	lr, lr, r2, ror #22
 2655 1732 80EA010A 		eor	r10, r0, r1
 2656 1736 0AEA020A 		and	r10, r10, r2
 2657 173a 00EA0103 		and	r3, r0, r1
 2658 173e 8AEA0303 		eor	r3, r10, r3
 2659 1742 9E44     		add	lr, lr, r3
 2660              	.LVL516:
 2661 1744 5C44     		add	r4, r4, fp
 2662              	.LVL517:
 2663 1746 F344     		add	fp, fp, lr
 2664              	.LVL518:
 166:..\sha256.c   ****     F(w1 ,0x1e376c08)
 2665              		.loc 1 166 0
 2666 1748 4FEAF423 		ror	r3, r4, #11
 2667 174c 83EAB413 		eor	r3, r3, r4, ror #6
 2668 1750 83EA7463 		eor	r3, r3, r4, ror #25
 2669 1754 1F44     		add	r7, r7, r3
 2670              	.LVL519:
 2671 1756 05EA040E 		and	lr, r5, r4
 2672              	.LVL520:
 2673 175a 26EA0403 		bic	r3, r6, r4
 2674 175e 8EEA0303 		eor	r3, lr, r3
 2675 1762 1F44     		add	r7, r7, r3
 2676 1764 B944     		add	r9, r9, r7
 2677              	.LVL521:
 2678 1766 DFF84CE0 		ldr	lr, .L19+8
 2679 176a CE44     		add	lr, lr, r9
 2680              	.LVL522:
 2681 176c 4FEA7B33 		ror	r3, fp, #13
 2682 1770 83EABB03 		eor	r3, r3, fp, ror #2
 2683 1774 83EABB53 		eor	r3, r3, fp, ror #22
 2684 1778 81EA0209 		eor	r9, r1, r2
ARM GAS  C:\Users\bogur\AppData\Local\Temp\cc4rWh5U.s 			page 51


 2685 177c 09EA0B09 		and	r9, r9, fp
 2686 1780 01EA0207 		and	r7, r1, r2
 2687 1784 89EA0707 		eor	r7, r9, r7
 2688 1788 3B44     		add	r3, r3, r7
 2689              	.LVL523:
 2690 178a 7044     		add	r0, r0, lr
 2691              	.LVL524:
 2692 178c 9E44     		add	lr, lr, r3
 2693              	.LVL525:
 167:..\sha256.c   ****     F(w2 ,0x2748774c)
 2694              		.loc 1 167 0
 2695 178e 4FEAF023 		ror	r3, r0, #11
 2696              	.LVL526:
 2697 1792 83EAB013 		eor	r3, r3, r0, ror #6
 2698 1796 83EA7063 		eor	r3, r3, r0, ror #25
 2699 179a 1E44     		add	r6, r6, r3
 2700              	.LVL527:
 2701 179c 04EA0007 		and	r7, r4, r0
 2702              	.LVL528:
 2703 17a0 25EA0003 		bic	r3, r5, r0
 2704 17a4 7B40     		eors	r3, r3, r7
 2705 17a6 1E44     		add	r6, r6, r3
 2706 17a8 06E0     		b	.L20
 2707              	.L21:
 2708 17aa 00BF     		.align	2
 2709              	.L19:
 2710 17ac 70A06A10 		.word	275423344
 2711 17b0 16C1A419 		.word	430227734
 2712 17b4 086C371E 		.word	506948616
 2713              	.L20:
 2714 17b8 B044     		add	r8, r8, r6
 2715              	.LVL529:
 2716 17ba F04F     		ldr	r7, .L22
 2717 17bc 4744     		add	r7, r7, r8
 2718              	.LVL530:
 2719 17be 4FEA7E33 		ror	r3, lr, #13
 2720 17c2 83EABE03 		eor	r3, r3, lr, ror #2
 2721 17c6 83EABE53 		eor	r3, r3, lr, ror #22
 2722 17ca 82EA0B08 		eor	r8, r2, fp
 2723 17ce 08EA0E08 		and	r8, r8, lr
 2724 17d2 02EA0B06 		and	r6, r2, fp
 2725 17d6 88EA0606 		eor	r6, r8, r6
 2726 17da 3344     		add	r3, r3, r6
 2727              	.LVL531:
 2728 17dc 3944     		add	r1, r1, r7
 2729              	.LVL532:
 2730 17de 1F44     		add	r7, r7, r3
 2731              	.LVL533:
 168:..\sha256.c   ****     F(w3 ,0x34b0bcb5)
 2732              		.loc 1 168 0
 2733 17e0 4FEAF123 		ror	r3, r1, #11
 2734              	.LVL534:
 2735 17e4 83EAB113 		eor	r3, r3, r1, ror #6
 2736 17e8 83EA7163 		eor	r3, r3, r1, ror #25
 2737 17ec 1D44     		add	r5, r5, r3
 2738              	.LVL535:
 2739 17ee 00EA0106 		and	r6, r0, r1
ARM GAS  C:\Users\bogur\AppData\Local\Temp\cc4rWh5U.s 			page 52


 2740              	.LVL536:
 2741 17f2 24EA0103 		bic	r3, r4, r1
 2742 17f6 7340     		eors	r3, r3, r6
 2743 17f8 1D44     		add	r5, r5, r3
 2744 17fa AC44     		add	ip, ip, r5
 2745              	.LVL537:
 2746 17fc E04E     		ldr	r6, .L22+4
 2747 17fe 6644     		add	r6, r6, ip
 2748              	.LVL538:
 2749 1800 4FEA7733 		ror	r3, r7, #13
 2750 1804 83EAB703 		eor	r3, r3, r7, ror #2
 2751 1808 83EAB753 		eor	r3, r3, r7, ror #22
 2752 180c 8BEA0E0C 		eor	ip, fp, lr
 2753 1810 0CEA070C 		and	ip, ip, r7
 2754 1814 0BEA0E05 		and	r5, fp, lr
 2755 1818 8CEA0505 		eor	r5, ip, r5
 2756 181c 2B44     		add	r3, r3, r5
 2757              	.LVL539:
 2758 181e 3244     		add	r2, r2, r6
 2759              	.LVL540:
 2760 1820 1E44     		add	r6, r6, r3
 2761              	.LVL541:
 169:..\sha256.c   ****     F(w4 ,0x391c0cb3)
 2762              		.loc 1 169 0
 2763 1822 4FEAF223 		ror	r3, r2, #11
 2764              	.LVL542:
 2765 1826 83EAB213 		eor	r3, r3, r2, ror #6
 2766 182a 83EA7263 		eor	r3, r3, r2, ror #25
 2767 182e 1C44     		add	r4, r4, r3
 2768              	.LVL543:
 2769 1830 01EA0205 		and	r5, r1, r2
 2770              	.LVL544:
 2771 1834 20EA0203 		bic	r3, r0, r2
 2772 1838 6B40     		eors	r3, r3, r5
 2773 183a 1C44     		add	r4, r4, r3
 2774 183c 0D9B     		ldr	r3, [sp, #52]
 2775 183e 1C44     		add	r4, r4, r3
 2776 1840 D04D     		ldr	r5, .L22+8
 2777 1842 2544     		add	r5, r5, r4
 2778              	.LVL545:
 2779 1844 4FEA7633 		ror	r3, r6, #13
 2780 1848 83EAB603 		eor	r3, r3, r6, ror #2
 2781 184c 83EAB653 		eor	r3, r3, r6, ror #22
 2782 1850 8EEA070C 		eor	ip, lr, r7
 2783              	.LVL546:
 2784 1854 0CEA060C 		and	ip, ip, r6
 2785 1858 0EEA0704 		and	r4, lr, r7
 2786 185c 8CEA0404 		eor	r4, ip, r4
 2787 1860 2344     		add	r3, r3, r4
 2788              	.LVL547:
 2789 1862 AB44     		add	fp, fp, r5
 2790              	.LVL548:
 2791 1864 1D44     		add	r5, r5, r3
 2792              	.LVL549:
 170:..\sha256.c   ****     F(w5 ,0x4ed8aa4a)
 2793              		.loc 1 170 0
 2794 1866 4FEAFB23 		ror	r3, fp, #11
ARM GAS  C:\Users\bogur\AppData\Local\Temp\cc4rWh5U.s 			page 53


 2795              	.LVL550:
 2796 186a 83EABB13 		eor	r3, r3, fp, ror #6
 2797 186e 83EA7B63 		eor	r3, r3, fp, ror #25
 2798 1872 1844     		add	r0, r0, r3
 2799              	.LVL551:
 2800 1874 02EA0B04 		and	r4, r2, fp
 2801              	.LVL552:
 2802 1878 21EA0B03 		bic	r3, r1, fp
 2803 187c 6340     		eors	r3, r3, r4
 2804 187e 1844     		add	r0, r0, r3
 2805 1880 049B     		ldr	r3, [sp, #16]
 2806 1882 1844     		add	r0, r0, r3
 2807 1884 C04C     		ldr	r4, .L22+12
 2808 1886 0444     		add	r4, r4, r0
 2809              	.LVL553:
 2810 1888 4FEA7533 		ror	r3, r5, #13
 2811 188c 83EAB503 		eor	r3, r3, r5, ror #2
 2812 1890 83EAB553 		eor	r3, r3, r5, ror #22
 2813 1894 87EA060C 		eor	ip, r7, r6
 2814              	.LVL554:
 2815 1898 0CEA050C 		and	ip, ip, r5
 2816 189c 07EA0600 		and	r0, r7, r6
 2817 18a0 8CEA0000 		eor	r0, ip, r0
 2818 18a4 0344     		add	r3, r3, r0
 2819              	.LVL555:
 2820 18a6 A644     		add	lr, lr, r4
 2821              	.LVL556:
 2822 18a8 1C44     		add	r4, r4, r3
 2823              	.LVL557:
 171:..\sha256.c   ****     F(w6 ,0x5b9cca4f)
 2824              		.loc 1 171 0
 2825 18aa 4FEAFE23 		ror	r3, lr, #11
 2826              	.LVL558:
 2827 18ae 83EABE13 		eor	r3, r3, lr, ror #6
 2828 18b2 83EA7E63 		eor	r3, r3, lr, ror #25
 2829 18b6 1944     		add	r1, r1, r3
 2830              	.LVL559:
 2831 18b8 0BEA0E0A 		and	r10, fp, lr
 2832 18bc 22EA0E03 		bic	r3, r2, lr
 2833 18c0 8AEA0303 		eor	r3, r10, r3
 2834 18c4 1944     		add	r1, r1, r3
 2835 18c6 059B     		ldr	r3, [sp, #20]
 2836 18c8 03EB010A 		add	r10, r3, r1
 2837 18cc AF48     		ldr	r0, .L22+16
 2838              	.LVL560:
 2839 18ce 5044     		add	r0, r0, r10
 2840              	.LVL561:
 2841 18d0 4FEA7433 		ror	r3, r4, #13
 2842 18d4 83EAB403 		eor	r3, r3, r4, ror #2
 2843 18d8 83EAB453 		eor	r3, r3, r4, ror #22
 2844 18dc 86EA050C 		eor	ip, r6, r5
 2845              	.LVL562:
 2846 18e0 0CEA040C 		and	ip, ip, r4
 2847 18e4 06EA0501 		and	r1, r6, r5
 2848 18e8 8CEA0101 		eor	r1, ip, r1
 2849 18ec 0B44     		add	r3, r3, r1
 2850              	.LVL563:
ARM GAS  C:\Users\bogur\AppData\Local\Temp\cc4rWh5U.s 			page 54


 2851 18ee 0744     		add	r7, r7, r0
 2852              	.LVL564:
 2853 18f0 1844     		add	r0, r0, r3
 2854              	.LVL565:
 172:..\sha256.c   ****     F(w7 ,0x682e6ff3)
 2855              		.loc 1 172 0
 2856 18f2 4FEAF723 		ror	r3, r7, #11
 2857              	.LVL566:
 2858 18f6 83EAB713 		eor	r3, r3, r7, ror #6
 2859 18fa 83EA7763 		eor	r3, r3, r7, ror #25
 2860 18fe 1A44     		add	r2, r2, r3
 2861              	.LVL567:
 2862 1900 0EEA070A 		and	r10, lr, r7
 2863              	.LVL568:
 2864 1904 2BEA0703 		bic	r3, fp, r7
 2865 1908 8AEA0303 		eor	r3, r10, r3
 2866 190c 1A44     		add	r2, r2, r3
 2867 190e 069B     		ldr	r3, [sp, #24]
 2868 1910 03EB020A 		add	r10, r3, r2
 2869 1914 9E49     		ldr	r1, .L22+20
 2870              	.LVL569:
 2871 1916 5144     		add	r1, r1, r10
 2872              	.LVL570:
 2873 1918 4FEA7033 		ror	r3, r0, #13
 2874 191c 83EAB003 		eor	r3, r3, r0, ror #2
 2875 1920 83EAB053 		eor	r3, r3, r0, ror #22
 2876 1924 85EA040C 		eor	ip, r5, r4
 2877              	.LVL571:
 2878 1928 0CEA000C 		and	ip, ip, r0
 2879 192c 05EA0402 		and	r2, r5, r4
 2880 1930 8CEA0202 		eor	r2, ip, r2
 2881 1934 1A44     		add	r2, r2, r3
 2882              	.LVL572:
 2883 1936 0E44     		add	r6, r6, r1
 2884              	.LVL573:
 2885 1938 0A44     		add	r2, r2, r1
 2886              	.LVL574:
 173:..\sha256.c   ****     F(w8 ,0x748f82ee)
 2887              		.loc 1 173 0
 2888 193a 4FEAF621 		ror	r1, r6, #11
 2889              	.LVL575:
 2890 193e 81EAB611 		eor	r1, r1, r6, ror #6
 2891 1942 81EA7661 		eor	r1, r1, r6, ror #25
 2892 1946 8B44     		add	fp, fp, r1
 2893              	.LVL576:
 2894 1948 07EA060A 		and	r10, r7, r6
 2895              	.LVL577:
 2896 194c 2EEA0601 		bic	r1, lr, r6
 2897 1950 8AEA0101 		eor	r1, r10, r1
 2898 1954 8B44     		add	fp, fp, r1
 2899 1956 079B     		ldr	r3, [sp, #28]
 2900              	.LVL578:
 2901 1958 03EB0B0A 		add	r10, r3, fp
 2902 195c 8D49     		ldr	r1, .L22+24
 2903 195e 5144     		add	r1, r1, r10
 2904              	.LVL579:
 2905 1960 4FEA7233 		ror	r3, r2, #13
ARM GAS  C:\Users\bogur\AppData\Local\Temp\cc4rWh5U.s 			page 55


 2906 1964 83EAB203 		eor	r3, r3, r2, ror #2
 2907 1968 83EAB253 		eor	r3, r3, r2, ror #22
 2908 196c 84EA000C 		eor	ip, r4, r0
 2909              	.LVL580:
 2910 1970 0CEA020C 		and	ip, ip, r2
 2911 1974 04EA0008 		and	r8, r4, r0
 2912 1978 8CEA080C 		eor	ip, ip, r8
 2913 197c 9C44     		add	ip, ip, r3
 2914              	.LVL581:
 2915 197e 0D44     		add	r5, r5, r1
 2916              	.LVL582:
 2917 1980 8C44     		add	ip, ip, r1
 2918              	.LVL583:
 174:..\sha256.c   ****     F(w9 ,0x78a5636f)
 2919              		.loc 1 174 0
 2920 1982 4FEAF528 		ror	r8, r5, #11
 2921              	.LVL584:
 2922 1986 88EAB518 		eor	r8, r8, r5, ror #6
 2923 198a 88EA7568 		eor	r8, r8, r5, ror #25
 2924 198e C644     		add	lr, lr, r8
 2925              	.LVL585:
 2926 1990 06EA0503 		and	r3, r6, r5
 2927              	.LVL586:
 2928 1994 27EA0508 		bic	r8, r7, r5
 2929 1998 83EA0808 		eor	r8, r3, r8
 2930 199c C644     		add	lr, lr, r8
 2931 199e 089B     		ldr	r3, [sp, #32]
 2932 19a0 03EB0E0A 		add	r10, r3, lr
 2933 19a4 DFF80892 		ldr	r9, .L22+52
 2934 19a8 D144     		add	r9, r9, r10
 2935              	.LVL587:
 2936 19aa 4FEA7C33 		ror	r3, ip, #13
 2937 19ae 83EABC03 		eor	r3, r3, ip, ror #2
 2938 19b2 83EABC53 		eor	r3, r3, ip, ror #22
 2939 19b6 80EA020E 		eor	lr, r0, r2
 2940 19ba 0EEA0C0E 		and	lr, lr, ip
 2941 19be 00EA0201 		and	r1, r0, r2
 2942 19c2 8EEA0108 		eor	r8, lr, r1
 2943 19c6 9844     		add	r8, r8, r3
 2944              	.LVL588:
 2945 19c8 4C44     		add	r4, r4, r9
 2946              	.LVL589:
 2947 19ca C844     		add	r8, r8, r9
 2948              	.LVL590:
 175:..\sha256.c   ****     F(w10,0x84c87814)
 2949              		.loc 1 175 0
 2950 19cc 4FEAF42E 		ror	lr, r4, #11
 2951              	.LVL591:
 2952 19d0 8EEAB41E 		eor	lr, lr, r4, ror #6
 2953 19d4 8EEA746E 		eor	lr, lr, r4, ror #25
 2954 19d8 7744     		add	r7, r7, lr
 2955              	.LVL592:
 2956 19da 05EA0403 		and	r3, r5, r4
 2957              	.LVL593:
 2958 19de 26EA040E 		bic	lr, r6, r4
 2959 19e2 83EA0E0E 		eor	lr, r3, lr
 2960 19e6 7744     		add	r7, r7, lr
ARM GAS  C:\Users\bogur\AppData\Local\Temp\cc4rWh5U.s 			page 56


 2961 19e8 099B     		ldr	r3, [sp, #36]
 2962 19ea 03EB070A 		add	r10, r3, r7
 2963 19ee 6A4F     		ldr	r7, .L22+28
 2964 19f0 5744     		add	r7, r7, r10
 2965              	.LVL594:
 2966 19f2 4FEA7831 		ror	r1, r8, #13
 2967              	.LVL595:
 2968 19f6 81EAB801 		eor	r1, r1, r8, ror #2
 2969 19fa 81EAB851 		eor	r1, r1, r8, ror #22
 2970 19fe 82EA0C0E 		eor	lr, r2, ip
 2971 1a02 0EEA080E 		and	lr, lr, r8
 2972 1a06 02EA0C03 		and	r3, r2, ip
 2973 1a0a 8EEA030E 		eor	lr, lr, r3
 2974 1a0e 8E44     		add	lr, lr, r1
 2975              	.LVL596:
 2976 1a10 3844     		add	r0, r0, r7
 2977              	.LVL597:
 2978 1a12 BE44     		add	lr, lr, r7
 2979              	.LVL598:
 176:..\sha256.c   ****     F(w11,0x8cc70208)
 2980              		.loc 1 176 0
 2981 1a14 4FEAF027 		ror	r7, r0, #11
 2982              	.LVL599:
 2983 1a18 87EAB017 		eor	r7, r7, r0, ror #6
 2984 1a1c 87EA7067 		eor	r7, r7, r0, ror #25
 2985 1a20 3E44     		add	r6, r6, r7
 2986              	.LVL600:
 2987 1a22 04EA0003 		and	r3, r4, r0
 2988              	.LVL601:
 2989 1a26 25EA0007 		bic	r7, r5, r0
 2990 1a2a 5F40     		eors	r7, r7, r3
 2991 1a2c 3E44     		add	r6, r6, r7
 2992 1a2e 0A9B     		ldr	r3, [sp, #40]
 2993 1a30 03EB060A 		add	r10, r3, r6
 2994              	.LVL602:
 2995 1a34 594E     		ldr	r6, .L22+32
 2996 1a36 5644     		add	r6, r6, r10
 2997              	.LVL603:
 2998 1a38 4FEA7E31 		ror	r1, lr, #13
 2999              	.LVL604:
 3000 1a3c 81EABE01 		eor	r1, r1, lr, ror #2
 3001 1a40 81EABE51 		eor	r1, r1, lr, ror #22
 3002 1a44 8CEA0807 		eor	r7, ip, r8
 3003 1a48 07EA0E07 		and	r7, r7, lr
 3004 1a4c 0CEA0803 		and	r3, ip, r8
 3005 1a50 5F40     		eors	r7, r7, r3
 3006 1a52 0F44     		add	r7, r7, r1
 3007              	.LVL605:
 3008 1a54 3244     		add	r2, r2, r6
 3009              	.LVL606:
 3010 1a56 3744     		add	r7, r7, r6
 3011              	.LVL607:
 177:..\sha256.c   ****     F(w12,0x90befffa)
 3012              		.loc 1 177 0
 3013 1a58 4FEAF226 		ror	r6, r2, #11
 3014              	.LVL608:
 3015 1a5c 86EAB216 		eor	r6, r6, r2, ror #6
ARM GAS  C:\Users\bogur\AppData\Local\Temp\cc4rWh5U.s 			page 57


 3016 1a60 86EA7266 		eor	r6, r6, r2, ror #25
 3017 1a64 3544     		add	r5, r5, r6
 3018              	.LVL609:
 3019 1a66 00EA0203 		and	r3, r0, r2
 3020              	.LVL610:
 3021 1a6a 24EA0206 		bic	r6, r4, r2
 3022 1a6e 5E40     		eors	r6, r6, r3
 3023 1a70 3544     		add	r5, r5, r6
 3024 1a72 0B9B     		ldr	r3, [sp, #44]
 3025 1a74 03EB050A 		add	r10, r3, r5
 3026              	.LVL611:
 3027 1a78 494E     		ldr	r6, .L22+36
 3028 1a7a 5644     		add	r6, r6, r10
 3029              	.LVL612:
 3030 1a7c 4FEA7731 		ror	r1, r7, #13
 3031              	.LVL613:
 3032 1a80 81EAB701 		eor	r1, r1, r7, ror #2
 3033 1a84 81EAB751 		eor	r1, r1, r7, ror #22
 3034 1a88 88EA0E09 		eor	r9, r8, lr
 3035 1a8c 09EA0709 		and	r9, r9, r7
 3036 1a90 08EA0E03 		and	r3, r8, lr
 3037 1a94 89EA0309 		eor	r9, r9, r3
 3038 1a98 8944     		add	r9, r9, r1
 3039              	.LVL614:
 3040 1a9a B444     		add	ip, ip, r6
 3041              	.LVL615:
 3042 1a9c B144     		add	r9, r9, r6
 3043              	.LVL616:
 178:..\sha256.c   ****     F(w13,0xa4506ceb)
 3044              		.loc 1 178 0
 3045 1a9e 4FEAFC25 		ror	r5, ip, #11
 3046 1aa2 85EABC15 		eor	r5, r5, ip, ror #6
 3047 1aa6 85EA7C65 		eor	r5, r5, ip, ror #25
 3048 1aaa 2C44     		add	r4, r4, r5
 3049              	.LVL617:
 3050 1aac 02EA0C03 		and	r3, r2, ip
 3051              	.LVL618:
 3052 1ab0 20EA0C05 		bic	r5, r0, ip
 3053 1ab4 5D40     		eors	r5, r5, r3
 3054 1ab6 2C44     		add	r4, r4, r5
 3055 1ab8 0C9B     		ldr	r3, [sp, #48]
 3056 1aba 03EB040A 		add	r10, r3, r4
 3057 1abe 394D     		ldr	r5, .L22+40
 3058 1ac0 5544     		add	r5, r5, r10
 3059              	.LVL619:
 3060 1ac2 4FEA7931 		ror	r1, r9, #13
 3061              	.LVL620:
 3062 1ac6 81EAB901 		eor	r1, r1, r9, ror #2
 3063 1aca 81EAB951 		eor	r1, r1, r9, ror #22
 3064 1ace 8EEA0706 		eor	r6, lr, r7
 3065 1ad2 06EA0906 		and	r6, r6, r9
 3066 1ad6 0EEA0703 		and	r3, lr, r7
 3067 1ada 5E40     		eors	r6, r6, r3
 3068 1adc 0E44     		add	r6, r6, r1
 3069              	.LVL621:
 3070 1ade A844     		add	r8, r8, r5
 3071              	.LVL622:
ARM GAS  C:\Users\bogur\AppData\Local\Temp\cc4rWh5U.s 			page 58


 3072 1ae0 2E44     		add	r6, r6, r5
 3073              	.LVL623:
 179:..\sha256.c   ****     F(w14,0xbef9a3f7)
 3074              		.loc 1 179 0
 3075 1ae2 4FEAF82A 		ror	r10, r8, #11
 3076 1ae6 8AEAB81A 		eor	r10, r10, r8, ror #6
 3077 1aea 8AEA786A 		eor	r10, r10, r8, ror #25
 3078 1aee 5044     		add	r0, r0, r10
 3079              	.LVL624:
 3080 1af0 0CEA080A 		and	r10, ip, r8
 3081 1af4 22EA0804 		bic	r4, r2, r8
 3082 1af8 8AEA040A 		eor	r10, r10, r4
 3083 1afc 8244     		add	r10, r10, r0
 3084 1afe 029B     		ldr	r3, [sp, #8]
 3085              	.LVL625:
 3086 1b00 9A44     		add	r10, r10, r3
 3087 1b02 294B     		ldr	r3, .L22+44
 3088 1b04 5344     		add	r3, r3, r10
 3089              	.LVL626:
 3090 1b06 4FEA7635 		ror	r5, r6, #13
 3091 1b0a 85EAB605 		eor	r5, r5, r6, ror #2
 3092 1b0e 85EAB650 		eor	r0, r5, r6, ror #22
 3093 1b12 87EA0905 		eor	r5, r7, r9
 3094 1b16 3540     		ands	r5, r5, r6
 3095 1b18 07EA0901 		and	r1, r7, r9
 3096              	.LVL627:
 3097 1b1c 4D40     		eors	r5, r5, r1
 3098 1b1e 0544     		add	r5, r5, r0
 3099              	.LVL628:
 3100 1b20 9E44     		add	lr, lr, r3
 3101              	.LVL629:
 3102 1b22 1D44     		add	r5, r5, r3
 3103              	.LVL630:
 180:..\sha256.c   ****     F(w15,0xc67178f2)
 3104              		.loc 1 180 0
 3105 1b24 4FEAFE2A 		ror	r10, lr, #11
 3106 1b28 8AEABE1A 		eor	r10, r10, lr, ror #6
 3107 1b2c 8AEA7E6A 		eor	r10, r10, lr, ror #25
 3108 1b30 5244     		add	r2, r2, r10
 3109              	.LVL631:
 3110 1b32 08EA0E0A 		and	r10, r8, lr
 3111 1b36 2CEA0E00 		bic	r0, ip, lr
 3112              	.LVL632:
 3113 1b3a 8AEA000A 		eor	r10, r10, r0
 3114 1b3e 9244     		add	r10, r10, r2
 3115 1b40 039B     		ldr	r3, [sp, #12]
 3116              	.LVL633:
 3117 1b42 9A44     		add	r10, r10, r3
 3118 1b44 194A     		ldr	r2, .L22+48
 3119 1b46 5244     		add	r2, r2, r10
 3120              	.LVL634:
 3121 1b48 4FEA7534 		ror	r4, r5, #13
 3122 1b4c 84EAB504 		eor	r4, r4, r5, ror #2
 3123 1b50 84EAB554 		eor	r4, r4, r5, ror #22
 3124 1b54 89EA0603 		eor	r3, r9, r6
 3125 1b58 03EA0501 		and	r1, r3, r5
 3126              	.LVL635:
ARM GAS  C:\Users\bogur\AppData\Local\Temp\cc4rWh5U.s 			page 59


 3127 1b5c 09EA0603 		and	r3, r9, r6
 3128 1b60 4B40     		eors	r3, r3, r1
 3129 1b62 1C44     		add	r4, r4, r3
 3130              	.LVL636:
 3131 1b64 1744     		add	r7, r7, r2
 3132              	.LVL637:
 3133 1b66 1444     		add	r4, r4, r2
 3134              	.LVL638:
 181:..\sha256.c   **** 
 182:..\sha256.c   ****     a += state[0];
 3135              		.loc 1 182 0
 3136 1b68 1E9B     		ldr	r3, [sp, #120]
 3137              	.LVL639:
 3138 1b6a 1C44     		add	r4, r4, r3
 3139              	.LVL640:
 183:..\sha256.c   ****     b += state[1];
 3140              		.loc 1 183 0
 3141 1b6c 1F9B     		ldr	r3, [sp, #124]
 3142 1b6e 1D44     		add	r5, r5, r3
 3143              	.LVL641:
 184:..\sha256.c   ****     c += state[2];
 3144              		.loc 1 184 0
 3145 1b70 209B     		ldr	r3, [sp, #128]
 3146 1b72 1E44     		add	r6, r6, r3
 3147              	.LVL642:
 185:..\sha256.c   ****     d += state[3];
 3148              		.loc 1 185 0
 3149 1b74 2198     		ldr	r0, [sp, #132]
 3150 1b76 8144     		add	r9, r9, r0
 3151 1b78 1CE0     		b	.L23
 3152              	.L24:
 3153 1b7a 00BF     		.align	2
 3154              	.L22:
 3155 1b7c 4C774827 		.word	659060556
 3156 1b80 B5BCB034 		.word	883997877
 3157 1b84 B30C1C39 		.word	958139571
 3158 1b88 4AAAD84E 		.word	1322822218
 3159 1b8c 4FCA9C5B 		.word	1537002063
 3160 1b90 F36F2E68 		.word	1747873779
 3161 1b94 EE828F74 		.word	1955562222
 3162 1b98 1478C884 		.word	-2067236844
 3163 1b9c 0802C78C 		.word	-1933114872
 3164 1ba0 FAFFBE90 		.word	-1866530822
 3165 1ba4 EB6C50A4 		.word	-1538233109
 3166 1ba8 F7A3F9BE 		.word	-1090935817
 3167 1bac F27871C6 		.word	-965641998
 3168 1bb0 6F63A578 		.word	2024104815
 3169              	.L23:
 3170              	.LVL643:
 186:..\sha256.c   ****     e += state[4];
 3171              		.loc 1 186 0
 3172 1bb4 229B     		ldr	r3, [sp, #136]
 3173 1bb6 1F44     		add	r7, r7, r3
 3174              	.LVL644:
 187:..\sha256.c   ****     f += state[5];
 3175              		.loc 1 187 0
 3176 1bb8 239B     		ldr	r3, [sp, #140]
ARM GAS  C:\Users\bogur\AppData\Local\Temp\cc4rWh5U.s 			page 60


 3177 1bba 0EEB030A 		add	r10, lr, r3
 3178              	.LVL645:
 188:..\sha256.c   ****     g += state[6];
 3179              		.loc 1 188 0
 3180 1bbe 249B     		ldr	r3, [sp, #144]
 3181 1bc0 9844     		add	r8, r8, r3
 3182              	.LVL646:
 189:..\sha256.c   ****     h += state[7];
 3183              		.loc 1 189 0
 3184 1bc2 259B     		ldr	r3, [sp, #148]
 3185 1bc4 0CEB030B 		add	fp, ip, r3
 3186              	.LVL647:
 190:..\sha256.c   **** 
 191:..\sha256.c   ****     state[0] = a;
 3187              		.loc 1 191 0
 3188 1bc8 1E94     		str	r4, [sp, #120]
 192:..\sha256.c   ****     state[1] = b;
 3189              		.loc 1 192 0
 3190 1bca 1F95     		str	r5, [sp, #124]
 193:..\sha256.c   ****     state[2] = c;
 3191              		.loc 1 193 0
 3192 1bcc 2096     		str	r6, [sp, #128]
 194:..\sha256.c   ****     state[3] = d;
 3193              		.loc 1 194 0
 3194 1bce CDF88490 		str	r9, [sp, #132]
 195:..\sha256.c   ****     state[4] = e;
 3195              		.loc 1 195 0
 3196 1bd2 2297     		str	r7, [sp, #136]
 196:..\sha256.c   ****     state[5] = f;
 3197              		.loc 1 196 0
 3198 1bd4 CDF88CA0 		str	r10, [sp, #140]
 197:..\sha256.c   ****     state[6] = g;
 3199              		.loc 1 197 0
 3200 1bd8 CDF89080 		str	r8, [sp, #144]
 198:..\sha256.c   ****     state[7] = h;
 3201              		.loc 1 198 0
 3202 1bdc CDF894B0 		str	fp, [sp, #148]
 199:..\sha256.c   **** 
 200:..\sha256.c   ****     in += 64;
 3203              		.loc 1 200 0
 3204 1be0 0199     		ldr	r1, [sp, #4]
 3205 1be2 01F14003 		add	r3, r1, #64
 3206 1be6 0193     		str	r3, [sp, #4]
 3207              	.LVL648:
 201:..\sha256.c   ****     inlen -= 64;
 3208              		.loc 1 201 0
 3209 1be8 159B     		ldr	r3, [sp, #84]
 3210              	.LVL649:
 3211 1bea 403B     		subs	r3, r3, #64
 3212 1bec 1593     		str	r3, [sp, #84]
 3213              	.LVL650:
 3214              	.L4:
 3215              	.LBE2:
  90:..\sha256.c   ****     uint32_t w0  = load_bigendian(in +  0);
 3216              		.loc 1 90 0
 3217 1bee 159B     		ldr	r3, [sp, #84]
 3218 1bf0 3F2B     		cmp	r3, #63
ARM GAS  C:\Users\bogur\AppData\Local\Temp\cc4rWh5U.s 			page 61


 3219 1bf2 3EF651AA 		bhi	.L5
 202:..\sha256.c   ****   }
 203:..\sha256.c   **** 
 204:..\sha256.c   ****   store_bigendian(statebytes +  0,state[0]);
 3220              		.loc 1 204 0
 3221 1bf6 1E99     		ldr	r1, [sp, #120]
 3222 1bf8 1D98     		ldr	r0, [sp, #116]
 3223 1bfa FFF7FEFF 		bl	store_bigendian
 3224              	.LVL651:
 205:..\sha256.c   ****   store_bigendian(statebytes +  4,state[1]);
 3225              		.loc 1 205 0
 3226 1bfe 1F99     		ldr	r1, [sp, #124]
 3227 1c00 1698     		ldr	r0, [sp, #88]
 3228 1c02 FFF7FEFF 		bl	store_bigendian
 3229              	.LVL652:
 206:..\sha256.c   ****   store_bigendian(statebytes +  8,state[2]);
 3230              		.loc 1 206 0
 3231 1c06 2099     		ldr	r1, [sp, #128]
 3232 1c08 1798     		ldr	r0, [sp, #92]
 3233 1c0a FFF7FEFF 		bl	store_bigendian
 3234              	.LVL653:
 207:..\sha256.c   ****   store_bigendian(statebytes + 12,state[3]);
 3235              		.loc 1 207 0
 3236 1c0e 2199     		ldr	r1, [sp, #132]
 3237 1c10 1898     		ldr	r0, [sp, #96]
 3238 1c12 FFF7FEFF 		bl	store_bigendian
 3239              	.LVL654:
 208:..\sha256.c   ****   store_bigendian(statebytes + 16,state[4]);
 3240              		.loc 1 208 0
 3241 1c16 2299     		ldr	r1, [sp, #136]
 3242 1c18 1998     		ldr	r0, [sp, #100]
 3243 1c1a FFF7FEFF 		bl	store_bigendian
 3244              	.LVL655:
 209:..\sha256.c   ****   store_bigendian(statebytes + 20,state[5]);
 3245              		.loc 1 209 0
 3246 1c1e 2399     		ldr	r1, [sp, #140]
 3247 1c20 1A98     		ldr	r0, [sp, #104]
 3248 1c22 FFF7FEFF 		bl	store_bigendian
 3249              	.LVL656:
 210:..\sha256.c   ****   store_bigendian(statebytes + 24,state[6]);
 3250              		.loc 1 210 0
 3251 1c26 2499     		ldr	r1, [sp, #144]
 3252 1c28 1B98     		ldr	r0, [sp, #108]
 3253 1c2a FFF7FEFF 		bl	store_bigendian
 3254              	.LVL657:
 211:..\sha256.c   ****   store_bigendian(statebytes + 28,state[7]);
 3255              		.loc 1 211 0
 3256 1c2e 2599     		ldr	r1, [sp, #148]
 3257 1c30 1C98     		ldr	r0, [sp, #112]
 3258 1c32 FFF7FEFF 		bl	store_bigendian
 3259              	.LVL658:
 212:..\sha256.c   **** 
 213:..\sha256.c   ****   return inlen;
 214:..\sha256.c   **** }
 3260              		.loc 1 214 0
 3261 1c36 1598     		ldr	r0, [sp, #84]
 3262 1c38 27B0     		add	sp, sp, #156
ARM GAS  C:\Users\bogur\AppData\Local\Temp\cc4rWh5U.s 			page 62


 3263              		.cfi_def_cfa_offset 36
 3264              		@ sp needed
 3265 1c3a BDE8F08F 		pop	{r4, r5, r6, r7, r8, r9, r10, fp, pc}
 3266              		.cfi_endproc
 3267              	.LFE2:
 3268              		.size	crypto_hashblocks_sha256, .-crypto_hashblocks_sha256
 3269 1c3e 00BF     		.section	.text.sha256,"ax",%progbits
 3270              		.align	2
 3271              		.global	sha256
 3272              		.thumb
 3273              		.thumb_func
 3274              		.type	sha256, %function
 3275              	sha256:
 3276              	.LFB3:
 215:..\sha256.c   **** 
 216:..\sha256.c   **** #define blocks crypto_hashblocks_sha256
 217:..\sha256.c   **** 
 218:..\sha256.c   **** static const uint8_t iv[32] = {
 219:..\sha256.c   ****   0x6a,0x09,0xe6,0x67,
 220:..\sha256.c   ****   0xbb,0x67,0xae,0x85,
 221:..\sha256.c   ****   0x3c,0x6e,0xf3,0x72,
 222:..\sha256.c   ****   0xa5,0x4f,0xf5,0x3a,
 223:..\sha256.c   ****   0x51,0x0e,0x52,0x7f,
 224:..\sha256.c   ****   0x9b,0x05,0x68,0x8c,
 225:..\sha256.c   ****   0x1f,0x83,0xd9,0xab,
 226:..\sha256.c   ****   0x5b,0xe0,0xcd,0x19,
 227:..\sha256.c   **** } ;
 228:..\sha256.c   **** 
 229:..\sha256.c   **** void sha256(uint8_t *out,const uint8_t *in,size_t inlen)
 230:..\sha256.c   **** {
 3277              		.loc 1 230 0
 3278              		.cfi_startproc
 3279              		@ args = 0, pretend = 0, frame = 160
 3280              		@ frame_needed = 0, uses_anonymous_args = 0
 3281              	.LVL659:
 3282 0000 F0B5     		push	{r4, r5, r6, r7, lr}
 3283              		.cfi_def_cfa_offset 20
 3284              		.cfi_offset 4, -20
 3285              		.cfi_offset 5, -16
 3286              		.cfi_offset 6, -12
 3287              		.cfi_offset 7, -8
 3288              		.cfi_offset 14, -4
 3289 0002 A9B0     		sub	sp, sp, #164
 3290              		.cfi_def_cfa_offset 184
 3291 0004 0446     		mov	r4, r0
 3292 0006 0E46     		mov	r6, r1
 3293 0008 1746     		mov	r7, r2
 231:..\sha256.c   ****   uint8_t h[32];
 232:..\sha256.c   ****   uint8_t padded[128];
 233:..\sha256.c   ****   unsigned int i;
 234:..\sha256.c   ****   size_t bits = inlen << 3;
 3294              		.loc 1 234 0
 3295 000a D500     		lsls	r5, r2, #3
 3296              	.LVL660:
 235:..\sha256.c   **** 
 236:..\sha256.c   ****   for (i = 0;i < 32;++i) h[i] = iv[i];
 3297              		.loc 1 236 0
ARM GAS  C:\Users\bogur\AppData\Local\Temp\cc4rWh5U.s 			page 63


 3298 000c 0023     		movs	r3, #0
 3299 000e 06E0     		b	.L26
 3300              	.LVL661:
 3301              	.L27:
 3302              		.loc 1 236 0 is_stmt 0 discriminator 3
 3303 0010 3B4A     		ldr	r2, .L39
 3304 0012 D15C     		ldrb	r1, [r2, r3]	@ zero_extendqisi2
 3305 0014 28AA     		add	r2, sp, #160
 3306 0016 1A44     		add	r2, r2, r3
 3307 0018 02F8201C 		strb	r1, [r2, #-32]
 3308 001c 0133     		adds	r3, r3, #1
 3309              	.LVL662:
 3310              	.L26:
 3311              		.loc 1 236 0 discriminator 1
 3312 001e 1F2B     		cmp	r3, #31
 3313 0020 F6D9     		bls	.L27
 237:..\sha256.c   **** 
 238:..\sha256.c   ****   blocks(h,in,inlen);
 3314              		.loc 1 238 0 is_stmt 1
 3315 0022 3A46     		mov	r2, r7
 3316 0024 3146     		mov	r1, r6
 3317 0026 20A8     		add	r0, sp, #128
 3318              	.LVL663:
 3319 0028 FFF7FEFF 		bl	crypto_hashblocks_sha256
 3320              	.LVL664:
 239:..\sha256.c   ****   in += inlen;
 240:..\sha256.c   ****   inlen &= 63;
 3321              		.loc 1 240 0
 3322 002c 07F03F02 		and	r2, r7, #63
 3323              	.LVL665:
 3324 0030 BF1A     		subs	r7, r7, r2
 3325              	.LVL666:
 241:..\sha256.c   ****   in -= inlen;
 242:..\sha256.c   **** 
 243:..\sha256.c   ****   for (i = 0;i < inlen;++i) padded[i] = in[i];
 3326              		.loc 1 243 0
 3327 0032 0023     		movs	r3, #0
 3328 0034 06E0     		b	.L28
 3329              	.LVL667:
 3330              	.L29:
 3331              		.loc 1 243 0 is_stmt 0 discriminator 3
 3332 0036 F118     		adds	r1, r6, r3
 3333 0038 C85D     		ldrb	r0, [r1, r7]	@ zero_extendqisi2
 3334 003a 28A9     		add	r1, sp, #160
 3335 003c 1944     		add	r1, r1, r3
 3336 003e 01F8A00C 		strb	r0, [r1, #-160]
 3337 0042 0133     		adds	r3, r3, #1
 3338              	.LVL668:
 3339              	.L28:
 3340              		.loc 1 243 0 discriminator 1
 3341 0044 9342     		cmp	r3, r2
 3342 0046 F6D3     		bcc	.L29
 244:..\sha256.c   ****   padded[inlen] = 0x80;
 3343              		.loc 1 244 0 is_stmt 1
 3344 0048 8021     		movs	r1, #128
 3345 004a 28AB     		add	r3, sp, #160
 3346              	.LVL669:
ARM GAS  C:\Users\bogur\AppData\Local\Temp\cc4rWh5U.s 			page 64


 3347 004c 1344     		add	r3, r3, r2
 3348 004e 03F8A01C 		strb	r1, [r3, #-160]
 245:..\sha256.c   **** 
 246:..\sha256.c   ****   if (inlen < 56) {
 3349              		.loc 1 246 0
 3350 0052 372A     		cmp	r2, #55
 3351 0054 24D8     		bhi	.L30
 247:..\sha256.c   ****     for (i = inlen + 1;i < 56;++i) padded[i] = 0;
 3352              		.loc 1 247 0
 3353 0056 531C     		adds	r3, r2, #1
 3354              	.LVL670:
 3355 0058 05E0     		b	.L31
 3356              	.LVL671:
 3357              	.L32:
 3358              		.loc 1 247 0 is_stmt 0 discriminator 3
 3359 005a 28AA     		add	r2, sp, #160
 3360 005c 1A44     		add	r2, r2, r3
 3361 005e 0021     		movs	r1, #0
 3362 0060 02F8A01C 		strb	r1, [r2, #-160]
 3363 0064 0133     		adds	r3, r3, #1
 3364              	.LVL672:
 3365              	.L31:
 3366              		.loc 1 247 0 discriminator 1
 3367 0066 372B     		cmp	r3, #55
 3368 0068 F7D9     		bls	.L32
 248:..\sha256.c   ****     padded[56] = bits >> 56;
 3369              		.loc 1 248 0 is_stmt 1
 3370 006a 0023     		movs	r3, #0
 3371              	.LVL673:
 3372 006c 8DF83830 		strb	r3, [sp, #56]
 249:..\sha256.c   ****     padded[57] = bits >> 48;
 3373              		.loc 1 249 0
 3374 0070 8DF83930 		strb	r3, [sp, #57]
 250:..\sha256.c   ****     padded[58] = bits >> 40;
 3375              		.loc 1 250 0
 3376 0074 8DF83A30 		strb	r3, [sp, #58]
 251:..\sha256.c   ****     padded[59] = bits >> 32;
 3377              		.loc 1 251 0
 3378 0078 8DF83B30 		strb	r3, [sp, #59]
 252:..\sha256.c   ****     padded[60] = bits >> 24;
 3379              		.loc 1 252 0
 3380 007c 2B0E     		lsrs	r3, r5, #24
 3381 007e 8DF83C30 		strb	r3, [sp, #60]
 253:..\sha256.c   ****     padded[61] = bits >> 16;
 3382              		.loc 1 253 0
 3383 0082 2B0C     		lsrs	r3, r5, #16
 3384 0084 8DF83D30 		strb	r3, [sp, #61]
 254:..\sha256.c   ****     padded[62] = bits >> 8;
 3385              		.loc 1 254 0
 3386 0088 2B0A     		lsrs	r3, r5, #8
 3387 008a 8DF83E30 		strb	r3, [sp, #62]
 255:..\sha256.c   ****     padded[63] = bits;
 3388              		.loc 1 255 0
 3389 008e 8DF83F50 		strb	r5, [sp, #63]
 256:..\sha256.c   ****     blocks(h,padded,64);
 3390              		.loc 1 256 0
 3391 0092 4022     		movs	r2, #64
ARM GAS  C:\Users\bogur\AppData\Local\Temp\cc4rWh5U.s 			page 65


 3392 0094 6946     		mov	r1, sp
 3393 0096 20A8     		add	r0, sp, #128
 3394 0098 FFF7FEFF 		bl	crypto_hashblocks_sha256
 3395              	.LVL674:
 3396              	.L36:
 243:..\sha256.c   ****   padded[inlen] = 0x80;
 3397              		.loc 1 243 0 discriminator 1
 3398 009c 0023     		movs	r3, #0
 3399 009e 2AE0     		b	.L33
 3400              	.LVL675:
 3401              	.L30:
 257:..\sha256.c   ****   } else {
 258:..\sha256.c   ****     for (i = inlen + 1;i < 120;++i) padded[i] = 0;
 3402              		.loc 1 258 0
 3403 00a0 531C     		adds	r3, r2, #1
 3404              	.LVL676:
 3405 00a2 05E0     		b	.L34
 3406              	.LVL677:
 3407              	.L35:
 3408              		.loc 1 258 0 is_stmt 0 discriminator 3
 3409 00a4 28AA     		add	r2, sp, #160
 3410 00a6 1A44     		add	r2, r2, r3
 3411 00a8 0021     		movs	r1, #0
 3412 00aa 02F8A01C 		strb	r1, [r2, #-160]
 3413 00ae 0133     		adds	r3, r3, #1
 3414              	.LVL678:
 3415              	.L34:
 3416              		.loc 1 258 0 discriminator 1
 3417 00b0 772B     		cmp	r3, #119
 3418 00b2 F7D9     		bls	.L35
 259:..\sha256.c   ****     padded[120] = bits >> 56;
 3419              		.loc 1 259 0 is_stmt 1
 3420 00b4 0023     		movs	r3, #0
 3421              	.LVL679:
 3422 00b6 8DF87830 		strb	r3, [sp, #120]
 260:..\sha256.c   ****     padded[121] = bits >> 48;
 3423              		.loc 1 260 0
 3424 00ba 8DF87930 		strb	r3, [sp, #121]
 261:..\sha256.c   ****     padded[122] = bits >> 40;
 3425              		.loc 1 261 0
 3426 00be 8DF87A30 		strb	r3, [sp, #122]
 262:..\sha256.c   ****     padded[123] = bits >> 32;
 3427              		.loc 1 262 0
 3428 00c2 8DF87B30 		strb	r3, [sp, #123]
 263:..\sha256.c   ****     padded[124] = bits >> 24;
 3429              		.loc 1 263 0
 3430 00c6 2B0E     		lsrs	r3, r5, #24
 3431 00c8 8DF87C30 		strb	r3, [sp, #124]
 264:..\sha256.c   ****     padded[125] = bits >> 16;
 3432              		.loc 1 264 0
 3433 00cc 2B0C     		lsrs	r3, r5, #16
 3434 00ce 8DF87D30 		strb	r3, [sp, #125]
 265:..\sha256.c   ****     padded[126] = bits >> 8;
 3435              		.loc 1 265 0
 3436 00d2 2B0A     		lsrs	r3, r5, #8
 3437 00d4 8DF87E30 		strb	r3, [sp, #126]
 266:..\sha256.c   ****     padded[127] = bits;
ARM GAS  C:\Users\bogur\AppData\Local\Temp\cc4rWh5U.s 			page 66


 3438              		.loc 1 266 0
 3439 00d8 8DF87F50 		strb	r5, [sp, #127]
 267:..\sha256.c   ****     blocks(h,padded,128);
 3440              		.loc 1 267 0
 3441 00dc 8022     		movs	r2, #128
 3442 00de 6946     		mov	r1, sp
 3443 00e0 0DEB0200 		add	r0, sp, r2
 3444 00e4 FFF7FEFF 		bl	crypto_hashblocks_sha256
 3445              	.LVL680:
 3446 00e8 D8E7     		b	.L36
 3447              	.LVL681:
 3448              	.L37:
 268:..\sha256.c   ****   }
 269:..\sha256.c   **** 
 270:..\sha256.c   ****   for (i = 0;i < 32;++i) out[i] = h[i];
 3449              		.loc 1 270 0 discriminator 3
 3450 00ea 28AA     		add	r2, sp, #160
 3451 00ec 1A44     		add	r2, r2, r3
 3452 00ee 12F8202C 		ldrb	r2, [r2, #-32]	@ zero_extendqisi2
 3453 00f2 E254     		strb	r2, [r4, r3]
 3454 00f4 0133     		adds	r3, r3, #1
 3455              	.LVL682:
 3456              	.L33:
 3457              		.loc 1 270 0 is_stmt 0 discriminator 1
 3458 00f6 1F2B     		cmp	r3, #31
 3459 00f8 F7D9     		bls	.L37
 271:..\sha256.c   **** }
 3460              		.loc 1 271 0 is_stmt 1
 3461 00fa 29B0     		add	sp, sp, #164
 3462              		.cfi_def_cfa_offset 20
 3463              		@ sp needed
 3464 00fc F0BD     		pop	{r4, r5, r6, r7, pc}
 3465              	.LVL683:
 3466              	.L40:
 3467 00fe 00BF     		.align	2
 3468              	.L39:
 3469 0100 00000000 		.word	.LANCHOR0
 3470              		.cfi_endproc
 3471              	.LFE3:
 3472              		.size	sha256, .-sha256
 3473              		.section	.rodata
 3474              		.align	2
 3475              		.set	.LANCHOR0,. + 0
 3476              		.type	iv, %object
 3477              		.size	iv, 32
 3478              	iv:
 3479 0000 6A       		.byte	106
 3480 0001 09       		.byte	9
 3481 0002 E6       		.byte	-26
 3482 0003 67       		.byte	103
 3483 0004 BB       		.byte	-69
 3484 0005 67       		.byte	103
 3485 0006 AE       		.byte	-82
 3486 0007 85       		.byte	-123
 3487 0008 3C       		.byte	60
 3488 0009 6E       		.byte	110
 3489 000a F3       		.byte	-13
ARM GAS  C:\Users\bogur\AppData\Local\Temp\cc4rWh5U.s 			page 67


 3490 000b 72       		.byte	114
 3491 000c A5       		.byte	-91
 3492 000d 4F       		.byte	79
 3493 000e F5       		.byte	-11
 3494 000f 3A       		.byte	58
 3495 0010 51       		.byte	81
 3496 0011 0E       		.byte	14
 3497 0012 52       		.byte	82
 3498 0013 7F       		.byte	127
 3499 0014 9B       		.byte	-101
 3500 0015 05       		.byte	5
 3501 0016 68       		.byte	104
 3502 0017 8C       		.byte	-116
 3503 0018 1F       		.byte	31
 3504 0019 83       		.byte	-125
 3505 001a D9       		.byte	-39
 3506 001b AB       		.byte	-85
 3507 001c 5B       		.byte	91
 3508 001d E0       		.byte	-32
 3509 001e CD       		.byte	-51
 3510 001f 19       		.byte	25
 3511              		.text
 3512              	.Letext0:
 3513              		.file 2 "c:\\program files (x86)\\cypress\\psoc creator\\4.4\\psoc creator\\import\\gnu\\arm\\5.4.
 3514              		.file 3 "c:\\program files (x86)\\cypress\\psoc creator\\4.4\\psoc creator\\import\\gnu\\arm\\5.4.
 3515              		.file 4 "c:\\program files (x86)\\cypress\\psoc creator\\4.4\\psoc creator\\import\\gnu\\arm\\5.4.
 3516              		.section	.debug_info,"",%progbits
 3517              	.Ldebug_info0:
 3518 0000 18070000 		.4byte	0x718
 3519 0004 0400     		.2byte	0x4
 3520 0006 00000000 		.4byte	.Ldebug_abbrev0
 3521 000a 04       		.byte	0x4
 3522 000b 01       		.uleb128 0x1
 3523 000c 39000000 		.4byte	.LASF23
 3524 0010 0C       		.byte	0xc
 3525 0011 9B010000 		.4byte	.LASF24
 3526 0015 18010000 		.4byte	.LASF25
 3527 0019 00000000 		.4byte	.Ldebug_ranges0+0
 3528 001d 00000000 		.4byte	0
 3529 0021 00000000 		.4byte	.Ldebug_line0
 3530 0025 02       		.uleb128 0x2
 3531 0026 04       		.byte	0x4
 3532 0027 05       		.byte	0x5
 3533 0028 696E7400 		.ascii	"int\000"
 3534 002c 03       		.uleb128 0x3
 3535 002d 10000000 		.4byte	.LASF4
 3536 0031 02       		.byte	0x2
 3537 0032 D8       		.byte	0xd8
 3538 0033 37000000 		.4byte	0x37
 3539 0037 04       		.uleb128 0x4
 3540 0038 04       		.byte	0x4
 3541 0039 07       		.byte	0x7
 3542 003a E1010000 		.4byte	.LASF0
 3543 003e 04       		.uleb128 0x4
 3544 003f 08       		.byte	0x8
 3545 0040 05       		.byte	0x5
 3546 0041 05010000 		.4byte	.LASF1
ARM GAS  C:\Users\bogur\AppData\Local\Temp\cc4rWh5U.s 			page 68


 3547 0045 04       		.uleb128 0x4
 3548 0046 08       		.byte	0x8
 3549 0047 04       		.byte	0x4
 3550 0048 8F010000 		.4byte	.LASF2
 3551 004c 04       		.uleb128 0x4
 3552 004d 01       		.byte	0x1
 3553 004e 06       		.byte	0x6
 3554 004f B5010000 		.4byte	.LASF3
 3555 0053 03       		.uleb128 0x3
 3556 0054 85010000 		.4byte	.LASF5
 3557 0058 03       		.byte	0x3
 3558 0059 1D       		.byte	0x1d
 3559 005a 5E000000 		.4byte	0x5e
 3560 005e 04       		.uleb128 0x4
 3561 005f 01       		.byte	0x1
 3562 0060 08       		.byte	0x8
 3563 0061 A7010000 		.4byte	.LASF6
 3564 0065 04       		.uleb128 0x4
 3565 0066 02       		.byte	0x2
 3566 0067 05       		.byte	0x5
 3567 0068 06000000 		.4byte	.LASF7
 3568 006c 04       		.uleb128 0x4
 3569 006d 02       		.byte	0x2
 3570 006e 07       		.byte	0x7
 3571 006f FE010000 		.4byte	.LASF8
 3572 0073 04       		.uleb128 0x4
 3573 0074 04       		.byte	0x4
 3574 0075 05       		.byte	0x5
 3575 0076 18020000 		.4byte	.LASF9
 3576 007a 03       		.uleb128 0x3
 3577 007b EC000000 		.4byte	.LASF10
 3578 007f 03       		.byte	0x3
 3579 0080 41       		.byte	0x41
 3580 0081 85000000 		.4byte	0x85
 3581 0085 04       		.uleb128 0x4
 3582 0086 04       		.byte	0x4
 3583 0087 07       		.byte	0x7
 3584 0088 28020000 		.4byte	.LASF11
 3585 008c 04       		.uleb128 0x4
 3586 008d 08       		.byte	0x8
 3587 008e 07       		.byte	0x7
 3588 008f C1010000 		.4byte	.LASF12
 3589 0093 03       		.uleb128 0x3
 3590 0094 F7000000 		.4byte	.LASF13
 3591 0098 04       		.byte	0x4
 3592 0099 18       		.byte	0x18
 3593 009a 53000000 		.4byte	0x53
 3594 009e 03       		.uleb128 0x3
 3595 009f D8010000 		.4byte	.LASF14
 3596 00a3 04       		.byte	0x4
 3597 00a4 30       		.byte	0x30
 3598 00a5 7A000000 		.4byte	0x7a
 3599 00a9 05       		.uleb128 0x5
 3600 00aa 3A020000 		.4byte	.LASF15
 3601 00ae 01       		.byte	0x1
 3602 00af 07       		.byte	0x7
 3603 00b0 9E000000 		.4byte	0x9e
ARM GAS  C:\Users\bogur\AppData\Local\Temp\cc4rWh5U.s 			page 69


 3604 00b4 00000000 		.4byte	.LFB0
 3605 00b8 16000000 		.4byte	.LFE0-.LFB0
 3606 00bc 01       		.uleb128 0x1
 3607 00bd 9C       		.byte	0x9c
 3608 00be D0000000 		.4byte	0xd0
 3609 00c2 06       		.uleb128 0x6
 3610 00c3 7800     		.ascii	"x\000"
 3611 00c5 01       		.byte	0x1
 3612 00c6 07       		.byte	0x7
 3613 00c7 D0000000 		.4byte	0xd0
 3614 00cb 00000000 		.4byte	.LLST0
 3615 00cf 00       		.byte	0
 3616 00d0 07       		.uleb128 0x7
 3617 00d1 04       		.byte	0x4
 3618 00d2 D6000000 		.4byte	0xd6
 3619 00d6 08       		.uleb128 0x8
 3620 00d7 93000000 		.4byte	0x93
 3621 00db 09       		.uleb128 0x9
 3622 00dc EE010000 		.4byte	.LASF26
 3623 00e0 01       		.byte	0x1
 3624 00e1 11       		.byte	0x11
 3625 00e2 00000000 		.4byte	.LFB1
 3626 00e6 10000000 		.4byte	.LFE1-.LFB1
 3627 00ea 01       		.uleb128 0x1
 3628 00eb 9C       		.byte	0x9c
 3629 00ec 09010000 		.4byte	0x109
 3630 00f0 0A       		.uleb128 0xa
 3631 00f1 7800     		.ascii	"x\000"
 3632 00f3 01       		.byte	0x1
 3633 00f4 11       		.byte	0x11
 3634 00f5 09010000 		.4byte	0x109
 3635 00f9 01       		.uleb128 0x1
 3636 00fa 50       		.byte	0x50
 3637 00fb 06       		.uleb128 0x6
 3638 00fc 7500     		.ascii	"u\000"
 3639 00fe 01       		.byte	0x1
 3640 00ff 11       		.byte	0x11
 3641 0100 9E000000 		.4byte	0x9e
 3642 0104 21000000 		.4byte	.LLST1
 3643 0108 00       		.byte	0
 3644 0109 07       		.uleb128 0x7
 3645 010a 04       		.byte	0x4
 3646 010b 93000000 		.4byte	0x93
 3647 010f 05       		.uleb128 0x5
 3648 0110 20000000 		.4byte	.LASF16
 3649 0114 01       		.byte	0x1
 3650 0115 43       		.byte	0x43
 3651 0116 25000000 		.4byte	0x25
 3652 011a 00000000 		.4byte	.LFB2
 3653 011e 3E1C0000 		.4byte	.LFE2-.LFB2
 3654 0122 01       		.uleb128 0x1
 3655 0123 9C       		.byte	0x9c
 3656 0124 EA050000 		.4byte	0x5ea
 3657 0128 0B       		.uleb128 0xb
 3658 0129 7A010000 		.4byte	.LASF17
 3659 012d 01       		.byte	0x1
 3660 012e 43       		.byte	0x43
ARM GAS  C:\Users\bogur\AppData\Local\Temp\cc4rWh5U.s 			page 70


 3661 012f 09010000 		.4byte	0x109
 3662 0133 4A000000 		.4byte	.LLST2
 3663 0137 06       		.uleb128 0x6
 3664 0138 696E00   		.ascii	"in\000"
 3665 013b 01       		.byte	0x1
 3666 013c 43       		.byte	0x43
 3667 013d D0000000 		.4byte	0xd0
 3668 0141 75000000 		.4byte	.LLST3
 3669 0145 0B       		.uleb128 0xb
 3670 0146 FF000000 		.4byte	.LASF18
 3671 014a 01       		.byte	0x1
 3672 014b 43       		.byte	0x43
 3673 014c 2C000000 		.4byte	0x2c
 3674 0150 AD000000 		.4byte	.LLST4
 3675 0154 0C       		.uleb128 0xc
 3676 0155 00000000 		.4byte	.LASF19
 3677 0159 01       		.byte	0x1
 3678 015a 45       		.byte	0x45
 3679 015b EA050000 		.4byte	0x5ea
 3680 015f 03       		.uleb128 0x3
 3681 0160 91       		.byte	0x91
 3682 0161 B87F     		.sleb128 -72
 3683 0163 0D       		.uleb128 0xd
 3684 0164 6100     		.ascii	"a\000"
 3685 0166 01       		.byte	0x1
 3686 0167 46       		.byte	0x46
 3687 0168 9E000000 		.4byte	0x9e
 3688 016c E5000000 		.4byte	.LLST5
 3689 0170 0D       		.uleb128 0xd
 3690 0171 6200     		.ascii	"b\000"
 3691 0173 01       		.byte	0x1
 3692 0174 47       		.byte	0x47
 3693 0175 9E000000 		.4byte	0x9e
 3694 0179 DB030000 		.4byte	.LLST6
 3695 017d 0D       		.uleb128 0xd
 3696 017e 6300     		.ascii	"c\000"
 3697 0180 01       		.byte	0x1
 3698 0181 48       		.byte	0x48
 3699 0182 9E000000 		.4byte	0x9e
 3700 0186 C6060000 		.4byte	.LLST7
 3701 018a 0D       		.uleb128 0xd
 3702 018b 6400     		.ascii	"d\000"
 3703 018d 01       		.byte	0x1
 3704 018e 49       		.byte	0x49
 3705 018f 9E000000 		.4byte	0x9e
 3706 0193 B3090000 		.4byte	.LLST8
 3707 0197 0D       		.uleb128 0xd
 3708 0198 6500     		.ascii	"e\000"
 3709 019a 01       		.byte	0x1
 3710 019b 4A       		.byte	0x4a
 3711 019c 9E000000 		.4byte	0x9e
 3712 01a0 9E0C0000 		.4byte	.LLST9
 3713 01a4 0D       		.uleb128 0xd
 3714 01a5 6600     		.ascii	"f\000"
 3715 01a7 01       		.byte	0x1
 3716 01a8 4B       		.byte	0x4b
 3717 01a9 9E000000 		.4byte	0x9e
ARM GAS  C:\Users\bogur\AppData\Local\Temp\cc4rWh5U.s 			page 71


 3718 01ad B90F0000 		.4byte	.LLST10
 3719 01b1 0D       		.uleb128 0xd
 3720 01b2 6700     		.ascii	"g\000"
 3721 01b4 01       		.byte	0x1
 3722 01b5 4C       		.byte	0x4c
 3723 01b6 9E000000 		.4byte	0x9e
 3724 01ba B5120000 		.4byte	.LLST11
 3725 01be 0D       		.uleb128 0xd
 3726 01bf 6800     		.ascii	"h\000"
 3727 01c1 01       		.byte	0x1
 3728 01c2 4D       		.byte	0x4d
 3729 01c3 9E000000 		.4byte	0x9e
 3730 01c7 B1150000 		.4byte	.LLST12
 3731 01cb 0D       		.uleb128 0xd
 3732 01cc 543100   		.ascii	"T1\000"
 3733 01cf 01       		.byte	0x1
 3734 01d0 4E       		.byte	0x4e
 3735 01d1 9E000000 		.4byte	0x9e
 3736 01d5 80190000 		.4byte	.LLST13
 3737 01d9 0D       		.uleb128 0xd
 3738 01da 543200   		.ascii	"T2\000"
 3739 01dd 01       		.byte	0x1
 3740 01de 4F       		.byte	0x4f
 3741 01df 9E000000 		.4byte	0x9e
 3742 01e3 1D1F0000 		.4byte	.LLST14
 3743 01e7 0E       		.uleb128 0xe
 3744 01e8 98000000 		.4byte	.LBB2
 3745 01ec 561B0000 		.4byte	.LBE2-.LBB2
 3746 01f0 55040000 		.4byte	0x455
 3747 01f4 0D       		.uleb128 0xd
 3748 01f5 773000   		.ascii	"w0\000"
 3749 01f8 01       		.byte	0x1
 3750 01f9 5B       		.byte	0x5b
 3751 01fa 9E000000 		.4byte	0x9e
 3752 01fe 493E0000 		.4byte	.LLST15
 3753 0202 0D       		.uleb128 0xd
 3754 0203 773100   		.ascii	"w1\000"
 3755 0206 01       		.byte	0x1
 3756 0207 5C       		.byte	0x5c
 3757 0208 9E000000 		.4byte	0x9e
 3758 020c 973E0000 		.4byte	.LLST16
 3759 0210 0D       		.uleb128 0xd
 3760 0211 773200   		.ascii	"w2\000"
 3761 0214 01       		.byte	0x1
 3762 0215 5D       		.byte	0x5d
 3763 0216 9E000000 		.4byte	0x9e
 3764 021a E53E0000 		.4byte	.LLST17
 3765 021e 0D       		.uleb128 0xd
 3766 021f 773300   		.ascii	"w3\000"
 3767 0222 01       		.byte	0x1
 3768 0223 5E       		.byte	0x5e
 3769 0224 9E000000 		.4byte	0x9e
 3770 0228 333F0000 		.4byte	.LLST18
 3771 022c 0D       		.uleb128 0xd
 3772 022d 773400   		.ascii	"w4\000"
 3773 0230 01       		.byte	0x1
 3774 0231 5F       		.byte	0x5f
ARM GAS  C:\Users\bogur\AppData\Local\Temp\cc4rWh5U.s 			page 72


 3775 0232 9E000000 		.4byte	0x9e
 3776 0236 8E3F0000 		.4byte	.LLST19
 3777 023a 0D       		.uleb128 0xd
 3778 023b 773500   		.ascii	"w5\000"
 3779 023e 01       		.byte	0x1
 3780 023f 60       		.byte	0x60
 3781 0240 9E000000 		.4byte	0x9e
 3782 0244 F63F0000 		.4byte	.LLST20
 3783 0248 0D       		.uleb128 0xd
 3784 0249 773600   		.ascii	"w6\000"
 3785 024c 01       		.byte	0x1
 3786 024d 61       		.byte	0x61
 3787 024e 9E000000 		.4byte	0x9e
 3788 0252 5E400000 		.4byte	.LLST21
 3789 0256 0D       		.uleb128 0xd
 3790 0257 773700   		.ascii	"w7\000"
 3791 025a 01       		.byte	0x1
 3792 025b 62       		.byte	0x62
 3793 025c 9E000000 		.4byte	0x9e
 3794 0260 C6400000 		.4byte	.LLST22
 3795 0264 0D       		.uleb128 0xd
 3796 0265 773800   		.ascii	"w8\000"
 3797 0268 01       		.byte	0x1
 3798 0269 63       		.byte	0x63
 3799 026a 9E000000 		.4byte	0x9e
 3800 026e 2E410000 		.4byte	.LLST23
 3801 0272 0D       		.uleb128 0xd
 3802 0273 773900   		.ascii	"w9\000"
 3803 0276 01       		.byte	0x1
 3804 0277 64       		.byte	0x64
 3805 0278 9E000000 		.4byte	0x9e
 3806 027c 96410000 		.4byte	.LLST24
 3807 0280 0D       		.uleb128 0xd
 3808 0281 77313000 		.ascii	"w10\000"
 3809 0285 01       		.byte	0x1
 3810 0286 65       		.byte	0x65
 3811 0287 9E000000 		.4byte	0x9e
 3812 028b FE410000 		.4byte	.LLST25
 3813 028f 0D       		.uleb128 0xd
 3814 0290 77313100 		.ascii	"w11\000"
 3815 0294 01       		.byte	0x1
 3816 0295 66       		.byte	0x66
 3817 0296 9E000000 		.4byte	0x9e
 3818 029a 66420000 		.4byte	.LLST26
 3819 029e 0D       		.uleb128 0xd
 3820 029f 77313200 		.ascii	"w12\000"
 3821 02a3 01       		.byte	0x1
 3822 02a4 67       		.byte	0x67
 3823 02a5 9E000000 		.4byte	0x9e
 3824 02a9 CE420000 		.4byte	.LLST27
 3825 02ad 0D       		.uleb128 0xd
 3826 02ae 77313300 		.ascii	"w13\000"
 3827 02b2 01       		.byte	0x1
 3828 02b3 68       		.byte	0x68
 3829 02b4 9E000000 		.4byte	0x9e
 3830 02b8 36430000 		.4byte	.LLST28
 3831 02bc 0D       		.uleb128 0xd
ARM GAS  C:\Users\bogur\AppData\Local\Temp\cc4rWh5U.s 			page 73


 3832 02bd 77313400 		.ascii	"w14\000"
 3833 02c1 01       		.byte	0x1
 3834 02c2 69       		.byte	0x69
 3835 02c3 9E000000 		.4byte	0x9e
 3836 02c7 9E430000 		.4byte	.LLST29
 3837 02cb 0D       		.uleb128 0xd
 3838 02cc 77313500 		.ascii	"w15\000"
 3839 02d0 01       		.byte	0x1
 3840 02d1 6A       		.byte	0x6a
 3841 02d2 9E000000 		.4byte	0x9e
 3842 02d6 06440000 		.4byte	.LLST30
 3843 02da 0F       		.uleb128 0xf
 3844 02db 9E000000 		.4byte	.LVL35
 3845 02df A9000000 		.4byte	0xa9
 3846 02e3 F0020000 		.4byte	0x2f0
 3847 02e7 10       		.uleb128 0x10
 3848 02e8 01       		.uleb128 0x1
 3849 02e9 50       		.byte	0x50
 3850 02ea 04       		.uleb128 0x4
 3851 02eb 91       		.byte	0x91
 3852 02ec C47E     		.sleb128 -188
 3853 02ee 06       		.byte	0x6
 3854 02ef 00       		.byte	0
 3855 02f0 0F       		.uleb128 0xf
 3856 02f1 A8000000 		.4byte	.LVL38
 3857 02f5 A9000000 		.4byte	0xa9
 3858 02f9 08030000 		.4byte	0x308
 3859 02fd 10       		.uleb128 0x10
 3860 02fe 01       		.uleb128 0x1
 3861 02ff 50       		.byte	0x50
 3862 0300 06       		.uleb128 0x6
 3863 0301 91       		.byte	0x91
 3864 0302 C47E     		.sleb128 -188
 3865 0304 06       		.byte	0x6
 3866 0305 23       		.byte	0x23
 3867 0306 04       		.uleb128 0x4
 3868 0307 00       		.byte	0
 3869 0308 0F       		.uleb128 0xf
 3870 0309 B4000000 		.4byte	.LVL41
 3871 030d A9000000 		.4byte	0xa9
 3872 0311 20030000 		.4byte	0x320
 3873 0315 10       		.uleb128 0x10
 3874 0316 01       		.uleb128 0x1
 3875 0317 50       		.byte	0x50
 3876 0318 06       		.uleb128 0x6
 3877 0319 91       		.byte	0x91
 3878 031a C47E     		.sleb128 -188
 3879 031c 06       		.byte	0x6
 3880 031d 23       		.byte	0x23
 3881 031e 08       		.uleb128 0x8
 3882 031f 00       		.byte	0
 3883 0320 0F       		.uleb128 0xf
 3884 0321 C0000000 		.4byte	.LVL44
 3885 0325 A9000000 		.4byte	0xa9
 3886 0329 38030000 		.4byte	0x338
 3887 032d 10       		.uleb128 0x10
 3888 032e 01       		.uleb128 0x1
ARM GAS  C:\Users\bogur\AppData\Local\Temp\cc4rWh5U.s 			page 74


 3889 032f 50       		.byte	0x50
 3890 0330 06       		.uleb128 0x6
 3891 0331 91       		.byte	0x91
 3892 0332 C47E     		.sleb128 -188
 3893 0334 06       		.byte	0x6
 3894 0335 23       		.byte	0x23
 3895 0336 0C       		.uleb128 0xc
 3896 0337 00       		.byte	0
 3897 0338 0F       		.uleb128 0xf
 3898 0339 CC000000 		.4byte	.LVL47
 3899 033d A9000000 		.4byte	0xa9
 3900 0341 50030000 		.4byte	0x350
 3901 0345 10       		.uleb128 0x10
 3902 0346 01       		.uleb128 0x1
 3903 0347 50       		.byte	0x50
 3904 0348 06       		.uleb128 0x6
 3905 0349 91       		.byte	0x91
 3906 034a C47E     		.sleb128 -188
 3907 034c 06       		.byte	0x6
 3908 034d 23       		.byte	0x23
 3909 034e 10       		.uleb128 0x10
 3910 034f 00       		.byte	0
 3911 0350 0F       		.uleb128 0xf
 3912 0351 D8000000 		.4byte	.LVL50
 3913 0355 A9000000 		.4byte	0xa9
 3914 0359 68030000 		.4byte	0x368
 3915 035d 10       		.uleb128 0x10
 3916 035e 01       		.uleb128 0x1
 3917 035f 50       		.byte	0x50
 3918 0360 06       		.uleb128 0x6
 3919 0361 91       		.byte	0x91
 3920 0362 C47E     		.sleb128 -188
 3921 0364 06       		.byte	0x6
 3922 0365 23       		.byte	0x23
 3923 0366 14       		.uleb128 0x14
 3924 0367 00       		.byte	0
 3925 0368 0F       		.uleb128 0xf
 3926 0369 E4000000 		.4byte	.LVL53
 3927 036d A9000000 		.4byte	0xa9
 3928 0371 80030000 		.4byte	0x380
 3929 0375 10       		.uleb128 0x10
 3930 0376 01       		.uleb128 0x1
 3931 0377 50       		.byte	0x50
 3932 0378 06       		.uleb128 0x6
 3933 0379 91       		.byte	0x91
 3934 037a C47E     		.sleb128 -188
 3935 037c 06       		.byte	0x6
 3936 037d 23       		.byte	0x23
 3937 037e 18       		.uleb128 0x18
 3938 037f 00       		.byte	0
 3939 0380 0F       		.uleb128 0xf
 3940 0381 F0000000 		.4byte	.LVL56
 3941 0385 A9000000 		.4byte	0xa9
 3942 0389 98030000 		.4byte	0x398
 3943 038d 10       		.uleb128 0x10
 3944 038e 01       		.uleb128 0x1
 3945 038f 50       		.byte	0x50
ARM GAS  C:\Users\bogur\AppData\Local\Temp\cc4rWh5U.s 			page 75


 3946 0390 06       		.uleb128 0x6
 3947 0391 91       		.byte	0x91
 3948 0392 C47E     		.sleb128 -188
 3949 0394 06       		.byte	0x6
 3950 0395 23       		.byte	0x23
 3951 0396 1C       		.uleb128 0x1c
 3952 0397 00       		.byte	0
 3953 0398 0F       		.uleb128 0xf
 3954 0399 FC000000 		.4byte	.LVL59
 3955 039d A9000000 		.4byte	0xa9
 3956 03a1 B0030000 		.4byte	0x3b0
 3957 03a5 10       		.uleb128 0x10
 3958 03a6 01       		.uleb128 0x1
 3959 03a7 50       		.byte	0x50
 3960 03a8 06       		.uleb128 0x6
 3961 03a9 91       		.byte	0x91
 3962 03aa C47E     		.sleb128 -188
 3963 03ac 06       		.byte	0x6
 3964 03ad 23       		.byte	0x23
 3965 03ae 20       		.uleb128 0x20
 3966 03af 00       		.byte	0
 3967 03b0 0F       		.uleb128 0xf
 3968 03b1 08010000 		.4byte	.LVL62
 3969 03b5 A9000000 		.4byte	0xa9
 3970 03b9 C8030000 		.4byte	0x3c8
 3971 03bd 10       		.uleb128 0x10
 3972 03be 01       		.uleb128 0x1
 3973 03bf 50       		.byte	0x50
 3974 03c0 06       		.uleb128 0x6
 3975 03c1 91       		.byte	0x91
 3976 03c2 C47E     		.sleb128 -188
 3977 03c4 06       		.byte	0x6
 3978 03c5 23       		.byte	0x23
 3979 03c6 24       		.uleb128 0x24
 3980 03c7 00       		.byte	0
 3981 03c8 0F       		.uleb128 0xf
 3982 03c9 14010000 		.4byte	.LVL65
 3983 03cd A9000000 		.4byte	0xa9
 3984 03d1 E0030000 		.4byte	0x3e0
 3985 03d5 10       		.uleb128 0x10
 3986 03d6 01       		.uleb128 0x1
 3987 03d7 50       		.byte	0x50
 3988 03d8 06       		.uleb128 0x6
 3989 03d9 91       		.byte	0x91
 3990 03da C47E     		.sleb128 -188
 3991 03dc 06       		.byte	0x6
 3992 03dd 23       		.byte	0x23
 3993 03de 28       		.uleb128 0x28
 3994 03df 00       		.byte	0
 3995 03e0 0F       		.uleb128 0xf
 3996 03e1 20010000 		.4byte	.LVL68
 3997 03e5 A9000000 		.4byte	0xa9
 3998 03e9 F8030000 		.4byte	0x3f8
 3999 03ed 10       		.uleb128 0x10
 4000 03ee 01       		.uleb128 0x1
 4001 03ef 50       		.byte	0x50
 4002 03f0 06       		.uleb128 0x6
ARM GAS  C:\Users\bogur\AppData\Local\Temp\cc4rWh5U.s 			page 76


 4003 03f1 91       		.byte	0x91
 4004 03f2 C47E     		.sleb128 -188
 4005 03f4 06       		.byte	0x6
 4006 03f5 23       		.byte	0x23
 4007 03f6 2C       		.uleb128 0x2c
 4008 03f7 00       		.byte	0
 4009 03f8 0F       		.uleb128 0xf
 4010 03f9 2C010000 		.4byte	.LVL71
 4011 03fd A9000000 		.4byte	0xa9
 4012 0401 10040000 		.4byte	0x410
 4013 0405 10       		.uleb128 0x10
 4014 0406 01       		.uleb128 0x1
 4015 0407 50       		.byte	0x50
 4016 0408 06       		.uleb128 0x6
 4017 0409 91       		.byte	0x91
 4018 040a C47E     		.sleb128 -188
 4019 040c 06       		.byte	0x6
 4020 040d 23       		.byte	0x23
 4021 040e 30       		.uleb128 0x30
 4022 040f 00       		.byte	0
 4023 0410 0F       		.uleb128 0xf
 4024 0411 38010000 		.4byte	.LVL74
 4025 0415 A9000000 		.4byte	0xa9
 4026 0419 28040000 		.4byte	0x428
 4027 041d 10       		.uleb128 0x10
 4028 041e 01       		.uleb128 0x1
 4029 041f 50       		.byte	0x50
 4030 0420 06       		.uleb128 0x6
 4031 0421 91       		.byte	0x91
 4032 0422 C47E     		.sleb128 -188
 4033 0424 06       		.byte	0x6
 4034 0425 23       		.byte	0x23
 4035 0426 34       		.uleb128 0x34
 4036 0427 00       		.byte	0
 4037 0428 0F       		.uleb128 0xf
 4038 0429 44010000 		.4byte	.LVL77
 4039 042d A9000000 		.4byte	0xa9
 4040 0431 40040000 		.4byte	0x440
 4041 0435 10       		.uleb128 0x10
 4042 0436 01       		.uleb128 0x1
 4043 0437 50       		.byte	0x50
 4044 0438 06       		.uleb128 0x6
 4045 0439 91       		.byte	0x91
 4046 043a C47E     		.sleb128 -188
 4047 043c 06       		.byte	0x6
 4048 043d 23       		.byte	0x23
 4049 043e 38       		.uleb128 0x38
 4050 043f 00       		.byte	0
 4051 0440 11       		.uleb128 0x11
 4052 0441 50010000 		.4byte	.LVL80
 4053 0445 A9000000 		.4byte	0xa9
 4054 0449 10       		.uleb128 0x10
 4055 044a 01       		.uleb128 0x1
 4056 044b 50       		.byte	0x50
 4057 044c 06       		.uleb128 0x6
 4058 044d 91       		.byte	0x91
 4059 044e C47E     		.sleb128 -188
ARM GAS  C:\Users\bogur\AppData\Local\Temp\cc4rWh5U.s 			page 77


 4060 0450 06       		.byte	0x6
 4061 0451 23       		.byte	0x23
 4062 0452 3C       		.uleb128 0x3c
 4063 0453 00       		.byte	0
 4064 0454 00       		.byte	0
 4065 0455 0F       		.uleb128 0xf
 4066 0456 12000000 		.4byte	.LVL7
 4067 045a A9000000 		.4byte	0xa9
 4068 045e 69040000 		.4byte	0x469
 4069 0462 10       		.uleb128 0x10
 4070 0463 01       		.uleb128 0x1
 4071 0464 50       		.byte	0x50
 4072 0465 02       		.uleb128 0x2
 4073 0466 74       		.byte	0x74
 4074 0467 00       		.sleb128 0
 4075 0468 00       		.byte	0
 4076 0469 0F       		.uleb128 0xf
 4077 046a 22000000 		.4byte	.LVL10
 4078 046e A9000000 		.4byte	0xa9
 4079 0472 7F040000 		.4byte	0x47f
 4080 0476 10       		.uleb128 0x10
 4081 0477 01       		.uleb128 0x1
 4082 0478 50       		.byte	0x50
 4083 0479 04       		.uleb128 0x4
 4084 047a 91       		.byte	0x91
 4085 047b 987F     		.sleb128 -104
 4086 047d 06       		.byte	0x6
 4087 047e 00       		.byte	0
 4088 047f 0F       		.uleb128 0xf
 4089 0480 32000000 		.4byte	.LVL13
 4090 0484 A9000000 		.4byte	0xa9
 4091 0488 95040000 		.4byte	0x495
 4092 048c 10       		.uleb128 0x10
 4093 048d 01       		.uleb128 0x1
 4094 048e 50       		.byte	0x50
 4095 048f 04       		.uleb128 0x4
 4096 0490 91       		.byte	0x91
 4097 0491 9C7F     		.sleb128 -100
 4098 0493 06       		.byte	0x6
 4099 0494 00       		.byte	0
 4100 0495 0F       		.uleb128 0xf
 4101 0496 42000000 		.4byte	.LVL15
 4102 049a A9000000 		.4byte	0xa9
 4103 049e AB040000 		.4byte	0x4ab
 4104 04a2 10       		.uleb128 0x10
 4105 04a3 01       		.uleb128 0x1
 4106 04a4 50       		.byte	0x50
 4107 04a5 04       		.uleb128 0x4
 4108 04a6 91       		.byte	0x91
 4109 04a7 A07F     		.sleb128 -96
 4110 04a9 06       		.byte	0x6
 4111 04aa 00       		.byte	0
 4112 04ab 0F       		.uleb128 0xf
 4113 04ac 52000000 		.4byte	.LVL18
 4114 04b0 A9000000 		.4byte	0xa9
 4115 04b4 C1040000 		.4byte	0x4c1
 4116 04b8 10       		.uleb128 0x10
ARM GAS  C:\Users\bogur\AppData\Local\Temp\cc4rWh5U.s 			page 78


 4117 04b9 01       		.uleb128 0x1
 4118 04ba 50       		.byte	0x50
 4119 04bb 04       		.uleb128 0x4
 4120 04bc 91       		.byte	0x91
 4121 04bd A47F     		.sleb128 -92
 4122 04bf 06       		.byte	0x6
 4123 04c0 00       		.byte	0
 4124 04c1 0F       		.uleb128 0xf
 4125 04c2 62000000 		.4byte	.LVL21
 4126 04c6 A9000000 		.4byte	0xa9
 4127 04ca D7040000 		.4byte	0x4d7
 4128 04ce 10       		.uleb128 0x10
 4129 04cf 01       		.uleb128 0x1
 4130 04d0 50       		.byte	0x50
 4131 04d1 04       		.uleb128 0x4
 4132 04d2 91       		.byte	0x91
 4133 04d3 A87F     		.sleb128 -88
 4134 04d5 06       		.byte	0x6
 4135 04d6 00       		.byte	0
 4136 04d7 0F       		.uleb128 0xf
 4137 04d8 72000000 		.4byte	.LVL24
 4138 04dc A9000000 		.4byte	0xa9
 4139 04e0 ED040000 		.4byte	0x4ed
 4140 04e4 10       		.uleb128 0x10
 4141 04e5 01       		.uleb128 0x1
 4142 04e6 50       		.byte	0x50
 4143 04e7 04       		.uleb128 0x4
 4144 04e8 91       		.byte	0x91
 4145 04e9 AC7F     		.sleb128 -84
 4146 04eb 06       		.byte	0x6
 4147 04ec 00       		.byte	0
 4148 04ed 0F       		.uleb128 0xf
 4149 04ee 82000000 		.4byte	.LVL27
 4150 04f2 A9000000 		.4byte	0xa9
 4151 04f6 03050000 		.4byte	0x503
 4152 04fa 10       		.uleb128 0x10
 4153 04fb 01       		.uleb128 0x1
 4154 04fc 50       		.byte	0x50
 4155 04fd 04       		.uleb128 0x4
 4156 04fe 91       		.byte	0x91
 4157 04ff B07F     		.sleb128 -80
 4158 0501 06       		.byte	0x6
 4159 0502 00       		.byte	0
 4160 0503 0F       		.uleb128 0xf
 4161 0504 FE1B0000 		.4byte	.LVL651
 4162 0508 DB000000 		.4byte	0xdb
 4163 050c 21050000 		.4byte	0x521
 4164 0510 10       		.uleb128 0x10
 4165 0511 01       		.uleb128 0x1
 4166 0512 50       		.byte	0x50
 4167 0513 04       		.uleb128 0x4
 4168 0514 91       		.byte	0x91
 4169 0515 B47F     		.sleb128 -76
 4170 0517 06       		.byte	0x6
 4171 0518 10       		.uleb128 0x10
 4172 0519 01       		.uleb128 0x1
 4173 051a 51       		.byte	0x51
ARM GAS  C:\Users\bogur\AppData\Local\Temp\cc4rWh5U.s 			page 79


 4174 051b 04       		.uleb128 0x4
 4175 051c 91       		.byte	0x91
 4176 051d B87F     		.sleb128 -72
 4177 051f 06       		.byte	0x6
 4178 0520 00       		.byte	0
 4179 0521 0F       		.uleb128 0xf
 4180 0522 061C0000 		.4byte	.LVL652
 4181 0526 DB000000 		.4byte	0xdb
 4182 052a 3F050000 		.4byte	0x53f
 4183 052e 10       		.uleb128 0x10
 4184 052f 01       		.uleb128 0x1
 4185 0530 50       		.byte	0x50
 4186 0531 04       		.uleb128 0x4
 4187 0532 91       		.byte	0x91
 4188 0533 987F     		.sleb128 -104
 4189 0535 06       		.byte	0x6
 4190 0536 10       		.uleb128 0x10
 4191 0537 01       		.uleb128 0x1
 4192 0538 51       		.byte	0x51
 4193 0539 04       		.uleb128 0x4
 4194 053a 91       		.byte	0x91
 4195 053b BC7F     		.sleb128 -68
 4196 053d 06       		.byte	0x6
 4197 053e 00       		.byte	0
 4198 053f 0F       		.uleb128 0xf
 4199 0540 0E1C0000 		.4byte	.LVL653
 4200 0544 DB000000 		.4byte	0xdb
 4201 0548 5C050000 		.4byte	0x55c
 4202 054c 10       		.uleb128 0x10
 4203 054d 01       		.uleb128 0x1
 4204 054e 50       		.byte	0x50
 4205 054f 04       		.uleb128 0x4
 4206 0550 91       		.byte	0x91
 4207 0551 9C7F     		.sleb128 -100
 4208 0553 06       		.byte	0x6
 4209 0554 10       		.uleb128 0x10
 4210 0555 01       		.uleb128 0x1
 4211 0556 51       		.byte	0x51
 4212 0557 03       		.uleb128 0x3
 4213 0558 91       		.byte	0x91
 4214 0559 40       		.sleb128 -64
 4215 055a 06       		.byte	0x6
 4216 055b 00       		.byte	0
 4217 055c 0F       		.uleb128 0xf
 4218 055d 161C0000 		.4byte	.LVL654
 4219 0561 DB000000 		.4byte	0xdb
 4220 0565 79050000 		.4byte	0x579
 4221 0569 10       		.uleb128 0x10
 4222 056a 01       		.uleb128 0x1
 4223 056b 50       		.byte	0x50
 4224 056c 04       		.uleb128 0x4
 4225 056d 91       		.byte	0x91
 4226 056e A07F     		.sleb128 -96
 4227 0570 06       		.byte	0x6
 4228 0571 10       		.uleb128 0x10
 4229 0572 01       		.uleb128 0x1
 4230 0573 51       		.byte	0x51
ARM GAS  C:\Users\bogur\AppData\Local\Temp\cc4rWh5U.s 			page 80


 4231 0574 03       		.uleb128 0x3
 4232 0575 91       		.byte	0x91
 4233 0576 44       		.sleb128 -60
 4234 0577 06       		.byte	0x6
 4235 0578 00       		.byte	0
 4236 0579 0F       		.uleb128 0xf
 4237 057a 1E1C0000 		.4byte	.LVL655
 4238 057e DB000000 		.4byte	0xdb
 4239 0582 96050000 		.4byte	0x596
 4240 0586 10       		.uleb128 0x10
 4241 0587 01       		.uleb128 0x1
 4242 0588 50       		.byte	0x50
 4243 0589 04       		.uleb128 0x4
 4244 058a 91       		.byte	0x91
 4245 058b A47F     		.sleb128 -92
 4246 058d 06       		.byte	0x6
 4247 058e 10       		.uleb128 0x10
 4248 058f 01       		.uleb128 0x1
 4249 0590 51       		.byte	0x51
 4250 0591 03       		.uleb128 0x3
 4251 0592 91       		.byte	0x91
 4252 0593 48       		.sleb128 -56
 4253 0594 06       		.byte	0x6
 4254 0595 00       		.byte	0
 4255 0596 0F       		.uleb128 0xf
 4256 0597 261C0000 		.4byte	.LVL656
 4257 059b DB000000 		.4byte	0xdb
 4258 059f B3050000 		.4byte	0x5b3
 4259 05a3 10       		.uleb128 0x10
 4260 05a4 01       		.uleb128 0x1
 4261 05a5 50       		.byte	0x50
 4262 05a6 04       		.uleb128 0x4
 4263 05a7 91       		.byte	0x91
 4264 05a8 A87F     		.sleb128 -88
 4265 05aa 06       		.byte	0x6
 4266 05ab 10       		.uleb128 0x10
 4267 05ac 01       		.uleb128 0x1
 4268 05ad 51       		.byte	0x51
 4269 05ae 03       		.uleb128 0x3
 4270 05af 91       		.byte	0x91
 4271 05b0 4C       		.sleb128 -52
 4272 05b1 06       		.byte	0x6
 4273 05b2 00       		.byte	0
 4274 05b3 0F       		.uleb128 0xf
 4275 05b4 2E1C0000 		.4byte	.LVL657
 4276 05b8 DB000000 		.4byte	0xdb
 4277 05bc D0050000 		.4byte	0x5d0
 4278 05c0 10       		.uleb128 0x10
 4279 05c1 01       		.uleb128 0x1
 4280 05c2 50       		.byte	0x50
 4281 05c3 04       		.uleb128 0x4
 4282 05c4 91       		.byte	0x91
 4283 05c5 AC7F     		.sleb128 -84
 4284 05c7 06       		.byte	0x6
 4285 05c8 10       		.uleb128 0x10
 4286 05c9 01       		.uleb128 0x1
 4287 05ca 51       		.byte	0x51
ARM GAS  C:\Users\bogur\AppData\Local\Temp\cc4rWh5U.s 			page 81


 4288 05cb 03       		.uleb128 0x3
 4289 05cc 91       		.byte	0x91
 4290 05cd 50       		.sleb128 -48
 4291 05ce 06       		.byte	0x6
 4292 05cf 00       		.byte	0
 4293 05d0 11       		.uleb128 0x11
 4294 05d1 361C0000 		.4byte	.LVL658
 4295 05d5 DB000000 		.4byte	0xdb
 4296 05d9 10       		.uleb128 0x10
 4297 05da 01       		.uleb128 0x1
 4298 05db 50       		.byte	0x50
 4299 05dc 04       		.uleb128 0x4
 4300 05dd 91       		.byte	0x91
 4301 05de B07F     		.sleb128 -80
 4302 05e0 06       		.byte	0x6
 4303 05e1 10       		.uleb128 0x10
 4304 05e2 01       		.uleb128 0x1
 4305 05e3 51       		.byte	0x51
 4306 05e4 03       		.uleb128 0x3
 4307 05e5 91       		.byte	0x91
 4308 05e6 54       		.sleb128 -44
 4309 05e7 06       		.byte	0x6
 4310 05e8 00       		.byte	0
 4311 05e9 00       		.byte	0
 4312 05ea 12       		.uleb128 0x12
 4313 05eb 9E000000 		.4byte	0x9e
 4314 05ef FA050000 		.4byte	0x5fa
 4315 05f3 13       		.uleb128 0x13
 4316 05f4 FA050000 		.4byte	0x5fa
 4317 05f8 07       		.byte	0x7
 4318 05f9 00       		.byte	0
 4319 05fa 04       		.uleb128 0x4
 4320 05fb 04       		.byte	0x4
 4321 05fc 07       		.byte	0x7
 4322 05fd 17000000 		.4byte	.LASF20
 4323 0601 14       		.uleb128 0x14
 4324 0602 21020000 		.4byte	.LASF27
 4325 0606 01       		.byte	0x1
 4326 0607 E5       		.byte	0xe5
 4327 0608 00000000 		.4byte	.LFB3
 4328 060c 04010000 		.4byte	.LFE3-.LFB3
 4329 0610 01       		.uleb128 0x1
 4330 0611 9C       		.byte	0x9c
 4331 0612 D6060000 		.4byte	0x6d6
 4332 0616 06       		.uleb128 0x6
 4333 0617 6F757400 		.ascii	"out\000"
 4334 061b 01       		.byte	0x1
 4335 061c E5       		.byte	0xe5
 4336 061d 09010000 		.4byte	0x109
 4337 0621 6E440000 		.4byte	.LLST31
 4338 0625 06       		.uleb128 0x6
 4339 0626 696E00   		.ascii	"in\000"
 4340 0629 01       		.byte	0x1
 4341 062a E5       		.byte	0xe5
 4342 062b D0000000 		.4byte	0xd0
 4343 062f 9A440000 		.4byte	.LLST32
 4344 0633 0B       		.uleb128 0xb
ARM GAS  C:\Users\bogur\AppData\Local\Temp\cc4rWh5U.s 			page 82


 4345 0634 FF000000 		.4byte	.LASF18
 4346 0638 01       		.byte	0x1
 4347 0639 E5       		.byte	0xe5
 4348 063a 2C000000 		.4byte	0x2c
 4349 063e DD440000 		.4byte	.LLST33
 4350 0642 15       		.uleb128 0x15
 4351 0643 6800     		.ascii	"h\000"
 4352 0645 01       		.byte	0x1
 4353 0646 E7       		.byte	0xe7
 4354 0647 D6060000 		.4byte	0x6d6
 4355 064b 02       		.uleb128 0x2
 4356 064c 91       		.byte	0x91
 4357 064d 48       		.sleb128 -56
 4358 064e 0C       		.uleb128 0xc
 4359 064f 11020000 		.4byte	.LASF21
 4360 0653 01       		.byte	0x1
 4361 0654 E8       		.byte	0xe8
 4362 0655 E6060000 		.4byte	0x6e6
 4363 0659 03       		.uleb128 0x3
 4364 065a 91       		.byte	0x91
 4365 065b C87E     		.sleb128 -184
 4366 065d 0D       		.uleb128 0xd
 4367 065e 6900     		.ascii	"i\000"
 4368 0660 01       		.byte	0x1
 4369 0661 E9       		.byte	0xe9
 4370 0662 37000000 		.4byte	0x37
 4371 0666 33450000 		.4byte	.LLST34
 4372 066a 16       		.uleb128 0x16
 4373 066b 13010000 		.4byte	.LASF22
 4374 066f 01       		.byte	0x1
 4375 0670 EA       		.byte	0xea
 4376 0671 2C000000 		.4byte	0x2c
 4377 0675 8A450000 		.4byte	.LLST35
 4378 0679 0F       		.uleb128 0xf
 4379 067a 2C000000 		.4byte	.LVL664
 4380 067e 0F010000 		.4byte	0x10f
 4381 0682 99060000 		.4byte	0x699
 4382 0686 10       		.uleb128 0x10
 4383 0687 01       		.uleb128 0x1
 4384 0688 50       		.byte	0x50
 4385 0689 02       		.uleb128 0x2
 4386 068a 91       		.byte	0x91
 4387 068b 48       		.sleb128 -56
 4388 068c 10       		.uleb128 0x10
 4389 068d 01       		.uleb128 0x1
 4390 068e 51       		.byte	0x51
 4391 068f 02       		.uleb128 0x2
 4392 0690 76       		.byte	0x76
 4393 0691 00       		.sleb128 0
 4394 0692 10       		.uleb128 0x10
 4395 0693 01       		.uleb128 0x1
 4396 0694 52       		.byte	0x52
 4397 0695 02       		.uleb128 0x2
 4398 0696 77       		.byte	0x77
 4399 0697 00       		.sleb128 0
 4400 0698 00       		.byte	0
 4401 0699 0F       		.uleb128 0xf
ARM GAS  C:\Users\bogur\AppData\Local\Temp\cc4rWh5U.s 			page 83


 4402 069a 9C000000 		.4byte	.LVL674
 4403 069e 0F010000 		.4byte	0x10f
 4404 06a2 B9060000 		.4byte	0x6b9
 4405 06a6 10       		.uleb128 0x10
 4406 06a7 01       		.uleb128 0x1
 4407 06a8 50       		.byte	0x50
 4408 06a9 02       		.uleb128 0x2
 4409 06aa 91       		.byte	0x91
 4410 06ab 48       		.sleb128 -56
 4411 06ac 10       		.uleb128 0x10
 4412 06ad 01       		.uleb128 0x1
 4413 06ae 51       		.byte	0x51
 4414 06af 02       		.uleb128 0x2
 4415 06b0 7D       		.byte	0x7d
 4416 06b1 00       		.sleb128 0
 4417 06b2 10       		.uleb128 0x10
 4418 06b3 01       		.uleb128 0x1
 4419 06b4 52       		.byte	0x52
 4420 06b5 02       		.uleb128 0x2
 4421 06b6 08       		.byte	0x8
 4422 06b7 40       		.byte	0x40
 4423 06b8 00       		.byte	0
 4424 06b9 11       		.uleb128 0x11
 4425 06ba E8000000 		.4byte	.LVL680
 4426 06be 0F010000 		.4byte	0x10f
 4427 06c2 10       		.uleb128 0x10
 4428 06c3 01       		.uleb128 0x1
 4429 06c4 50       		.byte	0x50
 4430 06c5 02       		.uleb128 0x2
 4431 06c6 91       		.byte	0x91
 4432 06c7 48       		.sleb128 -56
 4433 06c8 10       		.uleb128 0x10
 4434 06c9 01       		.uleb128 0x1
 4435 06ca 51       		.byte	0x51
 4436 06cb 02       		.uleb128 0x2
 4437 06cc 7D       		.byte	0x7d
 4438 06cd 00       		.sleb128 0
 4439 06ce 10       		.uleb128 0x10
 4440 06cf 01       		.uleb128 0x1
 4441 06d0 52       		.byte	0x52
 4442 06d1 02       		.uleb128 0x2
 4443 06d2 08       		.byte	0x8
 4444 06d3 80       		.byte	0x80
 4445 06d4 00       		.byte	0
 4446 06d5 00       		.byte	0
 4447 06d6 12       		.uleb128 0x12
 4448 06d7 93000000 		.4byte	0x93
 4449 06db E6060000 		.4byte	0x6e6
 4450 06df 13       		.uleb128 0x13
 4451 06e0 FA050000 		.4byte	0x5fa
 4452 06e4 1F       		.byte	0x1f
 4453 06e5 00       		.byte	0
 4454 06e6 12       		.uleb128 0x12
 4455 06e7 93000000 		.4byte	0x93
 4456 06eb F6060000 		.4byte	0x6f6
 4457 06ef 13       		.uleb128 0x13
 4458 06f0 FA050000 		.4byte	0x5fa
ARM GAS  C:\Users\bogur\AppData\Local\Temp\cc4rWh5U.s 			page 84


 4459 06f4 7F       		.byte	0x7f
 4460 06f5 00       		.byte	0
 4461 06f6 12       		.uleb128 0x12
 4462 06f7 D6000000 		.4byte	0xd6
 4463 06fb 06070000 		.4byte	0x706
 4464 06ff 13       		.uleb128 0x13
 4465 0700 FA050000 		.4byte	0x5fa
 4466 0704 1F       		.byte	0x1f
 4467 0705 00       		.byte	0
 4468 0706 15       		.uleb128 0x15
 4469 0707 697600   		.ascii	"iv\000"
 4470 070a 01       		.byte	0x1
 4471 070b DA       		.byte	0xda
 4472 070c 16070000 		.4byte	0x716
 4473 0710 05       		.uleb128 0x5
 4474 0711 03       		.byte	0x3
 4475 0712 00000000 		.4byte	iv
 4476 0716 08       		.uleb128 0x8
 4477 0717 F6060000 		.4byte	0x6f6
 4478 071b 00       		.byte	0
 4479              		.section	.debug_abbrev,"",%progbits
 4480              	.Ldebug_abbrev0:
 4481 0000 01       		.uleb128 0x1
 4482 0001 11       		.uleb128 0x11
 4483 0002 01       		.byte	0x1
 4484 0003 25       		.uleb128 0x25
 4485 0004 0E       		.uleb128 0xe
 4486 0005 13       		.uleb128 0x13
 4487 0006 0B       		.uleb128 0xb
 4488 0007 03       		.uleb128 0x3
 4489 0008 0E       		.uleb128 0xe
 4490 0009 1B       		.uleb128 0x1b
 4491 000a 0E       		.uleb128 0xe
 4492 000b 55       		.uleb128 0x55
 4493 000c 17       		.uleb128 0x17
 4494 000d 11       		.uleb128 0x11
 4495 000e 01       		.uleb128 0x1
 4496 000f 10       		.uleb128 0x10
 4497 0010 17       		.uleb128 0x17
 4498 0011 00       		.byte	0
 4499 0012 00       		.byte	0
 4500 0013 02       		.uleb128 0x2
 4501 0014 24       		.uleb128 0x24
 4502 0015 00       		.byte	0
 4503 0016 0B       		.uleb128 0xb
 4504 0017 0B       		.uleb128 0xb
 4505 0018 3E       		.uleb128 0x3e
 4506 0019 0B       		.uleb128 0xb
 4507 001a 03       		.uleb128 0x3
 4508 001b 08       		.uleb128 0x8
 4509 001c 00       		.byte	0
 4510 001d 00       		.byte	0
 4511 001e 03       		.uleb128 0x3
 4512 001f 16       		.uleb128 0x16
 4513 0020 00       		.byte	0
 4514 0021 03       		.uleb128 0x3
 4515 0022 0E       		.uleb128 0xe
ARM GAS  C:\Users\bogur\AppData\Local\Temp\cc4rWh5U.s 			page 85


 4516 0023 3A       		.uleb128 0x3a
 4517 0024 0B       		.uleb128 0xb
 4518 0025 3B       		.uleb128 0x3b
 4519 0026 0B       		.uleb128 0xb
 4520 0027 49       		.uleb128 0x49
 4521 0028 13       		.uleb128 0x13
 4522 0029 00       		.byte	0
 4523 002a 00       		.byte	0
 4524 002b 04       		.uleb128 0x4
 4525 002c 24       		.uleb128 0x24
 4526 002d 00       		.byte	0
 4527 002e 0B       		.uleb128 0xb
 4528 002f 0B       		.uleb128 0xb
 4529 0030 3E       		.uleb128 0x3e
 4530 0031 0B       		.uleb128 0xb
 4531 0032 03       		.uleb128 0x3
 4532 0033 0E       		.uleb128 0xe
 4533 0034 00       		.byte	0
 4534 0035 00       		.byte	0
 4535 0036 05       		.uleb128 0x5
 4536 0037 2E       		.uleb128 0x2e
 4537 0038 01       		.byte	0x1
 4538 0039 03       		.uleb128 0x3
 4539 003a 0E       		.uleb128 0xe
 4540 003b 3A       		.uleb128 0x3a
 4541 003c 0B       		.uleb128 0xb
 4542 003d 3B       		.uleb128 0x3b
 4543 003e 0B       		.uleb128 0xb
 4544 003f 27       		.uleb128 0x27
 4545 0040 19       		.uleb128 0x19
 4546 0041 49       		.uleb128 0x49
 4547 0042 13       		.uleb128 0x13
 4548 0043 11       		.uleb128 0x11
 4549 0044 01       		.uleb128 0x1
 4550 0045 12       		.uleb128 0x12
 4551 0046 06       		.uleb128 0x6
 4552 0047 40       		.uleb128 0x40
 4553 0048 18       		.uleb128 0x18
 4554 0049 9742     		.uleb128 0x2117
 4555 004b 19       		.uleb128 0x19
 4556 004c 01       		.uleb128 0x1
 4557 004d 13       		.uleb128 0x13
 4558 004e 00       		.byte	0
 4559 004f 00       		.byte	0
 4560 0050 06       		.uleb128 0x6
 4561 0051 05       		.uleb128 0x5
 4562 0052 00       		.byte	0
 4563 0053 03       		.uleb128 0x3
 4564 0054 08       		.uleb128 0x8
 4565 0055 3A       		.uleb128 0x3a
 4566 0056 0B       		.uleb128 0xb
 4567 0057 3B       		.uleb128 0x3b
 4568 0058 0B       		.uleb128 0xb
 4569 0059 49       		.uleb128 0x49
 4570 005a 13       		.uleb128 0x13
 4571 005b 02       		.uleb128 0x2
 4572 005c 17       		.uleb128 0x17
ARM GAS  C:\Users\bogur\AppData\Local\Temp\cc4rWh5U.s 			page 86


 4573 005d 00       		.byte	0
 4574 005e 00       		.byte	0
 4575 005f 07       		.uleb128 0x7
 4576 0060 0F       		.uleb128 0xf
 4577 0061 00       		.byte	0
 4578 0062 0B       		.uleb128 0xb
 4579 0063 0B       		.uleb128 0xb
 4580 0064 49       		.uleb128 0x49
 4581 0065 13       		.uleb128 0x13
 4582 0066 00       		.byte	0
 4583 0067 00       		.byte	0
 4584 0068 08       		.uleb128 0x8
 4585 0069 26       		.uleb128 0x26
 4586 006a 00       		.byte	0
 4587 006b 49       		.uleb128 0x49
 4588 006c 13       		.uleb128 0x13
 4589 006d 00       		.byte	0
 4590 006e 00       		.byte	0
 4591 006f 09       		.uleb128 0x9
 4592 0070 2E       		.uleb128 0x2e
 4593 0071 01       		.byte	0x1
 4594 0072 03       		.uleb128 0x3
 4595 0073 0E       		.uleb128 0xe
 4596 0074 3A       		.uleb128 0x3a
 4597 0075 0B       		.uleb128 0xb
 4598 0076 3B       		.uleb128 0x3b
 4599 0077 0B       		.uleb128 0xb
 4600 0078 27       		.uleb128 0x27
 4601 0079 19       		.uleb128 0x19
 4602 007a 11       		.uleb128 0x11
 4603 007b 01       		.uleb128 0x1
 4604 007c 12       		.uleb128 0x12
 4605 007d 06       		.uleb128 0x6
 4606 007e 40       		.uleb128 0x40
 4607 007f 18       		.uleb128 0x18
 4608 0080 9742     		.uleb128 0x2117
 4609 0082 19       		.uleb128 0x19
 4610 0083 01       		.uleb128 0x1
 4611 0084 13       		.uleb128 0x13
 4612 0085 00       		.byte	0
 4613 0086 00       		.byte	0
 4614 0087 0A       		.uleb128 0xa
 4615 0088 05       		.uleb128 0x5
 4616 0089 00       		.byte	0
 4617 008a 03       		.uleb128 0x3
 4618 008b 08       		.uleb128 0x8
 4619 008c 3A       		.uleb128 0x3a
 4620 008d 0B       		.uleb128 0xb
 4621 008e 3B       		.uleb128 0x3b
 4622 008f 0B       		.uleb128 0xb
 4623 0090 49       		.uleb128 0x49
 4624 0091 13       		.uleb128 0x13
 4625 0092 02       		.uleb128 0x2
 4626 0093 18       		.uleb128 0x18
 4627 0094 00       		.byte	0
 4628 0095 00       		.byte	0
 4629 0096 0B       		.uleb128 0xb
ARM GAS  C:\Users\bogur\AppData\Local\Temp\cc4rWh5U.s 			page 87


 4630 0097 05       		.uleb128 0x5
 4631 0098 00       		.byte	0
 4632 0099 03       		.uleb128 0x3
 4633 009a 0E       		.uleb128 0xe
 4634 009b 3A       		.uleb128 0x3a
 4635 009c 0B       		.uleb128 0xb
 4636 009d 3B       		.uleb128 0x3b
 4637 009e 0B       		.uleb128 0xb
 4638 009f 49       		.uleb128 0x49
 4639 00a0 13       		.uleb128 0x13
 4640 00a1 02       		.uleb128 0x2
 4641 00a2 17       		.uleb128 0x17
 4642 00a3 00       		.byte	0
 4643 00a4 00       		.byte	0
 4644 00a5 0C       		.uleb128 0xc
 4645 00a6 34       		.uleb128 0x34
 4646 00a7 00       		.byte	0
 4647 00a8 03       		.uleb128 0x3
 4648 00a9 0E       		.uleb128 0xe
 4649 00aa 3A       		.uleb128 0x3a
 4650 00ab 0B       		.uleb128 0xb
 4651 00ac 3B       		.uleb128 0x3b
 4652 00ad 0B       		.uleb128 0xb
 4653 00ae 49       		.uleb128 0x49
 4654 00af 13       		.uleb128 0x13
 4655 00b0 02       		.uleb128 0x2
 4656 00b1 18       		.uleb128 0x18
 4657 00b2 00       		.byte	0
 4658 00b3 00       		.byte	0
 4659 00b4 0D       		.uleb128 0xd
 4660 00b5 34       		.uleb128 0x34
 4661 00b6 00       		.byte	0
 4662 00b7 03       		.uleb128 0x3
 4663 00b8 08       		.uleb128 0x8
 4664 00b9 3A       		.uleb128 0x3a
 4665 00ba 0B       		.uleb128 0xb
 4666 00bb 3B       		.uleb128 0x3b
 4667 00bc 0B       		.uleb128 0xb
 4668 00bd 49       		.uleb128 0x49
 4669 00be 13       		.uleb128 0x13
 4670 00bf 02       		.uleb128 0x2
 4671 00c0 17       		.uleb128 0x17
 4672 00c1 00       		.byte	0
 4673 00c2 00       		.byte	0
 4674 00c3 0E       		.uleb128 0xe
 4675 00c4 0B       		.uleb128 0xb
 4676 00c5 01       		.byte	0x1
 4677 00c6 11       		.uleb128 0x11
 4678 00c7 01       		.uleb128 0x1
 4679 00c8 12       		.uleb128 0x12
 4680 00c9 06       		.uleb128 0x6
 4681 00ca 01       		.uleb128 0x1
 4682 00cb 13       		.uleb128 0x13
 4683 00cc 00       		.byte	0
 4684 00cd 00       		.byte	0
 4685 00ce 0F       		.uleb128 0xf
 4686 00cf 898201   		.uleb128 0x4109
ARM GAS  C:\Users\bogur\AppData\Local\Temp\cc4rWh5U.s 			page 88


 4687 00d2 01       		.byte	0x1
 4688 00d3 11       		.uleb128 0x11
 4689 00d4 01       		.uleb128 0x1
 4690 00d5 31       		.uleb128 0x31
 4691 00d6 13       		.uleb128 0x13
 4692 00d7 01       		.uleb128 0x1
 4693 00d8 13       		.uleb128 0x13
 4694 00d9 00       		.byte	0
 4695 00da 00       		.byte	0
 4696 00db 10       		.uleb128 0x10
 4697 00dc 8A8201   		.uleb128 0x410a
 4698 00df 00       		.byte	0
 4699 00e0 02       		.uleb128 0x2
 4700 00e1 18       		.uleb128 0x18
 4701 00e2 9142     		.uleb128 0x2111
 4702 00e4 18       		.uleb128 0x18
 4703 00e5 00       		.byte	0
 4704 00e6 00       		.byte	0
 4705 00e7 11       		.uleb128 0x11
 4706 00e8 898201   		.uleb128 0x4109
 4707 00eb 01       		.byte	0x1
 4708 00ec 11       		.uleb128 0x11
 4709 00ed 01       		.uleb128 0x1
 4710 00ee 31       		.uleb128 0x31
 4711 00ef 13       		.uleb128 0x13
 4712 00f0 00       		.byte	0
 4713 00f1 00       		.byte	0
 4714 00f2 12       		.uleb128 0x12
 4715 00f3 01       		.uleb128 0x1
 4716 00f4 01       		.byte	0x1
 4717 00f5 49       		.uleb128 0x49
 4718 00f6 13       		.uleb128 0x13
 4719 00f7 01       		.uleb128 0x1
 4720 00f8 13       		.uleb128 0x13
 4721 00f9 00       		.byte	0
 4722 00fa 00       		.byte	0
 4723 00fb 13       		.uleb128 0x13
 4724 00fc 21       		.uleb128 0x21
 4725 00fd 00       		.byte	0
 4726 00fe 49       		.uleb128 0x49
 4727 00ff 13       		.uleb128 0x13
 4728 0100 2F       		.uleb128 0x2f
 4729 0101 0B       		.uleb128 0xb
 4730 0102 00       		.byte	0
 4731 0103 00       		.byte	0
 4732 0104 14       		.uleb128 0x14
 4733 0105 2E       		.uleb128 0x2e
 4734 0106 01       		.byte	0x1
 4735 0107 3F       		.uleb128 0x3f
 4736 0108 19       		.uleb128 0x19
 4737 0109 03       		.uleb128 0x3
 4738 010a 0E       		.uleb128 0xe
 4739 010b 3A       		.uleb128 0x3a
 4740 010c 0B       		.uleb128 0xb
 4741 010d 3B       		.uleb128 0x3b
 4742 010e 0B       		.uleb128 0xb
 4743 010f 27       		.uleb128 0x27
ARM GAS  C:\Users\bogur\AppData\Local\Temp\cc4rWh5U.s 			page 89


 4744 0110 19       		.uleb128 0x19
 4745 0111 11       		.uleb128 0x11
 4746 0112 01       		.uleb128 0x1
 4747 0113 12       		.uleb128 0x12
 4748 0114 06       		.uleb128 0x6
 4749 0115 40       		.uleb128 0x40
 4750 0116 18       		.uleb128 0x18
 4751 0117 9742     		.uleb128 0x2117
 4752 0119 19       		.uleb128 0x19
 4753 011a 01       		.uleb128 0x1
 4754 011b 13       		.uleb128 0x13
 4755 011c 00       		.byte	0
 4756 011d 00       		.byte	0
 4757 011e 15       		.uleb128 0x15
 4758 011f 34       		.uleb128 0x34
 4759 0120 00       		.byte	0
 4760 0121 03       		.uleb128 0x3
 4761 0122 08       		.uleb128 0x8
 4762 0123 3A       		.uleb128 0x3a
 4763 0124 0B       		.uleb128 0xb
 4764 0125 3B       		.uleb128 0x3b
 4765 0126 0B       		.uleb128 0xb
 4766 0127 49       		.uleb128 0x49
 4767 0128 13       		.uleb128 0x13
 4768 0129 02       		.uleb128 0x2
 4769 012a 18       		.uleb128 0x18
 4770 012b 00       		.byte	0
 4771 012c 00       		.byte	0
 4772 012d 16       		.uleb128 0x16
 4773 012e 34       		.uleb128 0x34
 4774 012f 00       		.byte	0
 4775 0130 03       		.uleb128 0x3
 4776 0131 0E       		.uleb128 0xe
 4777 0132 3A       		.uleb128 0x3a
 4778 0133 0B       		.uleb128 0xb
 4779 0134 3B       		.uleb128 0x3b
 4780 0135 0B       		.uleb128 0xb
 4781 0136 49       		.uleb128 0x49
 4782 0137 13       		.uleb128 0x13
 4783 0138 02       		.uleb128 0x2
 4784 0139 17       		.uleb128 0x17
 4785 013a 00       		.byte	0
 4786 013b 00       		.byte	0
 4787 013c 00       		.byte	0
 4788              		.section	.debug_loc,"",%progbits
 4789              	.Ldebug_loc0:
 4790              	.LLST0:
 4791 0000 00000000 		.4byte	.LVL0
 4792 0004 10000000 		.4byte	.LVL1
 4793 0008 0100     		.2byte	0x1
 4794 000a 50       		.byte	0x50
 4795 000b 10000000 		.4byte	.LVL1
 4796 000f 16000000 		.4byte	.LFE0
 4797 0013 0400     		.2byte	0x4
 4798 0015 F3       		.byte	0xf3
 4799 0016 01       		.uleb128 0x1
 4800 0017 50       		.byte	0x50
ARM GAS  C:\Users\bogur\AppData\Local\Temp\cc4rWh5U.s 			page 90


 4801 0018 9F       		.byte	0x9f
 4802 0019 00000000 		.4byte	0
 4803 001d 00000000 		.4byte	0
 4804              	.LLST1:
 4805 0021 00000000 		.4byte	.LVL2
 4806 0025 04000000 		.4byte	.LVL3
 4807 0029 0100     		.2byte	0x1
 4808 002b 51       		.byte	0x51
 4809 002c 04000000 		.4byte	.LVL3
 4810 0030 0C000000 		.4byte	.LVL5
 4811 0034 0100     		.2byte	0x1
 4812 0036 53       		.byte	0x53
 4813 0037 0C000000 		.4byte	.LVL5
 4814 003b 10000000 		.4byte	.LFE1
 4815 003f 0100     		.2byte	0x1
 4816 0041 51       		.byte	0x51
 4817 0042 00000000 		.4byte	0
 4818 0046 00000000 		.4byte	0
 4819              	.LLST2:
 4820 004a 00000000 		.4byte	.LVL6
 4821 004e 11000000 		.4byte	.LVL7-1
 4822 0052 0100     		.2byte	0x1
 4823 0054 50       		.byte	0x50
 4824 0055 11000000 		.4byte	.LVL7-1
 4825 0059 8E000000 		.4byte	.LVL30
 4826 005d 0100     		.2byte	0x1
 4827 005f 54       		.byte	0x54
 4828 0060 8E000000 		.4byte	.LVL30
 4829 0064 3E1C0000 		.4byte	.LFE2
 4830 0068 0300     		.2byte	0x3
 4831 006a 91       		.byte	0x91
 4832 006b B47F     		.sleb128 -76
 4833 006d 00000000 		.4byte	0
 4834 0071 00000000 		.4byte	0
 4835              	.LLST3:
 4836 0075 00000000 		.4byte	.LVL6
 4837 0079 11000000 		.4byte	.LVL7-1
 4838 007d 0100     		.2byte	0x1
 4839 007f 51       		.byte	0x51
 4840 0080 11000000 		.4byte	.LVL7-1
 4841 0084 E81B0000 		.4byte	.LVL648
 4842 0088 0300     		.2byte	0x3
 4843 008a 91       		.byte	0x91
 4844 008b C47E     		.sleb128 -188
 4845 008d E81B0000 		.4byte	.LVL648
 4846 0091 EA1B0000 		.4byte	.LVL649
 4847 0095 0100     		.2byte	0x1
 4848 0097 53       		.byte	0x53
 4849 0098 EA1B0000 		.4byte	.LVL649
 4850 009c 3E1C0000 		.4byte	.LFE2
 4851 00a0 0300     		.2byte	0x3
 4852 00a2 91       		.byte	0x91
 4853 00a3 C47E     		.sleb128 -188
 4854 00a5 00000000 		.4byte	0
 4855 00a9 00000000 		.4byte	0
 4856              	.LLST4:
 4857 00ad 00000000 		.4byte	.LVL6
ARM GAS  C:\Users\bogur\AppData\Local\Temp\cc4rWh5U.s 			page 91


 4858 00b1 11000000 		.4byte	.LVL7-1
 4859 00b5 0100     		.2byte	0x1
 4860 00b7 52       		.byte	0x52
 4861 00b8 11000000 		.4byte	.LVL7-1
 4862 00bc 98000000 		.4byte	.LVL34
 4863 00c0 0300     		.2byte	0x3
 4864 00c2 91       		.byte	0x91
 4865 00c3 947F     		.sleb128 -108
 4866 00c5 98000000 		.4byte	.LVL34
 4867 00c9 9D000000 		.4byte	.LVL35-1
 4868 00cd 0100     		.2byte	0x1
 4869 00cf 53       		.byte	0x53
 4870 00d0 9D000000 		.4byte	.LVL35-1
 4871 00d4 3E1C0000 		.4byte	.LFE2
 4872 00d8 0300     		.2byte	0x3
 4873 00da 91       		.byte	0x91
 4874 00db 947F     		.sleb128 -108
 4875 00dd 00000000 		.4byte	0
 4876 00e1 00000000 		.4byte	0
 4877              	.LLST5:
 4878 00e5 14000000 		.4byte	.LVL8
 4879 00e9 1E000000 		.4byte	.LVL9
 4880 00ed 0100     		.2byte	0x1
 4881 00ef 50       		.byte	0x50
 4882 00f0 1E000000 		.4byte	.LVL9
 4883 00f4 90000000 		.4byte	.LVL31
 4884 00f8 0100     		.2byte	0x1
 4885 00fa 59       		.byte	0x59
 4886 00fb 90000000 		.4byte	.LVL31
 4887 00ff 9C010000 		.4byte	.LVL87
 4888 0103 0100     		.2byte	0x1
 4889 0105 54       		.byte	0x54
 4890 0106 9C010000 		.4byte	.LVL87
 4891 010a DC010000 		.4byte	.LVL95
 4892 010e 0100     		.2byte	0x1
 4893 0110 51       		.byte	0x51
 4894 0111 DC010000 		.4byte	.LVL95
 4895 0115 22020000 		.4byte	.LVL101
 4896 0119 0100     		.2byte	0x1
 4897 011b 53       		.byte	0x53
 4898 011c 22020000 		.4byte	.LVL101
 4899 0120 68020000 		.4byte	.LVL107
 4900 0124 0100     		.2byte	0x1
 4901 0126 52       		.byte	0x52
 4902 0127 68020000 		.4byte	.LVL107
 4903 012b A8020000 		.4byte	.LVL113
 4904 012f 0100     		.2byte	0x1
 4905 0131 55       		.byte	0x55
 4906 0132 A8020000 		.4byte	.LVL113
 4907 0136 EC020000 		.4byte	.LVL120
 4908 013a 0100     		.2byte	0x1
 4909 013c 54       		.byte	0x54
 4910 013d EC020000 		.4byte	.LVL120
 4911 0141 30030000 		.4byte	.LVL127
 4912 0145 0100     		.2byte	0x1
 4913 0147 51       		.byte	0x51
 4914 0148 30030000 		.4byte	.LVL127
ARM GAS  C:\Users\bogur\AppData\Local\Temp\cc4rWh5U.s 			page 92


 4915 014c 78030000 		.4byte	.LVL134
 4916 0150 0100     		.2byte	0x1
 4917 0152 50       		.byte	0x50
 4918 0153 78030000 		.4byte	.LVL134
 4919 0157 C0030000 		.4byte	.LVL140
 4920 015b 0100     		.2byte	0x1
 4921 015d 52       		.byte	0x52
 4922 015e C0030000 		.4byte	.LVL140
 4923 0162 06040000 		.4byte	.LVL145
 4924 0166 0100     		.2byte	0x1
 4925 0168 56       		.byte	0x56
 4926 0169 06040000 		.4byte	.LVL145
 4927 016d 4A040000 		.4byte	.LVL153
 4928 0171 0100     		.2byte	0x1
 4929 0173 5B       		.byte	0x5b
 4930 0174 4A040000 		.4byte	.LVL153
 4931 0178 90040000 		.4byte	.LVL161
 4932 017c 0100     		.2byte	0x1
 4933 017e 5A       		.byte	0x5a
 4934 017f 90040000 		.4byte	.LVL161
 4935 0183 D4040000 		.4byte	.LVL170
 4936 0187 0100     		.2byte	0x1
 4937 0189 59       		.byte	0x59
 4938 018a D4040000 		.4byte	.LVL170
 4939 018e 18050000 		.4byte	.LVL178
 4940 0192 0100     		.2byte	0x1
 4941 0194 53       		.byte	0x53
 4942 0195 18050000 		.4byte	.LVL178
 4943 0199 9C050000 		.4byte	.LVL185
 4944 019d 0100     		.2byte	0x1
 4945 019f 52       		.byte	0x52
 4946 01a0 9C050000 		.4byte	.LVL185
 4947 01a4 EA050000 		.4byte	.LVL192
 4948 01a8 0100     		.2byte	0x1
 4949 01aa 58       		.byte	0x58
 4950 01ab EA050000 		.4byte	.LVL192
 4951 01af FC050000 		.4byte	.LVL194
 4952 01b3 0100     		.2byte	0x1
 4953 01b5 54       		.byte	0x54
 4954 01b6 FC050000 		.4byte	.LVL194
 4955 01ba B4080000 		.4byte	.LVL230
 4956 01be 0300     		.2byte	0x3
 4957 01c0 91       		.byte	0x91
 4958 01c1 907F     		.sleb128 -112
 4959 01c3 B4080000 		.4byte	.LVL230
 4960 01c7 0A090000 		.4byte	.LVL236
 4961 01cb 0100     		.2byte	0x1
 4962 01cd 56       		.byte	0x56
 4963 01ce 0A090000 		.4byte	.LVL236
 4964 01d2 4E090000 		.4byte	.LVL243
 4965 01d6 0100     		.2byte	0x1
 4966 01d8 55       		.byte	0x55
 4967 01d9 4E090000 		.4byte	.LVL243
 4968 01dd 9C090000 		.4byte	.LVL249
 4969 01e1 0100     		.2byte	0x1
 4970 01e3 51       		.byte	0x51
 4971 01e4 9C090000 		.4byte	.LVL249
ARM GAS  C:\Users\bogur\AppData\Local\Temp\cc4rWh5U.s 			page 93


 4972 01e8 E2090000 		.4byte	.LVL257
 4973 01ec 0100     		.2byte	0x1
 4974 01ee 50       		.byte	0x50
 4975 01ef E2090000 		.4byte	.LVL257
 4976 01f3 280A0000 		.4byte	.LVL264
 4977 01f7 0100     		.2byte	0x1
 4978 01f9 54       		.byte	0x54
 4979 01fa 280A0000 		.4byte	.LVL264
 4980 01fe 6E0A0000 		.4byte	.LVL271
 4981 0202 0100     		.2byte	0x1
 4982 0204 52       		.byte	0x52
 4983 0205 6E0A0000 		.4byte	.LVL271
 4984 0209 B60A0000 		.4byte	.LVL278
 4985 020d 0100     		.2byte	0x1
 4986 020f 53       		.byte	0x53
 4987 0210 B60A0000 		.4byte	.LVL278
 4988 0214 FC0A0000 		.4byte	.LVL285
 4989 0218 0100     		.2byte	0x1
 4990 021a 58       		.byte	0x58
 4991 021b FC0A0000 		.4byte	.LVL285
 4992 021f 420B0000 		.4byte	.LVL292
 4993 0223 0100     		.2byte	0x1
 4994 0225 57       		.byte	0x57
 4995 0226 420B0000 		.4byte	.LVL292
 4996 022a 880B0000 		.4byte	.LVL299
 4997 022e 0100     		.2byte	0x1
 4998 0230 56       		.byte	0x56
 4999 0231 880B0000 		.4byte	.LVL299
 5000 0235 CE0B0000 		.4byte	.LVL306
 5001 0239 0100     		.2byte	0x1
 5002 023b 51       		.byte	0x51
 5003 023c CE0B0000 		.4byte	.LVL306
 5004 0240 140C0000 		.4byte	.LVL313
 5005 0244 0100     		.2byte	0x1
 5006 0246 50       		.byte	0x50
 5007 0247 140C0000 		.4byte	.LVL313
 5008 024b 5A0C0000 		.4byte	.LVL320
 5009 024f 0100     		.2byte	0x1
 5010 0251 55       		.byte	0x55
 5011 0252 5A0C0000 		.4byte	.LVL320
 5012 0256 E00C0000 		.4byte	.LVL328
 5013 025a 0100     		.2byte	0x1
 5014 025c 54       		.byte	0x54
 5015 025d E00C0000 		.4byte	.LVL328
 5016 0261 280D0000 		.4byte	.LVL335
 5017 0265 0100     		.2byte	0x1
 5018 0267 52       		.byte	0x52
 5019 0268 280D0000 		.4byte	.LVL335
 5020 026c 1C100000 		.4byte	.LVL376
 5021 0270 0100     		.2byte	0x1
 5022 0272 53       		.byte	0x53
 5023 0273 1C100000 		.4byte	.LVL376
 5024 0277 62100000 		.4byte	.LVL382
 5025 027b 0100     		.2byte	0x1
 5026 027d 5C       		.byte	0x5c
 5027 027e 62100000 		.4byte	.LVL382
 5028 0282 A8100000 		.4byte	.LVL390
ARM GAS  C:\Users\bogur\AppData\Local\Temp\cc4rWh5U.s 			page 94


 5029 0286 0100     		.2byte	0x1
 5030 0288 5E       		.byte	0x5e
 5031 0289 A8100000 		.4byte	.LVL390
 5032 028d EE100000 		.4byte	.LVL397
 5033 0291 0100     		.2byte	0x1
 5034 0293 57       		.byte	0x57
 5035 0294 EE100000 		.4byte	.LVL397
 5036 0298 2E110000 		.4byte	.LVL403
 5037 029c 0100     		.2byte	0x1
 5038 029e 56       		.byte	0x56
 5039 029f 2E110000 		.4byte	.LVL403
 5040 02a3 6E110000 		.4byte	.LVL411
 5041 02a7 0100     		.2byte	0x1
 5042 02a9 55       		.byte	0x55
 5043 02aa 6E110000 		.4byte	.LVL411
 5044 02ae B0110000 		.4byte	.LVL418
 5045 02b2 0100     		.2byte	0x1
 5046 02b4 54       		.byte	0x54
 5047 02b5 B0110000 		.4byte	.LVL418
 5048 02b9 F2110000 		.4byte	.LVL425
 5049 02bd 0100     		.2byte	0x1
 5050 02bf 50       		.byte	0x50
 5051 02c0 F2110000 		.4byte	.LVL425
 5052 02c4 34120000 		.4byte	.LVL433
 5053 02c8 0100     		.2byte	0x1
 5054 02ca 52       		.byte	0x52
 5055 02cb 34120000 		.4byte	.LVL433
 5056 02cf 78120000 		.4byte	.LVL440
 5057 02d3 0100     		.2byte	0x1
 5058 02d5 53       		.byte	0x53
 5059 02d6 78120000 		.4byte	.LVL440
 5060 02da BE120000 		.4byte	.LVL448
 5061 02de 0100     		.2byte	0x1
 5062 02e0 5A       		.byte	0x5a
 5063 02e1 BE120000 		.4byte	.LVL448
 5064 02e5 04130000 		.4byte	.LVL455
 5065 02e9 0100     		.2byte	0x1
 5066 02eb 59       		.byte	0x59
 5067 02ec 04130000 		.4byte	.LVL455
 5068 02f0 4A130000 		.4byte	.LVL463
 5069 02f4 0100     		.2byte	0x1
 5070 02f6 58       		.byte	0x58
 5071 02f7 4A130000 		.4byte	.LVL463
 5072 02fb 8A130000 		.4byte	.LVL469
 5073 02ff 0100     		.2byte	0x1
 5074 0301 54       		.byte	0x54
 5075 0302 8A130000 		.4byte	.LVL469
 5076 0306 D2130000 		.4byte	.LVL476
 5077 030a 0100     		.2byte	0x1
 5078 030c 50       		.byte	0x50
 5079 030d D2130000 		.4byte	.LVL476
 5080 0311 60140000 		.4byte	.LVL483
 5081 0315 0100     		.2byte	0x1
 5082 0317 51       		.byte	0x51
 5083 0318 60140000 		.4byte	.LVL483
 5084 031c 48170000 		.4byte	.LVL518
 5085 0320 0100     		.2byte	0x1
ARM GAS  C:\Users\bogur\AppData\Local\Temp\cc4rWh5U.s 			page 95


 5086 0322 52       		.byte	0x52
 5087 0323 48170000 		.4byte	.LVL518
 5088 0327 8E170000 		.4byte	.LVL525
 5089 032b 0100     		.2byte	0x1
 5090 032d 5B       		.byte	0x5b
 5091 032e 8E170000 		.4byte	.LVL525
 5092 0332 E0170000 		.4byte	.LVL533
 5093 0336 0100     		.2byte	0x1
 5094 0338 5E       		.byte	0x5e
 5095 0339 E0170000 		.4byte	.LVL533
 5096 033d 22180000 		.4byte	.LVL541
 5097 0341 0100     		.2byte	0x1
 5098 0343 57       		.byte	0x57
 5099 0344 22180000 		.4byte	.LVL541
 5100 0348 66180000 		.4byte	.LVL549
 5101 034c 0100     		.2byte	0x1
 5102 034e 56       		.byte	0x56
 5103 034f 66180000 		.4byte	.LVL549
 5104 0353 AA180000 		.4byte	.LVL557
 5105 0357 0100     		.2byte	0x1
 5106 0359 55       		.byte	0x55
 5107 035a AA180000 		.4byte	.LVL557
 5108 035e F2180000 		.4byte	.LVL565
 5109 0362 0100     		.2byte	0x1
 5110 0364 54       		.byte	0x54
 5111 0365 F2180000 		.4byte	.LVL565
 5112 0369 3A190000 		.4byte	.LVL574
 5113 036d 0100     		.2byte	0x1
 5114 036f 50       		.byte	0x50
 5115 0370 3A190000 		.4byte	.LVL574
 5116 0374 82190000 		.4byte	.LVL583
 5117 0378 0100     		.2byte	0x1
 5118 037a 52       		.byte	0x52
 5119 037b 82190000 		.4byte	.LVL583
 5120 037f CC190000 		.4byte	.LVL590
 5121 0383 0100     		.2byte	0x1
 5122 0385 5C       		.byte	0x5c
 5123 0386 CC190000 		.4byte	.LVL590
 5124 038a 141A0000 		.4byte	.LVL598
 5125 038e 0100     		.2byte	0x1
 5126 0390 58       		.byte	0x58
 5127 0391 141A0000 		.4byte	.LVL598
 5128 0395 581A0000 		.4byte	.LVL607
 5129 0399 0100     		.2byte	0x1
 5130 039b 5E       		.byte	0x5e
 5131 039c 581A0000 		.4byte	.LVL607
 5132 03a0 9E1A0000 		.4byte	.LVL616
 5133 03a4 0100     		.2byte	0x1
 5134 03a6 57       		.byte	0x57
 5135 03a7 9E1A0000 		.4byte	.LVL616
 5136 03ab E21A0000 		.4byte	.LVL623
 5137 03af 0100     		.2byte	0x1
 5138 03b1 59       		.byte	0x59
 5139 03b2 E21A0000 		.4byte	.LVL623
 5140 03b6 241B0000 		.4byte	.LVL630
 5141 03ba 0100     		.2byte	0x1
 5142 03bc 56       		.byte	0x56
ARM GAS  C:\Users\bogur\AppData\Local\Temp\cc4rWh5U.s 			page 96


 5143 03bd 241B0000 		.4byte	.LVL630
 5144 03c1 681B0000 		.4byte	.LVL638
 5145 03c5 0100     		.2byte	0x1
 5146 03c7 55       		.byte	0x55
 5147 03c8 681B0000 		.4byte	.LVL638
 5148 03cc 3E1C0000 		.4byte	.LFE2
 5149 03d0 0100     		.2byte	0x1
 5150 03d2 54       		.byte	0x54
 5151 03d3 00000000 		.4byte	0
 5152 03d7 00000000 		.4byte	0
 5153              	.LLST6:
 5154 03db 24000000 		.4byte	.LVL11
 5155 03df 2E000000 		.4byte	.LVL12
 5156 03e3 0100     		.2byte	0x1
 5157 03e5 50       		.byte	0x50
 5158 03e6 2E000000 		.4byte	.LVL12
 5159 03ea 8C000000 		.4byte	.LVL29
 5160 03ee 0100     		.2byte	0x1
 5161 03f0 5B       		.byte	0x5b
 5162 03f1 8C000000 		.4byte	.LVL29
 5163 03f5 9A010000 		.4byte	.LVL86
 5164 03f9 0100     		.2byte	0x1
 5165 03fb 55       		.byte	0x55
 5166 03fc 9A010000 		.4byte	.LVL86
 5167 0400 DA010000 		.4byte	.LVL94
 5168 0404 0100     		.2byte	0x1
 5169 0406 54       		.byte	0x54
 5170 0407 DA010000 		.4byte	.LVL94
 5171 040b 20020000 		.4byte	.LVL100
 5172 040f 0100     		.2byte	0x1
 5173 0411 51       		.byte	0x51
 5174 0412 20020000 		.4byte	.LVL100
 5175 0416 66020000 		.4byte	.LVL106
 5176 041a 0100     		.2byte	0x1
 5177 041c 53       		.byte	0x53
 5178 041d 66020000 		.4byte	.LVL106
 5179 0421 A6020000 		.4byte	.LVL112
 5180 0425 0100     		.2byte	0x1
 5181 0427 52       		.byte	0x52
 5182 0428 A6020000 		.4byte	.LVL112
 5183 042c EA020000 		.4byte	.LVL119
 5184 0430 0100     		.2byte	0x1
 5185 0432 55       		.byte	0x55
 5186 0433 EA020000 		.4byte	.LVL119
 5187 0437 2E030000 		.4byte	.LVL126
 5188 043b 0100     		.2byte	0x1
 5189 043d 54       		.byte	0x54
 5190 043e 2E030000 		.4byte	.LVL126
 5191 0442 76030000 		.4byte	.LVL133
 5192 0446 0100     		.2byte	0x1
 5193 0448 51       		.byte	0x51
 5194 0449 76030000 		.4byte	.LVL133
 5195 044d BE030000 		.4byte	.LVL139
 5196 0451 0100     		.2byte	0x1
 5197 0453 50       		.byte	0x50
 5198 0454 BE030000 		.4byte	.LVL139
 5199 0458 04040000 		.4byte	.LVL144
ARM GAS  C:\Users\bogur\AppData\Local\Temp\cc4rWh5U.s 			page 97


 5200 045c 0100     		.2byte	0x1
 5201 045e 52       		.byte	0x52
 5202 045f 04040000 		.4byte	.LVL144
 5203 0463 46040000 		.4byte	.LVL152
 5204 0467 0100     		.2byte	0x1
 5205 0469 56       		.byte	0x56
 5206 046a 46040000 		.4byte	.LVL152
 5207 046e 8C040000 		.4byte	.LVL160
 5208 0472 0100     		.2byte	0x1
 5209 0474 5B       		.byte	0x5b
 5210 0475 8C040000 		.4byte	.LVL160
 5211 0479 D2040000 		.4byte	.LVL169
 5212 047d 0100     		.2byte	0x1
 5213 047f 5A       		.byte	0x5a
 5214 0480 D2040000 		.4byte	.LVL169
 5215 0484 16050000 		.4byte	.LVL177
 5216 0488 0100     		.2byte	0x1
 5217 048a 59       		.byte	0x59
 5218 048b 16050000 		.4byte	.LVL177
 5219 048f 9A050000 		.4byte	.LVL184
 5220 0493 0100     		.2byte	0x1
 5221 0495 53       		.byte	0x53
 5222 0496 9A050000 		.4byte	.LVL184
 5223 049a E6050000 		.4byte	.LVL191
 5224 049e 0100     		.2byte	0x1
 5225 04a0 52       		.byte	0x52
 5226 04a1 E6050000 		.4byte	.LVL191
 5227 04a5 B2080000 		.4byte	.LVL229
 5228 04a9 0100     		.2byte	0x1
 5229 04ab 58       		.byte	0x58
 5230 04ac B2080000 		.4byte	.LVL229
 5231 04b0 08090000 		.4byte	.LVL235
 5232 04b4 0300     		.2byte	0x3
 5233 04b6 91       		.byte	0x91
 5234 04b7 907F     		.sleb128 -112
 5235 04b9 08090000 		.4byte	.LVL235
 5236 04bd 4C090000 		.4byte	.LVL242
 5237 04c1 0100     		.2byte	0x1
 5238 04c3 56       		.byte	0x56
 5239 04c4 4C090000 		.4byte	.LVL242
 5240 04c8 9A090000 		.4byte	.LVL248
 5241 04cc 0100     		.2byte	0x1
 5242 04ce 55       		.byte	0x55
 5243 04cf 9A090000 		.4byte	.LVL248
 5244 04d3 E0090000 		.4byte	.LVL256
 5245 04d7 0100     		.2byte	0x1
 5246 04d9 51       		.byte	0x51
 5247 04da E0090000 		.4byte	.LVL256
 5248 04de 260A0000 		.4byte	.LVL263
 5249 04e2 0100     		.2byte	0x1
 5250 04e4 50       		.byte	0x50
 5251 04e5 260A0000 		.4byte	.LVL263
 5252 04e9 6C0A0000 		.4byte	.LVL270
 5253 04ed 0100     		.2byte	0x1
 5254 04ef 54       		.byte	0x54
 5255 04f0 6C0A0000 		.4byte	.LVL270
 5256 04f4 B40A0000 		.4byte	.LVL277
ARM GAS  C:\Users\bogur\AppData\Local\Temp\cc4rWh5U.s 			page 98


 5257 04f8 0100     		.2byte	0x1
 5258 04fa 52       		.byte	0x52
 5259 04fb B40A0000 		.4byte	.LVL277
 5260 04ff FA0A0000 		.4byte	.LVL284
 5261 0503 0100     		.2byte	0x1
 5262 0505 53       		.byte	0x53
 5263 0506 FA0A0000 		.4byte	.LVL284
 5264 050a 400B0000 		.4byte	.LVL291
 5265 050e 0100     		.2byte	0x1
 5266 0510 58       		.byte	0x58
 5267 0511 400B0000 		.4byte	.LVL291
 5268 0515 860B0000 		.4byte	.LVL298
 5269 0519 0100     		.2byte	0x1
 5270 051b 57       		.byte	0x57
 5271 051c 860B0000 		.4byte	.LVL298
 5272 0520 CC0B0000 		.4byte	.LVL305
 5273 0524 0100     		.2byte	0x1
 5274 0526 56       		.byte	0x56
 5275 0527 CC0B0000 		.4byte	.LVL305
 5276 052b 120C0000 		.4byte	.LVL312
 5277 052f 0100     		.2byte	0x1
 5278 0531 51       		.byte	0x51
 5279 0532 120C0000 		.4byte	.LVL312
 5280 0536 580C0000 		.4byte	.LVL319
 5281 053a 0100     		.2byte	0x1
 5282 053c 50       		.byte	0x50
 5283 053d 580C0000 		.4byte	.LVL319
 5284 0541 A20C0000 		.4byte	.LVL327
 5285 0545 0100     		.2byte	0x1
 5286 0547 55       		.byte	0x55
 5287 0548 A20C0000 		.4byte	.LVL327
 5288 054c 260D0000 		.4byte	.LVL334
 5289 0550 0100     		.2byte	0x1
 5290 0552 54       		.byte	0x54
 5291 0553 260D0000 		.4byte	.LVL334
 5292 0557 1A100000 		.4byte	.LVL375
 5293 055b 0100     		.2byte	0x1
 5294 055d 52       		.byte	0x52
 5295 055e 1A100000 		.4byte	.LVL375
 5296 0562 60100000 		.4byte	.LVL381
 5297 0566 0100     		.2byte	0x1
 5298 0568 53       		.byte	0x53
 5299 0569 60100000 		.4byte	.LVL381
 5300 056d A6100000 		.4byte	.LVL389
 5301 0571 0100     		.2byte	0x1
 5302 0573 5C       		.byte	0x5c
 5303 0574 A6100000 		.4byte	.LVL389
 5304 0578 EC100000 		.4byte	.LVL396
 5305 057c 0100     		.2byte	0x1
 5306 057e 5E       		.byte	0x5e
 5307 057f EC100000 		.4byte	.LVL396
 5308 0583 2C110000 		.4byte	.LVL402
 5309 0587 0100     		.2byte	0x1
 5310 0589 57       		.byte	0x57
 5311 058a 2C110000 		.4byte	.LVL402
 5312 058e 6C110000 		.4byte	.LVL410
 5313 0592 0100     		.2byte	0x1
ARM GAS  C:\Users\bogur\AppData\Local\Temp\cc4rWh5U.s 			page 99


 5314 0594 56       		.byte	0x56
 5315 0595 6C110000 		.4byte	.LVL410
 5316 0599 AE110000 		.4byte	.LVL417
 5317 059d 0100     		.2byte	0x1
 5318 059f 55       		.byte	0x55
 5319 05a0 AE110000 		.4byte	.LVL417
 5320 05a4 F0110000 		.4byte	.LVL424
 5321 05a8 0100     		.2byte	0x1
 5322 05aa 54       		.byte	0x54
 5323 05ab F0110000 		.4byte	.LVL424
 5324 05af 32120000 		.4byte	.LVL432
 5325 05b3 0100     		.2byte	0x1
 5326 05b5 50       		.byte	0x50
 5327 05b6 32120000 		.4byte	.LVL432
 5328 05ba 74120000 		.4byte	.LVL439
 5329 05be 0100     		.2byte	0x1
 5330 05c0 52       		.byte	0x52
 5331 05c1 74120000 		.4byte	.LVL439
 5332 05c5 BA120000 		.4byte	.LVL447
 5333 05c9 0100     		.2byte	0x1
 5334 05cb 53       		.byte	0x53
 5335 05cc BA120000 		.4byte	.LVL447
 5336 05d0 00130000 		.4byte	.LVL454
 5337 05d4 0100     		.2byte	0x1
 5338 05d6 5A       		.byte	0x5a
 5339 05d7 00130000 		.4byte	.LVL454
 5340 05db 48130000 		.4byte	.LVL462
 5341 05df 0100     		.2byte	0x1
 5342 05e1 59       		.byte	0x59
 5343 05e2 48130000 		.4byte	.LVL462
 5344 05e6 88130000 		.4byte	.LVL468
 5345 05ea 0100     		.2byte	0x1
 5346 05ec 58       		.byte	0x58
 5347 05ed 88130000 		.4byte	.LVL468
 5348 05f1 D0130000 		.4byte	.LVL475
 5349 05f5 0100     		.2byte	0x1
 5350 05f7 54       		.byte	0x54
 5351 05f8 D0130000 		.4byte	.LVL475
 5352 05fc 5E140000 		.4byte	.LVL482
 5353 0600 0100     		.2byte	0x1
 5354 0602 50       		.byte	0x50
 5355 0603 5E140000 		.4byte	.LVL482
 5356 0607 46170000 		.4byte	.LVL517
 5357 060b 0100     		.2byte	0x1
 5358 060d 51       		.byte	0x51
 5359 060e 46170000 		.4byte	.LVL517
 5360 0612 8C170000 		.4byte	.LVL524
 5361 0616 0100     		.2byte	0x1
 5362 0618 52       		.byte	0x52
 5363 0619 8C170000 		.4byte	.LVL524
 5364 061d DE170000 		.4byte	.LVL532
 5365 0621 0100     		.2byte	0x1
 5366 0623 5B       		.byte	0x5b
 5367 0624 DE170000 		.4byte	.LVL532
 5368 0628 20180000 		.4byte	.LVL540
 5369 062c 0100     		.2byte	0x1
 5370 062e 5E       		.byte	0x5e
ARM GAS  C:\Users\bogur\AppData\Local\Temp\cc4rWh5U.s 			page 100


 5371 062f 20180000 		.4byte	.LVL540
 5372 0633 64180000 		.4byte	.LVL548
 5373 0637 0100     		.2byte	0x1
 5374 0639 57       		.byte	0x57
 5375 063a 64180000 		.4byte	.LVL548
 5376 063e A8180000 		.4byte	.LVL556
 5377 0642 0100     		.2byte	0x1
 5378 0644 56       		.byte	0x56
 5379 0645 A8180000 		.4byte	.LVL556
 5380 0649 F0180000 		.4byte	.LVL564
 5381 064d 0100     		.2byte	0x1
 5382 064f 55       		.byte	0x55
 5383 0650 F0180000 		.4byte	.LVL564
 5384 0654 38190000 		.4byte	.LVL573
 5385 0658 0100     		.2byte	0x1
 5386 065a 54       		.byte	0x54
 5387 065b 38190000 		.4byte	.LVL573
 5388 065f 80190000 		.4byte	.LVL582
 5389 0663 0100     		.2byte	0x1
 5390 0665 50       		.byte	0x50
 5391 0666 80190000 		.4byte	.LVL582
 5392 066a CA190000 		.4byte	.LVL589
 5393 066e 0100     		.2byte	0x1
 5394 0670 52       		.byte	0x52
 5395 0671 CA190000 		.4byte	.LVL589
 5396 0675 121A0000 		.4byte	.LVL597
 5397 0679 0100     		.2byte	0x1
 5398 067b 5C       		.byte	0x5c
 5399 067c 121A0000 		.4byte	.LVL597
 5400 0680 561A0000 		.4byte	.LVL606
 5401 0684 0100     		.2byte	0x1
 5402 0686 58       		.byte	0x58
 5403 0687 561A0000 		.4byte	.LVL606
 5404 068b 9C1A0000 		.4byte	.LVL615
 5405 068f 0100     		.2byte	0x1
 5406 0691 5E       		.byte	0x5e
 5407 0692 9C1A0000 		.4byte	.LVL615
 5408 0696 E01A0000 		.4byte	.LVL622
 5409 069a 0100     		.2byte	0x1
 5410 069c 57       		.byte	0x57
 5411 069d E01A0000 		.4byte	.LVL622
 5412 06a1 221B0000 		.4byte	.LVL629
 5413 06a5 0100     		.2byte	0x1
 5414 06a7 59       		.byte	0x59
 5415 06a8 221B0000 		.4byte	.LVL629
 5416 06ac 661B0000 		.4byte	.LVL637
 5417 06b0 0100     		.2byte	0x1
 5418 06b2 56       		.byte	0x56
 5419 06b3 661B0000 		.4byte	.LVL637
 5420 06b7 3E1C0000 		.4byte	.LFE2
 5421 06bb 0100     		.2byte	0x1
 5422 06bd 55       		.byte	0x55
 5423 06be 00000000 		.4byte	0
 5424 06c2 00000000 		.4byte	0
 5425              	.LLST7:
 5426 06c6 32000000 		.4byte	.LVL13
 5427 06ca 3E000000 		.4byte	.LVL14
ARM GAS  C:\Users\bogur\AppData\Local\Temp\cc4rWh5U.s 			page 101


 5428 06ce 0100     		.2byte	0x1
 5429 06d0 50       		.byte	0x50
 5430 06d1 3E000000 		.4byte	.LVL14
 5431 06d5 98000000 		.4byte	.LVL34
 5432 06d9 0300     		.2byte	0x3
 5433 06db 91       		.byte	0x91
 5434 06dc C87E     		.sleb128 -184
 5435 06de 98000000 		.4byte	.LVL34
 5436 06e2 9A010000 		.4byte	.LVL86
 5437 06e6 0100     		.2byte	0x1
 5438 06e8 56       		.byte	0x56
 5439 06e9 9A010000 		.4byte	.LVL86
 5440 06ed DA010000 		.4byte	.LVL94
 5441 06f1 0100     		.2byte	0x1
 5442 06f3 55       		.byte	0x55
 5443 06f4 DA010000 		.4byte	.LVL94
 5444 06f8 20020000 		.4byte	.LVL100
 5445 06fc 0100     		.2byte	0x1
 5446 06fe 54       		.byte	0x54
 5447 06ff 20020000 		.4byte	.LVL100
 5448 0703 66020000 		.4byte	.LVL106
 5449 0707 0100     		.2byte	0x1
 5450 0709 51       		.byte	0x51
 5451 070a 66020000 		.4byte	.LVL106
 5452 070e A6020000 		.4byte	.LVL112
 5453 0712 0100     		.2byte	0x1
 5454 0714 53       		.byte	0x53
 5455 0715 A6020000 		.4byte	.LVL112
 5456 0719 EA020000 		.4byte	.LVL119
 5457 071d 0100     		.2byte	0x1
 5458 071f 52       		.byte	0x52
 5459 0720 EA020000 		.4byte	.LVL119
 5460 0724 2E030000 		.4byte	.LVL126
 5461 0728 0100     		.2byte	0x1
 5462 072a 55       		.byte	0x55
 5463 072b 2E030000 		.4byte	.LVL126
 5464 072f 76030000 		.4byte	.LVL133
 5465 0733 0100     		.2byte	0x1
 5466 0735 54       		.byte	0x54
 5467 0736 76030000 		.4byte	.LVL133
 5468 073a BE030000 		.4byte	.LVL139
 5469 073e 0100     		.2byte	0x1
 5470 0740 51       		.byte	0x51
 5471 0741 BE030000 		.4byte	.LVL139
 5472 0745 04040000 		.4byte	.LVL144
 5473 0749 0100     		.2byte	0x1
 5474 074b 50       		.byte	0x50
 5475 074c 04040000 		.4byte	.LVL144
 5476 0750 46040000 		.4byte	.LVL152
 5477 0754 0100     		.2byte	0x1
 5478 0756 52       		.byte	0x52
 5479 0757 46040000 		.4byte	.LVL152
 5480 075b 8C040000 		.4byte	.LVL160
 5481 075f 0100     		.2byte	0x1
 5482 0761 56       		.byte	0x56
 5483 0762 8C040000 		.4byte	.LVL160
 5484 0766 D2040000 		.4byte	.LVL169
ARM GAS  C:\Users\bogur\AppData\Local\Temp\cc4rWh5U.s 			page 102


 5485 076a 0100     		.2byte	0x1
 5486 076c 5B       		.byte	0x5b
 5487 076d D2040000 		.4byte	.LVL169
 5488 0771 16050000 		.4byte	.LVL177
 5489 0775 0100     		.2byte	0x1
 5490 0777 5A       		.byte	0x5a
 5491 0778 16050000 		.4byte	.LVL177
 5492 077c 9A050000 		.4byte	.LVL184
 5493 0780 0100     		.2byte	0x1
 5494 0782 59       		.byte	0x59
 5495 0783 9A050000 		.4byte	.LVL184
 5496 0787 E6050000 		.4byte	.LVL191
 5497 078b 0100     		.2byte	0x1
 5498 078d 53       		.byte	0x53
 5499 078e E6050000 		.4byte	.LVL191
 5500 0792 B2080000 		.4byte	.LVL229
 5501 0796 0100     		.2byte	0x1
 5502 0798 52       		.byte	0x52
 5503 0799 B2080000 		.4byte	.LVL229
 5504 079d 08090000 		.4byte	.LVL235
 5505 07a1 0100     		.2byte	0x1
 5506 07a3 58       		.byte	0x58
 5507 07a4 08090000 		.4byte	.LVL235
 5508 07a8 4C090000 		.4byte	.LVL242
 5509 07ac 0300     		.2byte	0x3
 5510 07ae 91       		.byte	0x91
 5511 07af 907F     		.sleb128 -112
 5512 07b1 4C090000 		.4byte	.LVL242
 5513 07b5 9A090000 		.4byte	.LVL248
 5514 07b9 0100     		.2byte	0x1
 5515 07bb 56       		.byte	0x56
 5516 07bc 9A090000 		.4byte	.LVL248
 5517 07c0 E0090000 		.4byte	.LVL256
 5518 07c4 0100     		.2byte	0x1
 5519 07c6 55       		.byte	0x55
 5520 07c7 E0090000 		.4byte	.LVL256
 5521 07cb 260A0000 		.4byte	.LVL263
 5522 07cf 0100     		.2byte	0x1
 5523 07d1 51       		.byte	0x51
 5524 07d2 260A0000 		.4byte	.LVL263
 5525 07d6 6C0A0000 		.4byte	.LVL270
 5526 07da 0100     		.2byte	0x1
 5527 07dc 50       		.byte	0x50
 5528 07dd 6C0A0000 		.4byte	.LVL270
 5529 07e1 B40A0000 		.4byte	.LVL277
 5530 07e5 0100     		.2byte	0x1
 5531 07e7 54       		.byte	0x54
 5532 07e8 B40A0000 		.4byte	.LVL277
 5533 07ec FA0A0000 		.4byte	.LVL284
 5534 07f0 0100     		.2byte	0x1
 5535 07f2 52       		.byte	0x52
 5536 07f3 FA0A0000 		.4byte	.LVL284
 5537 07f7 400B0000 		.4byte	.LVL291
 5538 07fb 0100     		.2byte	0x1
 5539 07fd 53       		.byte	0x53
 5540 07fe 400B0000 		.4byte	.LVL291
 5541 0802 860B0000 		.4byte	.LVL298
ARM GAS  C:\Users\bogur\AppData\Local\Temp\cc4rWh5U.s 			page 103


 5542 0806 0100     		.2byte	0x1
 5543 0808 58       		.byte	0x58
 5544 0809 860B0000 		.4byte	.LVL298
 5545 080d CC0B0000 		.4byte	.LVL305
 5546 0811 0100     		.2byte	0x1
 5547 0813 57       		.byte	0x57
 5548 0814 CC0B0000 		.4byte	.LVL305
 5549 0818 120C0000 		.4byte	.LVL312
 5550 081c 0100     		.2byte	0x1
 5551 081e 56       		.byte	0x56
 5552 081f 120C0000 		.4byte	.LVL312
 5553 0823 580C0000 		.4byte	.LVL319
 5554 0827 0100     		.2byte	0x1
 5555 0829 51       		.byte	0x51
 5556 082a 580C0000 		.4byte	.LVL319
 5557 082e A20C0000 		.4byte	.LVL327
 5558 0832 0100     		.2byte	0x1
 5559 0834 50       		.byte	0x50
 5560 0835 A20C0000 		.4byte	.LVL327
 5561 0839 260D0000 		.4byte	.LVL334
 5562 083d 0100     		.2byte	0x1
 5563 083f 55       		.byte	0x55
 5564 0840 260D0000 		.4byte	.LVL334
 5565 0844 1A100000 		.4byte	.LVL375
 5566 0848 0100     		.2byte	0x1
 5567 084a 54       		.byte	0x54
 5568 084b 1A100000 		.4byte	.LVL375
 5569 084f 60100000 		.4byte	.LVL381
 5570 0853 0100     		.2byte	0x1
 5571 0855 52       		.byte	0x52
 5572 0856 60100000 		.4byte	.LVL381
 5573 085a A6100000 		.4byte	.LVL389
 5574 085e 0100     		.2byte	0x1
 5575 0860 53       		.byte	0x53
 5576 0861 A6100000 		.4byte	.LVL389
 5577 0865 EC100000 		.4byte	.LVL396
 5578 0869 0100     		.2byte	0x1
 5579 086b 5C       		.byte	0x5c
 5580 086c EC100000 		.4byte	.LVL396
 5581 0870 2C110000 		.4byte	.LVL402
 5582 0874 0100     		.2byte	0x1
 5583 0876 5E       		.byte	0x5e
 5584 0877 2C110000 		.4byte	.LVL402
 5585 087b 6C110000 		.4byte	.LVL410
 5586 087f 0100     		.2byte	0x1
 5587 0881 57       		.byte	0x57
 5588 0882 6C110000 		.4byte	.LVL410
 5589 0886 AE110000 		.4byte	.LVL417
 5590 088a 0100     		.2byte	0x1
 5591 088c 56       		.byte	0x56
 5592 088d AE110000 		.4byte	.LVL417
 5593 0891 F0110000 		.4byte	.LVL424
 5594 0895 0100     		.2byte	0x1
 5595 0897 55       		.byte	0x55
 5596 0898 F0110000 		.4byte	.LVL424
 5597 089c 32120000 		.4byte	.LVL432
 5598 08a0 0100     		.2byte	0x1
ARM GAS  C:\Users\bogur\AppData\Local\Temp\cc4rWh5U.s 			page 104


 5599 08a2 54       		.byte	0x54
 5600 08a3 32120000 		.4byte	.LVL432
 5601 08a7 74120000 		.4byte	.LVL439
 5602 08ab 0100     		.2byte	0x1
 5603 08ad 50       		.byte	0x50
 5604 08ae 74120000 		.4byte	.LVL439
 5605 08b2 BA120000 		.4byte	.LVL447
 5606 08b6 0100     		.2byte	0x1
 5607 08b8 52       		.byte	0x52
 5608 08b9 BA120000 		.4byte	.LVL447
 5609 08bd 00130000 		.4byte	.LVL454
 5610 08c1 0100     		.2byte	0x1
 5611 08c3 53       		.byte	0x53
 5612 08c4 00130000 		.4byte	.LVL454
 5613 08c8 48130000 		.4byte	.LVL462
 5614 08cc 0100     		.2byte	0x1
 5615 08ce 5A       		.byte	0x5a
 5616 08cf 48130000 		.4byte	.LVL462
 5617 08d3 88130000 		.4byte	.LVL468
 5618 08d7 0100     		.2byte	0x1
 5619 08d9 59       		.byte	0x59
 5620 08da 88130000 		.4byte	.LVL468
 5621 08de D0130000 		.4byte	.LVL475
 5622 08e2 0100     		.2byte	0x1
 5623 08e4 58       		.byte	0x58
 5624 08e5 D0130000 		.4byte	.LVL475
 5625 08e9 5E140000 		.4byte	.LVL482
 5626 08ed 0100     		.2byte	0x1
 5627 08ef 54       		.byte	0x54
 5628 08f0 5E140000 		.4byte	.LVL482
 5629 08f4 46170000 		.4byte	.LVL517
 5630 08f8 0100     		.2byte	0x1
 5631 08fa 50       		.byte	0x50
 5632 08fb 46170000 		.4byte	.LVL517
 5633 08ff 8C170000 		.4byte	.LVL524
 5634 0903 0100     		.2byte	0x1
 5635 0905 51       		.byte	0x51
 5636 0906 8C170000 		.4byte	.LVL524
 5637 090a DE170000 		.4byte	.LVL532
 5638 090e 0100     		.2byte	0x1
 5639 0910 52       		.byte	0x52
 5640 0911 DE170000 		.4byte	.LVL532
 5641 0915 20180000 		.4byte	.LVL540
 5642 0919 0100     		.2byte	0x1
 5643 091b 5B       		.byte	0x5b
 5644 091c 20180000 		.4byte	.LVL540
 5645 0920 64180000 		.4byte	.LVL548
 5646 0924 0100     		.2byte	0x1
 5647 0926 5E       		.byte	0x5e
 5648 0927 64180000 		.4byte	.LVL548
 5649 092b A8180000 		.4byte	.LVL556
 5650 092f 0100     		.2byte	0x1
 5651 0931 57       		.byte	0x57
 5652 0932 A8180000 		.4byte	.LVL556
 5653 0936 F0180000 		.4byte	.LVL564
 5654 093a 0100     		.2byte	0x1
 5655 093c 56       		.byte	0x56
ARM GAS  C:\Users\bogur\AppData\Local\Temp\cc4rWh5U.s 			page 105


 5656 093d F0180000 		.4byte	.LVL564
 5657 0941 38190000 		.4byte	.LVL573
 5658 0945 0100     		.2byte	0x1
 5659 0947 55       		.byte	0x55
 5660 0948 38190000 		.4byte	.LVL573
 5661 094c 80190000 		.4byte	.LVL582
 5662 0950 0100     		.2byte	0x1
 5663 0952 54       		.byte	0x54
 5664 0953 80190000 		.4byte	.LVL582
 5665 0957 CA190000 		.4byte	.LVL589
 5666 095b 0100     		.2byte	0x1
 5667 095d 50       		.byte	0x50
 5668 095e CA190000 		.4byte	.LVL589
 5669 0962 121A0000 		.4byte	.LVL597
 5670 0966 0100     		.2byte	0x1
 5671 0968 52       		.byte	0x52
 5672 0969 121A0000 		.4byte	.LVL597
 5673 096d 561A0000 		.4byte	.LVL606
 5674 0971 0100     		.2byte	0x1
 5675 0973 5C       		.byte	0x5c
 5676 0974 561A0000 		.4byte	.LVL606
 5677 0978 9C1A0000 		.4byte	.LVL615
 5678 097c 0100     		.2byte	0x1
 5679 097e 58       		.byte	0x58
 5680 097f 9C1A0000 		.4byte	.LVL615
 5681 0983 E01A0000 		.4byte	.LVL622
 5682 0987 0100     		.2byte	0x1
 5683 0989 5E       		.byte	0x5e
 5684 098a E01A0000 		.4byte	.LVL622
 5685 098e 221B0000 		.4byte	.LVL629
 5686 0992 0100     		.2byte	0x1
 5687 0994 57       		.byte	0x57
 5688 0995 221B0000 		.4byte	.LVL629
 5689 0999 661B0000 		.4byte	.LVL637
 5690 099d 0100     		.2byte	0x1
 5691 099f 59       		.byte	0x59
 5692 09a0 661B0000 		.4byte	.LVL637
 5693 09a4 3E1C0000 		.4byte	.LFE2
 5694 09a8 0100     		.2byte	0x1
 5695 09aa 56       		.byte	0x56
 5696 09ab 00000000 		.4byte	0
 5697 09af 00000000 		.4byte	0
 5698              	.LLST8:
 5699 09b3 44000000 		.4byte	.LVL16
 5700 09b7 4E000000 		.4byte	.LVL17
 5701 09bb 0100     		.2byte	0x1
 5702 09bd 50       		.byte	0x50
 5703 09be 4E000000 		.4byte	.LVL17
 5704 09c2 92000000 		.4byte	.LVL32
 5705 09c6 0100     		.2byte	0x1
 5706 09c8 56       		.byte	0x56
 5707 09c9 92000000 		.4byte	.LVL32
 5708 09cd 9A010000 		.4byte	.LVL86
 5709 09d1 0100     		.2byte	0x1
 5710 09d3 59       		.byte	0x59
 5711 09d4 9A010000 		.4byte	.LVL86
 5712 09d8 DA010000 		.4byte	.LVL94
ARM GAS  C:\Users\bogur\AppData\Local\Temp\cc4rWh5U.s 			page 106


 5713 09dc 0100     		.2byte	0x1
 5714 09de 56       		.byte	0x56
 5715 09df DA010000 		.4byte	.LVL94
 5716 09e3 20020000 		.4byte	.LVL100
 5717 09e7 0100     		.2byte	0x1
 5718 09e9 55       		.byte	0x55
 5719 09ea 20020000 		.4byte	.LVL100
 5720 09ee 66020000 		.4byte	.LVL106
 5721 09f2 0100     		.2byte	0x1
 5722 09f4 54       		.byte	0x54
 5723 09f5 66020000 		.4byte	.LVL106
 5724 09f9 A6020000 		.4byte	.LVL112
 5725 09fd 0100     		.2byte	0x1
 5726 09ff 51       		.byte	0x51
 5727 0a00 A6020000 		.4byte	.LVL112
 5728 0a04 EA020000 		.4byte	.LVL119
 5729 0a08 0100     		.2byte	0x1
 5730 0a0a 53       		.byte	0x53
 5731 0a0b EA020000 		.4byte	.LVL119
 5732 0a0f 2E030000 		.4byte	.LVL126
 5733 0a13 0100     		.2byte	0x1
 5734 0a15 52       		.byte	0x52
 5735 0a16 2E030000 		.4byte	.LVL126
 5736 0a1a 76030000 		.4byte	.LVL133
 5737 0a1e 0100     		.2byte	0x1
 5738 0a20 55       		.byte	0x55
 5739 0a21 76030000 		.4byte	.LVL133
 5740 0a25 BE030000 		.4byte	.LVL139
 5741 0a29 0100     		.2byte	0x1
 5742 0a2b 54       		.byte	0x54
 5743 0a2c BE030000 		.4byte	.LVL139
 5744 0a30 04040000 		.4byte	.LVL144
 5745 0a34 0100     		.2byte	0x1
 5746 0a36 51       		.byte	0x51
 5747 0a37 04040000 		.4byte	.LVL144
 5748 0a3b 46040000 		.4byte	.LVL152
 5749 0a3f 0100     		.2byte	0x1
 5750 0a41 50       		.byte	0x50
 5751 0a42 46040000 		.4byte	.LVL152
 5752 0a46 8C040000 		.4byte	.LVL160
 5753 0a4a 0100     		.2byte	0x1
 5754 0a4c 52       		.byte	0x52
 5755 0a4d 8C040000 		.4byte	.LVL160
 5756 0a51 D2040000 		.4byte	.LVL169
 5757 0a55 0100     		.2byte	0x1
 5758 0a57 56       		.byte	0x56
 5759 0a58 D2040000 		.4byte	.LVL169
 5760 0a5c 16050000 		.4byte	.LVL177
 5761 0a60 0100     		.2byte	0x1
 5762 0a62 5B       		.byte	0x5b
 5763 0a63 16050000 		.4byte	.LVL177
 5764 0a67 9A050000 		.4byte	.LVL184
 5765 0a6b 0100     		.2byte	0x1
 5766 0a6d 5A       		.byte	0x5a
 5767 0a6e 9A050000 		.4byte	.LVL184
 5768 0a72 E6050000 		.4byte	.LVL191
 5769 0a76 0100     		.2byte	0x1
ARM GAS  C:\Users\bogur\AppData\Local\Temp\cc4rWh5U.s 			page 107


 5770 0a78 59       		.byte	0x59
 5771 0a79 E6050000 		.4byte	.LVL191
 5772 0a7d B2080000 		.4byte	.LVL229
 5773 0a81 0100     		.2byte	0x1
 5774 0a83 53       		.byte	0x53
 5775 0a84 B2080000 		.4byte	.LVL229
 5776 0a88 08090000 		.4byte	.LVL235
 5777 0a8c 0100     		.2byte	0x1
 5778 0a8e 52       		.byte	0x52
 5779 0a8f 08090000 		.4byte	.LVL235
 5780 0a93 4C090000 		.4byte	.LVL242
 5781 0a97 0100     		.2byte	0x1
 5782 0a99 58       		.byte	0x58
 5783 0a9a 4C090000 		.4byte	.LVL242
 5784 0a9e 9A090000 		.4byte	.LVL248
 5785 0aa2 0300     		.2byte	0x3
 5786 0aa4 91       		.byte	0x91
 5787 0aa5 907F     		.sleb128 -112
 5788 0aa7 9A090000 		.4byte	.LVL248
 5789 0aab E0090000 		.4byte	.LVL256
 5790 0aaf 0100     		.2byte	0x1
 5791 0ab1 56       		.byte	0x56
 5792 0ab2 E0090000 		.4byte	.LVL256
 5793 0ab6 260A0000 		.4byte	.LVL263
 5794 0aba 0100     		.2byte	0x1
 5795 0abc 55       		.byte	0x55
 5796 0abd 260A0000 		.4byte	.LVL263
 5797 0ac1 6C0A0000 		.4byte	.LVL270
 5798 0ac5 0100     		.2byte	0x1
 5799 0ac7 51       		.byte	0x51
 5800 0ac8 6C0A0000 		.4byte	.LVL270
 5801 0acc B40A0000 		.4byte	.LVL277
 5802 0ad0 0100     		.2byte	0x1
 5803 0ad2 50       		.byte	0x50
 5804 0ad3 B40A0000 		.4byte	.LVL277
 5805 0ad7 FA0A0000 		.4byte	.LVL284
 5806 0adb 0100     		.2byte	0x1
 5807 0add 54       		.byte	0x54
 5808 0ade FA0A0000 		.4byte	.LVL284
 5809 0ae2 400B0000 		.4byte	.LVL291
 5810 0ae6 0100     		.2byte	0x1
 5811 0ae8 52       		.byte	0x52
 5812 0ae9 400B0000 		.4byte	.LVL291
 5813 0aed 860B0000 		.4byte	.LVL298
 5814 0af1 0100     		.2byte	0x1
 5815 0af3 53       		.byte	0x53
 5816 0af4 860B0000 		.4byte	.LVL298
 5817 0af8 CC0B0000 		.4byte	.LVL305
 5818 0afc 0100     		.2byte	0x1
 5819 0afe 58       		.byte	0x58
 5820 0aff CC0B0000 		.4byte	.LVL305
 5821 0b03 120C0000 		.4byte	.LVL312
 5822 0b07 0100     		.2byte	0x1
 5823 0b09 57       		.byte	0x57
 5824 0b0a 120C0000 		.4byte	.LVL312
 5825 0b0e 580C0000 		.4byte	.LVL319
 5826 0b12 0100     		.2byte	0x1
ARM GAS  C:\Users\bogur\AppData\Local\Temp\cc4rWh5U.s 			page 108


 5827 0b14 56       		.byte	0x56
 5828 0b15 580C0000 		.4byte	.LVL319
 5829 0b19 A20C0000 		.4byte	.LVL327
 5830 0b1d 0100     		.2byte	0x1
 5831 0b1f 51       		.byte	0x51
 5832 0b20 A20C0000 		.4byte	.LVL327
 5833 0b24 260D0000 		.4byte	.LVL334
 5834 0b28 0100     		.2byte	0x1
 5835 0b2a 50       		.byte	0x50
 5836 0b2b 260D0000 		.4byte	.LVL334
 5837 0b2f 1A100000 		.4byte	.LVL375
 5838 0b33 0100     		.2byte	0x1
 5839 0b35 55       		.byte	0x55
 5840 0b36 1A100000 		.4byte	.LVL375
 5841 0b3a 60100000 		.4byte	.LVL381
 5842 0b3e 0100     		.2byte	0x1
 5843 0b40 54       		.byte	0x54
 5844 0b41 60100000 		.4byte	.LVL381
 5845 0b45 A6100000 		.4byte	.LVL389
 5846 0b49 0100     		.2byte	0x1
 5847 0b4b 52       		.byte	0x52
 5848 0b4c A6100000 		.4byte	.LVL389
 5849 0b50 EC100000 		.4byte	.LVL396
 5850 0b54 0100     		.2byte	0x1
 5851 0b56 53       		.byte	0x53
 5852 0b57 EC100000 		.4byte	.LVL396
 5853 0b5b 2C110000 		.4byte	.LVL402
 5854 0b5f 0100     		.2byte	0x1
 5855 0b61 5C       		.byte	0x5c
 5856 0b62 2C110000 		.4byte	.LVL402
 5857 0b66 6C110000 		.4byte	.LVL410
 5858 0b6a 0100     		.2byte	0x1
 5859 0b6c 5E       		.byte	0x5e
 5860 0b6d 6C110000 		.4byte	.LVL410
 5861 0b71 AE110000 		.4byte	.LVL417
 5862 0b75 0100     		.2byte	0x1
 5863 0b77 57       		.byte	0x57
 5864 0b78 AE110000 		.4byte	.LVL417
 5865 0b7c F0110000 		.4byte	.LVL424
 5866 0b80 0100     		.2byte	0x1
 5867 0b82 56       		.byte	0x56
 5868 0b83 F0110000 		.4byte	.LVL424
 5869 0b87 32120000 		.4byte	.LVL432
 5870 0b8b 0100     		.2byte	0x1
 5871 0b8d 55       		.byte	0x55
 5872 0b8e 32120000 		.4byte	.LVL432
 5873 0b92 74120000 		.4byte	.LVL439
 5874 0b96 0100     		.2byte	0x1
 5875 0b98 54       		.byte	0x54
 5876 0b99 74120000 		.4byte	.LVL439
 5877 0b9d BA120000 		.4byte	.LVL447
 5878 0ba1 0100     		.2byte	0x1
 5879 0ba3 50       		.byte	0x50
 5880 0ba4 BA120000 		.4byte	.LVL447
 5881 0ba8 00130000 		.4byte	.LVL454
 5882 0bac 0100     		.2byte	0x1
 5883 0bae 52       		.byte	0x52
ARM GAS  C:\Users\bogur\AppData\Local\Temp\cc4rWh5U.s 			page 109


 5884 0baf 00130000 		.4byte	.LVL454
 5885 0bb3 48130000 		.4byte	.LVL462
 5886 0bb7 0100     		.2byte	0x1
 5887 0bb9 53       		.byte	0x53
 5888 0bba 48130000 		.4byte	.LVL462
 5889 0bbe 88130000 		.4byte	.LVL468
 5890 0bc2 0100     		.2byte	0x1
 5891 0bc4 5A       		.byte	0x5a
 5892 0bc5 88130000 		.4byte	.LVL468
 5893 0bc9 D0130000 		.4byte	.LVL475
 5894 0bcd 0100     		.2byte	0x1
 5895 0bcf 59       		.byte	0x59
 5896 0bd0 D0130000 		.4byte	.LVL475
 5897 0bd4 5E140000 		.4byte	.LVL482
 5898 0bd8 0100     		.2byte	0x1
 5899 0bda 58       		.byte	0x58
 5900 0bdb 5E140000 		.4byte	.LVL482
 5901 0bdf 46170000 		.4byte	.LVL517
 5902 0be3 0100     		.2byte	0x1
 5903 0be5 54       		.byte	0x54
 5904 0be6 46170000 		.4byte	.LVL517
 5905 0bea 8C170000 		.4byte	.LVL524
 5906 0bee 0100     		.2byte	0x1
 5907 0bf0 50       		.byte	0x50
 5908 0bf1 8C170000 		.4byte	.LVL524
 5909 0bf5 DE170000 		.4byte	.LVL532
 5910 0bf9 0100     		.2byte	0x1
 5911 0bfb 51       		.byte	0x51
 5912 0bfc DE170000 		.4byte	.LVL532
 5913 0c00 20180000 		.4byte	.LVL540
 5914 0c04 0100     		.2byte	0x1
 5915 0c06 52       		.byte	0x52
 5916 0c07 20180000 		.4byte	.LVL540
 5917 0c0b 64180000 		.4byte	.LVL548
 5918 0c0f 0100     		.2byte	0x1
 5919 0c11 5B       		.byte	0x5b
 5920 0c12 64180000 		.4byte	.LVL548
 5921 0c16 A8180000 		.4byte	.LVL556
 5922 0c1a 0100     		.2byte	0x1
 5923 0c1c 5E       		.byte	0x5e
 5924 0c1d A8180000 		.4byte	.LVL556
 5925 0c21 F0180000 		.4byte	.LVL564
 5926 0c25 0100     		.2byte	0x1
 5927 0c27 57       		.byte	0x57
 5928 0c28 F0180000 		.4byte	.LVL564
 5929 0c2c 38190000 		.4byte	.LVL573
 5930 0c30 0100     		.2byte	0x1
 5931 0c32 56       		.byte	0x56
 5932 0c33 38190000 		.4byte	.LVL573
 5933 0c37 80190000 		.4byte	.LVL582
 5934 0c3b 0100     		.2byte	0x1
 5935 0c3d 55       		.byte	0x55
 5936 0c3e 80190000 		.4byte	.LVL582
 5937 0c42 CA190000 		.4byte	.LVL589
 5938 0c46 0100     		.2byte	0x1
 5939 0c48 54       		.byte	0x54
 5940 0c49 CA190000 		.4byte	.LVL589
ARM GAS  C:\Users\bogur\AppData\Local\Temp\cc4rWh5U.s 			page 110


 5941 0c4d 121A0000 		.4byte	.LVL597
 5942 0c51 0100     		.2byte	0x1
 5943 0c53 50       		.byte	0x50
 5944 0c54 121A0000 		.4byte	.LVL597
 5945 0c58 561A0000 		.4byte	.LVL606
 5946 0c5c 0100     		.2byte	0x1
 5947 0c5e 52       		.byte	0x52
 5948 0c5f 561A0000 		.4byte	.LVL606
 5949 0c63 9C1A0000 		.4byte	.LVL615
 5950 0c67 0100     		.2byte	0x1
 5951 0c69 5C       		.byte	0x5c
 5952 0c6a 9C1A0000 		.4byte	.LVL615
 5953 0c6e E01A0000 		.4byte	.LVL622
 5954 0c72 0100     		.2byte	0x1
 5955 0c74 58       		.byte	0x58
 5956 0c75 E01A0000 		.4byte	.LVL622
 5957 0c79 221B0000 		.4byte	.LVL629
 5958 0c7d 0100     		.2byte	0x1
 5959 0c7f 5E       		.byte	0x5e
 5960 0c80 221B0000 		.4byte	.LVL629
 5961 0c84 661B0000 		.4byte	.LVL637
 5962 0c88 0100     		.2byte	0x1
 5963 0c8a 57       		.byte	0x57
 5964 0c8b 661B0000 		.4byte	.LVL637
 5965 0c8f 3E1C0000 		.4byte	.LFE2
 5966 0c93 0100     		.2byte	0x1
 5967 0c95 59       		.byte	0x59
 5968 0c96 00000000 		.4byte	0
 5969 0c9a 00000000 		.4byte	0
 5970              	.LLST9:
 5971 0c9e 54000000 		.4byte	.LVL19
 5972 0ca2 5E000000 		.4byte	.LVL20
 5973 0ca6 0100     		.2byte	0x1
 5974 0ca8 50       		.byte	0x50
 5975 0ca9 5E000000 		.4byte	.LVL20
 5976 0cad 94000000 		.4byte	.LVL33
 5977 0cb1 0100     		.2byte	0x1
 5978 0cb3 58       		.byte	0x58
 5979 0cb4 94000000 		.4byte	.LVL33
 5980 0cb8 9A010000 		.4byte	.LVL86
 5981 0cbc 0100     		.2byte	0x1
 5982 0cbe 57       		.byte	0x57
 5983 0cbf 9A010000 		.4byte	.LVL86
 5984 0cc3 DA010000 		.4byte	.LVL94
 5985 0cc7 0100     		.2byte	0x1
 5986 0cc9 50       		.byte	0x50
 5987 0cca DA010000 		.4byte	.LVL94
 5988 0cce 20020000 		.4byte	.LVL100
 5989 0cd2 0100     		.2byte	0x1
 5990 0cd4 58       		.byte	0x58
 5991 0cd5 20020000 		.4byte	.LVL100
 5992 0cd9 66020000 		.4byte	.LVL106
 5993 0cdd 0100     		.2byte	0x1
 5994 0cdf 5C       		.byte	0x5c
 5995 0ce0 66020000 		.4byte	.LVL106
 5996 0ce4 A6020000 		.4byte	.LVL112
 5997 0ce8 0100     		.2byte	0x1
ARM GAS  C:\Users\bogur\AppData\Local\Temp\cc4rWh5U.s 			page 111


 5998 0cea 5E       		.byte	0x5e
 5999 0ceb A6020000 		.4byte	.LVL112
 6000 0cef EA020000 		.4byte	.LVL119
 6001 0cf3 0100     		.2byte	0x1
 6002 0cf5 56       		.byte	0x56
 6003 0cf6 EA020000 		.4byte	.LVL119
 6004 0cfa 2E030000 		.4byte	.LVL126
 6005 0cfe 0100     		.2byte	0x1
 6006 0d00 53       		.byte	0x53
 6007 0d01 2E030000 		.4byte	.LVL126
 6008 0d05 76030000 		.4byte	.LVL133
 6009 0d09 0100     		.2byte	0x1
 6010 0d0b 57       		.byte	0x57
 6011 0d0c 76030000 		.4byte	.LVL133
 6012 0d10 BE030000 		.4byte	.LVL139
 6013 0d14 0100     		.2byte	0x1
 6014 0d16 58       		.byte	0x58
 6015 0d17 BE030000 		.4byte	.LVL139
 6016 0d1b 04040000 		.4byte	.LVL144
 6017 0d1f 0100     		.2byte	0x1
 6018 0d21 5C       		.byte	0x5c
 6019 0d22 04040000 		.4byte	.LVL144
 6020 0d26 46040000 		.4byte	.LVL152
 6021 0d2a 0100     		.2byte	0x1
 6022 0d2c 5E       		.byte	0x5e
 6023 0d2d 46040000 		.4byte	.LVL152
 6024 0d31 8C040000 		.4byte	.LVL160
 6025 0d35 0100     		.2byte	0x1
 6026 0d37 57       		.byte	0x57
 6027 0d38 8C040000 		.4byte	.LVL160
 6028 0d3c D2040000 		.4byte	.LVL169
 6029 0d40 0100     		.2byte	0x1
 6030 0d42 50       		.byte	0x50
 6031 0d43 D2040000 		.4byte	.LVL169
 6032 0d47 16050000 		.4byte	.LVL177
 6033 0d4b 0100     		.2byte	0x1
 6034 0d4d 56       		.byte	0x56
 6035 0d4e 16050000 		.4byte	.LVL177
 6036 0d52 72050000 		.4byte	.LVL181
 6037 0d56 0100     		.2byte	0x1
 6038 0d58 55       		.byte	0x55
 6039 0d59 72050000 		.4byte	.LVL181
 6040 0d5d 9A050000 		.4byte	.LVL184
 6041 0d61 0300     		.2byte	0x3
 6042 0d63 91       		.byte	0x91
 6043 0d64 887F     		.sleb128 -120
 6044 0d66 9A050000 		.4byte	.LVL184
 6045 0d6a E6050000 		.4byte	.LVL191
 6046 0d6e 0100     		.2byte	0x1
 6047 0d70 51       		.byte	0x51
 6048 0d71 E6050000 		.4byte	.LVL191
 6049 0d75 02060000 		.4byte	.LVL196
 6050 0d79 0100     		.2byte	0x1
 6051 0d7b 5E       		.byte	0x5e
 6052 0d7c 02060000 		.4byte	.LVL196
 6053 0d80 B2080000 		.4byte	.LVL229
 6054 0d84 0300     		.2byte	0x3
ARM GAS  C:\Users\bogur\AppData\Local\Temp\cc4rWh5U.s 			page 112


 6055 0d86 91       		.byte	0x91
 6056 0d87 FC7E     		.sleb128 -132
 6057 0d89 B2080000 		.4byte	.LVL229
 6058 0d8d 08090000 		.4byte	.LVL235
 6059 0d91 0100     		.2byte	0x1
 6060 0d93 53       		.byte	0x53
 6061 0d94 08090000 		.4byte	.LVL235
 6062 0d98 4C090000 		.4byte	.LVL242
 6063 0d9c 0100     		.2byte	0x1
 6064 0d9e 52       		.byte	0x52
 6065 0d9f 4C090000 		.4byte	.LVL242
 6066 0da3 9A090000 		.4byte	.LVL248
 6067 0da7 0100     		.2byte	0x1
 6068 0da9 58       		.byte	0x58
 6069 0daa 9A090000 		.4byte	.LVL248
 6070 0dae A0090000 		.4byte	.LVL250
 6071 0db2 0100     		.2byte	0x1
 6072 0db4 54       		.byte	0x54
 6073 0db5 A0090000 		.4byte	.LVL250
 6074 0db9 E0090000 		.4byte	.LVL256
 6075 0dbd 0100     		.2byte	0x1
 6076 0dbf 57       		.byte	0x57
 6077 0dc0 E0090000 		.4byte	.LVL256
 6078 0dc4 260A0000 		.4byte	.LVL263
 6079 0dc8 0100     		.2byte	0x1
 6080 0dca 56       		.byte	0x56
 6081 0dcb 260A0000 		.4byte	.LVL263
 6082 0dcf 6C0A0000 		.4byte	.LVL270
 6083 0dd3 0100     		.2byte	0x1
 6084 0dd5 55       		.byte	0x55
 6085 0dd6 6C0A0000 		.4byte	.LVL270
 6086 0dda B40A0000 		.4byte	.LVL277
 6087 0dde 0100     		.2byte	0x1
 6088 0de0 51       		.byte	0x51
 6089 0de1 B40A0000 		.4byte	.LVL277
 6090 0de5 FA0A0000 		.4byte	.LVL284
 6091 0de9 0100     		.2byte	0x1
 6092 0deb 50       		.byte	0x50
 6093 0dec FA0A0000 		.4byte	.LVL284
 6094 0df0 400B0000 		.4byte	.LVL291
 6095 0df4 0100     		.2byte	0x1
 6096 0df6 54       		.byte	0x54
 6097 0df7 400B0000 		.4byte	.LVL291
 6098 0dfb 860B0000 		.4byte	.LVL298
 6099 0dff 0100     		.2byte	0x1
 6100 0e01 52       		.byte	0x52
 6101 0e02 860B0000 		.4byte	.LVL298
 6102 0e06 CC0B0000 		.4byte	.LVL305
 6103 0e0a 0100     		.2byte	0x1
 6104 0e0c 53       		.byte	0x53
 6105 0e0d CC0B0000 		.4byte	.LVL305
 6106 0e11 120C0000 		.4byte	.LVL312
 6107 0e15 0100     		.2byte	0x1
 6108 0e17 58       		.byte	0x58
 6109 0e18 120C0000 		.4byte	.LVL312
 6110 0e1c 580C0000 		.4byte	.LVL319
 6111 0e20 0100     		.2byte	0x1
ARM GAS  C:\Users\bogur\AppData\Local\Temp\cc4rWh5U.s 			page 113


 6112 0e22 57       		.byte	0x57
 6113 0e23 580C0000 		.4byte	.LVL319
 6114 0e27 7A0C0000 		.4byte	.LVL323
 6115 0e2b 0100     		.2byte	0x1
 6116 0e2d 56       		.byte	0x56
 6117 0e2e 7A0C0000 		.4byte	.LVL323
 6118 0e32 A20C0000 		.4byte	.LVL327
 6119 0e36 0300     		.2byte	0x3
 6120 0e38 91       		.byte	0x91
 6121 0e39 907F     		.sleb128 -112
 6122 0e3b A20C0000 		.4byte	.LVL327
 6123 0e3f 260D0000 		.4byte	.LVL334
 6124 0e43 0100     		.2byte	0x1
 6125 0e45 59       		.byte	0x59
 6126 0e46 260D0000 		.4byte	.LVL334
 6127 0e4a 1A100000 		.4byte	.LVL375
 6128 0e4e 0100     		.2byte	0x1
 6129 0e50 50       		.byte	0x50
 6130 0e51 1A100000 		.4byte	.LVL375
 6131 0e55 60100000 		.4byte	.LVL381
 6132 0e59 0100     		.2byte	0x1
 6133 0e5b 55       		.byte	0x55
 6134 0e5c 60100000 		.4byte	.LVL381
 6135 0e60 A6100000 		.4byte	.LVL389
 6136 0e64 0100     		.2byte	0x1
 6137 0e66 54       		.byte	0x54
 6138 0e67 A6100000 		.4byte	.LVL389
 6139 0e6b EC100000 		.4byte	.LVL396
 6140 0e6f 0100     		.2byte	0x1
 6141 0e71 52       		.byte	0x52
 6142 0e72 EC100000 		.4byte	.LVL396
 6143 0e76 2C110000 		.4byte	.LVL402
 6144 0e7a 0100     		.2byte	0x1
 6145 0e7c 5A       		.byte	0x5a
 6146 0e7d 2C110000 		.4byte	.LVL402
 6147 0e81 6C110000 		.4byte	.LVL410
 6148 0e85 0100     		.2byte	0x1
 6149 0e87 5C       		.byte	0x5c
 6150 0e88 6C110000 		.4byte	.LVL410
 6151 0e8c AE110000 		.4byte	.LVL417
 6152 0e90 0100     		.2byte	0x1
 6153 0e92 5E       		.byte	0x5e
 6154 0e93 AE110000 		.4byte	.LVL417
 6155 0e97 F0110000 		.4byte	.LVL424
 6156 0e9b 0100     		.2byte	0x1
 6157 0e9d 59       		.byte	0x59
 6158 0e9e F0110000 		.4byte	.LVL424
 6159 0ea2 32120000 		.4byte	.LVL432
 6160 0ea6 0100     		.2byte	0x1
 6161 0ea8 58       		.byte	0x58
 6162 0ea9 32120000 		.4byte	.LVL432
 6163 0ead 74120000 		.4byte	.LVL439
 6164 0eb1 0100     		.2byte	0x1
 6165 0eb3 5C       		.byte	0x5c
 6166 0eb4 74120000 		.4byte	.LVL439
 6167 0eb8 BA120000 		.4byte	.LVL447
 6168 0ebc 0100     		.2byte	0x1
ARM GAS  C:\Users\bogur\AppData\Local\Temp\cc4rWh5U.s 			page 114


 6169 0ebe 5E       		.byte	0x5e
 6170 0ebf BA120000 		.4byte	.LVL447
 6171 0ec3 00130000 		.4byte	.LVL454
 6172 0ec7 0100     		.2byte	0x1
 6173 0ec9 51       		.byte	0x51
 6174 0eca 00130000 		.4byte	.LVL454
 6175 0ece 48130000 		.4byte	.LVL462
 6176 0ed2 0100     		.2byte	0x1
 6177 0ed4 52       		.byte	0x52
 6178 0ed5 48130000 		.4byte	.LVL462
 6179 0ed9 88130000 		.4byte	.LVL468
 6180 0edd 0100     		.2byte	0x1
 6181 0edf 53       		.byte	0x53
 6182 0ee0 88130000 		.4byte	.LVL468
 6183 0ee4 D0130000 		.4byte	.LVL475
 6184 0ee8 0100     		.2byte	0x1
 6185 0eea 57       		.byte	0x57
 6186 0eeb D0130000 		.4byte	.LVL475
 6187 0eef 5E140000 		.4byte	.LVL482
 6188 0ef3 0100     		.2byte	0x1
 6189 0ef5 56       		.byte	0x56
 6190 0ef6 5E140000 		.4byte	.LVL482
 6191 0efa 46170000 		.4byte	.LVL517
 6192 0efe 0100     		.2byte	0x1
 6193 0f00 55       		.byte	0x55
 6194 0f01 46170000 		.4byte	.LVL517
 6195 0f05 8C170000 		.4byte	.LVL524
 6196 0f09 0100     		.2byte	0x1
 6197 0f0b 54       		.byte	0x54
 6198 0f0c 8C170000 		.4byte	.LVL524
 6199 0f10 DE170000 		.4byte	.LVL532
 6200 0f14 0100     		.2byte	0x1
 6201 0f16 50       		.byte	0x50
 6202 0f17 DE170000 		.4byte	.LVL532
 6203 0f1b 20180000 		.4byte	.LVL540
 6204 0f1f 0100     		.2byte	0x1
 6205 0f21 51       		.byte	0x51
 6206 0f22 20180000 		.4byte	.LVL540
 6207 0f26 64180000 		.4byte	.LVL548
 6208 0f2a 0100     		.2byte	0x1
 6209 0f2c 52       		.byte	0x52
 6210 0f2d 64180000 		.4byte	.LVL548
 6211 0f31 A8180000 		.4byte	.LVL556
 6212 0f35 0100     		.2byte	0x1
 6213 0f37 5B       		.byte	0x5b
 6214 0f38 A8180000 		.4byte	.LVL556
 6215 0f3c F0180000 		.4byte	.LVL564
 6216 0f40 0100     		.2byte	0x1
 6217 0f42 5E       		.byte	0x5e
 6218 0f43 F0180000 		.4byte	.LVL564
 6219 0f47 38190000 		.4byte	.LVL573
 6220 0f4b 0100     		.2byte	0x1
 6221 0f4d 57       		.byte	0x57
 6222 0f4e 38190000 		.4byte	.LVL573
 6223 0f52 80190000 		.4byte	.LVL582
 6224 0f56 0100     		.2byte	0x1
 6225 0f58 56       		.byte	0x56
ARM GAS  C:\Users\bogur\AppData\Local\Temp\cc4rWh5U.s 			page 115


 6226 0f59 80190000 		.4byte	.LVL582
 6227 0f5d CA190000 		.4byte	.LVL589
 6228 0f61 0100     		.2byte	0x1
 6229 0f63 55       		.byte	0x55
 6230 0f64 CA190000 		.4byte	.LVL589
 6231 0f68 121A0000 		.4byte	.LVL597
 6232 0f6c 0100     		.2byte	0x1
 6233 0f6e 54       		.byte	0x54
 6234 0f6f 121A0000 		.4byte	.LVL597
 6235 0f73 561A0000 		.4byte	.LVL606
 6236 0f77 0100     		.2byte	0x1
 6237 0f79 50       		.byte	0x50
 6238 0f7a 561A0000 		.4byte	.LVL606
 6239 0f7e 9C1A0000 		.4byte	.LVL615
 6240 0f82 0100     		.2byte	0x1
 6241 0f84 52       		.byte	0x52
 6242 0f85 9C1A0000 		.4byte	.LVL615
 6243 0f89 E01A0000 		.4byte	.LVL622
 6244 0f8d 0100     		.2byte	0x1
 6245 0f8f 5C       		.byte	0x5c
 6246 0f90 E01A0000 		.4byte	.LVL622
 6247 0f94 221B0000 		.4byte	.LVL629
 6248 0f98 0100     		.2byte	0x1
 6249 0f9a 58       		.byte	0x58
 6250 0f9b 221B0000 		.4byte	.LVL629
 6251 0f9f 661B0000 		.4byte	.LVL637
 6252 0fa3 0100     		.2byte	0x1
 6253 0fa5 5E       		.byte	0x5e
 6254 0fa6 661B0000 		.4byte	.LVL637
 6255 0faa 3E1C0000 		.4byte	.LFE2
 6256 0fae 0100     		.2byte	0x1
 6257 0fb0 57       		.byte	0x57
 6258 0fb1 00000000 		.4byte	0
 6259 0fb5 00000000 		.4byte	0
 6260              	.LLST10:
 6261 0fb9 64000000 		.4byte	.LVL22
 6262 0fbd 6E000000 		.4byte	.LVL23
 6263 0fc1 0100     		.2byte	0x1
 6264 0fc3 50       		.byte	0x50
 6265 0fc4 6E000000 		.4byte	.LVL23
 6266 0fc8 96010000 		.4byte	.LVL85
 6267 0fcc 0100     		.2byte	0x1
 6268 0fce 5A       		.byte	0x5a
 6269 0fcf 96010000 		.4byte	.LVL85
 6270 0fd3 D6010000 		.4byte	.LVL93
 6271 0fd7 0100     		.2byte	0x1
 6272 0fd9 57       		.byte	0x57
 6273 0fda D6010000 		.4byte	.LVL93
 6274 0fde 1C020000 		.4byte	.LVL99
 6275 0fe2 0100     		.2byte	0x1
 6276 0fe4 50       		.byte	0x50
 6277 0fe5 1C020000 		.4byte	.LVL99
 6278 0fe9 62020000 		.4byte	.LVL105
 6279 0fed 0100     		.2byte	0x1
 6280 0fef 58       		.byte	0x58
 6281 0ff0 62020000 		.4byte	.LVL105
 6282 0ff4 A4020000 		.4byte	.LVL111
ARM GAS  C:\Users\bogur\AppData\Local\Temp\cc4rWh5U.s 			page 116


 6283 0ff8 0100     		.2byte	0x1
 6284 0ffa 5C       		.byte	0x5c
 6285 0ffb A4020000 		.4byte	.LVL111
 6286 0fff E8020000 		.4byte	.LVL118
 6287 1003 0100     		.2byte	0x1
 6288 1005 5E       		.byte	0x5e
 6289 1006 E8020000 		.4byte	.LVL118
 6290 100a 2C030000 		.4byte	.LVL125
 6291 100e 0100     		.2byte	0x1
 6292 1010 56       		.byte	0x56
 6293 1011 2C030000 		.4byte	.LVL125
 6294 1015 72030000 		.4byte	.LVL132
 6295 1019 0100     		.2byte	0x1
 6296 101b 53       		.byte	0x53
 6297 101c 72030000 		.4byte	.LVL132
 6298 1020 BA030000 		.4byte	.LVL138
 6299 1024 0100     		.2byte	0x1
 6300 1026 57       		.byte	0x57
 6301 1027 BA030000 		.4byte	.LVL138
 6302 102b 00040000 		.4byte	.LVL143
 6303 102f 0100     		.2byte	0x1
 6304 1031 58       		.byte	0x58
 6305 1032 00040000 		.4byte	.LVL143
 6306 1036 44040000 		.4byte	.LVL151
 6307 103a 0100     		.2byte	0x1
 6308 103c 5C       		.byte	0x5c
 6309 103d 44040000 		.4byte	.LVL151
 6310 1041 8A040000 		.4byte	.LVL159
 6311 1045 0100     		.2byte	0x1
 6312 1047 5E       		.byte	0x5e
 6313 1048 8A040000 		.4byte	.LVL159
 6314 104c D0040000 		.4byte	.LVL168
 6315 1050 0100     		.2byte	0x1
 6316 1052 57       		.byte	0x57
 6317 1053 D0040000 		.4byte	.LVL168
 6318 1057 12050000 		.4byte	.LVL176
 6319 105b 0100     		.2byte	0x1
 6320 105d 50       		.byte	0x50
 6321 105e 12050000 		.4byte	.LVL176
 6322 1062 96050000 		.4byte	.LVL183
 6323 1066 0100     		.2byte	0x1
 6324 1068 56       		.byte	0x56
 6325 1069 96050000 		.4byte	.LVL183
 6326 106d DE050000 		.4byte	.LVL190
 6327 1071 0300     		.2byte	0x3
 6328 1073 91       		.byte	0x91
 6329 1074 887F     		.sleb128 -120
 6330 1076 DE050000 		.4byte	.LVL190
 6331 107a B0080000 		.4byte	.LVL228
 6332 107e 0100     		.2byte	0x1
 6333 1080 51       		.byte	0x51
 6334 1081 B0080000 		.4byte	.LVL228
 6335 1085 06090000 		.4byte	.LVL234
 6336 1089 0300     		.2byte	0x3
 6337 108b 91       		.byte	0x91
 6338 108c FC7E     		.sleb128 -132
 6339 108e 06090000 		.4byte	.LVL234
ARM GAS  C:\Users\bogur\AppData\Local\Temp\cc4rWh5U.s 			page 117


 6340 1092 4A090000 		.4byte	.LVL241
 6341 1096 0100     		.2byte	0x1
 6342 1098 53       		.byte	0x53
 6343 1099 4A090000 		.4byte	.LVL241
 6344 109d 94090000 		.4byte	.LVL247
 6345 10a1 0100     		.2byte	0x1
 6346 10a3 52       		.byte	0x52
 6347 10a4 94090000 		.4byte	.LVL247
 6348 10a8 DE090000 		.4byte	.LVL255
 6349 10ac 0100     		.2byte	0x1
 6350 10ae 58       		.byte	0x58
 6351 10af DE090000 		.4byte	.LVL255
 6352 10b3 240A0000 		.4byte	.LVL262
 6353 10b7 0100     		.2byte	0x1
 6354 10b9 57       		.byte	0x57
 6355 10ba 240A0000 		.4byte	.LVL262
 6356 10be 6A0A0000 		.4byte	.LVL269
 6357 10c2 0100     		.2byte	0x1
 6358 10c4 56       		.byte	0x56
 6359 10c5 6A0A0000 		.4byte	.LVL269
 6360 10c9 B20A0000 		.4byte	.LVL276
 6361 10cd 0100     		.2byte	0x1
 6362 10cf 55       		.byte	0x55
 6363 10d0 B20A0000 		.4byte	.LVL276
 6364 10d4 F80A0000 		.4byte	.LVL283
 6365 10d8 0100     		.2byte	0x1
 6366 10da 51       		.byte	0x51
 6367 10db F80A0000 		.4byte	.LVL283
 6368 10df 3E0B0000 		.4byte	.LVL290
 6369 10e3 0100     		.2byte	0x1
 6370 10e5 50       		.byte	0x50
 6371 10e6 3E0B0000 		.4byte	.LVL290
 6372 10ea 840B0000 		.4byte	.LVL297
 6373 10ee 0100     		.2byte	0x1
 6374 10f0 54       		.byte	0x54
 6375 10f1 840B0000 		.4byte	.LVL297
 6376 10f5 CA0B0000 		.4byte	.LVL304
 6377 10f9 0100     		.2byte	0x1
 6378 10fb 52       		.byte	0x52
 6379 10fc CA0B0000 		.4byte	.LVL304
 6380 1100 100C0000 		.4byte	.LVL311
 6381 1104 0100     		.2byte	0x1
 6382 1106 53       		.byte	0x53
 6383 1107 100C0000 		.4byte	.LVL311
 6384 110b 560C0000 		.4byte	.LVL318
 6385 110f 0100     		.2byte	0x1
 6386 1111 58       		.byte	0x58
 6387 1112 560C0000 		.4byte	.LVL318
 6388 1116 9E0C0000 		.4byte	.LVL326
 6389 111a 0100     		.2byte	0x1
 6390 111c 57       		.byte	0x57
 6391 111d 9E0C0000 		.4byte	.LVL326
 6392 1121 240D0000 		.4byte	.LVL333
 6393 1125 0300     		.2byte	0x3
 6394 1127 91       		.byte	0x91
 6395 1128 907F     		.sleb128 -112
 6396 112a 240D0000 		.4byte	.LVL333
ARM GAS  C:\Users\bogur\AppData\Local\Temp\cc4rWh5U.s 			page 118


 6397 112e 18100000 		.4byte	.LVL374
 6398 1132 0100     		.2byte	0x1
 6399 1134 59       		.byte	0x59
 6400 1135 18100000 		.4byte	.LVL374
 6401 1139 5E100000 		.4byte	.LVL380
 6402 113d 0100     		.2byte	0x1
 6403 113f 50       		.byte	0x50
 6404 1140 5E100000 		.4byte	.LVL380
 6405 1144 A4100000 		.4byte	.LVL388
 6406 1148 0100     		.2byte	0x1
 6407 114a 55       		.byte	0x55
 6408 114b A4100000 		.4byte	.LVL388
 6409 114f E8100000 		.4byte	.LVL395
 6410 1153 0100     		.2byte	0x1
 6411 1155 54       		.byte	0x54
 6412 1156 E8100000 		.4byte	.LVL395
 6413 115a 2A110000 		.4byte	.LVL401
 6414 115e 0100     		.2byte	0x1
 6415 1160 52       		.byte	0x52
 6416 1161 2A110000 		.4byte	.LVL401
 6417 1165 6A110000 		.4byte	.LVL409
 6418 1169 0100     		.2byte	0x1
 6419 116b 5A       		.byte	0x5a
 6420 116c 6A110000 		.4byte	.LVL409
 6421 1170 AA110000 		.4byte	.LVL416
 6422 1174 0100     		.2byte	0x1
 6423 1176 5C       		.byte	0x5c
 6424 1177 AA110000 		.4byte	.LVL416
 6425 117b EC110000 		.4byte	.LVL423
 6426 117f 0100     		.2byte	0x1
 6427 1181 5E       		.byte	0x5e
 6428 1182 EC110000 		.4byte	.LVL423
 6429 1186 2E120000 		.4byte	.LVL431
 6430 118a 0100     		.2byte	0x1
 6431 118c 59       		.byte	0x59
 6432 118d 2E120000 		.4byte	.LVL431
 6433 1191 70120000 		.4byte	.LVL438
 6434 1195 0100     		.2byte	0x1
 6435 1197 58       		.byte	0x58
 6436 1198 70120000 		.4byte	.LVL438
 6437 119c B8120000 		.4byte	.LVL446
 6438 11a0 0100     		.2byte	0x1
 6439 11a2 5C       		.byte	0x5c
 6440 11a3 B8120000 		.4byte	.LVL446
 6441 11a7 FE120000 		.4byte	.LVL453
 6442 11ab 0100     		.2byte	0x1
 6443 11ad 5E       		.byte	0x5e
 6444 11ae FE120000 		.4byte	.LVL453
 6445 11b2 44130000 		.4byte	.LVL461
 6446 11b6 0100     		.2byte	0x1
 6447 11b8 51       		.byte	0x51
 6448 11b9 44130000 		.4byte	.LVL461
 6449 11bd 84130000 		.4byte	.LVL467
 6450 11c1 0100     		.2byte	0x1
 6451 11c3 52       		.byte	0x52
 6452 11c4 84130000 		.4byte	.LVL467
 6453 11c8 A8130000 		.4byte	.LVL472
ARM GAS  C:\Users\bogur\AppData\Local\Temp\cc4rWh5U.s 			page 119


 6454 11cc 0100     		.2byte	0x1
 6455 11ce 53       		.byte	0x53
 6456 11cf A8130000 		.4byte	.LVL472
 6457 11d3 CC130000 		.4byte	.LVL474
 6458 11d7 0300     		.2byte	0x3
 6459 11d9 91       		.byte	0x91
 6460 11da 8C7F     		.sleb128 -116
 6461 11dc CC130000 		.4byte	.LVL474
 6462 11e0 5A140000 		.4byte	.LVL481
 6463 11e4 0100     		.2byte	0x1
 6464 11e6 57       		.byte	0x57
 6465 11e7 5A140000 		.4byte	.LVL481
 6466 11eb 44170000 		.4byte	.LVL516
 6467 11ef 0100     		.2byte	0x1
 6468 11f1 56       		.byte	0x56
 6469 11f2 44170000 		.4byte	.LVL516
 6470 11f6 8A170000 		.4byte	.LVL523
 6471 11fa 0100     		.2byte	0x1
 6472 11fc 55       		.byte	0x55
 6473 11fd 8A170000 		.4byte	.LVL523
 6474 1201 DC170000 		.4byte	.LVL531
 6475 1205 0100     		.2byte	0x1
 6476 1207 54       		.byte	0x54
 6477 1208 DC170000 		.4byte	.LVL531
 6478 120c 1E180000 		.4byte	.LVL539
 6479 1210 0100     		.2byte	0x1
 6480 1212 50       		.byte	0x50
 6481 1213 1E180000 		.4byte	.LVL539
 6482 1217 62180000 		.4byte	.LVL547
 6483 121b 0100     		.2byte	0x1
 6484 121d 51       		.byte	0x51
 6485 121e 62180000 		.4byte	.LVL547
 6486 1222 A6180000 		.4byte	.LVL555
 6487 1226 0100     		.2byte	0x1
 6488 1228 52       		.byte	0x52
 6489 1229 A6180000 		.4byte	.LVL555
 6490 122d EE180000 		.4byte	.LVL563
 6491 1231 0100     		.2byte	0x1
 6492 1233 5B       		.byte	0x5b
 6493 1234 EE180000 		.4byte	.LVL563
 6494 1238 36190000 		.4byte	.LVL572
 6495 123c 0100     		.2byte	0x1
 6496 123e 5E       		.byte	0x5e
 6497 123f 36190000 		.4byte	.LVL572
 6498 1243 7E190000 		.4byte	.LVL581
 6499 1247 0100     		.2byte	0x1
 6500 1249 57       		.byte	0x57
 6501 124a 7E190000 		.4byte	.LVL581
 6502 124e C8190000 		.4byte	.LVL588
 6503 1252 0100     		.2byte	0x1
 6504 1254 56       		.byte	0x56
 6505 1255 C8190000 		.4byte	.LVL588
 6506 1259 101A0000 		.4byte	.LVL596
 6507 125d 0100     		.2byte	0x1
 6508 125f 55       		.byte	0x55
 6509 1260 101A0000 		.4byte	.LVL596
 6510 1264 541A0000 		.4byte	.LVL605
ARM GAS  C:\Users\bogur\AppData\Local\Temp\cc4rWh5U.s 			page 120


 6511 1268 0100     		.2byte	0x1
 6512 126a 54       		.byte	0x54
 6513 126b 541A0000 		.4byte	.LVL605
 6514 126f 9A1A0000 		.4byte	.LVL614
 6515 1273 0100     		.2byte	0x1
 6516 1275 50       		.byte	0x50
 6517 1276 9A1A0000 		.4byte	.LVL614
 6518 127a DE1A0000 		.4byte	.LVL621
 6519 127e 0100     		.2byte	0x1
 6520 1280 52       		.byte	0x52
 6521 1281 DE1A0000 		.4byte	.LVL621
 6522 1285 201B0000 		.4byte	.LVL628
 6523 1289 0100     		.2byte	0x1
 6524 128b 5C       		.byte	0x5c
 6525 128c 201B0000 		.4byte	.LVL628
 6526 1290 641B0000 		.4byte	.LVL636
 6527 1294 0100     		.2byte	0x1
 6528 1296 58       		.byte	0x58
 6529 1297 641B0000 		.4byte	.LVL636
 6530 129b BE1B0000 		.4byte	.LVL645
 6531 129f 0100     		.2byte	0x1
 6532 12a1 5E       		.byte	0x5e
 6533 12a2 BE1B0000 		.4byte	.LVL645
 6534 12a6 3E1C0000 		.4byte	.LFE2
 6535 12aa 0100     		.2byte	0x1
 6536 12ac 5A       		.byte	0x5a
 6537 12ad 00000000 		.4byte	0
 6538 12b1 00000000 		.4byte	0
 6539              	.LLST11:
 6540 12b5 74000000 		.4byte	.LVL25
 6541 12b9 7E000000 		.4byte	.LVL26
 6542 12bd 0100     		.2byte	0x1
 6543 12bf 50       		.byte	0x50
 6544 12c0 7E000000 		.4byte	.LVL26
 6545 12c4 8A000000 		.4byte	.LVL28
 6546 12c8 0100     		.2byte	0x1
 6547 12ca 57       		.byte	0x57
 6548 12cb 8A000000 		.4byte	.LVL28
 6549 12cf 98000000 		.4byte	.LVL34
 6550 12d3 0100     		.2byte	0x1
 6551 12d5 52       		.byte	0x52
 6552 12d6 98000000 		.4byte	.LVL34
 6553 12da 96010000 		.4byte	.LVL85
 6554 12de 0100     		.2byte	0x1
 6555 12e0 58       		.byte	0x58
 6556 12e1 96010000 		.4byte	.LVL85
 6557 12e5 D6010000 		.4byte	.LVL93
 6558 12e9 0100     		.2byte	0x1
 6559 12eb 5A       		.byte	0x5a
 6560 12ec D6010000 		.4byte	.LVL93
 6561 12f0 1C020000 		.4byte	.LVL99
 6562 12f4 0100     		.2byte	0x1
 6563 12f6 57       		.byte	0x57
 6564 12f7 1C020000 		.4byte	.LVL99
 6565 12fb 62020000 		.4byte	.LVL105
 6566 12ff 0100     		.2byte	0x1
 6567 1301 50       		.byte	0x50
ARM GAS  C:\Users\bogur\AppData\Local\Temp\cc4rWh5U.s 			page 121


 6568 1302 62020000 		.4byte	.LVL105
 6569 1306 A4020000 		.4byte	.LVL111
 6570 130a 0100     		.2byte	0x1
 6571 130c 58       		.byte	0x58
 6572 130d A4020000 		.4byte	.LVL111
 6573 1311 E8020000 		.4byte	.LVL118
 6574 1315 0100     		.2byte	0x1
 6575 1317 5C       		.byte	0x5c
 6576 1318 E8020000 		.4byte	.LVL118
 6577 131c 2C030000 		.4byte	.LVL125
 6578 1320 0100     		.2byte	0x1
 6579 1322 5E       		.byte	0x5e
 6580 1323 2C030000 		.4byte	.LVL125
 6581 1327 72030000 		.4byte	.LVL132
 6582 132b 0100     		.2byte	0x1
 6583 132d 56       		.byte	0x56
 6584 132e 72030000 		.4byte	.LVL132
 6585 1332 BA030000 		.4byte	.LVL138
 6586 1336 0100     		.2byte	0x1
 6587 1338 53       		.byte	0x53
 6588 1339 BA030000 		.4byte	.LVL138
 6589 133d 00040000 		.4byte	.LVL143
 6590 1341 0100     		.2byte	0x1
 6591 1343 57       		.byte	0x57
 6592 1344 00040000 		.4byte	.LVL143
 6593 1348 44040000 		.4byte	.LVL151
 6594 134c 0100     		.2byte	0x1
 6595 134e 58       		.byte	0x58
 6596 134f 44040000 		.4byte	.LVL151
 6597 1353 8A040000 		.4byte	.LVL159
 6598 1357 0100     		.2byte	0x1
 6599 1359 5C       		.byte	0x5c
 6600 135a 8A040000 		.4byte	.LVL159
 6601 135e D0040000 		.4byte	.LVL168
 6602 1362 0100     		.2byte	0x1
 6603 1364 5E       		.byte	0x5e
 6604 1365 D0040000 		.4byte	.LVL168
 6605 1369 12050000 		.4byte	.LVL176
 6606 136d 0100     		.2byte	0x1
 6607 136f 57       		.byte	0x57
 6608 1370 12050000 		.4byte	.LVL176
 6609 1374 96050000 		.4byte	.LVL183
 6610 1378 0100     		.2byte	0x1
 6611 137a 50       		.byte	0x50
 6612 137b 96050000 		.4byte	.LVL183
 6613 137f DE050000 		.4byte	.LVL190
 6614 1383 0100     		.2byte	0x1
 6615 1385 56       		.byte	0x56
 6616 1386 DE050000 		.4byte	.LVL190
 6617 138a B0080000 		.4byte	.LVL228
 6618 138e 0300     		.2byte	0x3
 6619 1390 91       		.byte	0x91
 6620 1391 887F     		.sleb128 -120
 6621 1393 B0080000 		.4byte	.LVL228
 6622 1397 06090000 		.4byte	.LVL234
 6623 139b 0100     		.2byte	0x1
 6624 139d 51       		.byte	0x51
ARM GAS  C:\Users\bogur\AppData\Local\Temp\cc4rWh5U.s 			page 122


 6625 139e 06090000 		.4byte	.LVL234
 6626 13a2 4A090000 		.4byte	.LVL241
 6627 13a6 0300     		.2byte	0x3
 6628 13a8 91       		.byte	0x91
 6629 13a9 FC7E     		.sleb128 -132
 6630 13ab 4A090000 		.4byte	.LVL241
 6631 13af 94090000 		.4byte	.LVL247
 6632 13b3 0100     		.2byte	0x1
 6633 13b5 53       		.byte	0x53
 6634 13b6 94090000 		.4byte	.LVL247
 6635 13ba DE090000 		.4byte	.LVL255
 6636 13be 0100     		.2byte	0x1
 6637 13c0 52       		.byte	0x52
 6638 13c1 DE090000 		.4byte	.LVL255
 6639 13c5 240A0000 		.4byte	.LVL262
 6640 13c9 0100     		.2byte	0x1
 6641 13cb 58       		.byte	0x58
 6642 13cc 240A0000 		.4byte	.LVL262
 6643 13d0 6A0A0000 		.4byte	.LVL269
 6644 13d4 0100     		.2byte	0x1
 6645 13d6 57       		.byte	0x57
 6646 13d7 6A0A0000 		.4byte	.LVL269
 6647 13db B20A0000 		.4byte	.LVL276
 6648 13df 0100     		.2byte	0x1
 6649 13e1 56       		.byte	0x56
 6650 13e2 B20A0000 		.4byte	.LVL276
 6651 13e6 F80A0000 		.4byte	.LVL283
 6652 13ea 0100     		.2byte	0x1
 6653 13ec 55       		.byte	0x55
 6654 13ed F80A0000 		.4byte	.LVL283
 6655 13f1 3E0B0000 		.4byte	.LVL290
 6656 13f5 0100     		.2byte	0x1
 6657 13f7 51       		.byte	0x51
 6658 13f8 3E0B0000 		.4byte	.LVL290
 6659 13fc 840B0000 		.4byte	.LVL297
 6660 1400 0100     		.2byte	0x1
 6661 1402 50       		.byte	0x50
 6662 1403 840B0000 		.4byte	.LVL297
 6663 1407 CA0B0000 		.4byte	.LVL304
 6664 140b 0100     		.2byte	0x1
 6665 140d 54       		.byte	0x54
 6666 140e CA0B0000 		.4byte	.LVL304
 6667 1412 100C0000 		.4byte	.LVL311
 6668 1416 0100     		.2byte	0x1
 6669 1418 52       		.byte	0x52
 6670 1419 100C0000 		.4byte	.LVL311
 6671 141d 560C0000 		.4byte	.LVL318
 6672 1421 0100     		.2byte	0x1
 6673 1423 53       		.byte	0x53
 6674 1424 560C0000 		.4byte	.LVL318
 6675 1428 9E0C0000 		.4byte	.LVL326
 6676 142c 0100     		.2byte	0x1
 6677 142e 58       		.byte	0x58
 6678 142f 9E0C0000 		.4byte	.LVL326
 6679 1433 240D0000 		.4byte	.LVL333
 6680 1437 0100     		.2byte	0x1
 6681 1439 57       		.byte	0x57
ARM GAS  C:\Users\bogur\AppData\Local\Temp\cc4rWh5U.s 			page 123


 6682 143a 240D0000 		.4byte	.LVL333
 6683 143e 18100000 		.4byte	.LVL374
 6684 1442 0300     		.2byte	0x3
 6685 1444 91       		.byte	0x91
 6686 1445 907F     		.sleb128 -112
 6687 1447 18100000 		.4byte	.LVL374
 6688 144b 5E100000 		.4byte	.LVL380
 6689 144f 0100     		.2byte	0x1
 6690 1451 59       		.byte	0x59
 6691 1452 5E100000 		.4byte	.LVL380
 6692 1456 A4100000 		.4byte	.LVL388
 6693 145a 0100     		.2byte	0x1
 6694 145c 50       		.byte	0x50
 6695 145d A4100000 		.4byte	.LVL388
 6696 1461 E8100000 		.4byte	.LVL395
 6697 1465 0100     		.2byte	0x1
 6698 1467 55       		.byte	0x55
 6699 1468 E8100000 		.4byte	.LVL395
 6700 146c 2A110000 		.4byte	.LVL401
 6701 1470 0100     		.2byte	0x1
 6702 1472 54       		.byte	0x54
 6703 1473 2A110000 		.4byte	.LVL401
 6704 1477 6A110000 		.4byte	.LVL409
 6705 147b 0100     		.2byte	0x1
 6706 147d 52       		.byte	0x52
 6707 147e 6A110000 		.4byte	.LVL409
 6708 1482 AA110000 		.4byte	.LVL416
 6709 1486 0100     		.2byte	0x1
 6710 1488 5A       		.byte	0x5a
 6711 1489 AA110000 		.4byte	.LVL416
 6712 148d EC110000 		.4byte	.LVL423
 6713 1491 0100     		.2byte	0x1
 6714 1493 5C       		.byte	0x5c
 6715 1494 EC110000 		.4byte	.LVL423
 6716 1498 2E120000 		.4byte	.LVL431
 6717 149c 0100     		.2byte	0x1
 6718 149e 5E       		.byte	0x5e
 6719 149f 2E120000 		.4byte	.LVL431
 6720 14a3 70120000 		.4byte	.LVL438
 6721 14a7 0100     		.2byte	0x1
 6722 14a9 59       		.byte	0x59
 6723 14aa 70120000 		.4byte	.LVL438
 6724 14ae B8120000 		.4byte	.LVL446
 6725 14b2 0100     		.2byte	0x1
 6726 14b4 58       		.byte	0x58
 6727 14b5 B8120000 		.4byte	.LVL446
 6728 14b9 FE120000 		.4byte	.LVL453
 6729 14bd 0100     		.2byte	0x1
 6730 14bf 5C       		.byte	0x5c
 6731 14c0 FE120000 		.4byte	.LVL453
 6732 14c4 44130000 		.4byte	.LVL461
 6733 14c8 0100     		.2byte	0x1
 6734 14ca 5E       		.byte	0x5e
 6735 14cb 44130000 		.4byte	.LVL461
 6736 14cf 84130000 		.4byte	.LVL467
 6737 14d3 0100     		.2byte	0x1
 6738 14d5 51       		.byte	0x51
ARM GAS  C:\Users\bogur\AppData\Local\Temp\cc4rWh5U.s 			page 124


 6739 14d6 84130000 		.4byte	.LVL467
 6740 14da CC130000 		.4byte	.LVL474
 6741 14de 0100     		.2byte	0x1
 6742 14e0 52       		.byte	0x52
 6743 14e1 CC130000 		.4byte	.LVL474
 6744 14e5 5A140000 		.4byte	.LVL481
 6745 14e9 0300     		.2byte	0x3
 6746 14eb 91       		.byte	0x91
 6747 14ec 8C7F     		.sleb128 -116
 6748 14ee 5A140000 		.4byte	.LVL481
 6749 14f2 44170000 		.4byte	.LVL516
 6750 14f6 0100     		.2byte	0x1
 6751 14f8 57       		.byte	0x57
 6752 14f9 44170000 		.4byte	.LVL516
 6753 14fd 8A170000 		.4byte	.LVL523
 6754 1501 0100     		.2byte	0x1
 6755 1503 56       		.byte	0x56
 6756 1504 8A170000 		.4byte	.LVL523
 6757 1508 DC170000 		.4byte	.LVL531
 6758 150c 0100     		.2byte	0x1
 6759 150e 55       		.byte	0x55
 6760 150f DC170000 		.4byte	.LVL531
 6761 1513 1E180000 		.4byte	.LVL539
 6762 1517 0100     		.2byte	0x1
 6763 1519 54       		.byte	0x54
 6764 151a 1E180000 		.4byte	.LVL539
 6765 151e 62180000 		.4byte	.LVL547
 6766 1522 0100     		.2byte	0x1
 6767 1524 50       		.byte	0x50
 6768 1525 62180000 		.4byte	.LVL547
 6769 1529 A6180000 		.4byte	.LVL555
 6770 152d 0100     		.2byte	0x1
 6771 152f 51       		.byte	0x51
 6772 1530 A6180000 		.4byte	.LVL555
 6773 1534 EE180000 		.4byte	.LVL563
 6774 1538 0100     		.2byte	0x1
 6775 153a 52       		.byte	0x52
 6776 153b EE180000 		.4byte	.LVL563
 6777 153f 36190000 		.4byte	.LVL572
 6778 1543 0100     		.2byte	0x1
 6779 1545 5B       		.byte	0x5b
 6780 1546 36190000 		.4byte	.LVL572
 6781 154a 7E190000 		.4byte	.LVL581
 6782 154e 0100     		.2byte	0x1
 6783 1550 5E       		.byte	0x5e
 6784 1551 7E190000 		.4byte	.LVL581
 6785 1555 C8190000 		.4byte	.LVL588
 6786 1559 0100     		.2byte	0x1
 6787 155b 57       		.byte	0x57
 6788 155c C8190000 		.4byte	.LVL588
 6789 1560 101A0000 		.4byte	.LVL596
 6790 1564 0100     		.2byte	0x1
 6791 1566 56       		.byte	0x56
 6792 1567 101A0000 		.4byte	.LVL596
 6793 156b 541A0000 		.4byte	.LVL605
 6794 156f 0100     		.2byte	0x1
 6795 1571 55       		.byte	0x55
ARM GAS  C:\Users\bogur\AppData\Local\Temp\cc4rWh5U.s 			page 125


 6796 1572 541A0000 		.4byte	.LVL605
 6797 1576 9A1A0000 		.4byte	.LVL614
 6798 157a 0100     		.2byte	0x1
 6799 157c 54       		.byte	0x54
 6800 157d 9A1A0000 		.4byte	.LVL614
 6801 1581 DE1A0000 		.4byte	.LVL621
 6802 1585 0100     		.2byte	0x1
 6803 1587 50       		.byte	0x50
 6804 1588 DE1A0000 		.4byte	.LVL621
 6805 158c 201B0000 		.4byte	.LVL628
 6806 1590 0100     		.2byte	0x1
 6807 1592 52       		.byte	0x52
 6808 1593 201B0000 		.4byte	.LVL628
 6809 1597 641B0000 		.4byte	.LVL636
 6810 159b 0100     		.2byte	0x1
 6811 159d 5C       		.byte	0x5c
 6812 159e 641B0000 		.4byte	.LVL636
 6813 15a2 3E1C0000 		.4byte	.LFE2
 6814 15a6 0100     		.2byte	0x1
 6815 15a8 58       		.byte	0x58
 6816 15a9 00000000 		.4byte	0
 6817 15ad 00000000 		.4byte	0
 6818              	.LLST12:
 6819 15b1 82000000 		.4byte	.LVL27
 6820 15b5 98000000 		.4byte	.LVL34
 6821 15b9 0100     		.2byte	0x1
 6822 15bb 50       		.byte	0x50
 6823 15bc 98000000 		.4byte	.LVL34
 6824 15c0 60010000 		.4byte	.LVL82
 6825 15c4 0100     		.2byte	0x1
 6826 15c6 5B       		.byte	0x5b
 6827 15c7 60010000 		.4byte	.LVL82
 6828 15cb 96010000 		.4byte	.LVL85
 6829 15cf 0200     		.2byte	0x2
 6830 15d1 91       		.byte	0x91
 6831 15d2 54       		.sleb128 -44
 6832 15d3 96010000 		.4byte	.LVL85
 6833 15d7 AA010000 		.4byte	.LVL89
 6834 15db 0100     		.2byte	0x1
 6835 15dd 58       		.byte	0x58
 6836 15de AA010000 		.4byte	.LVL89
 6837 15e2 D6010000 		.4byte	.LVL93
 6838 15e6 0200     		.2byte	0x2
 6839 15e8 91       		.byte	0x91
 6840 15e9 50       		.sleb128 -48
 6841 15ea D6010000 		.4byte	.LVL93
 6842 15ee EA010000 		.4byte	.LVL96
 6843 15f2 0100     		.2byte	0x1
 6844 15f4 5A       		.byte	0x5a
 6845 15f5 EA010000 		.4byte	.LVL96
 6846 15f9 1C020000 		.4byte	.LVL99
 6847 15fd 0200     		.2byte	0x2
 6848 15ff 91       		.byte	0x91
 6849 1600 4C       		.sleb128 -52
 6850 1601 1C020000 		.4byte	.LVL99
 6851 1605 30020000 		.4byte	.LVL102
 6852 1609 0100     		.2byte	0x1
ARM GAS  C:\Users\bogur\AppData\Local\Temp\cc4rWh5U.s 			page 126


 6853 160b 57       		.byte	0x57
 6854 160c 30020000 		.4byte	.LVL102
 6855 1610 62020000 		.4byte	.LVL105
 6856 1614 0200     		.2byte	0x2
 6857 1616 91       		.byte	0x91
 6858 1617 48       		.sleb128 -56
 6859 1618 62020000 		.4byte	.LVL105
 6860 161c 76020000 		.4byte	.LVL108
 6861 1620 0100     		.2byte	0x1
 6862 1622 50       		.byte	0x50
 6863 1623 76020000 		.4byte	.LVL108
 6864 1627 A4020000 		.4byte	.LVL111
 6865 162b 0C00     		.2byte	0xc
 6866 162d 79       		.byte	0x79
 6867 162e 00       		.sleb128 0
 6868 162f 7B       		.byte	0x7b
 6869 1630 00       		.sleb128 0
 6870 1631 22       		.byte	0x22
 6871 1632 23       		.byte	0x23
 6872 1633 98DFA894 		.uleb128 0x428a2f98
 6872      04
 6873 1638 9F       		.byte	0x9f
 6874 1639 A4020000 		.4byte	.LVL111
 6875 163d B6020000 		.4byte	.LVL114
 6876 1641 0100     		.2byte	0x1
 6877 1643 58       		.byte	0x58
 6878 1644 B6020000 		.4byte	.LVL114
 6879 1648 E8020000 		.4byte	.LVL118
 6880 164c 7600     		.2byte	0x76
 6881 164e 79       		.byte	0x79
 6882 164f 00       		.sleb128 0
 6883 1650 7B       		.byte	0x7b
 6884 1651 00       		.sleb128 0
 6885 1652 22       		.byte	0x22
 6886 1653 23       		.byte	0x23
 6887 1654 98DFA894 		.uleb128 0x428a2f98
 6887      04
 6888 1659 36       		.byte	0x36
 6889 165a 14       		.byte	0x14
 6890 165b 14       		.byte	0x14
 6891 165c 1F       		.byte	0x1f
 6892 165d 23       		.byte	0x23
 6893 165e 20       		.uleb128 0x20
 6894 165f 24       		.byte	0x24
 6895 1660 17       		.byte	0x17
 6896 1661 25       		.byte	0x25
 6897 1662 21       		.byte	0x21
 6898 1663 79       		.byte	0x79
 6899 1664 00       		.sleb128 0
 6900 1665 7B       		.byte	0x7b
 6901 1666 00       		.sleb128 0
 6902 1667 22       		.byte	0x22
 6903 1668 23       		.byte	0x23
 6904 1669 98DFA894 		.uleb128 0x428a2f98
 6904      04
 6905 166e 3B       		.byte	0x3b
 6906 166f 14       		.byte	0x14
ARM GAS  C:\Users\bogur\AppData\Local\Temp\cc4rWh5U.s 			page 127


 6907 1670 14       		.byte	0x14
 6908 1671 1F       		.byte	0x1f
 6909 1672 23       		.byte	0x23
 6910 1673 20       		.uleb128 0x20
 6911 1674 24       		.byte	0x24
 6912 1675 17       		.byte	0x17
 6913 1676 25       		.byte	0x25
 6914 1677 21       		.byte	0x21
 6915 1678 27       		.byte	0x27
 6916 1679 79       		.byte	0x79
 6917 167a 00       		.sleb128 0
 6918 167b 7B       		.byte	0x7b
 6919 167c 00       		.sleb128 0
 6920 167d 22       		.byte	0x22
 6921 167e 23       		.byte	0x23
 6922 167f 98DFA894 		.uleb128 0x428a2f98
 6922      04
 6923 1684 49       		.byte	0x49
 6924 1685 14       		.byte	0x14
 6925 1686 14       		.byte	0x14
 6926 1687 1F       		.byte	0x1f
 6927 1688 23       		.byte	0x23
 6928 1689 20       		.uleb128 0x20
 6929 168a 24       		.byte	0x24
 6930 168b 17       		.byte	0x17
 6931 168c 25       		.byte	0x25
 6932 168d 21       		.byte	0x21
 6933 168e 27       		.byte	0x27
 6934 168f 79       		.byte	0x79
 6935 1690 00       		.sleb128 0
 6936 1691 7B       		.byte	0x7b
 6937 1692 00       		.sleb128 0
 6938 1693 22       		.byte	0x22
 6939 1694 23       		.byte	0x23
 6940 1695 98DFA894 		.uleb128 0x428a2f98
 6940      04
 6941 169a 20       		.byte	0x20
 6942 169b 91       		.byte	0x91
 6943 169c 4C       		.sleb128 -52
 6944 169d 06       		.byte	0x6
 6945 169e 1A       		.byte	0x1a
 6946 169f 79       		.byte	0x79
 6947 16a0 00       		.sleb128 0
 6948 16a1 7B       		.byte	0x7b
 6949 16a2 00       		.sleb128 0
 6950 16a3 22       		.byte	0x22
 6951 16a4 23       		.byte	0x23
 6952 16a5 98DFA894 		.uleb128 0x428a2f98
 6952      04
 6953 16aa 91       		.byte	0x91
 6954 16ab 48       		.sleb128 -56
 6955 16ac 06       		.byte	0x6
 6956 16ad 1A       		.byte	0x1a
 6957 16ae 27       		.byte	0x27
 6958 16af 22       		.byte	0x22
 6959 16b0 91       		.byte	0x91
 6960 16b1 40       		.sleb128 -64
ARM GAS  C:\Users\bogur\AppData\Local\Temp\cc4rWh5U.s 			page 128


 6961 16b2 06       		.byte	0x6
 6962 16b3 22       		.byte	0x22
 6963 16b4 91       		.byte	0x91
 6964 16b5 C87E     		.sleb128 -184
 6965 16b7 06       		.byte	0x6
 6966 16b8 22       		.byte	0x22
 6967 16b9 91       		.byte	0x91
 6968 16ba 50       		.sleb128 -48
 6969 16bb 06       		.byte	0x6
 6970 16bc 22       		.byte	0x22
 6971 16bd 23       		.byte	0x23
 6972 16be 9189DD89 		.uleb128 0x71374491
 6972      07
 6973 16c3 9F       		.byte	0x9f
 6974 16c4 E8020000 		.4byte	.LVL118
 6975 16c8 FA020000 		.4byte	.LVL121
 6976 16cc 0100     		.2byte	0x1
 6977 16ce 5C       		.byte	0x5c
 6978 16cf FA020000 		.4byte	.LVL121
 6979 16d3 2C030000 		.4byte	.LVL125
 6980 16d7 0E00     		.2byte	0xe
 6981 16d9 7A       		.byte	0x7a
 6982 16da 00       		.sleb128 0
 6983 16db 91       		.byte	0x91
 6984 16dc BC7F     		.sleb128 -68
 6985 16de 06       		.byte	0x6
 6986 16df 22       		.byte	0x22
 6987 16e0 0C       		.byte	0xc
 6988 16e1 31043F4A 		.4byte	0x4a3f0431
 6989 16e5 1C       		.byte	0x1c
 6990 16e6 9F       		.byte	0x9f
 6991 16e7 2C030000 		.4byte	.LVL125
 6992 16eb 3E030000 		.4byte	.LVL128
 6993 16ef 0100     		.2byte	0x1
 6994 16f1 5E       		.byte	0x5e
 6995 16f2 72030000 		.4byte	.LVL132
 6996 16f6 86030000 		.4byte	.LVL135
 6997 16fa 0100     		.2byte	0x1
 6998 16fc 56       		.byte	0x56
 6999 16fd BA030000 		.4byte	.LVL138
 7000 1701 CE030000 		.4byte	.LVL141
 7001 1705 0100     		.2byte	0x1
 7002 1707 53       		.byte	0x53
 7003 1708 00040000 		.4byte	.LVL143
 7004 170c 14040000 		.4byte	.LVL147
 7005 1710 0100     		.2byte	0x1
 7006 1712 57       		.byte	0x57
 7007 1713 44040000 		.4byte	.LVL151
 7008 1717 5C040000 		.4byte	.LVL155
 7009 171b 0100     		.2byte	0x1
 7010 171d 58       		.byte	0x58
 7011 171e 8A040000 		.4byte	.LVL159
 7012 1722 A2040000 		.4byte	.LVL163
 7013 1726 0100     		.2byte	0x1
 7014 1728 5C       		.byte	0x5c
 7015 1729 D0040000 		.4byte	.LVL168
 7016 172d E6040000 		.4byte	.LVL172
ARM GAS  C:\Users\bogur\AppData\Local\Temp\cc4rWh5U.s 			page 129


 7017 1731 0100     		.2byte	0x1
 7018 1733 5E       		.byte	0x5e
 7019 1734 12050000 		.4byte	.LVL176
 7020 1738 26050000 		.4byte	.LVL179
 7021 173c 0100     		.2byte	0x1
 7022 173e 57       		.byte	0x57
 7023 173f 96050000 		.4byte	.LVL183
 7024 1743 AA050000 		.4byte	.LVL187
 7025 1747 0100     		.2byte	0x1
 7026 1749 50       		.byte	0x50
 7027 174a DE050000 		.4byte	.LVL190
 7028 174e 78080000 		.4byte	.LVL226
 7029 1752 0100     		.2byte	0x1
 7030 1754 56       		.byte	0x56
 7031 1755 B0080000 		.4byte	.LVL228
 7032 1759 06090000 		.4byte	.LVL234
 7033 175d 0300     		.2byte	0x3
 7034 175f 91       		.byte	0x91
 7035 1760 887F     		.sleb128 -120
 7036 1762 06090000 		.4byte	.LVL234
 7037 1766 18090000 		.4byte	.LVL237
 7038 176a 0100     		.2byte	0x1
 7039 176c 51       		.byte	0x51
 7040 176d 4A090000 		.4byte	.LVL241
 7041 1771 94090000 		.4byte	.LVL247
 7042 1775 0300     		.2byte	0x3
 7043 1777 91       		.byte	0x91
 7044 1778 FC7E     		.sleb128 -132
 7045 177a 94090000 		.4byte	.LVL247
 7046 177e AA090000 		.4byte	.LVL251
 7047 1782 0100     		.2byte	0x1
 7048 1784 53       		.byte	0x53
 7049 1785 DE090000 		.4byte	.LVL255
 7050 1789 F0090000 		.4byte	.LVL258
 7051 178d 0100     		.2byte	0x1
 7052 178f 52       		.byte	0x52
 7053 1790 240A0000 		.4byte	.LVL262
 7054 1794 360A0000 		.4byte	.LVL265
 7055 1798 0100     		.2byte	0x1
 7056 179a 58       		.byte	0x58
 7057 179b 6A0A0000 		.4byte	.LVL269
 7058 179f 7C0A0000 		.4byte	.LVL272
 7059 17a3 0100     		.2byte	0x1
 7060 17a5 57       		.byte	0x57
 7061 17a6 B20A0000 		.4byte	.LVL276
 7062 17aa C40A0000 		.4byte	.LVL280
 7063 17ae 0100     		.2byte	0x1
 7064 17b0 56       		.byte	0x56
 7065 17b1 F80A0000 		.4byte	.LVL283
 7066 17b5 0A0B0000 		.4byte	.LVL286
 7067 17b9 0100     		.2byte	0x1
 7068 17bb 55       		.byte	0x55
 7069 17bc 3E0B0000 		.4byte	.LVL290
 7070 17c0 500B0000 		.4byte	.LVL293
 7071 17c4 0100     		.2byte	0x1
 7072 17c6 51       		.byte	0x51
 7073 17c7 840B0000 		.4byte	.LVL297
ARM GAS  C:\Users\bogur\AppData\Local\Temp\cc4rWh5U.s 			page 130


 7074 17cb 960B0000 		.4byte	.LVL300
 7075 17cf 0100     		.2byte	0x1
 7076 17d1 50       		.byte	0x50
 7077 17d2 CA0B0000 		.4byte	.LVL304
 7078 17d6 DC0B0000 		.4byte	.LVL307
 7079 17da 0100     		.2byte	0x1
 7080 17dc 54       		.byte	0x54
 7081 17dd 100C0000 		.4byte	.LVL311
 7082 17e1 220C0000 		.4byte	.LVL314
 7083 17e5 0100     		.2byte	0x1
 7084 17e7 52       		.byte	0x52
 7085 17e8 560C0000 		.4byte	.LVL318
 7086 17ec 6A0C0000 		.4byte	.LVL321
 7087 17f0 0100     		.2byte	0x1
 7088 17f2 53       		.byte	0x53
 7089 17f3 9E0C0000 		.4byte	.LVL326
 7090 17f7 EE0C0000 		.4byte	.LVL330
 7091 17fb 0100     		.2byte	0x1
 7092 17fd 58       		.byte	0x58
 7093 17fe 240D0000 		.4byte	.LVL333
 7094 1802 E00F0000 		.4byte	.LVL371
 7095 1806 0100     		.2byte	0x1
 7096 1808 57       		.byte	0x57
 7097 1809 18100000 		.4byte	.LVL374
 7098 180d 5E100000 		.4byte	.LVL380
 7099 1811 0300     		.2byte	0x3
 7100 1813 91       		.byte	0x91
 7101 1814 907F     		.sleb128 -112
 7102 1816 5E100000 		.4byte	.LVL380
 7103 181a 74100000 		.4byte	.LVL384
 7104 181e 0100     		.2byte	0x1
 7105 1820 59       		.byte	0x59
 7106 1821 A4100000 		.4byte	.LVL388
 7107 1825 B6100000 		.4byte	.LVL391
 7108 1829 0100     		.2byte	0x1
 7109 182b 50       		.byte	0x50
 7110 182c E8100000 		.4byte	.LVL395
 7111 1830 FC100000 		.4byte	.LVL398
 7112 1834 0100     		.2byte	0x1
 7113 1836 55       		.byte	0x55
 7114 1837 2A110000 		.4byte	.LVL401
 7115 183b 3C110000 		.4byte	.LVL405
 7116 183f 0100     		.2byte	0x1
 7117 1841 54       		.byte	0x54
 7118 1842 6A110000 		.4byte	.LVL409
 7119 1846 7C110000 		.4byte	.LVL413
 7120 184a 0100     		.2byte	0x1
 7121 184c 52       		.byte	0x52
 7122 184d AA110000 		.4byte	.LVL416
 7123 1851 BE110000 		.4byte	.LVL420
 7124 1855 0100     		.2byte	0x1
 7125 1857 5A       		.byte	0x5a
 7126 1858 EC110000 		.4byte	.LVL423
 7127 185c 00120000 		.4byte	.LVL427
 7128 1860 0100     		.2byte	0x1
 7129 1862 5C       		.byte	0x5c
 7130 1863 2E120000 		.4byte	.LVL431
ARM GAS  C:\Users\bogur\AppData\Local\Temp\cc4rWh5U.s 			page 131


 7131 1867 42120000 		.4byte	.LVL435
 7132 186b 0100     		.2byte	0x1
 7133 186d 5E       		.byte	0x5e
 7134 186e 70120000 		.4byte	.LVL438
 7135 1872 8A120000 		.4byte	.LVL442
 7136 1876 0100     		.2byte	0x1
 7137 1878 59       		.byte	0x59
 7138 1879 B8120000 		.4byte	.LVL446
 7139 187d D0120000 		.4byte	.LVL450
 7140 1881 0100     		.2byte	0x1
 7141 1883 58       		.byte	0x58
 7142 1884 FE120000 		.4byte	.LVL453
 7143 1888 16130000 		.4byte	.LVL457
 7144 188c 0100     		.2byte	0x1
 7145 188e 5C       		.byte	0x5c
 7146 188f 44130000 		.4byte	.LVL461
 7147 1893 58130000 		.4byte	.LVL465
 7148 1897 0100     		.2byte	0x1
 7149 1899 5E       		.byte	0x5e
 7150 189a 84130000 		.4byte	.LVL467
 7151 189e 98130000 		.4byte	.LVL470
 7152 18a2 0100     		.2byte	0x1
 7153 18a4 51       		.byte	0x51
 7154 18a5 CC130000 		.4byte	.LVL474
 7155 18a9 E0130000 		.4byte	.LVL478
 7156 18ad 0100     		.2byte	0x1
 7157 18af 52       		.byte	0x52
 7158 18b0 5A140000 		.4byte	.LVL481
 7159 18b4 44170000 		.4byte	.LVL516
 7160 18b8 0300     		.2byte	0x3
 7161 18ba 91       		.byte	0x91
 7162 18bb 8C7F     		.sleb128 -116
 7163 18bd 44170000 		.4byte	.LVL516
 7164 18c1 56170000 		.4byte	.LVL519
 7165 18c5 0100     		.2byte	0x1
 7166 18c7 57       		.byte	0x57
 7167 18c8 8A170000 		.4byte	.LVL523
 7168 18cc 9C170000 		.4byte	.LVL527
 7169 18d0 0100     		.2byte	0x1
 7170 18d2 56       		.byte	0x56
 7171 18d3 DC170000 		.4byte	.LVL531
 7172 18d7 EE170000 		.4byte	.LVL535
 7173 18db 0100     		.2byte	0x1
 7174 18dd 55       		.byte	0x55
 7175 18de 1E180000 		.4byte	.LVL539
 7176 18e2 30180000 		.4byte	.LVL543
 7177 18e6 0100     		.2byte	0x1
 7178 18e8 54       		.byte	0x54
 7179 18e9 62180000 		.4byte	.LVL547
 7180 18ed 74180000 		.4byte	.LVL551
 7181 18f1 0100     		.2byte	0x1
 7182 18f3 50       		.byte	0x50
 7183 18f4 A6180000 		.4byte	.LVL555
 7184 18f8 B8180000 		.4byte	.LVL559
 7185 18fc 0100     		.2byte	0x1
 7186 18fe 51       		.byte	0x51
 7187 18ff EE180000 		.4byte	.LVL563
ARM GAS  C:\Users\bogur\AppData\Local\Temp\cc4rWh5U.s 			page 132


 7188 1903 00190000 		.4byte	.LVL567
 7189 1907 0100     		.2byte	0x1
 7190 1909 52       		.byte	0x52
 7191 190a 36190000 		.4byte	.LVL572
 7192 190e 48190000 		.4byte	.LVL576
 7193 1912 0100     		.2byte	0x1
 7194 1914 5B       		.byte	0x5b
 7195 1915 7E190000 		.4byte	.LVL581
 7196 1919 90190000 		.4byte	.LVL585
 7197 191d 0100     		.2byte	0x1
 7198 191f 5E       		.byte	0x5e
 7199 1920 C8190000 		.4byte	.LVL588
 7200 1924 DA190000 		.4byte	.LVL592
 7201 1928 0100     		.2byte	0x1
 7202 192a 57       		.byte	0x57
 7203 192b 101A0000 		.4byte	.LVL596
 7204 192f 221A0000 		.4byte	.LVL600
 7205 1933 0100     		.2byte	0x1
 7206 1935 56       		.byte	0x56
 7207 1936 541A0000 		.4byte	.LVL605
 7208 193a 661A0000 		.4byte	.LVL609
 7209 193e 0100     		.2byte	0x1
 7210 1940 55       		.byte	0x55
 7211 1941 9A1A0000 		.4byte	.LVL614
 7212 1945 AC1A0000 		.4byte	.LVL617
 7213 1949 0100     		.2byte	0x1
 7214 194b 54       		.byte	0x54
 7215 194c DE1A0000 		.4byte	.LVL621
 7216 1950 F01A0000 		.4byte	.LVL624
 7217 1954 0100     		.2byte	0x1
 7218 1956 50       		.byte	0x50
 7219 1957 201B0000 		.4byte	.LVL628
 7220 195b 321B0000 		.4byte	.LVL631
 7221 195f 0100     		.2byte	0x1
 7222 1961 52       		.byte	0x52
 7223 1962 641B0000 		.4byte	.LVL636
 7224 1966 C81B0000 		.4byte	.LVL647
 7225 196a 0100     		.2byte	0x1
 7226 196c 5C       		.byte	0x5c
 7227 196d C81B0000 		.4byte	.LVL647
 7228 1971 3E1C0000 		.4byte	.LFE2
 7229 1975 0100     		.2byte	0x1
 7230 1977 5B       		.byte	0x5b
 7231 1978 00000000 		.4byte	0
 7232 197c 00000000 		.4byte	0
 7233              	.LLST13:
 7234 1980 74010000 		.4byte	.LVL83
 7235 1984 AE010000 		.4byte	.LVL90
 7236 1988 0100     		.2byte	0x1
 7237 198a 52       		.byte	0x52
 7238 198b AE010000 		.4byte	.LVL90
 7239 198f BE010000 		.4byte	.LVL91
 7240 1993 0700     		.2byte	0x7
 7241 1995 7B       		.byte	0x7b
 7242 1996 98DFA894 		.sleb128 1116352408
 7242      04
 7243 199b 9F       		.byte	0x9f
ARM GAS  C:\Users\bogur\AppData\Local\Temp\cc4rWh5U.s 			page 133


 7244 199c BE010000 		.4byte	.LVL91
 7245 19a0 DC010000 		.4byte	.LVL95
 7246 19a4 0100     		.2byte	0x1
 7247 19a6 53       		.byte	0x53
 7248 19a7 DC010000 		.4byte	.LVL95
 7249 19ab EA010000 		.4byte	.LVL96
 7250 19af 4300     		.2byte	0x43
 7251 19b1 70       		.byte	0x70
 7252 19b2 00       		.sleb128 0
 7253 19b3 36       		.byte	0x36
 7254 19b4 14       		.byte	0x14
 7255 19b5 14       		.byte	0x14
 7256 19b6 1F       		.byte	0x1f
 7257 19b7 23       		.byte	0x23
 7258 19b8 20       		.uleb128 0x20
 7259 19b9 24       		.byte	0x24
 7260 19ba 17       		.byte	0x17
 7261 19bb 25       		.byte	0x25
 7262 19bc 21       		.byte	0x21
 7263 19bd 70       		.byte	0x70
 7264 19be 00       		.sleb128 0
 7265 19bf 3B       		.byte	0x3b
 7266 19c0 14       		.byte	0x14
 7267 19c1 14       		.byte	0x14
 7268 19c2 1F       		.byte	0x1f
 7269 19c3 23       		.byte	0x23
 7270 19c4 20       		.uleb128 0x20
 7271 19c5 24       		.byte	0x24
 7272 19c6 17       		.byte	0x17
 7273 19c7 25       		.byte	0x25
 7274 19c8 21       		.byte	0x21
 7275 19c9 27       		.byte	0x27
 7276 19ca 70       		.byte	0x70
 7277 19cb 00       		.sleb128 0
 7278 19cc 49       		.byte	0x49
 7279 19cd 14       		.byte	0x14
 7280 19ce 14       		.byte	0x14
 7281 19cf 1F       		.byte	0x1f
 7282 19d0 23       		.byte	0x23
 7283 19d1 20       		.uleb128 0x20
 7284 19d2 24       		.byte	0x24
 7285 19d3 17       		.byte	0x17
 7286 19d4 25       		.byte	0x25
 7287 19d5 21       		.byte	0x21
 7288 19d6 27       		.byte	0x27
 7289 19d7 70       		.byte	0x70
 7290 19d8 00       		.sleb128 0
 7291 19d9 20       		.byte	0x20
 7292 19da 7A       		.byte	0x7a
 7293 19db 00       		.sleb128 0
 7294 19dc 1A       		.byte	0x1a
 7295 19dd 77       		.byte	0x77
 7296 19de 00       		.sleb128 0
 7297 19df 70       		.byte	0x70
 7298 19e0 00       		.sleb128 0
 7299 19e1 1A       		.byte	0x1a
 7300 19e2 27       		.byte	0x27
ARM GAS  C:\Users\bogur\AppData\Local\Temp\cc4rWh5U.s 			page 134


 7301 19e3 22       		.byte	0x22
 7302 19e4 91       		.byte	0x91
 7303 19e5 50       		.sleb128 -48
 7304 19e6 06       		.byte	0x6
 7305 19e7 22       		.byte	0x22
 7306 19e8 91       		.byte	0x91
 7307 19e9 C87E     		.sleb128 -184
 7308 19eb 06       		.byte	0x6
 7309 19ec 22       		.byte	0x22
 7310 19ed 23       		.byte	0x23
 7311 19ee 9189DD89 		.uleb128 0x71374491
 7311      07
 7312 19f3 9F       		.byte	0x9f
 7313 19f4 EA010000 		.4byte	.LVL96
 7314 19f8 FE010000 		.4byte	.LVL97
 7315 19fc 4400     		.2byte	0x44
 7316 19fe 70       		.byte	0x70
 7317 19ff 00       		.sleb128 0
 7318 1a00 36       		.byte	0x36
 7319 1a01 14       		.byte	0x14
 7320 1a02 14       		.byte	0x14
 7321 1a03 1F       		.byte	0x1f
 7322 1a04 23       		.byte	0x23
 7323 1a05 20       		.uleb128 0x20
 7324 1a06 24       		.byte	0x24
 7325 1a07 17       		.byte	0x17
 7326 1a08 25       		.byte	0x25
 7327 1a09 21       		.byte	0x21
 7328 1a0a 70       		.byte	0x70
 7329 1a0b 00       		.sleb128 0
 7330 1a0c 3B       		.byte	0x3b
 7331 1a0d 14       		.byte	0x14
 7332 1a0e 14       		.byte	0x14
 7333 1a0f 1F       		.byte	0x1f
 7334 1a10 23       		.byte	0x23
 7335 1a11 20       		.uleb128 0x20
 7336 1a12 24       		.byte	0x24
 7337 1a13 17       		.byte	0x17
 7338 1a14 25       		.byte	0x25
 7339 1a15 21       		.byte	0x21
 7340 1a16 27       		.byte	0x27
 7341 1a17 70       		.byte	0x70
 7342 1a18 00       		.sleb128 0
 7343 1a19 49       		.byte	0x49
 7344 1a1a 14       		.byte	0x14
 7345 1a1b 14       		.byte	0x14
 7346 1a1c 1F       		.byte	0x1f
 7347 1a1d 23       		.byte	0x23
 7348 1a1e 20       		.uleb128 0x20
 7349 1a1f 24       		.byte	0x24
 7350 1a20 17       		.byte	0x17
 7351 1a21 25       		.byte	0x25
 7352 1a22 21       		.byte	0x21
 7353 1a23 27       		.byte	0x27
 7354 1a24 70       		.byte	0x70
 7355 1a25 00       		.sleb128 0
 7356 1a26 20       		.byte	0x20
ARM GAS  C:\Users\bogur\AppData\Local\Temp\cc4rWh5U.s 			page 135


 7357 1a27 91       		.byte	0x91
 7358 1a28 4C       		.sleb128 -52
 7359 1a29 06       		.byte	0x6
 7360 1a2a 1A       		.byte	0x1a
 7361 1a2b 77       		.byte	0x77
 7362 1a2c 00       		.sleb128 0
 7363 1a2d 70       		.byte	0x70
 7364 1a2e 00       		.sleb128 0
 7365 1a2f 1A       		.byte	0x1a
 7366 1a30 27       		.byte	0x27
 7367 1a31 22       		.byte	0x22
 7368 1a32 91       		.byte	0x91
 7369 1a33 50       		.sleb128 -48
 7370 1a34 06       		.byte	0x6
 7371 1a35 22       		.byte	0x22
 7372 1a36 91       		.byte	0x91
 7373 1a37 C87E     		.sleb128 -184
 7374 1a39 06       		.byte	0x6
 7375 1a3a 22       		.byte	0x22
 7376 1a3b 23       		.byte	0x23
 7377 1a3c 9189DD89 		.uleb128 0x71374491
 7377      07
 7378 1a41 9F       		.byte	0x9f
 7379 1a42 FE010000 		.4byte	.LVL97
 7380 1a46 22020000 		.4byte	.LVL101
 7381 1a4a 0100     		.2byte	0x1
 7382 1a4c 52       		.byte	0x52
 7383 1a4d 22020000 		.4byte	.LVL101
 7384 1a51 44020000 		.4byte	.LVL103
 7385 1a55 0700     		.2byte	0x7
 7386 1a57 7A       		.byte	0x7a
 7387 1a58 CFF783AE 		.sleb128 -1245643825
 7387      7B
 7388 1a5d 9F       		.byte	0x9f
 7389 1a5e 44020000 		.4byte	.LVL103
 7390 1a62 68020000 		.4byte	.LVL107
 7391 1a66 0100     		.2byte	0x1
 7392 1a68 55       		.byte	0x55
 7393 1a69 68020000 		.4byte	.LVL107
 7394 1a6d 76020000 		.4byte	.LVL108
 7395 1a71 4300     		.2byte	0x43
 7396 1a73 7C       		.byte	0x7c
 7397 1a74 00       		.sleb128 0
 7398 1a75 36       		.byte	0x36
 7399 1a76 14       		.byte	0x14
 7400 1a77 14       		.byte	0x14
 7401 1a78 1F       		.byte	0x1f
 7402 1a79 23       		.byte	0x23
 7403 1a7a 20       		.uleb128 0x20
 7404 1a7b 24       		.byte	0x24
 7405 1a7c 17       		.byte	0x17
 7406 1a7d 25       		.byte	0x25
 7407 1a7e 21       		.byte	0x21
 7408 1a7f 7C       		.byte	0x7c
 7409 1a80 00       		.sleb128 0
 7410 1a81 3B       		.byte	0x3b
 7411 1a82 14       		.byte	0x14
ARM GAS  C:\Users\bogur\AppData\Local\Temp\cc4rWh5U.s 			page 136


 7412 1a83 14       		.byte	0x14
 7413 1a84 1F       		.byte	0x1f
 7414 1a85 23       		.byte	0x23
 7415 1a86 20       		.uleb128 0x20
 7416 1a87 24       		.byte	0x24
 7417 1a88 17       		.byte	0x17
 7418 1a89 25       		.byte	0x25
 7419 1a8a 21       		.byte	0x21
 7420 1a8b 27       		.byte	0x27
 7421 1a8c 7C       		.byte	0x7c
 7422 1a8d 00       		.sleb128 0
 7423 1a8e 49       		.byte	0x49
 7424 1a8f 14       		.byte	0x14
 7425 1a90 14       		.byte	0x14
 7426 1a91 1F       		.byte	0x1f
 7427 1a92 23       		.byte	0x23
 7428 1a93 20       		.uleb128 0x20
 7429 1a94 24       		.byte	0x24
 7430 1a95 17       		.byte	0x17
 7431 1a96 25       		.byte	0x25
 7432 1a97 21       		.byte	0x21
 7433 1a98 27       		.byte	0x27
 7434 1a99 7C       		.byte	0x7c
 7435 1a9a 00       		.sleb128 0
 7436 1a9b 20       		.byte	0x20
 7437 1a9c 70       		.byte	0x70
 7438 1a9d 00       		.sleb128 0
 7439 1a9e 1A       		.byte	0x1a
 7440 1a9f 78       		.byte	0x78
 7441 1aa0 00       		.sleb128 0
 7442 1aa1 7C       		.byte	0x7c
 7443 1aa2 00       		.sleb128 0
 7444 1aa3 1A       		.byte	0x1a
 7445 1aa4 27       		.byte	0x27
 7446 1aa5 22       		.byte	0x22
 7447 1aa6 91       		.byte	0x91
 7448 1aa7 48       		.sleb128 -56
 7449 1aa8 06       		.byte	0x6
 7450 1aa9 22       		.byte	0x22
 7451 1aaa 91       		.byte	0x91
 7452 1aab D07E     		.sleb128 -176
 7453 1aad 06       		.byte	0x6
 7454 1aae 22       		.byte	0x22
 7455 1aaf 0C       		.byte	0xc
 7456 1ab0 5B244A16 		.4byte	0x164a245b
 7457 1ab4 1C       		.byte	0x1c
 7458 1ab5 9F       		.byte	0x9f
 7459 1ab6 76020000 		.4byte	.LVL108
 7460 1aba 8A020000 		.4byte	.LVL110
 7461 1abe 4C00     		.2byte	0x4c
 7462 1ac0 7C       		.byte	0x7c
 7463 1ac1 00       		.sleb128 0
 7464 1ac2 36       		.byte	0x36
 7465 1ac3 14       		.byte	0x14
 7466 1ac4 14       		.byte	0x14
 7467 1ac5 1F       		.byte	0x1f
 7468 1ac6 23       		.byte	0x23
ARM GAS  C:\Users\bogur\AppData\Local\Temp\cc4rWh5U.s 			page 137


 7469 1ac7 20       		.uleb128 0x20
 7470 1ac8 24       		.byte	0x24
 7471 1ac9 17       		.byte	0x17
 7472 1aca 25       		.byte	0x25
 7473 1acb 21       		.byte	0x21
 7474 1acc 7C       		.byte	0x7c
 7475 1acd 00       		.sleb128 0
 7476 1ace 3B       		.byte	0x3b
 7477 1acf 14       		.byte	0x14
 7478 1ad0 14       		.byte	0x14
 7479 1ad1 1F       		.byte	0x1f
 7480 1ad2 23       		.byte	0x23
 7481 1ad3 20       		.uleb128 0x20
 7482 1ad4 24       		.byte	0x24
 7483 1ad5 17       		.byte	0x17
 7484 1ad6 25       		.byte	0x25
 7485 1ad7 21       		.byte	0x21
 7486 1ad8 27       		.byte	0x27
 7487 1ad9 7C       		.byte	0x7c
 7488 1ada 00       		.sleb128 0
 7489 1adb 49       		.byte	0x49
 7490 1adc 14       		.byte	0x14
 7491 1add 14       		.byte	0x14
 7492 1ade 1F       		.byte	0x1f
 7493 1adf 23       		.byte	0x23
 7494 1ae0 20       		.uleb128 0x20
 7495 1ae1 24       		.byte	0x24
 7496 1ae2 17       		.byte	0x17
 7497 1ae3 25       		.byte	0x25
 7498 1ae4 21       		.byte	0x21
 7499 1ae5 27       		.byte	0x27
 7500 1ae6 79       		.byte	0x79
 7501 1ae7 00       		.sleb128 0
 7502 1ae8 7B       		.byte	0x7b
 7503 1ae9 00       		.sleb128 0
 7504 1aea 22       		.byte	0x22
 7505 1aeb 23       		.byte	0x23
 7506 1aec 98DFA894 		.uleb128 0x428a2f98
 7506      04
 7507 1af1 7C       		.byte	0x7c
 7508 1af2 00       		.sleb128 0
 7509 1af3 20       		.byte	0x20
 7510 1af4 1A       		.byte	0x1a
 7511 1af5 78       		.byte	0x78
 7512 1af6 00       		.sleb128 0
 7513 1af7 7C       		.byte	0x7c
 7514 1af8 00       		.sleb128 0
 7515 1af9 1A       		.byte	0x1a
 7516 1afa 27       		.byte	0x27
 7517 1afb 22       		.byte	0x22
 7518 1afc 91       		.byte	0x91
 7519 1afd 48       		.sleb128 -56
 7520 1afe 06       		.byte	0x6
 7521 1aff 22       		.byte	0x22
 7522 1b00 91       		.byte	0x91
 7523 1b01 D07E     		.sleb128 -176
 7524 1b03 06       		.byte	0x6
ARM GAS  C:\Users\bogur\AppData\Local\Temp\cc4rWh5U.s 			page 138


 7525 1b04 22       		.byte	0x22
 7526 1b05 0C       		.byte	0xc
 7527 1b06 5B244A16 		.4byte	0x164a245b
 7528 1b0a 1C       		.byte	0x1c
 7529 1b0b 9F       		.byte	0x9f
 7530 1b0c 8A020000 		.4byte	.LVL110
 7531 1b10 C4020000 		.4byte	.LVL116
 7532 1b14 0100     		.2byte	0x1
 7533 1b16 57       		.byte	0x57
 7534 1b17 CA020000 		.4byte	.LVL117
 7535 1b1b EC020000 		.4byte	.LVL120
 7536 1b1f 0100     		.2byte	0x1
 7537 1b21 51       		.byte	0x51
 7538 1b22 0E030000 		.4byte	.LVL123
 7539 1b26 30030000 		.4byte	.LVL127
 7540 1b2a 0100     		.2byte	0x1
 7541 1b2c 50       		.byte	0x50
 7542 1b2d 30030000 		.4byte	.LVL127
 7543 1b31 3E030000 		.4byte	.LVL128
 7544 1b35 4700     		.2byte	0x47
 7545 1b37 73       		.byte	0x73
 7546 1b38 00       		.sleb128 0
 7547 1b39 36       		.byte	0x36
 7548 1b3a 14       		.byte	0x14
 7549 1b3b 14       		.byte	0x14
 7550 1b3c 1F       		.byte	0x1f
 7551 1b3d 23       		.byte	0x23
 7552 1b3e 20       		.uleb128 0x20
 7553 1b3f 24       		.byte	0x24
 7554 1b40 17       		.byte	0x17
 7555 1b41 25       		.byte	0x25
 7556 1b42 21       		.byte	0x21
 7557 1b43 73       		.byte	0x73
 7558 1b44 00       		.sleb128 0
 7559 1b45 3B       		.byte	0x3b
 7560 1b46 14       		.byte	0x14
 7561 1b47 14       		.byte	0x14
 7562 1b48 1F       		.byte	0x1f
 7563 1b49 23       		.byte	0x23
 7564 1b4a 20       		.uleb128 0x20
 7565 1b4b 24       		.byte	0x24
 7566 1b4c 17       		.byte	0x17
 7567 1b4d 25       		.byte	0x25
 7568 1b4e 21       		.byte	0x21
 7569 1b4f 27       		.byte	0x27
 7570 1b50 73       		.byte	0x73
 7571 1b51 00       		.sleb128 0
 7572 1b52 49       		.byte	0x49
 7573 1b53 14       		.byte	0x14
 7574 1b54 14       		.byte	0x14
 7575 1b55 1F       		.byte	0x1f
 7576 1b56 23       		.byte	0x23
 7577 1b57 20       		.uleb128 0x20
 7578 1b58 24       		.byte	0x24
 7579 1b59 17       		.byte	0x17
 7580 1b5a 25       		.byte	0x25
 7581 1b5b 21       		.byte	0x21
ARM GAS  C:\Users\bogur\AppData\Local\Temp\cc4rWh5U.s 			page 139


 7582 1b5c 27       		.byte	0x27
 7583 1b5d 73       		.byte	0x73
 7584 1b5e 00       		.sleb128 0
 7585 1b5f 20       		.byte	0x20
 7586 1b60 7E       		.byte	0x7e
 7587 1b61 00       		.sleb128 0
 7588 1b62 1A       		.byte	0x1a
 7589 1b63 76       		.byte	0x76
 7590 1b64 00       		.sleb128 0
 7591 1b65 73       		.byte	0x73
 7592 1b66 00       		.sleb128 0
 7593 1b67 1A       		.byte	0x1a
 7594 1b68 27       		.byte	0x27
 7595 1b69 22       		.byte	0x22
 7596 1b6a 91       		.byte	0x91
 7597 1b6b BC7F     		.sleb128 -68
 7598 1b6d 06       		.byte	0x6
 7599 1b6e 22       		.byte	0x22
 7600 1b6f 7A       		.byte	0x7a
 7601 1b70 00       		.sleb128 0
 7602 1b71 22       		.byte	0x22
 7603 1b72 91       		.byte	0x91
 7604 1b73 DC7E     		.sleb128 -164
 7605 1b75 06       		.byte	0x6
 7606 1b76 22       		.byte	0x22
 7607 1b77 23       		.byte	0x23
 7608 1b78 F3FC81C0 		.uleb128 0x48007e73
 7608      04
 7609 1b7d 9F       		.byte	0x9f
 7610 1b7e 54030000 		.4byte	.LVL130
 7611 1b82 78030000 		.4byte	.LVL134
 7612 1b86 0100     		.2byte	0x1
 7613 1b88 52       		.byte	0x52
 7614 1b89 9C030000 		.4byte	.LVL136
 7615 1b8d C0030000 		.4byte	.LVL140
 7616 1b91 0100     		.2byte	0x1
 7617 1b93 56       		.byte	0x56
 7618 1b94 E2030000 		.4byte	.LVL142
 7619 1b98 26040000 		.4byte	.LVL148
 7620 1b9c 0100     		.2byte	0x1
 7621 1b9e 55       		.byte	0x55
 7622 1b9f 28040000 		.4byte	.LVL149
 7623 1ba3 4E040000 		.4byte	.LVL154
 7624 1ba7 0100     		.2byte	0x1
 7625 1ba9 55       		.byte	0x55
 7626 1baa 6E040000 		.4byte	.LVL156
 7627 1bae B2040000 		.4byte	.LVL165
 7628 1bb2 0100     		.2byte	0x1
 7629 1bb4 55       		.byte	0x55
 7630 1bb5 B2040000 		.4byte	.LVL165
 7631 1bb9 B4040000 		.4byte	.LVL166
 7632 1bbd 0700     		.2byte	0x7
 7633 1bbf 78       		.byte	0x78
 7634 1bc0 C3FBB1A8 		.sleb128 1426881987
 7634      05
 7635 1bc5 9F       		.byte	0x9f
 7636 1bc6 B4040000 		.4byte	.LVL166
ARM GAS  C:\Users\bogur\AppData\Local\Temp\cc4rWh5U.s 			page 140


 7637 1bca F2040000 		.4byte	.LVL174
 7638 1bce 0100     		.2byte	0x1
 7639 1bd0 55       		.byte	0x55
 7640 1bd1 F2040000 		.4byte	.LVL174
 7641 1bd5 F8040000 		.4byte	.LVL175
 7642 1bd9 0700     		.2byte	0x7
 7643 1bdb 74       		.byte	0x74
 7644 1bdc F4BAF995 		.sleb128 1925078388
 7644      07
 7645 1be1 9F       		.byte	0x9f
 7646 1be2 F8040000 		.4byte	.LVL175
 7647 1be6 18050000 		.4byte	.LVL178
 7648 1bea 0100     		.2byte	0x1
 7649 1bec 52       		.byte	0x52
 7650 1bed 78050000 		.4byte	.LVL182
 7651 1bf1 B0050000 		.4byte	.LVL188
 7652 1bf5 0100     		.2byte	0x1
 7653 1bf7 57       		.byte	0x57
 7654 1bf8 C0050000 		.4byte	.LVL189
 7655 1bfc F8050000 		.4byte	.LVL193
 7656 1c00 0100     		.2byte	0x1
 7657 1c02 57       		.byte	0x57
 7658 1c03 8E080000 		.4byte	.LVL227
 7659 1c07 B4080000 		.4byte	.LVL230
 7660 1c0b 0100     		.2byte	0x1
 7661 1c0d 56       		.byte	0x56
 7662 1c0e E8080000 		.4byte	.LVL232
 7663 1c12 0A090000 		.4byte	.LVL236
 7664 1c16 0100     		.2byte	0x1
 7665 1c18 55       		.byte	0x55
 7666 1c19 0A090000 		.4byte	.LVL236
 7667 1c1d 18090000 		.4byte	.LVL237
 7668 1c21 4400     		.2byte	0x44
 7669 1c23 91       		.byte	0x91
 7670 1c24 FC7E     		.sleb128 -132
 7671 1c26 06       		.byte	0x6
 7672 1c27 73       		.byte	0x73
 7673 1c28 00       		.sleb128 0
 7674 1c29 1A       		.byte	0x1a
 7675 1c2a 73       		.byte	0x73
 7676 1c2b 00       		.sleb128 0
 7677 1c2c 20       		.byte	0x20
 7678 1c2d 71       		.byte	0x71
 7679 1c2e 00       		.sleb128 0
 7680 1c2f 1A       		.byte	0x1a
 7681 1c30 27       		.byte	0x27
 7682 1c31 73       		.byte	0x73
 7683 1c32 00       		.sleb128 0
 7684 1c33 36       		.byte	0x36
 7685 1c34 14       		.byte	0x14
 7686 1c35 14       		.byte	0x14
 7687 1c36 1F       		.byte	0x1f
 7688 1c37 23       		.byte	0x23
 7689 1c38 20       		.uleb128 0x20
 7690 1c39 24       		.byte	0x24
 7691 1c3a 17       		.byte	0x17
 7692 1c3b 25       		.byte	0x25
ARM GAS  C:\Users\bogur\AppData\Local\Temp\cc4rWh5U.s 			page 141


 7693 1c3c 21       		.byte	0x21
 7694 1c3d 73       		.byte	0x73
 7695 1c3e 00       		.sleb128 0
 7696 1c3f 3B       		.byte	0x3b
 7697 1c40 14       		.byte	0x14
 7698 1c41 14       		.byte	0x14
 7699 1c42 1F       		.byte	0x1f
 7700 1c43 23       		.byte	0x23
 7701 1c44 20       		.uleb128 0x20
 7702 1c45 24       		.byte	0x24
 7703 1c46 17       		.byte	0x17
 7704 1c47 25       		.byte	0x25
 7705 1c48 21       		.byte	0x21
 7706 1c49 27       		.byte	0x27
 7707 1c4a 73       		.byte	0x73
 7708 1c4b 00       		.sleb128 0
 7709 1c4c 49       		.byte	0x49
 7710 1c4d 14       		.byte	0x14
 7711 1c4e 14       		.byte	0x14
 7712 1c4f 1F       		.byte	0x1f
 7713 1c50 23       		.byte	0x23
 7714 1c51 20       		.uleb128 0x20
 7715 1c52 24       		.byte	0x24
 7716 1c53 17       		.byte	0x17
 7717 1c54 25       		.byte	0x25
 7718 1c55 21       		.byte	0x21
 7719 1c56 27       		.byte	0x27
 7720 1c57 22       		.byte	0x22
 7721 1c58 91       		.byte	0x91
 7722 1c59 887F     		.sleb128 -120
 7723 1c5b 06       		.byte	0x6
 7724 1c5c 22       		.byte	0x22
 7725 1c5d 7B       		.byte	0x7b
 7726 1c5e 00       		.sleb128 0
 7727 1c5f 22       		.byte	0x22
 7728 1c60 0C       		.byte	0xc
 7729 1c61 7AB84110 		.4byte	0x1041b87a
 7730 1c65 1C       		.byte	0x1c
 7731 1c66 9F       		.byte	0x9f
 7732 1c67 2C090000 		.4byte	.LVL239
 7733 1c6b 4E090000 		.4byte	.LVL243
 7734 1c6f 0100     		.2byte	0x1
 7735 1c71 51       		.byte	0x51
 7736 1c72 76090000 		.4byte	.LVL245
 7737 1c76 9C090000 		.4byte	.LVL249
 7738 1c7a 0100     		.2byte	0x1
 7739 1c7c 50       		.byte	0x50
 7740 1c7d 9C090000 		.4byte	.LVL249
 7741 1c81 AA090000 		.4byte	.LVL251
 7742 1c85 4400     		.2byte	0x44
 7743 1c87 78       		.byte	0x78
 7744 1c88 00       		.sleb128 0
 7745 1c89 36       		.byte	0x36
 7746 1c8a 14       		.byte	0x14
 7747 1c8b 14       		.byte	0x14
 7748 1c8c 1F       		.byte	0x1f
 7749 1c8d 23       		.byte	0x23
ARM GAS  C:\Users\bogur\AppData\Local\Temp\cc4rWh5U.s 			page 142


 7750 1c8e 20       		.uleb128 0x20
 7751 1c8f 24       		.byte	0x24
 7752 1c90 17       		.byte	0x17
 7753 1c91 25       		.byte	0x25
 7754 1c92 21       		.byte	0x21
 7755 1c93 78       		.byte	0x78
 7756 1c94 00       		.sleb128 0
 7757 1c95 3B       		.byte	0x3b
 7758 1c96 14       		.byte	0x14
 7759 1c97 14       		.byte	0x14
 7760 1c98 1F       		.byte	0x1f
 7761 1c99 23       		.byte	0x23
 7762 1c9a 20       		.uleb128 0x20
 7763 1c9b 24       		.byte	0x24
 7764 1c9c 17       		.byte	0x17
 7765 1c9d 25       		.byte	0x25
 7766 1c9e 21       		.byte	0x21
 7767 1c9f 27       		.byte	0x27
 7768 1ca0 78       		.byte	0x78
 7769 1ca1 00       		.sleb128 0
 7770 1ca2 49       		.byte	0x49
 7771 1ca3 14       		.byte	0x14
 7772 1ca4 14       		.byte	0x14
 7773 1ca5 1F       		.byte	0x1f
 7774 1ca6 23       		.byte	0x23
 7775 1ca7 20       		.uleb128 0x20
 7776 1ca8 24       		.byte	0x24
 7777 1ca9 17       		.byte	0x17
 7778 1caa 25       		.byte	0x25
 7779 1cab 21       		.byte	0x21
 7780 1cac 27       		.byte	0x27
 7781 1cad 72       		.byte	0x72
 7782 1cae 00       		.sleb128 0
 7783 1caf 78       		.byte	0x78
 7784 1cb0 00       		.sleb128 0
 7785 1cb1 1A       		.byte	0x1a
 7786 1cb2 78       		.byte	0x78
 7787 1cb3 00       		.sleb128 0
 7788 1cb4 20       		.byte	0x20
 7789 1cb5 73       		.byte	0x73
 7790 1cb6 00       		.sleb128 0
 7791 1cb7 1A       		.byte	0x1a
 7792 1cb8 27       		.byte	0x27
 7793 1cb9 22       		.byte	0x22
 7794 1cba 91       		.byte	0x91
 7795 1cbb FC7E     		.sleb128 -132
 7796 1cbd 06       		.byte	0x6
 7797 1cbe 22       		.byte	0x22
 7798 1cbf 91       		.byte	0x91
 7799 1cc0 C87E     		.sleb128 -184
 7800 1cc2 06       		.byte	0x6
 7801 1cc3 22       		.byte	0x22
 7802 1cc4 23       		.byte	0x23
 7803 1cc5 CCC3B2A0 		.uleb128 0x240ca1cc
 7803      02
 7804 1cca 9F       		.byte	0x9f
 7805 1ccb C0090000 		.4byte	.LVL253
ARM GAS  C:\Users\bogur\AppData\Local\Temp\cc4rWh5U.s 			page 143


 7806 1ccf E2090000 		.4byte	.LVL257
 7807 1cd3 0100     		.2byte	0x1
 7808 1cd5 54       		.byte	0x54
 7809 1cd6 060A0000 		.4byte	.LVL260
 7810 1cda 280A0000 		.4byte	.LVL264
 7811 1cde 0100     		.2byte	0x1
 7812 1ce0 52       		.byte	0x52
 7813 1ce1 4C0A0000 		.4byte	.LVL267
 7814 1ce5 6E0A0000 		.4byte	.LVL271
 7815 1ce9 0100     		.2byte	0x1
 7816 1ceb 53       		.byte	0x53
 7817 1cec 940A0000 		.4byte	.LVL275
 7818 1cf0 DA0A0000 		.4byte	.LVL282
 7819 1cf4 0100     		.2byte	0x1
 7820 1cf6 5A       		.byte	0x5a
 7821 1cf7 DA0A0000 		.4byte	.LVL282
 7822 1cfb FC0A0000 		.4byte	.LVL285
 7823 1cff 0100     		.2byte	0x1
 7824 1d01 57       		.byte	0x57
 7825 1d02 200B0000 		.4byte	.LVL288
 7826 1d06 420B0000 		.4byte	.LVL292
 7827 1d0a 0100     		.2byte	0x1
 7828 1d0c 56       		.byte	0x56
 7829 1d0d 660B0000 		.4byte	.LVL295
 7830 1d11 880B0000 		.4byte	.LVL299
 7831 1d15 0100     		.2byte	0x1
 7832 1d17 51       		.byte	0x51
 7833 1d18 AC0B0000 		.4byte	.LVL302
 7834 1d1c CE0B0000 		.4byte	.LVL306
 7835 1d20 0100     		.2byte	0x1
 7836 1d22 50       		.byte	0x50
 7837 1d23 F20B0000 		.4byte	.LVL309
 7838 1d27 140C0000 		.4byte	.LVL313
 7839 1d2b 0100     		.2byte	0x1
 7840 1d2d 55       		.byte	0x55
 7841 1d2e 380C0000 		.4byte	.LVL316
 7842 1d32 5A0C0000 		.4byte	.LVL320
 7843 1d36 0100     		.2byte	0x1
 7844 1d38 54       		.byte	0x54
 7845 1d39 800C0000 		.4byte	.LVL324
 7846 1d3d E00C0000 		.4byte	.LVL328
 7847 1d41 0100     		.2byte	0x1
 7848 1d43 52       		.byte	0x52
 7849 1d44 060D0000 		.4byte	.LVL332
 7850 1d48 280E0000 		.4byte	.LVL350
 7851 1d4c 0100     		.2byte	0x1
 7852 1d4e 5A       		.byte	0x5a
 7853 1d4f FA0F0000 		.4byte	.LVL373
 7854 1d53 40100000 		.4byte	.LVL379
 7855 1d57 0100     		.2byte	0x1
 7856 1d59 5E       		.byte	0x5e
 7857 1d5a 40100000 		.4byte	.LVL379
 7858 1d5e 80100000 		.4byte	.LVL386
 7859 1d62 0100     		.2byte	0x1
 7860 1d64 57       		.byte	0x57
 7861 1d65 86100000 		.4byte	.LVL387
 7862 1d69 A8100000 		.4byte	.LVL390
ARM GAS  C:\Users\bogur\AppData\Local\Temp\cc4rWh5U.s 			page 144


 7863 1d6d 0100     		.2byte	0x1
 7864 1d6f 57       		.byte	0x57
 7865 1d70 CA100000 		.4byte	.LVL393
 7866 1d74 EE100000 		.4byte	.LVL397
 7867 1d78 0100     		.2byte	0x1
 7868 1d7a 56       		.byte	0x56
 7869 1d7b 10110000 		.4byte	.LVL400
 7870 1d7f 4A110000 		.4byte	.LVL407
 7871 1d83 0100     		.2byte	0x1
 7872 1d85 50       		.byte	0x50
 7873 1d86 50110000 		.4byte	.LVL408
 7874 1d8a 90110000 		.4byte	.LVL415
 7875 1d8e 0100     		.2byte	0x1
 7876 1d90 50       		.byte	0x50
 7877 1d91 90110000 		.4byte	.LVL415
 7878 1d95 D2110000 		.4byte	.LVL422
 7879 1d99 0100     		.2byte	0x1
 7880 1d9b 51       		.byte	0x51
 7881 1d9c D2110000 		.4byte	.LVL422
 7882 1da0 0E120000 		.4byte	.LVL429
 7883 1da4 0100     		.2byte	0x1
 7884 1da6 57       		.byte	0x57
 7885 1da7 0E120000 		.4byte	.LVL429
 7886 1dab 14120000 		.4byte	.LVL430
 7887 1daf 0700     		.2byte	0x7
 7888 1db1 7A       		.byte	0x7a
 7889 1db2 85D9C893 		.sleb128 -1838011259
 7889      79
 7890 1db7 9F       		.byte	0x9f
 7891 1db8 14120000 		.4byte	.LVL430
 7892 1dbc 56120000 		.4byte	.LVL437
 7893 1dc0 0100     		.2byte	0x1
 7894 1dc2 57       		.byte	0x57
 7895 1dc3 56120000 		.4byte	.LVL437
 7896 1dc7 9C120000 		.4byte	.LVL445
 7897 1dcb 0100     		.2byte	0x1
 7898 1dcd 56       		.byte	0x56
 7899 1dce 9C120000 		.4byte	.LVL445
 7900 1dd2 E2120000 		.4byte	.LVL452
 7901 1dd6 0100     		.2byte	0x1
 7902 1dd8 55       		.byte	0x55
 7903 1dd9 E2120000 		.4byte	.LVL452
 7904 1ddd 28130000 		.4byte	.LVL459
 7905 1de1 0100     		.2byte	0x1
 7906 1de3 57       		.byte	0x57
 7907 1de4 28130000 		.4byte	.LVL459
 7908 1de8 6A130000 		.4byte	.LVL466
 7909 1dec 0100     		.2byte	0x1
 7910 1dee 56       		.byte	0x56
 7911 1def 6A130000 		.4byte	.LVL466
 7912 1df3 8A130000 		.4byte	.LVL469
 7913 1df7 0100     		.2byte	0x1
 7914 1df9 50       		.byte	0x50
 7915 1dfa 8A130000 		.4byte	.LVL469
 7916 1dfe AE130000 		.4byte	.LVL473
 7917 1e02 0700     		.2byte	0x7
 7918 1e04 7E       		.byte	0x7e
ARM GAS  C:\Users\bogur\AppData\Local\Temp\cc4rWh5U.s 			page 145


 7919 1e05 A48CE4B4 		.sleb128 -694614492
 7919      7D
 7920 1e0a 9F       		.byte	0x9f
 7921 1e0b AE130000 		.4byte	.LVL473
 7922 1e0f D2130000 		.4byte	.LVL476
 7923 1e13 0100     		.2byte	0x1
 7924 1e15 51       		.byte	0x51
 7925 1e16 3C140000 		.4byte	.LVL480
 7926 1e1a 60140000 		.4byte	.LVL483
 7927 1e1e 0100     		.2byte	0x1
 7928 1e20 52       		.byte	0x52
 7929 1e21 26170000 		.4byte	.LVL515
 7930 1e25 48170000 		.4byte	.LVL518
 7931 1e29 0100     		.2byte	0x1
 7932 1e2b 5B       		.byte	0x5b
 7933 1e2c 6C170000 		.4byte	.LVL522
 7934 1e30 8E170000 		.4byte	.LVL525
 7935 1e34 0100     		.2byte	0x1
 7936 1e36 5E       		.byte	0x5e
 7937 1e37 BE170000 		.4byte	.LVL530
 7938 1e3b E0170000 		.4byte	.LVL533
 7939 1e3f 0100     		.2byte	0x1
 7940 1e41 57       		.byte	0x57
 7941 1e42 00180000 		.4byte	.LVL538
 7942 1e46 22180000 		.4byte	.LVL541
 7943 1e4a 0100     		.2byte	0x1
 7944 1e4c 56       		.byte	0x56
 7945 1e4d 44180000 		.4byte	.LVL545
 7946 1e51 66180000 		.4byte	.LVL549
 7947 1e55 0100     		.2byte	0x1
 7948 1e57 55       		.byte	0x55
 7949 1e58 88180000 		.4byte	.LVL553
 7950 1e5c AA180000 		.4byte	.LVL557
 7951 1e60 0100     		.2byte	0x1
 7952 1e62 54       		.byte	0x54
 7953 1e63 D0180000 		.4byte	.LVL561
 7954 1e67 F2180000 		.4byte	.LVL565
 7955 1e6b 0100     		.2byte	0x1
 7956 1e6d 50       		.byte	0x50
 7957 1e6e F2180000 		.4byte	.LVL565
 7958 1e72 04190000 		.4byte	.LVL568
 7959 1e76 0700     		.2byte	0x7
 7960 1e78 7A       		.byte	0x7a
 7961 1e79 CF94F3DC 		.sleb128 1537002063
 7961      05
 7962 1e7e 9F       		.byte	0x9f
 7963 1e7f 18190000 		.4byte	.LVL570
 7964 1e83 3E190000 		.4byte	.LVL575
 7965 1e87 0100     		.2byte	0x1
 7966 1e89 51       		.byte	0x51
 7967 1e8a 3E190000 		.4byte	.LVL575
 7968 1e8e 4C190000 		.4byte	.LVL577
 7969 1e92 0700     		.2byte	0x7
 7970 1e94 7A       		.byte	0x7a
 7971 1e95 F3DFB9C1 		.sleb128 1747873779
 7971      06
 7972 1e9a 9F       		.byte	0x9f
ARM GAS  C:\Users\bogur\AppData\Local\Temp\cc4rWh5U.s 			page 146


 7973 1e9b 60190000 		.4byte	.LVL579
 7974 1e9f AA190000 		.4byte	.LVL587
 7975 1ea3 0100     		.2byte	0x1
 7976 1ea5 51       		.byte	0x51
 7977 1ea6 AA190000 		.4byte	.LVL587
 7978 1eaa F2190000 		.4byte	.LVL594
 7979 1eae 0100     		.2byte	0x1
 7980 1eb0 59       		.byte	0x59
 7981 1eb1 F2190000 		.4byte	.LVL594
 7982 1eb5 181A0000 		.4byte	.LVL599
 7983 1eb9 0100     		.2byte	0x1
 7984 1ebb 57       		.byte	0x57
 7985 1ebc 181A0000 		.4byte	.LVL599
 7986 1ec0 341A0000 		.4byte	.LVL602
 7987 1ec4 0700     		.2byte	0x7
 7988 1ec6 7A       		.byte	0x7a
 7989 1ec7 94F0A1A6 		.sleb128 -2067236844
 7989      78
 7990 1ecc 9F       		.byte	0x9f
 7991 1ecd 381A0000 		.4byte	.LVL603
 7992 1ed1 5C1A0000 		.4byte	.LVL608
 7993 1ed5 0100     		.2byte	0x1
 7994 1ed7 56       		.byte	0x56
 7995 1ed8 5C1A0000 		.4byte	.LVL608
 7996 1edc 781A0000 		.4byte	.LVL611
 7997 1ee0 0700     		.2byte	0x7
 7998 1ee2 7A       		.byte	0x7a
 7999 1ee3 88849CE6 		.sleb128 -1933114872
 7999      78
 8000 1ee8 9F       		.byte	0x9f
 8001 1ee9 7C1A0000 		.4byte	.LVL612
 8002 1eed C21A0000 		.4byte	.LVL619
 8003 1ef1 0100     		.2byte	0x1
 8004 1ef3 56       		.byte	0x56
 8005 1ef4 C21A0000 		.4byte	.LVL619
 8006 1ef8 061B0000 		.4byte	.LVL626
 8007 1efc 0100     		.2byte	0x1
 8008 1efe 55       		.byte	0x55
 8009 1eff 061B0000 		.4byte	.LVL626
 8010 1f03 421B0000 		.4byte	.LVL633
 8011 1f07 0100     		.2byte	0x1
 8012 1f09 53       		.byte	0x53
 8013 1f0a 481B0000 		.4byte	.LVL634
 8014 1f0e EE1B0000 		.4byte	.LVL650
 8015 1f12 0100     		.2byte	0x1
 8016 1f14 52       		.byte	0x52
 8017 1f15 00000000 		.4byte	0
 8018 1f19 00000000 		.4byte	0
 8019              	.LLST14:
 8020 1f1d 96010000 		.4byte	.LVL85
 8021 1f21 A0010000 		.4byte	.LVL88
 8022 1f25 0100     		.2byte	0x1
 8023 1f27 53       		.byte	0x53
 8024 1f28 A0010000 		.4byte	.LVL88
 8025 1f2c C2010000 		.4byte	.LVL92
 8026 1f30 1200     		.2byte	0x12
 8027 1f32 74       		.byte	0x74
ARM GAS  C:\Users\bogur\AppData\Local\Temp\cc4rWh5U.s 			page 147


 8028 1f33 00       		.sleb128 0
 8029 1f34 76       		.byte	0x76
 8030 1f35 00       		.sleb128 0
 8031 1f36 1A       		.byte	0x1a
 8032 1f37 75       		.byte	0x75
 8033 1f38 00       		.sleb128 0
 8034 1f39 76       		.byte	0x76
 8035 1f3a 00       		.sleb128 0
 8036 1f3b 1A       		.byte	0x1a
 8037 1f3c 27       		.byte	0x27
 8038 1f3d 7E       		.byte	0x7e
 8039 1f3e 00       		.sleb128 0
 8040 1f3f 27       		.byte	0x27
 8041 1f40 7C       		.byte	0x7c
 8042 1f41 00       		.sleb128 0
 8043 1f42 22       		.byte	0x22
 8044 1f43 9F       		.byte	0x9f
 8045 1f44 C2010000 		.4byte	.LVL92
 8046 1f48 D6010000 		.4byte	.LVL93
 8047 1f4c 3600     		.2byte	0x36
 8048 1f4e 74       		.byte	0x74
 8049 1f4f 00       		.sleb128 0
 8050 1f50 32       		.byte	0x32
 8051 1f51 14       		.byte	0x14
 8052 1f52 14       		.byte	0x14
 8053 1f53 1F       		.byte	0x1f
 8054 1f54 23       		.byte	0x23
 8055 1f55 20       		.uleb128 0x20
 8056 1f56 24       		.byte	0x24
 8057 1f57 17       		.byte	0x17
 8058 1f58 25       		.byte	0x25
 8059 1f59 21       		.byte	0x21
 8060 1f5a 74       		.byte	0x74
 8061 1f5b 00       		.sleb128 0
 8062 1f5c 3D       		.byte	0x3d
 8063 1f5d 14       		.byte	0x14
 8064 1f5e 14       		.byte	0x14
 8065 1f5f 1F       		.byte	0x1f
 8066 1f60 23       		.byte	0x23
 8067 1f61 20       		.uleb128 0x20
 8068 1f62 24       		.byte	0x24
 8069 1f63 17       		.byte	0x17
 8070 1f64 25       		.byte	0x25
 8071 1f65 21       		.byte	0x21
 8072 1f66 27       		.byte	0x27
 8073 1f67 74       		.byte	0x74
 8074 1f68 00       		.sleb128 0
 8075 1f69 46       		.byte	0x46
 8076 1f6a 14       		.byte	0x14
 8077 1f6b 14       		.byte	0x14
 8078 1f6c 1F       		.byte	0x1f
 8079 1f6d 23       		.byte	0x23
 8080 1f6e 20       		.uleb128 0x20
 8081 1f6f 24       		.byte	0x24
 8082 1f70 17       		.byte	0x17
 8083 1f71 25       		.byte	0x25
 8084 1f72 21       		.byte	0x21
ARM GAS  C:\Users\bogur\AppData\Local\Temp\cc4rWh5U.s 			page 148


 8085 1f73 27       		.byte	0x27
 8086 1f74 74       		.byte	0x74
 8087 1f75 00       		.sleb128 0
 8088 1f76 76       		.byte	0x76
 8089 1f77 00       		.sleb128 0
 8090 1f78 1A       		.byte	0x1a
 8091 1f79 75       		.byte	0x75
 8092 1f7a 00       		.sleb128 0
 8093 1f7b 76       		.byte	0x76
 8094 1f7c 00       		.sleb128 0
 8095 1f7d 1A       		.byte	0x1a
 8096 1f7e 27       		.byte	0x27
 8097 1f7f 7E       		.byte	0x7e
 8098 1f80 00       		.sleb128 0
 8099 1f81 27       		.byte	0x27
 8100 1f82 22       		.byte	0x22
 8101 1f83 9F       		.byte	0x9f
 8102 1f84 D6010000 		.4byte	.LVL93
 8103 1f88 0E020000 		.4byte	.LVL98
 8104 1f8c 0100     		.2byte	0x1
 8105 1f8e 5C       		.byte	0x5c
 8106 1f8f 0E020000 		.4byte	.LVL98
 8107 1f93 1C020000 		.4byte	.LVL99
 8108 1f97 3600     		.2byte	0x36
 8109 1f99 71       		.byte	0x71
 8110 1f9a 00       		.sleb128 0
 8111 1f9b 32       		.byte	0x32
 8112 1f9c 14       		.byte	0x14
 8113 1f9d 14       		.byte	0x14
 8114 1f9e 1F       		.byte	0x1f
 8115 1f9f 23       		.byte	0x23
 8116 1fa0 20       		.uleb128 0x20
 8117 1fa1 24       		.byte	0x24
 8118 1fa2 17       		.byte	0x17
 8119 1fa3 25       		.byte	0x25
 8120 1fa4 21       		.byte	0x21
 8121 1fa5 71       		.byte	0x71
 8122 1fa6 00       		.sleb128 0
 8123 1fa7 3D       		.byte	0x3d
 8124 1fa8 14       		.byte	0x14
 8125 1fa9 14       		.byte	0x14
 8126 1faa 1F       		.byte	0x1f
 8127 1fab 23       		.byte	0x23
 8128 1fac 20       		.uleb128 0x20
 8129 1fad 24       		.byte	0x24
 8130 1fae 17       		.byte	0x17
 8131 1faf 25       		.byte	0x25
 8132 1fb0 21       		.byte	0x21
 8133 1fb1 27       		.byte	0x27
 8134 1fb2 71       		.byte	0x71
 8135 1fb3 00       		.sleb128 0
 8136 1fb4 46       		.byte	0x46
 8137 1fb5 14       		.byte	0x14
 8138 1fb6 14       		.byte	0x14
 8139 1fb7 1F       		.byte	0x1f
 8140 1fb8 23       		.byte	0x23
 8141 1fb9 20       		.uleb128 0x20
ARM GAS  C:\Users\bogur\AppData\Local\Temp\cc4rWh5U.s 			page 149


 8142 1fba 24       		.byte	0x24
 8143 1fbb 17       		.byte	0x17
 8144 1fbc 25       		.byte	0x25
 8145 1fbd 21       		.byte	0x21
 8146 1fbe 27       		.byte	0x27
 8147 1fbf 74       		.byte	0x74
 8148 1fc0 00       		.sleb128 0
 8149 1fc1 75       		.byte	0x75
 8150 1fc2 00       		.sleb128 0
 8151 1fc3 1A       		.byte	0x1a
 8152 1fc4 74       		.byte	0x74
 8153 1fc5 00       		.sleb128 0
 8154 1fc6 75       		.byte	0x75
 8155 1fc7 00       		.sleb128 0
 8156 1fc8 27       		.byte	0x27
 8157 1fc9 71       		.byte	0x71
 8158 1fca 00       		.sleb128 0
 8159 1fcb 1A       		.byte	0x1a
 8160 1fcc 27       		.byte	0x27
 8161 1fcd 22       		.byte	0x22
 8162 1fce 9F       		.byte	0x9f
 8163 1fcf 1C020000 		.4byte	.LVL99
 8164 1fd3 54020000 		.4byte	.LVL104
 8165 1fd7 0100     		.2byte	0x1
 8166 1fd9 5E       		.byte	0x5e
 8167 1fda 54020000 		.4byte	.LVL104
 8168 1fde 62020000 		.4byte	.LVL105
 8169 1fe2 3600     		.2byte	0x36
 8170 1fe4 73       		.byte	0x73
 8171 1fe5 00       		.sleb128 0
 8172 1fe6 32       		.byte	0x32
 8173 1fe7 14       		.byte	0x14
 8174 1fe8 14       		.byte	0x14
 8175 1fe9 1F       		.byte	0x1f
 8176 1fea 23       		.byte	0x23
 8177 1feb 20       		.uleb128 0x20
 8178 1fec 24       		.byte	0x24
 8179 1fed 17       		.byte	0x17
 8180 1fee 25       		.byte	0x25
 8181 1fef 21       		.byte	0x21
 8182 1ff0 73       		.byte	0x73
 8183 1ff1 00       		.sleb128 0
 8184 1ff2 3D       		.byte	0x3d
 8185 1ff3 14       		.byte	0x14
 8186 1ff4 14       		.byte	0x14
 8187 1ff5 1F       		.byte	0x1f
 8188 1ff6 23       		.byte	0x23
 8189 1ff7 20       		.uleb128 0x20
 8190 1ff8 24       		.byte	0x24
 8191 1ff9 17       		.byte	0x17
 8192 1ffa 25       		.byte	0x25
 8193 1ffb 21       		.byte	0x21
 8194 1ffc 27       		.byte	0x27
 8195 1ffd 73       		.byte	0x73
 8196 1ffe 00       		.sleb128 0
 8197 1fff 46       		.byte	0x46
 8198 2000 14       		.byte	0x14
ARM GAS  C:\Users\bogur\AppData\Local\Temp\cc4rWh5U.s 			page 150


 8199 2001 14       		.byte	0x14
 8200 2002 1F       		.byte	0x1f
 8201 2003 23       		.byte	0x23
 8202 2004 20       		.uleb128 0x20
 8203 2005 24       		.byte	0x24
 8204 2006 17       		.byte	0x17
 8205 2007 25       		.byte	0x25
 8206 2008 21       		.byte	0x21
 8207 2009 27       		.byte	0x27
 8208 200a 74       		.byte	0x74
 8209 200b 00       		.sleb128 0
 8210 200c 71       		.byte	0x71
 8211 200d 00       		.sleb128 0
 8212 200e 27       		.byte	0x27
 8213 200f 73       		.byte	0x73
 8214 2010 00       		.sleb128 0
 8215 2011 1A       		.byte	0x1a
 8216 2012 74       		.byte	0x74
 8217 2013 00       		.sleb128 0
 8218 2014 71       		.byte	0x71
 8219 2015 00       		.sleb128 0
 8220 2016 1A       		.byte	0x1a
 8221 2017 27       		.byte	0x27
 8222 2018 22       		.byte	0x22
 8223 2019 9F       		.byte	0x9f
 8224 201a 62020000 		.4byte	.LVL105
 8225 201e 84020000 		.4byte	.LVL109
 8226 2022 0100     		.2byte	0x1
 8227 2024 57       		.byte	0x57
 8228 2025 84020000 		.4byte	.LVL109
 8229 2029 A4020000 		.4byte	.LVL111
 8230 202d 3600     		.2byte	0x36
 8231 202f 72       		.byte	0x72
 8232 2030 00       		.sleb128 0
 8233 2031 32       		.byte	0x32
 8234 2032 14       		.byte	0x14
 8235 2033 14       		.byte	0x14
 8236 2034 1F       		.byte	0x1f
 8237 2035 23       		.byte	0x23
 8238 2036 20       		.uleb128 0x20
 8239 2037 24       		.byte	0x24
 8240 2038 17       		.byte	0x17
 8241 2039 25       		.byte	0x25
 8242 203a 21       		.byte	0x21
 8243 203b 72       		.byte	0x72
 8244 203c 00       		.sleb128 0
 8245 203d 3D       		.byte	0x3d
 8246 203e 14       		.byte	0x14
 8247 203f 14       		.byte	0x14
 8248 2040 1F       		.byte	0x1f
 8249 2041 23       		.byte	0x23
 8250 2042 20       		.uleb128 0x20
 8251 2043 24       		.byte	0x24
 8252 2044 17       		.byte	0x17
 8253 2045 25       		.byte	0x25
 8254 2046 21       		.byte	0x21
 8255 2047 27       		.byte	0x27
ARM GAS  C:\Users\bogur\AppData\Local\Temp\cc4rWh5U.s 			page 151


 8256 2048 72       		.byte	0x72
 8257 2049 00       		.sleb128 0
 8258 204a 46       		.byte	0x46
 8259 204b 14       		.byte	0x14
 8260 204c 14       		.byte	0x14
 8261 204d 1F       		.byte	0x1f
 8262 204e 23       		.byte	0x23
 8263 204f 20       		.uleb128 0x20
 8264 2050 24       		.byte	0x24
 8265 2051 17       		.byte	0x17
 8266 2052 25       		.byte	0x25
 8267 2053 21       		.byte	0x21
 8268 2054 27       		.byte	0x27
 8269 2055 71       		.byte	0x71
 8270 2056 00       		.sleb128 0
 8271 2057 73       		.byte	0x73
 8272 2058 00       		.sleb128 0
 8273 2059 27       		.byte	0x27
 8274 205a 72       		.byte	0x72
 8275 205b 00       		.sleb128 0
 8276 205c 1A       		.byte	0x1a
 8277 205d 71       		.byte	0x71
 8278 205e 00       		.sleb128 0
 8279 205f 73       		.byte	0x73
 8280 2060 00       		.sleb128 0
 8281 2061 1A       		.byte	0x1a
 8282 2062 27       		.byte	0x27
 8283 2063 22       		.byte	0x22
 8284 2064 9F       		.byte	0x9f
 8285 2065 A4020000 		.4byte	.LVL111
 8286 2069 A8020000 		.4byte	.LVL113
 8287 206d 0100     		.2byte	0x1
 8288 206f 54       		.byte	0x54
 8289 2070 A8020000 		.4byte	.LVL113
 8290 2074 BA020000 		.4byte	.LVL115
 8291 2078 3300     		.2byte	0x33
 8292 207a 73       		.byte	0x73
 8293 207b 00       		.sleb128 0
 8294 207c 72       		.byte	0x72
 8295 207d 00       		.sleb128 0
 8296 207e 27       		.byte	0x27
 8297 207f 75       		.byte	0x75
 8298 2080 00       		.sleb128 0
 8299 2081 1A       		.byte	0x1a
 8300 2082 70       		.byte	0x70
 8301 2083 00       		.sleb128 0
 8302 2084 27       		.byte	0x27
 8303 2085 75       		.byte	0x75
 8304 2086 00       		.sleb128 0
 8305 2087 32       		.byte	0x32
 8306 2088 14       		.byte	0x14
 8307 2089 14       		.byte	0x14
 8308 208a 1F       		.byte	0x1f
 8309 208b 23       		.byte	0x23
 8310 208c 20       		.uleb128 0x20
 8311 208d 24       		.byte	0x24
 8312 208e 17       		.byte	0x17
ARM GAS  C:\Users\bogur\AppData\Local\Temp\cc4rWh5U.s 			page 152


 8313 208f 25       		.byte	0x25
 8314 2090 21       		.byte	0x21
 8315 2091 75       		.byte	0x75
 8316 2092 00       		.sleb128 0
 8317 2093 3D       		.byte	0x3d
 8318 2094 14       		.byte	0x14
 8319 2095 14       		.byte	0x14
 8320 2096 1F       		.byte	0x1f
 8321 2097 23       		.byte	0x23
 8322 2098 20       		.uleb128 0x20
 8323 2099 24       		.byte	0x24
 8324 209a 17       		.byte	0x17
 8325 209b 25       		.byte	0x25
 8326 209c 21       		.byte	0x21
 8327 209d 27       		.byte	0x27
 8328 209e 75       		.byte	0x75
 8329 209f 00       		.sleb128 0
 8330 20a0 46       		.byte	0x46
 8331 20a1 14       		.byte	0x14
 8332 20a2 14       		.byte	0x14
 8333 20a3 1F       		.byte	0x1f
 8334 20a4 23       		.byte	0x23
 8335 20a5 20       		.uleb128 0x20
 8336 20a6 24       		.byte	0x24
 8337 20a7 17       		.byte	0x17
 8338 20a8 25       		.byte	0x25
 8339 20a9 21       		.byte	0x21
 8340 20aa 27       		.byte	0x27
 8341 20ab 22       		.byte	0x22
 8342 20ac 9F       		.byte	0x9f
 8343 20ad BA020000 		.4byte	.LVL115
 8344 20b1 E8020000 		.4byte	.LVL118
 8345 20b5 3600     		.2byte	0x36
 8346 20b7 73       		.byte	0x73
 8347 20b8 00       		.sleb128 0
 8348 20b9 72       		.byte	0x72
 8349 20ba 00       		.sleb128 0
 8350 20bb 27       		.byte	0x27
 8351 20bc 75       		.byte	0x75
 8352 20bd 00       		.sleb128 0
 8353 20be 1A       		.byte	0x1a
 8354 20bf 73       		.byte	0x73
 8355 20c0 00       		.sleb128 0
 8356 20c1 72       		.byte	0x72
 8357 20c2 00       		.sleb128 0
 8358 20c3 1A       		.byte	0x1a
 8359 20c4 27       		.byte	0x27
 8360 20c5 75       		.byte	0x75
 8361 20c6 00       		.sleb128 0
 8362 20c7 32       		.byte	0x32
 8363 20c8 14       		.byte	0x14
 8364 20c9 14       		.byte	0x14
 8365 20ca 1F       		.byte	0x1f
 8366 20cb 23       		.byte	0x23
 8367 20cc 20       		.uleb128 0x20
 8368 20cd 24       		.byte	0x24
 8369 20ce 17       		.byte	0x17
ARM GAS  C:\Users\bogur\AppData\Local\Temp\cc4rWh5U.s 			page 153


 8370 20cf 25       		.byte	0x25
 8371 20d0 21       		.byte	0x21
 8372 20d1 75       		.byte	0x75
 8373 20d2 00       		.sleb128 0
 8374 20d3 3D       		.byte	0x3d
 8375 20d4 14       		.byte	0x14
 8376 20d5 14       		.byte	0x14
 8377 20d6 1F       		.byte	0x1f
 8378 20d7 23       		.byte	0x23
 8379 20d8 20       		.uleb128 0x20
 8380 20d9 24       		.byte	0x24
 8381 20da 17       		.byte	0x17
 8382 20db 25       		.byte	0x25
 8383 20dc 21       		.byte	0x21
 8384 20dd 27       		.byte	0x27
 8385 20de 75       		.byte	0x75
 8386 20df 00       		.sleb128 0
 8387 20e0 46       		.byte	0x46
 8388 20e1 14       		.byte	0x14
 8389 20e2 14       		.byte	0x14
 8390 20e3 1F       		.byte	0x1f
 8391 20e4 23       		.byte	0x23
 8392 20e5 20       		.uleb128 0x20
 8393 20e6 24       		.byte	0x24
 8394 20e7 17       		.byte	0x17
 8395 20e8 25       		.byte	0x25
 8396 20e9 21       		.byte	0x21
 8397 20ea 27       		.byte	0x27
 8398 20eb 22       		.byte	0x22
 8399 20ec 9F       		.byte	0x9f
 8400 20ed E8020000 		.4byte	.LVL118
 8401 20f1 FE020000 		.4byte	.LVL122
 8402 20f5 0100     		.2byte	0x1
 8403 20f7 57       		.byte	0x57
 8404 20f8 FE020000 		.4byte	.LVL122
 8405 20fc 1E030000 		.4byte	.LVL124
 8406 2100 3000     		.2byte	0x30
 8407 2102 74       		.byte	0x74
 8408 2103 00       		.sleb128 0
 8409 2104 32       		.byte	0x32
 8410 2105 14       		.byte	0x14
 8411 2106 14       		.byte	0x14
 8412 2107 1F       		.byte	0x1f
 8413 2108 23       		.byte	0x23
 8414 2109 20       		.uleb128 0x20
 8415 210a 24       		.byte	0x24
 8416 210b 17       		.byte	0x17
 8417 210c 25       		.byte	0x25
 8418 210d 21       		.byte	0x21
 8419 210e 74       		.byte	0x74
 8420 210f 00       		.sleb128 0
 8421 2110 3D       		.byte	0x3d
 8422 2111 14       		.byte	0x14
 8423 2112 14       		.byte	0x14
 8424 2113 1F       		.byte	0x1f
 8425 2114 23       		.byte	0x23
 8426 2115 20       		.uleb128 0x20
ARM GAS  C:\Users\bogur\AppData\Local\Temp\cc4rWh5U.s 			page 154


 8427 2116 24       		.byte	0x24
 8428 2117 17       		.byte	0x17
 8429 2118 25       		.byte	0x25
 8430 2119 21       		.byte	0x21
 8431 211a 27       		.byte	0x27
 8432 211b 74       		.byte	0x74
 8433 211c 00       		.sleb128 0
 8434 211d 46       		.byte	0x46
 8435 211e 14       		.byte	0x14
 8436 211f 14       		.byte	0x14
 8437 2120 1F       		.byte	0x1f
 8438 2121 23       		.byte	0x23
 8439 2122 20       		.uleb128 0x20
 8440 2123 24       		.byte	0x24
 8441 2124 17       		.byte	0x17
 8442 2125 25       		.byte	0x25
 8443 2126 21       		.byte	0x21
 8444 2127 27       		.byte	0x27
 8445 2128 72       		.byte	0x72
 8446 2129 00       		.sleb128 0
 8447 212a 75       		.byte	0x75
 8448 212b 00       		.sleb128 0
 8449 212c 1A       		.byte	0x1a
 8450 212d 78       		.byte	0x78
 8451 212e 00       		.sleb128 0
 8452 212f 27       		.byte	0x27
 8453 2130 22       		.byte	0x22
 8454 2131 9F       		.byte	0x9f
 8455 2132 1E030000 		.4byte	.LVL124
 8456 2136 2C030000 		.4byte	.LVL125
 8457 213a 3600     		.2byte	0x36
 8458 213c 74       		.byte	0x74
 8459 213d 00       		.sleb128 0
 8460 213e 32       		.byte	0x32
 8461 213f 14       		.byte	0x14
 8462 2140 14       		.byte	0x14
 8463 2141 1F       		.byte	0x1f
 8464 2142 23       		.byte	0x23
 8465 2143 20       		.uleb128 0x20
 8466 2144 24       		.byte	0x24
 8467 2145 17       		.byte	0x17
 8468 2146 25       		.byte	0x25
 8469 2147 21       		.byte	0x21
 8470 2148 74       		.byte	0x74
 8471 2149 00       		.sleb128 0
 8472 214a 3D       		.byte	0x3d
 8473 214b 14       		.byte	0x14
 8474 214c 14       		.byte	0x14
 8475 214d 1F       		.byte	0x1f
 8476 214e 23       		.byte	0x23
 8477 214f 20       		.uleb128 0x20
 8478 2150 24       		.byte	0x24
 8479 2151 17       		.byte	0x17
 8480 2152 25       		.byte	0x25
 8481 2153 21       		.byte	0x21
 8482 2154 27       		.byte	0x27
 8483 2155 74       		.byte	0x74
ARM GAS  C:\Users\bogur\AppData\Local\Temp\cc4rWh5U.s 			page 155


 8484 2156 00       		.sleb128 0
 8485 2157 46       		.byte	0x46
 8486 2158 14       		.byte	0x14
 8487 2159 14       		.byte	0x14
 8488 215a 1F       		.byte	0x1f
 8489 215b 23       		.byte	0x23
 8490 215c 20       		.uleb128 0x20
 8491 215d 24       		.byte	0x24
 8492 215e 17       		.byte	0x17
 8493 215f 25       		.byte	0x25
 8494 2160 21       		.byte	0x21
 8495 2161 27       		.byte	0x27
 8496 2162 72       		.byte	0x72
 8497 2163 00       		.sleb128 0
 8498 2164 75       		.byte	0x75
 8499 2165 00       		.sleb128 0
 8500 2166 27       		.byte	0x27
 8501 2167 74       		.byte	0x74
 8502 2168 00       		.sleb128 0
 8503 2169 1A       		.byte	0x1a
 8504 216a 72       		.byte	0x72
 8505 216b 00       		.sleb128 0
 8506 216c 75       		.byte	0x75
 8507 216d 00       		.sleb128 0
 8508 216e 1A       		.byte	0x1a
 8509 216f 27       		.byte	0x27
 8510 2170 22       		.byte	0x22
 8511 2171 9F       		.byte	0x9f
 8512 2172 2C030000 		.4byte	.LVL125
 8513 2176 42030000 		.4byte	.LVL129
 8514 217a 0100     		.2byte	0x1
 8515 217c 5C       		.byte	0x5c
 8516 217d 42030000 		.4byte	.LVL129
 8517 2181 64030000 		.4byte	.LVL131
 8518 2185 3000     		.2byte	0x30
 8519 2187 71       		.byte	0x71
 8520 2188 00       		.sleb128 0
 8521 2189 32       		.byte	0x32
 8522 218a 14       		.byte	0x14
 8523 218b 14       		.byte	0x14
 8524 218c 1F       		.byte	0x1f
 8525 218d 23       		.byte	0x23
 8526 218e 20       		.uleb128 0x20
 8527 218f 24       		.byte	0x24
 8528 2190 17       		.byte	0x17
 8529 2191 25       		.byte	0x25
 8530 2192 21       		.byte	0x21
 8531 2193 71       		.byte	0x71
 8532 2194 00       		.sleb128 0
 8533 2195 3D       		.byte	0x3d
 8534 2196 14       		.byte	0x14
 8535 2197 14       		.byte	0x14
 8536 2198 1F       		.byte	0x1f
 8537 2199 23       		.byte	0x23
 8538 219a 20       		.uleb128 0x20
 8539 219b 24       		.byte	0x24
 8540 219c 17       		.byte	0x17
ARM GAS  C:\Users\bogur\AppData\Local\Temp\cc4rWh5U.s 			page 156


 8541 219d 25       		.byte	0x25
 8542 219e 21       		.byte	0x21
 8543 219f 27       		.byte	0x27
 8544 21a0 71       		.byte	0x71
 8545 21a1 00       		.sleb128 0
 8546 21a2 46       		.byte	0x46
 8547 21a3 14       		.byte	0x14
 8548 21a4 14       		.byte	0x14
 8549 21a5 1F       		.byte	0x1f
 8550 21a6 23       		.byte	0x23
 8551 21a7 20       		.uleb128 0x20
 8552 21a8 24       		.byte	0x24
 8553 21a9 17       		.byte	0x17
 8554 21aa 25       		.byte	0x25
 8555 21ab 21       		.byte	0x21
 8556 21ac 27       		.byte	0x27
 8557 21ad 75       		.byte	0x75
 8558 21ae 00       		.sleb128 0
 8559 21af 74       		.byte	0x74
 8560 21b0 00       		.sleb128 0
 8561 21b1 1A       		.byte	0x1a
 8562 21b2 78       		.byte	0x78
 8563 21b3 00       		.sleb128 0
 8564 21b4 27       		.byte	0x27
 8565 21b5 22       		.byte	0x22
 8566 21b6 9F       		.byte	0x9f
 8567 21b7 64030000 		.4byte	.LVL131
 8568 21bb 72030000 		.4byte	.LVL132
 8569 21bf 3600     		.2byte	0x36
 8570 21c1 71       		.byte	0x71
 8571 21c2 00       		.sleb128 0
 8572 21c3 32       		.byte	0x32
 8573 21c4 14       		.byte	0x14
 8574 21c5 14       		.byte	0x14
 8575 21c6 1F       		.byte	0x1f
 8576 21c7 23       		.byte	0x23
 8577 21c8 20       		.uleb128 0x20
 8578 21c9 24       		.byte	0x24
 8579 21ca 17       		.byte	0x17
 8580 21cb 25       		.byte	0x25
 8581 21cc 21       		.byte	0x21
 8582 21cd 71       		.byte	0x71
 8583 21ce 00       		.sleb128 0
 8584 21cf 3D       		.byte	0x3d
 8585 21d0 14       		.byte	0x14
 8586 21d1 14       		.byte	0x14
 8587 21d2 1F       		.byte	0x1f
 8588 21d3 23       		.byte	0x23
 8589 21d4 20       		.uleb128 0x20
 8590 21d5 24       		.byte	0x24
 8591 21d6 17       		.byte	0x17
 8592 21d7 25       		.byte	0x25
 8593 21d8 21       		.byte	0x21
 8594 21d9 27       		.byte	0x27
 8595 21da 71       		.byte	0x71
 8596 21db 00       		.sleb128 0
 8597 21dc 46       		.byte	0x46
ARM GAS  C:\Users\bogur\AppData\Local\Temp\cc4rWh5U.s 			page 157


 8598 21dd 14       		.byte	0x14
 8599 21de 14       		.byte	0x14
 8600 21df 1F       		.byte	0x1f
 8601 21e0 23       		.byte	0x23
 8602 21e1 20       		.uleb128 0x20
 8603 21e2 24       		.byte	0x24
 8604 21e3 17       		.byte	0x17
 8605 21e4 25       		.byte	0x25
 8606 21e5 21       		.byte	0x21
 8607 21e6 27       		.byte	0x27
 8608 21e7 75       		.byte	0x75
 8609 21e8 00       		.sleb128 0
 8610 21e9 74       		.byte	0x74
 8611 21ea 00       		.sleb128 0
 8612 21eb 27       		.byte	0x27
 8613 21ec 71       		.byte	0x71
 8614 21ed 00       		.sleb128 0
 8615 21ee 1A       		.byte	0x1a
 8616 21ef 75       		.byte	0x75
 8617 21f0 00       		.sleb128 0
 8618 21f1 74       		.byte	0x74
 8619 21f2 00       		.sleb128 0
 8620 21f3 1A       		.byte	0x1a
 8621 21f4 27       		.byte	0x27
 8622 21f5 22       		.byte	0x22
 8623 21f6 9F       		.byte	0x9f
 8624 21f7 72030000 		.4byte	.LVL132
 8625 21fb AC030000 		.4byte	.LVL137
 8626 21ff 0100     		.2byte	0x1
 8627 2201 5C       		.byte	0x5c
 8628 2202 AC030000 		.4byte	.LVL137
 8629 2206 BA030000 		.4byte	.LVL138
 8630 220a 3600     		.2byte	0x36
 8631 220c 70       		.byte	0x70
 8632 220d 00       		.sleb128 0
 8633 220e 32       		.byte	0x32
 8634 220f 14       		.byte	0x14
 8635 2210 14       		.byte	0x14
 8636 2211 1F       		.byte	0x1f
 8637 2212 23       		.byte	0x23
 8638 2213 20       		.uleb128 0x20
 8639 2214 24       		.byte	0x24
 8640 2215 17       		.byte	0x17
 8641 2216 25       		.byte	0x25
 8642 2217 21       		.byte	0x21
 8643 2218 70       		.byte	0x70
 8644 2219 00       		.sleb128 0
 8645 221a 3D       		.byte	0x3d
 8646 221b 14       		.byte	0x14
 8647 221c 14       		.byte	0x14
 8648 221d 1F       		.byte	0x1f
 8649 221e 23       		.byte	0x23
 8650 221f 20       		.uleb128 0x20
 8651 2220 24       		.byte	0x24
 8652 2221 17       		.byte	0x17
 8653 2222 25       		.byte	0x25
 8654 2223 21       		.byte	0x21
ARM GAS  C:\Users\bogur\AppData\Local\Temp\cc4rWh5U.s 			page 158


 8655 2224 27       		.byte	0x27
 8656 2225 70       		.byte	0x70
 8657 2226 00       		.sleb128 0
 8658 2227 46       		.byte	0x46
 8659 2228 14       		.byte	0x14
 8660 2229 14       		.byte	0x14
 8661 222a 1F       		.byte	0x1f
 8662 222b 23       		.byte	0x23
 8663 222c 20       		.uleb128 0x20
 8664 222d 24       		.byte	0x24
 8665 222e 17       		.byte	0x17
 8666 222f 25       		.byte	0x25
 8667 2230 21       		.byte	0x21
 8668 2231 27       		.byte	0x27
 8669 2232 74       		.byte	0x74
 8670 2233 00       		.sleb128 0
 8671 2234 71       		.byte	0x71
 8672 2235 00       		.sleb128 0
 8673 2236 27       		.byte	0x27
 8674 2237 70       		.byte	0x70
 8675 2238 00       		.sleb128 0
 8676 2239 1A       		.byte	0x1a
 8677 223a 74       		.byte	0x74
 8678 223b 00       		.sleb128 0
 8679 223c 71       		.byte	0x71
 8680 223d 00       		.sleb128 0
 8681 223e 1A       		.byte	0x1a
 8682 223f 27       		.byte	0x27
 8683 2240 22       		.byte	0x22
 8684 2241 9F       		.byte	0x9f
 8685 2242 BA030000 		.4byte	.LVL138
 8686 2246 00040000 		.4byte	.LVL143
 8687 224a 0100     		.2byte	0x1
 8688 224c 5E       		.byte	0x5e
 8689 224d 00040000 		.4byte	.LVL143
 8690 2251 06040000 		.4byte	.LVL145
 8691 2255 0100     		.2byte	0x1
 8692 2257 5B       		.byte	0x5b
 8693 2258 06040000 		.4byte	.LVL145
 8694 225c 0A040000 		.4byte	.LVL146
 8695 2260 0F00     		.2byte	0xf
 8696 2262 70       		.byte	0x70
 8697 2263 00       		.sleb128 0
 8698 2264 72       		.byte	0x72
 8699 2265 00       		.sleb128 0
 8700 2266 27       		.byte	0x27
 8701 2267 76       		.byte	0x76
 8702 2268 00       		.sleb128 0
 8703 2269 1A       		.byte	0x1a
 8704 226a 73       		.byte	0x73
 8705 226b 00       		.sleb128 0
 8706 226c 27       		.byte	0x27
 8707 226d 74       		.byte	0x74
 8708 226e 00       		.sleb128 0
 8709 226f 22       		.byte	0x22
 8710 2270 9F       		.byte	0x9f
 8711 2271 0A040000 		.4byte	.LVL146
ARM GAS  C:\Users\bogur\AppData\Local\Temp\cc4rWh5U.s 			page 159


 8712 2275 2C040000 		.4byte	.LVL150
 8713 2279 1200     		.2byte	0x12
 8714 227b 70       		.byte	0x70
 8715 227c 00       		.sleb128 0
 8716 227d 72       		.byte	0x72
 8717 227e 00       		.sleb128 0
 8718 227f 27       		.byte	0x27
 8719 2280 76       		.byte	0x76
 8720 2281 00       		.sleb128 0
 8721 2282 1A       		.byte	0x1a
 8722 2283 70       		.byte	0x70
 8723 2284 00       		.sleb128 0
 8724 2285 72       		.byte	0x72
 8725 2286 00       		.sleb128 0
 8726 2287 1A       		.byte	0x1a
 8727 2288 27       		.byte	0x27
 8728 2289 74       		.byte	0x74
 8729 228a 00       		.sleb128 0
 8730 228b 22       		.byte	0x22
 8731 228c 9F       		.byte	0x9f
 8732 228d 2C040000 		.4byte	.LVL150
 8733 2291 44040000 		.4byte	.LVL151
 8734 2295 3600     		.2byte	0x36
 8735 2297 70       		.byte	0x70
 8736 2298 00       		.sleb128 0
 8737 2299 72       		.byte	0x72
 8738 229a 00       		.sleb128 0
 8739 229b 27       		.byte	0x27
 8740 229c 76       		.byte	0x76
 8741 229d 00       		.sleb128 0
 8742 229e 1A       		.byte	0x1a
 8743 229f 70       		.byte	0x70
 8744 22a0 00       		.sleb128 0
 8745 22a1 72       		.byte	0x72
 8746 22a2 00       		.sleb128 0
 8747 22a3 1A       		.byte	0x1a
 8748 22a4 27       		.byte	0x27
 8749 22a5 76       		.byte	0x76
 8750 22a6 00       		.sleb128 0
 8751 22a7 32       		.byte	0x32
 8752 22a8 14       		.byte	0x14
 8753 22a9 14       		.byte	0x14
 8754 22aa 1F       		.byte	0x1f
 8755 22ab 23       		.byte	0x23
 8756 22ac 20       		.uleb128 0x20
 8757 22ad 24       		.byte	0x24
 8758 22ae 17       		.byte	0x17
 8759 22af 25       		.byte	0x25
 8760 22b0 21       		.byte	0x21
 8761 22b1 76       		.byte	0x76
 8762 22b2 00       		.sleb128 0
 8763 22b3 3D       		.byte	0x3d
 8764 22b4 14       		.byte	0x14
 8765 22b5 14       		.byte	0x14
 8766 22b6 1F       		.byte	0x1f
 8767 22b7 23       		.byte	0x23
 8768 22b8 20       		.uleb128 0x20
ARM GAS  C:\Users\bogur\AppData\Local\Temp\cc4rWh5U.s 			page 160


 8769 22b9 24       		.byte	0x24
 8770 22ba 17       		.byte	0x17
 8771 22bb 25       		.byte	0x25
 8772 22bc 21       		.byte	0x21
 8773 22bd 27       		.byte	0x27
 8774 22be 76       		.byte	0x76
 8775 22bf 00       		.sleb128 0
 8776 22c0 46       		.byte	0x46
 8777 22c1 14       		.byte	0x14
 8778 22c2 14       		.byte	0x14
 8779 22c3 1F       		.byte	0x1f
 8780 22c4 23       		.byte	0x23
 8781 22c5 20       		.uleb128 0x20
 8782 22c6 24       		.byte	0x24
 8783 22c7 17       		.byte	0x17
 8784 22c8 25       		.byte	0x25
 8785 22c9 21       		.byte	0x21
 8786 22ca 27       		.byte	0x27
 8787 22cb 22       		.byte	0x22
 8788 22cc 9F       		.byte	0x9f
 8789 22cd 44040000 		.4byte	.LVL151
 8790 22d1 72040000 		.4byte	.LVL157
 8791 22d5 0100     		.2byte	0x1
 8792 22d7 51       		.byte	0x51
 8793 22d8 72040000 		.4byte	.LVL157
 8794 22dc 7E040000 		.4byte	.LVL158
 8795 22e0 1200     		.2byte	0x12
 8796 22e2 72       		.byte	0x72
 8797 22e3 00       		.sleb128 0
 8798 22e4 76       		.byte	0x76
 8799 22e5 00       		.sleb128 0
 8800 22e6 27       		.byte	0x27
 8801 22e7 7B       		.byte	0x7b
 8802 22e8 00       		.sleb128 0
 8803 22e9 1A       		.byte	0x1a
 8804 22ea 72       		.byte	0x72
 8805 22eb 00       		.sleb128 0
 8806 22ec 76       		.byte	0x76
 8807 22ed 00       		.sleb128 0
 8808 22ee 1A       		.byte	0x1a
 8809 22ef 27       		.byte	0x27
 8810 22f0 74       		.byte	0x74
 8811 22f1 00       		.sleb128 0
 8812 22f2 22       		.byte	0x22
 8813 22f3 9F       		.byte	0x9f
 8814 22f4 7E040000 		.4byte	.LVL158
 8815 22f8 8A040000 		.4byte	.LVL159
 8816 22fc 3600     		.2byte	0x36
 8817 22fe 72       		.byte	0x72
 8818 22ff 00       		.sleb128 0
 8819 2300 76       		.byte	0x76
 8820 2301 00       		.sleb128 0
 8821 2302 27       		.byte	0x27
 8822 2303 7B       		.byte	0x7b
 8823 2304 00       		.sleb128 0
 8824 2305 1A       		.byte	0x1a
 8825 2306 72       		.byte	0x72
ARM GAS  C:\Users\bogur\AppData\Local\Temp\cc4rWh5U.s 			page 161


 8826 2307 00       		.sleb128 0
 8827 2308 76       		.byte	0x76
 8828 2309 00       		.sleb128 0
 8829 230a 1A       		.byte	0x1a
 8830 230b 27       		.byte	0x27
 8831 230c 7B       		.byte	0x7b
 8832 230d 00       		.sleb128 0
 8833 230e 32       		.byte	0x32
 8834 230f 14       		.byte	0x14
 8835 2310 14       		.byte	0x14
 8836 2311 1F       		.byte	0x1f
 8837 2312 23       		.byte	0x23
 8838 2313 20       		.uleb128 0x20
 8839 2314 24       		.byte	0x24
 8840 2315 17       		.byte	0x17
 8841 2316 25       		.byte	0x25
 8842 2317 21       		.byte	0x21
 8843 2318 7B       		.byte	0x7b
 8844 2319 00       		.sleb128 0
 8845 231a 3D       		.byte	0x3d
 8846 231b 14       		.byte	0x14
 8847 231c 14       		.byte	0x14
 8848 231d 1F       		.byte	0x1f
 8849 231e 23       		.byte	0x23
 8850 231f 20       		.uleb128 0x20
 8851 2320 24       		.byte	0x24
 8852 2321 17       		.byte	0x17
 8853 2322 25       		.byte	0x25
 8854 2323 21       		.byte	0x21
 8855 2324 27       		.byte	0x27
 8856 2325 7B       		.byte	0x7b
 8857 2326 00       		.sleb128 0
 8858 2327 46       		.byte	0x46
 8859 2328 14       		.byte	0x14
 8860 2329 14       		.byte	0x14
 8861 232a 1F       		.byte	0x1f
 8862 232b 23       		.byte	0x23
 8863 232c 20       		.uleb128 0x20
 8864 232d 24       		.byte	0x24
 8865 232e 17       		.byte	0x17
 8866 232f 25       		.byte	0x25
 8867 2330 21       		.byte	0x21
 8868 2331 27       		.byte	0x27
 8869 2332 22       		.byte	0x22
 8870 2333 9F       		.byte	0x9f
 8871 2334 8A040000 		.4byte	.LVL159
 8872 2338 94040000 		.4byte	.LVL162
 8873 233c 0100     		.2byte	0x1
 8874 233e 54       		.byte	0x54
 8875 233f 94040000 		.4byte	.LVL162
 8876 2343 A6040000 		.4byte	.LVL164
 8877 2347 0F00     		.2byte	0xf
 8878 2349 76       		.byte	0x76
 8879 234a 00       		.sleb128 0
 8880 234b 7B       		.byte	0x7b
 8881 234c 00       		.sleb128 0
 8882 234d 27       		.byte	0x27
ARM GAS  C:\Users\bogur\AppData\Local\Temp\cc4rWh5U.s 			page 162


 8883 234e 7A       		.byte	0x7a
 8884 234f 00       		.sleb128 0
 8885 2350 1A       		.byte	0x1a
 8886 2351 73       		.byte	0x73
 8887 2352 00       		.sleb128 0
 8888 2353 27       		.byte	0x27
 8889 2354 71       		.byte	0x71
 8890 2355 00       		.sleb128 0
 8891 2356 22       		.byte	0x22
 8892 2357 9F       		.byte	0x9f
 8893 2358 A6040000 		.4byte	.LVL164
 8894 235c B8040000 		.4byte	.LVL167
 8895 2360 1200     		.2byte	0x12
 8896 2362 76       		.byte	0x76
 8897 2363 00       		.sleb128 0
 8898 2364 7B       		.byte	0x7b
 8899 2365 00       		.sleb128 0
 8900 2366 27       		.byte	0x27
 8901 2367 7A       		.byte	0x7a
 8902 2368 00       		.sleb128 0
 8903 2369 1A       		.byte	0x1a
 8904 236a 76       		.byte	0x76
 8905 236b 00       		.sleb128 0
 8906 236c 7B       		.byte	0x7b
 8907 236d 00       		.sleb128 0
 8908 236e 1A       		.byte	0x1a
 8909 236f 27       		.byte	0x27
 8910 2370 71       		.byte	0x71
 8911 2371 00       		.sleb128 0
 8912 2372 22       		.byte	0x22
 8913 2373 9F       		.byte	0x9f
 8914 2374 B8040000 		.4byte	.LVL167
 8915 2378 D0040000 		.4byte	.LVL168
 8916 237c 3600     		.2byte	0x36
 8917 237e 76       		.byte	0x76
 8918 237f 00       		.sleb128 0
 8919 2380 7B       		.byte	0x7b
 8920 2381 00       		.sleb128 0
 8921 2382 27       		.byte	0x27
 8922 2383 7A       		.byte	0x7a
 8923 2384 00       		.sleb128 0
 8924 2385 1A       		.byte	0x1a
 8925 2386 76       		.byte	0x76
 8926 2387 00       		.sleb128 0
 8927 2388 7B       		.byte	0x7b
 8928 2389 00       		.sleb128 0
 8929 238a 1A       		.byte	0x1a
 8930 238b 27       		.byte	0x27
 8931 238c 7A       		.byte	0x7a
 8932 238d 00       		.sleb128 0
 8933 238e 32       		.byte	0x32
 8934 238f 14       		.byte	0x14
 8935 2390 14       		.byte	0x14
 8936 2391 1F       		.byte	0x1f
 8937 2392 23       		.byte	0x23
 8938 2393 20       		.uleb128 0x20
 8939 2394 24       		.byte	0x24
ARM GAS  C:\Users\bogur\AppData\Local\Temp\cc4rWh5U.s 			page 163


 8940 2395 17       		.byte	0x17
 8941 2396 25       		.byte	0x25
 8942 2397 21       		.byte	0x21
 8943 2398 7A       		.byte	0x7a
 8944 2399 00       		.sleb128 0
 8945 239a 3D       		.byte	0x3d
 8946 239b 14       		.byte	0x14
 8947 239c 14       		.byte	0x14
 8948 239d 1F       		.byte	0x1f
 8949 239e 23       		.byte	0x23
 8950 239f 20       		.uleb128 0x20
 8951 23a0 24       		.byte	0x24
 8952 23a1 17       		.byte	0x17
 8953 23a2 25       		.byte	0x25
 8954 23a3 21       		.byte	0x21
 8955 23a4 27       		.byte	0x27
 8956 23a5 7A       		.byte	0x7a
 8957 23a6 00       		.sleb128 0
 8958 23a7 46       		.byte	0x46
 8959 23a8 14       		.byte	0x14
 8960 23a9 14       		.byte	0x14
 8961 23aa 1F       		.byte	0x1f
 8962 23ab 23       		.byte	0x23
 8963 23ac 20       		.uleb128 0x20
 8964 23ad 24       		.byte	0x24
 8965 23ae 17       		.byte	0x17
 8966 23af 25       		.byte	0x25
 8967 23b0 21       		.byte	0x21
 8968 23b1 27       		.byte	0x27
 8969 23b2 22       		.byte	0x22
 8970 23b3 9F       		.byte	0x9f
 8971 23b4 D0040000 		.4byte	.LVL168
 8972 23b8 D4040000 		.4byte	.LVL170
 8973 23bc 0100     		.2byte	0x1
 8974 23be 53       		.byte	0x53
 8975 23bf D4040000 		.4byte	.LVL170
 8976 23c3 D8040000 		.4byte	.LVL171
 8977 23c7 0F00     		.2byte	0xf
 8978 23c9 7B       		.byte	0x7b
 8979 23ca 00       		.sleb128 0
 8980 23cb 7A       		.byte	0x7a
 8981 23cc 00       		.sleb128 0
 8982 23cd 27       		.byte	0x27
 8983 23ce 79       		.byte	0x79
 8984 23cf 00       		.sleb128 0
 8985 23d0 1A       		.byte	0x1a
 8986 23d1 72       		.byte	0x72
 8987 23d2 00       		.sleb128 0
 8988 23d3 27       		.byte	0x27
 8989 23d4 71       		.byte	0x71
 8990 23d5 00       		.sleb128 0
 8991 23d6 22       		.byte	0x22
 8992 23d7 9F       		.byte	0x9f
 8993 23d8 D8040000 		.4byte	.LVL171
 8994 23dc EA040000 		.4byte	.LVL173
 8995 23e0 3300     		.2byte	0x33
 8996 23e2 7B       		.byte	0x7b
ARM GAS  C:\Users\bogur\AppData\Local\Temp\cc4rWh5U.s 			page 164


 8997 23e3 00       		.sleb128 0
 8998 23e4 7A       		.byte	0x7a
 8999 23e5 00       		.sleb128 0
 9000 23e6 27       		.byte	0x27
 9001 23e7 79       		.byte	0x79
 9002 23e8 00       		.sleb128 0
 9003 23e9 1A       		.byte	0x1a
 9004 23ea 72       		.byte	0x72
 9005 23eb 00       		.sleb128 0
 9006 23ec 27       		.byte	0x27
 9007 23ed 79       		.byte	0x79
 9008 23ee 00       		.sleb128 0
 9009 23ef 32       		.byte	0x32
 9010 23f0 14       		.byte	0x14
 9011 23f1 14       		.byte	0x14
 9012 23f2 1F       		.byte	0x1f
 9013 23f3 23       		.byte	0x23
 9014 23f4 20       		.uleb128 0x20
 9015 23f5 24       		.byte	0x24
 9016 23f6 17       		.byte	0x17
 9017 23f7 25       		.byte	0x25
 9018 23f8 21       		.byte	0x21
 9019 23f9 79       		.byte	0x79
 9020 23fa 00       		.sleb128 0
 9021 23fb 3D       		.byte	0x3d
 9022 23fc 14       		.byte	0x14
 9023 23fd 14       		.byte	0x14
 9024 23fe 1F       		.byte	0x1f
 9025 23ff 23       		.byte	0x23
 9026 2400 20       		.uleb128 0x20
 9027 2401 24       		.byte	0x24
 9028 2402 17       		.byte	0x17
 9029 2403 25       		.byte	0x25
 9030 2404 21       		.byte	0x21
 9031 2405 27       		.byte	0x27
 9032 2406 79       		.byte	0x79
 9033 2407 00       		.sleb128 0
 9034 2408 46       		.byte	0x46
 9035 2409 14       		.byte	0x14
 9036 240a 14       		.byte	0x14
 9037 240b 1F       		.byte	0x1f
 9038 240c 23       		.byte	0x23
 9039 240d 20       		.uleb128 0x20
 9040 240e 24       		.byte	0x24
 9041 240f 17       		.byte	0x17
 9042 2410 25       		.byte	0x25
 9043 2411 21       		.byte	0x21
 9044 2412 27       		.byte	0x27
 9045 2413 22       		.byte	0x22
 9046 2414 9F       		.byte	0x9f
 9047 2415 EA040000 		.4byte	.LVL173
 9048 2419 12050000 		.4byte	.LVL176
 9049 241d 3600     		.2byte	0x36
 9050 241f 7B       		.byte	0x7b
 9051 2420 00       		.sleb128 0
 9052 2421 7A       		.byte	0x7a
 9053 2422 00       		.sleb128 0
ARM GAS  C:\Users\bogur\AppData\Local\Temp\cc4rWh5U.s 			page 165


 9054 2423 27       		.byte	0x27
 9055 2424 79       		.byte	0x79
 9056 2425 00       		.sleb128 0
 9057 2426 1A       		.byte	0x1a
 9058 2427 7B       		.byte	0x7b
 9059 2428 00       		.sleb128 0
 9060 2429 7A       		.byte	0x7a
 9061 242a 00       		.sleb128 0
 9062 242b 1A       		.byte	0x1a
 9063 242c 27       		.byte	0x27
 9064 242d 79       		.byte	0x79
 9065 242e 00       		.sleb128 0
 9066 242f 32       		.byte	0x32
 9067 2430 14       		.byte	0x14
 9068 2431 14       		.byte	0x14
 9069 2432 1F       		.byte	0x1f
 9070 2433 23       		.byte	0x23
 9071 2434 20       		.uleb128 0x20
 9072 2435 24       		.byte	0x24
 9073 2436 17       		.byte	0x17
 9074 2437 25       		.byte	0x25
 9075 2438 21       		.byte	0x21
 9076 2439 79       		.byte	0x79
 9077 243a 00       		.sleb128 0
 9078 243b 3D       		.byte	0x3d
 9079 243c 14       		.byte	0x14
 9080 243d 14       		.byte	0x14
 9081 243e 1F       		.byte	0x1f
 9082 243f 23       		.byte	0x23
 9083 2440 20       		.uleb128 0x20
 9084 2441 24       		.byte	0x24
 9085 2442 17       		.byte	0x17
 9086 2443 25       		.byte	0x25
 9087 2444 21       		.byte	0x21
 9088 2445 27       		.byte	0x27
 9089 2446 79       		.byte	0x79
 9090 2447 00       		.sleb128 0
 9091 2448 46       		.byte	0x46
 9092 2449 14       		.byte	0x14
 9093 244a 14       		.byte	0x14
 9094 244b 1F       		.byte	0x1f
 9095 244c 23       		.byte	0x23
 9096 244d 20       		.uleb128 0x20
 9097 244e 24       		.byte	0x24
 9098 244f 17       		.byte	0x17
 9099 2450 25       		.byte	0x25
 9100 2451 21       		.byte	0x21
 9101 2452 27       		.byte	0x27
 9102 2453 22       		.byte	0x22
 9103 2454 9F       		.byte	0x9f
 9104 2455 12050000 		.4byte	.LVL176
 9105 2459 2A050000 		.4byte	.LVL180
 9106 245d 0100     		.2byte	0x1
 9107 245f 54       		.byte	0x54
 9108 2460 2A050000 		.4byte	.LVL180
 9109 2464 96050000 		.4byte	.LVL183
 9110 2468 3600     		.2byte	0x36
ARM GAS  C:\Users\bogur\AppData\Local\Temp\cc4rWh5U.s 			page 166


 9111 246a 73       		.byte	0x73
 9112 246b 00       		.sleb128 0
 9113 246c 32       		.byte	0x32
 9114 246d 14       		.byte	0x14
 9115 246e 14       		.byte	0x14
 9116 246f 1F       		.byte	0x1f
 9117 2470 23       		.byte	0x23
 9118 2471 20       		.uleb128 0x20
 9119 2472 24       		.byte	0x24
 9120 2473 17       		.byte	0x17
 9121 2474 25       		.byte	0x25
 9122 2475 21       		.byte	0x21
 9123 2476 73       		.byte	0x73
 9124 2477 00       		.sleb128 0
 9125 2478 3D       		.byte	0x3d
 9126 2479 14       		.byte	0x14
 9127 247a 14       		.byte	0x14
 9128 247b 1F       		.byte	0x1f
 9129 247c 23       		.byte	0x23
 9130 247d 20       		.uleb128 0x20
 9131 247e 24       		.byte	0x24
 9132 247f 17       		.byte	0x17
 9133 2480 25       		.byte	0x25
 9134 2481 21       		.byte	0x21
 9135 2482 27       		.byte	0x27
 9136 2483 73       		.byte	0x73
 9137 2484 00       		.sleb128 0
 9138 2485 46       		.byte	0x46
 9139 2486 14       		.byte	0x14
 9140 2487 14       		.byte	0x14
 9141 2488 1F       		.byte	0x1f
 9142 2489 23       		.byte	0x23
 9143 248a 20       		.uleb128 0x20
 9144 248b 24       		.byte	0x24
 9145 248c 17       		.byte	0x17
 9146 248d 25       		.byte	0x25
 9147 248e 21       		.byte	0x21
 9148 248f 27       		.byte	0x27
 9149 2490 7A       		.byte	0x7a
 9150 2491 00       		.sleb128 0
 9151 2492 79       		.byte	0x79
 9152 2493 00       		.sleb128 0
 9153 2494 1A       		.byte	0x1a
 9154 2495 7A       		.byte	0x7a
 9155 2496 00       		.sleb128 0
 9156 2497 79       		.byte	0x79
 9157 2498 00       		.sleb128 0
 9158 2499 27       		.byte	0x27
 9159 249a 73       		.byte	0x73
 9160 249b 00       		.sleb128 0
 9161 249c 1A       		.byte	0x1a
 9162 249d 27       		.byte	0x27
 9163 249e 22       		.byte	0x22
 9164 249f 9F       		.byte	0x9f
 9165 24a0 96050000 		.4byte	.LVL183
 9166 24a4 9C050000 		.4byte	.LVL185
 9167 24a8 0100     		.2byte	0x1
ARM GAS  C:\Users\bogur\AppData\Local\Temp\cc4rWh5U.s 			page 167


 9168 24aa 58       		.byte	0x58
 9169 24ab 9C050000 		.4byte	.LVL185
 9170 24af A0050000 		.4byte	.LVL186
 9171 24b3 1200     		.2byte	0x12
 9172 24b5 79       		.byte	0x79
 9173 24b6 00       		.sleb128 0
 9174 24b7 73       		.byte	0x73
 9175 24b8 00       		.sleb128 0
 9176 24b9 27       		.byte	0x27
 9177 24ba 72       		.byte	0x72
 9178 24bb 00       		.sleb128 0
 9179 24bc 1A       		.byte	0x1a
 9180 24bd 79       		.byte	0x79
 9181 24be 00       		.sleb128 0
 9182 24bf 73       		.byte	0x73
 9183 24c0 00       		.sleb128 0
 9184 24c1 1A       		.byte	0x1a
 9185 24c2 27       		.byte	0x27
 9186 24c3 74       		.byte	0x74
 9187 24c4 00       		.sleb128 0
 9188 24c5 22       		.byte	0x22
 9189 24c6 9F       		.byte	0x9f
 9190 24c7 A0050000 		.4byte	.LVL186
 9191 24cb DE050000 		.4byte	.LVL190
 9192 24cf 3600     		.2byte	0x36
 9193 24d1 79       		.byte	0x79
 9194 24d2 00       		.sleb128 0
 9195 24d3 73       		.byte	0x73
 9196 24d4 00       		.sleb128 0
 9197 24d5 27       		.byte	0x27
 9198 24d6 72       		.byte	0x72
 9199 24d7 00       		.sleb128 0
 9200 24d8 1A       		.byte	0x1a
 9201 24d9 79       		.byte	0x79
 9202 24da 00       		.sleb128 0
 9203 24db 73       		.byte	0x73
 9204 24dc 00       		.sleb128 0
 9205 24dd 1A       		.byte	0x1a
 9206 24de 27       		.byte	0x27
 9207 24df 72       		.byte	0x72
 9208 24e0 00       		.sleb128 0
 9209 24e1 32       		.byte	0x32
 9210 24e2 14       		.byte	0x14
 9211 24e3 14       		.byte	0x14
 9212 24e4 1F       		.byte	0x1f
 9213 24e5 23       		.byte	0x23
 9214 24e6 20       		.uleb128 0x20
 9215 24e7 24       		.byte	0x24
 9216 24e8 17       		.byte	0x17
 9217 24e9 25       		.byte	0x25
 9218 24ea 21       		.byte	0x21
 9219 24eb 72       		.byte	0x72
 9220 24ec 00       		.sleb128 0
 9221 24ed 3D       		.byte	0x3d
 9222 24ee 14       		.byte	0x14
 9223 24ef 14       		.byte	0x14
 9224 24f0 1F       		.byte	0x1f
ARM GAS  C:\Users\bogur\AppData\Local\Temp\cc4rWh5U.s 			page 168


 9225 24f1 23       		.byte	0x23
 9226 24f2 20       		.uleb128 0x20
 9227 24f3 24       		.byte	0x24
 9228 24f4 17       		.byte	0x17
 9229 24f5 25       		.byte	0x25
 9230 24f6 21       		.byte	0x21
 9231 24f7 27       		.byte	0x27
 9232 24f8 72       		.byte	0x72
 9233 24f9 00       		.sleb128 0
 9234 24fa 46       		.byte	0x46
 9235 24fb 14       		.byte	0x14
 9236 24fc 14       		.byte	0x14
 9237 24fd 1F       		.byte	0x1f
 9238 24fe 23       		.byte	0x23
 9239 24ff 20       		.uleb128 0x20
 9240 2500 24       		.byte	0x24
 9241 2501 17       		.byte	0x17
 9242 2502 25       		.byte	0x25
 9243 2503 21       		.byte	0x21
 9244 2504 27       		.byte	0x27
 9245 2505 22       		.byte	0x22
 9246 2506 9F       		.byte	0x9f
 9247 2507 DE050000 		.4byte	.LVL190
 9248 250b 00060000 		.4byte	.LVL195
 9249 250f 0100     		.2byte	0x1
 9250 2511 50       		.byte	0x50
 9251 2512 00060000 		.4byte	.LVL195
 9252 2516 B0080000 		.4byte	.LVL228
 9253 251a 3600     		.2byte	0x36
 9254 251c 73       		.byte	0x73
 9255 251d 00       		.sleb128 0
 9256 251e 72       		.byte	0x72
 9257 251f 00       		.sleb128 0
 9258 2520 27       		.byte	0x27
 9259 2521 78       		.byte	0x78
 9260 2522 00       		.sleb128 0
 9261 2523 1A       		.byte	0x1a
 9262 2524 73       		.byte	0x73
 9263 2525 00       		.sleb128 0
 9264 2526 72       		.byte	0x72
 9265 2527 00       		.sleb128 0
 9266 2528 1A       		.byte	0x1a
 9267 2529 27       		.byte	0x27
 9268 252a 78       		.byte	0x78
 9269 252b 00       		.sleb128 0
 9270 252c 32       		.byte	0x32
 9271 252d 14       		.byte	0x14
 9272 252e 14       		.byte	0x14
 9273 252f 1F       		.byte	0x1f
 9274 2530 23       		.byte	0x23
 9275 2531 20       		.uleb128 0x20
 9276 2532 24       		.byte	0x24
 9277 2533 17       		.byte	0x17
 9278 2534 25       		.byte	0x25
 9279 2535 21       		.byte	0x21
 9280 2536 78       		.byte	0x78
 9281 2537 00       		.sleb128 0
ARM GAS  C:\Users\bogur\AppData\Local\Temp\cc4rWh5U.s 			page 169


 9282 2538 3D       		.byte	0x3d
 9283 2539 14       		.byte	0x14
 9284 253a 14       		.byte	0x14
 9285 253b 1F       		.byte	0x1f
 9286 253c 23       		.byte	0x23
 9287 253d 20       		.uleb128 0x20
 9288 253e 24       		.byte	0x24
 9289 253f 17       		.byte	0x17
 9290 2540 25       		.byte	0x25
 9291 2541 21       		.byte	0x21
 9292 2542 27       		.byte	0x27
 9293 2543 78       		.byte	0x78
 9294 2544 00       		.sleb128 0
 9295 2545 46       		.byte	0x46
 9296 2546 14       		.byte	0x14
 9297 2547 14       		.byte	0x14
 9298 2548 1F       		.byte	0x1f
 9299 2549 23       		.byte	0x23
 9300 254a 20       		.uleb128 0x20
 9301 254b 24       		.byte	0x24
 9302 254c 17       		.byte	0x17
 9303 254d 25       		.byte	0x25
 9304 254e 21       		.byte	0x21
 9305 254f 27       		.byte	0x27
 9306 2550 22       		.byte	0x22
 9307 2551 9F       		.byte	0x9f
 9308 2552 B0080000 		.4byte	.LVL228
 9309 2556 C8080000 		.4byte	.LVL231
 9310 255a 0100     		.2byte	0x1
 9311 255c 59       		.byte	0x59
 9312 255d C8080000 		.4byte	.LVL231
 9313 2561 F8080000 		.4byte	.LVL233
 9314 2565 3600     		.2byte	0x36
 9315 2567 91       		.byte	0x91
 9316 2568 907F     		.sleb128 -112
 9317 256a 06       		.byte	0x6
 9318 256b 32       		.byte	0x32
 9319 256c 14       		.byte	0x14
 9320 256d 14       		.byte	0x14
 9321 256e 1F       		.byte	0x1f
 9322 256f 23       		.byte	0x23
 9323 2570 20       		.uleb128 0x20
 9324 2571 24       		.byte	0x24
 9325 2572 17       		.byte	0x17
 9326 2573 25       		.byte	0x25
 9327 2574 21       		.byte	0x21
 9328 2575 91       		.byte	0x91
 9329 2576 907F     		.sleb128 -112
 9330 2578 06       		.byte	0x6
 9331 2579 3D       		.byte	0x3d
 9332 257a 14       		.byte	0x14
 9333 257b 14       		.byte	0x14
 9334 257c 1F       		.byte	0x1f
 9335 257d 23       		.byte	0x23
 9336 257e 20       		.uleb128 0x20
 9337 257f 24       		.byte	0x24
 9338 2580 17       		.byte	0x17
ARM GAS  C:\Users\bogur\AppData\Local\Temp\cc4rWh5U.s 			page 170


 9339 2581 25       		.byte	0x25
 9340 2582 21       		.byte	0x21
 9341 2583 27       		.byte	0x27
 9342 2584 91       		.byte	0x91
 9343 2585 907F     		.sleb128 -112
 9344 2587 06       		.byte	0x6
 9345 2588 46       		.byte	0x46
 9346 2589 14       		.byte	0x14
 9347 258a 14       		.byte	0x14
 9348 258b 1F       		.byte	0x1f
 9349 258c 23       		.byte	0x23
 9350 258d 20       		.uleb128 0x20
 9351 258e 24       		.byte	0x24
 9352 258f 17       		.byte	0x17
 9353 2590 25       		.byte	0x25
 9354 2591 21       		.byte	0x21
 9355 2592 27       		.byte	0x27
 9356 2593 72       		.byte	0x72
 9357 2594 00       		.sleb128 0
 9358 2595 78       		.byte	0x78
 9359 2596 00       		.sleb128 0
 9360 2597 1A       		.byte	0x1a
 9361 2598 7A       		.byte	0x7a
 9362 2599 00       		.sleb128 0
 9363 259a 27       		.byte	0x27
 9364 259b 22       		.byte	0x22
 9365 259c 9F       		.byte	0x9f
 9366 259d F8080000 		.4byte	.LVL233
 9367 25a1 06090000 		.4byte	.LVL234
 9368 25a5 3E00     		.2byte	0x3e
 9369 25a7 91       		.byte	0x91
 9370 25a8 907F     		.sleb128 -112
 9371 25aa 06       		.byte	0x6
 9372 25ab 32       		.byte	0x32
 9373 25ac 14       		.byte	0x14
 9374 25ad 14       		.byte	0x14
 9375 25ae 1F       		.byte	0x1f
 9376 25af 23       		.byte	0x23
 9377 25b0 20       		.uleb128 0x20
 9378 25b1 24       		.byte	0x24
 9379 25b2 17       		.byte	0x17
 9380 25b3 25       		.byte	0x25
 9381 25b4 21       		.byte	0x21
 9382 25b5 91       		.byte	0x91
 9383 25b6 907F     		.sleb128 -112
 9384 25b8 06       		.byte	0x6
 9385 25b9 3D       		.byte	0x3d
 9386 25ba 14       		.byte	0x14
 9387 25bb 14       		.byte	0x14
 9388 25bc 1F       		.byte	0x1f
 9389 25bd 23       		.byte	0x23
 9390 25be 20       		.uleb128 0x20
 9391 25bf 24       		.byte	0x24
 9392 25c0 17       		.byte	0x17
 9393 25c1 25       		.byte	0x25
 9394 25c2 21       		.byte	0x21
 9395 25c3 27       		.byte	0x27
ARM GAS  C:\Users\bogur\AppData\Local\Temp\cc4rWh5U.s 			page 171


 9396 25c4 91       		.byte	0x91
 9397 25c5 907F     		.sleb128 -112
 9398 25c7 06       		.byte	0x6
 9399 25c8 46       		.byte	0x46
 9400 25c9 14       		.byte	0x14
 9401 25ca 14       		.byte	0x14
 9402 25cb 1F       		.byte	0x1f
 9403 25cc 23       		.byte	0x23
 9404 25cd 20       		.uleb128 0x20
 9405 25ce 24       		.byte	0x24
 9406 25cf 17       		.byte	0x17
 9407 25d0 25       		.byte	0x25
 9408 25d1 21       		.byte	0x21
 9409 25d2 27       		.byte	0x27
 9410 25d3 72       		.byte	0x72
 9411 25d4 00       		.sleb128 0
 9412 25d5 78       		.byte	0x78
 9413 25d6 00       		.sleb128 0
 9414 25d7 27       		.byte	0x27
 9415 25d8 91       		.byte	0x91
 9416 25d9 907F     		.sleb128 -112
 9417 25db 06       		.byte	0x6
 9418 25dc 1A       		.byte	0x1a
 9419 25dd 72       		.byte	0x72
 9420 25de 00       		.sleb128 0
 9421 25df 78       		.byte	0x78
 9422 25e0 00       		.sleb128 0
 9423 25e1 1A       		.byte	0x1a
 9424 25e2 27       		.byte	0x27
 9425 25e3 22       		.byte	0x22
 9426 25e4 9F       		.byte	0x9f
 9427 25e5 06090000 		.4byte	.LVL234
 9428 25e9 1C090000 		.4byte	.LVL238
 9429 25ed 0100     		.2byte	0x1
 9430 25ef 59       		.byte	0x59
 9431 25f0 1C090000 		.4byte	.LVL238
 9432 25f4 3C090000 		.4byte	.LVL240
 9433 25f8 3200     		.2byte	0x32
 9434 25fa 76       		.byte	0x76
 9435 25fb 00       		.sleb128 0
 9436 25fc 32       		.byte	0x32
 9437 25fd 14       		.byte	0x14
 9438 25fe 14       		.byte	0x14
 9439 25ff 1F       		.byte	0x1f
 9440 2600 23       		.byte	0x23
 9441 2601 20       		.uleb128 0x20
 9442 2602 24       		.byte	0x24
 9443 2603 17       		.byte	0x17
 9444 2604 25       		.byte	0x25
 9445 2605 21       		.byte	0x21
 9446 2606 76       		.byte	0x76
 9447 2607 00       		.sleb128 0
 9448 2608 3D       		.byte	0x3d
 9449 2609 14       		.byte	0x14
 9450 260a 14       		.byte	0x14
 9451 260b 1F       		.byte	0x1f
 9452 260c 23       		.byte	0x23
ARM GAS  C:\Users\bogur\AppData\Local\Temp\cc4rWh5U.s 			page 172


 9453 260d 20       		.uleb128 0x20
 9454 260e 24       		.byte	0x24
 9455 260f 17       		.byte	0x17
 9456 2610 25       		.byte	0x25
 9457 2611 21       		.byte	0x21
 9458 2612 27       		.byte	0x27
 9459 2613 76       		.byte	0x76
 9460 2614 00       		.sleb128 0
 9461 2615 46       		.byte	0x46
 9462 2616 14       		.byte	0x14
 9463 2617 14       		.byte	0x14
 9464 2618 1F       		.byte	0x1f
 9465 2619 23       		.byte	0x23
 9466 261a 20       		.uleb128 0x20
 9467 261b 24       		.byte	0x24
 9468 261c 17       		.byte	0x17
 9469 261d 25       		.byte	0x25
 9470 261e 21       		.byte	0x21
 9471 261f 27       		.byte	0x27
 9472 2620 78       		.byte	0x78
 9473 2621 00       		.sleb128 0
 9474 2622 91       		.byte	0x91
 9475 2623 907F     		.sleb128 -112
 9476 2625 06       		.byte	0x6
 9477 2626 1A       		.byte	0x1a
 9478 2627 7A       		.byte	0x7a
 9479 2628 00       		.sleb128 0
 9480 2629 27       		.byte	0x27
 9481 262a 22       		.byte	0x22
 9482 262b 9F       		.byte	0x9f
 9483 262c 3C090000 		.4byte	.LVL240
 9484 2630 4A090000 		.4byte	.LVL241
 9485 2634 3A00     		.2byte	0x3a
 9486 2636 76       		.byte	0x76
 9487 2637 00       		.sleb128 0
 9488 2638 32       		.byte	0x32
 9489 2639 14       		.byte	0x14
 9490 263a 14       		.byte	0x14
 9491 263b 1F       		.byte	0x1f
 9492 263c 23       		.byte	0x23
 9493 263d 20       		.uleb128 0x20
 9494 263e 24       		.byte	0x24
 9495 263f 17       		.byte	0x17
 9496 2640 25       		.byte	0x25
 9497 2641 21       		.byte	0x21
 9498 2642 76       		.byte	0x76
 9499 2643 00       		.sleb128 0
 9500 2644 3D       		.byte	0x3d
 9501 2645 14       		.byte	0x14
 9502 2646 14       		.byte	0x14
 9503 2647 1F       		.byte	0x1f
 9504 2648 23       		.byte	0x23
 9505 2649 20       		.uleb128 0x20
 9506 264a 24       		.byte	0x24
 9507 264b 17       		.byte	0x17
 9508 264c 25       		.byte	0x25
 9509 264d 21       		.byte	0x21
ARM GAS  C:\Users\bogur\AppData\Local\Temp\cc4rWh5U.s 			page 173


 9510 264e 27       		.byte	0x27
 9511 264f 76       		.byte	0x76
 9512 2650 00       		.sleb128 0
 9513 2651 46       		.byte	0x46
 9514 2652 14       		.byte	0x14
 9515 2653 14       		.byte	0x14
 9516 2654 1F       		.byte	0x1f
 9517 2655 23       		.byte	0x23
 9518 2656 20       		.uleb128 0x20
 9519 2657 24       		.byte	0x24
 9520 2658 17       		.byte	0x17
 9521 2659 25       		.byte	0x25
 9522 265a 21       		.byte	0x21
 9523 265b 27       		.byte	0x27
 9524 265c 78       		.byte	0x78
 9525 265d 00       		.sleb128 0
 9526 265e 91       		.byte	0x91
 9527 265f 907F     		.sleb128 -112
 9528 2661 06       		.byte	0x6
 9529 2662 27       		.byte	0x27
 9530 2663 76       		.byte	0x76
 9531 2664 00       		.sleb128 0
 9532 2665 1A       		.byte	0x1a
 9533 2666 78       		.byte	0x78
 9534 2667 00       		.sleb128 0
 9535 2668 91       		.byte	0x91
 9536 2669 907F     		.sleb128 -112
 9537 266b 06       		.byte	0x6
 9538 266c 1A       		.byte	0x1a
 9539 266d 27       		.byte	0x27
 9540 266e 22       		.byte	0x22
 9541 266f 9F       		.byte	0x9f
 9542 2670 4A090000 		.4byte	.LVL241
 9543 2674 64090000 		.4byte	.LVL244
 9544 2678 0100     		.2byte	0x1
 9545 267a 59       		.byte	0x59
 9546 267b 64090000 		.4byte	.LVL244
 9547 267f 86090000 		.4byte	.LVL246
 9548 2683 3200     		.2byte	0x32
 9549 2685 75       		.byte	0x75
 9550 2686 00       		.sleb128 0
 9551 2687 32       		.byte	0x32
 9552 2688 14       		.byte	0x14
 9553 2689 14       		.byte	0x14
 9554 268a 1F       		.byte	0x1f
 9555 268b 23       		.byte	0x23
 9556 268c 20       		.uleb128 0x20
 9557 268d 24       		.byte	0x24
 9558 268e 17       		.byte	0x17
 9559 268f 25       		.byte	0x25
 9560 2690 21       		.byte	0x21
 9561 2691 75       		.byte	0x75
 9562 2692 00       		.sleb128 0
 9563 2693 3D       		.byte	0x3d
 9564 2694 14       		.byte	0x14
 9565 2695 14       		.byte	0x14
 9566 2696 1F       		.byte	0x1f
ARM GAS  C:\Users\bogur\AppData\Local\Temp\cc4rWh5U.s 			page 174


 9567 2697 23       		.byte	0x23
 9568 2698 20       		.uleb128 0x20
 9569 2699 24       		.byte	0x24
 9570 269a 17       		.byte	0x17
 9571 269b 25       		.byte	0x25
 9572 269c 21       		.byte	0x21
 9573 269d 27       		.byte	0x27
 9574 269e 75       		.byte	0x75
 9575 269f 00       		.sleb128 0
 9576 26a0 46       		.byte	0x46
 9577 26a1 14       		.byte	0x14
 9578 26a2 14       		.byte	0x14
 9579 26a3 1F       		.byte	0x1f
 9580 26a4 23       		.byte	0x23
 9581 26a5 20       		.uleb128 0x20
 9582 26a6 24       		.byte	0x24
 9583 26a7 17       		.byte	0x17
 9584 26a8 25       		.byte	0x25
 9585 26a9 21       		.byte	0x21
 9586 26aa 27       		.byte	0x27
 9587 26ab 91       		.byte	0x91
 9588 26ac 907F     		.sleb128 -112
 9589 26ae 06       		.byte	0x6
 9590 26af 76       		.byte	0x76
 9591 26b0 00       		.sleb128 0
 9592 26b1 1A       		.byte	0x1a
 9593 26b2 7A       		.byte	0x7a
 9594 26b3 00       		.sleb128 0
 9595 26b4 27       		.byte	0x27
 9596 26b5 22       		.byte	0x22
 9597 26b6 9F       		.byte	0x9f
 9598 26b7 86090000 		.4byte	.LVL246
 9599 26bb 94090000 		.4byte	.LVL247
 9600 26bf 3A00     		.2byte	0x3a
 9601 26c1 75       		.byte	0x75
 9602 26c2 00       		.sleb128 0
 9603 26c3 32       		.byte	0x32
 9604 26c4 14       		.byte	0x14
 9605 26c5 14       		.byte	0x14
 9606 26c6 1F       		.byte	0x1f
 9607 26c7 23       		.byte	0x23
 9608 26c8 20       		.uleb128 0x20
 9609 26c9 24       		.byte	0x24
 9610 26ca 17       		.byte	0x17
 9611 26cb 25       		.byte	0x25
 9612 26cc 21       		.byte	0x21
 9613 26cd 75       		.byte	0x75
 9614 26ce 00       		.sleb128 0
 9615 26cf 3D       		.byte	0x3d
 9616 26d0 14       		.byte	0x14
 9617 26d1 14       		.byte	0x14
 9618 26d2 1F       		.byte	0x1f
 9619 26d3 23       		.byte	0x23
 9620 26d4 20       		.uleb128 0x20
 9621 26d5 24       		.byte	0x24
 9622 26d6 17       		.byte	0x17
 9623 26d7 25       		.byte	0x25
ARM GAS  C:\Users\bogur\AppData\Local\Temp\cc4rWh5U.s 			page 175


 9624 26d8 21       		.byte	0x21
 9625 26d9 27       		.byte	0x27
 9626 26da 75       		.byte	0x75
 9627 26db 00       		.sleb128 0
 9628 26dc 46       		.byte	0x46
 9629 26dd 14       		.byte	0x14
 9630 26de 14       		.byte	0x14
 9631 26df 1F       		.byte	0x1f
 9632 26e0 23       		.byte	0x23
 9633 26e1 20       		.uleb128 0x20
 9634 26e2 24       		.byte	0x24
 9635 26e3 17       		.byte	0x17
 9636 26e4 25       		.byte	0x25
 9637 26e5 21       		.byte	0x21
 9638 26e6 27       		.byte	0x27
 9639 26e7 91       		.byte	0x91
 9640 26e8 907F     		.sleb128 -112
 9641 26ea 06       		.byte	0x6
 9642 26eb 76       		.byte	0x76
 9643 26ec 00       		.sleb128 0
 9644 26ed 27       		.byte	0x27
 9645 26ee 75       		.byte	0x75
 9646 26ef 00       		.sleb128 0
 9647 26f0 1A       		.byte	0x1a
 9648 26f1 91       		.byte	0x91
 9649 26f2 907F     		.sleb128 -112
 9650 26f4 06       		.byte	0x6
 9651 26f5 76       		.byte	0x76
 9652 26f6 00       		.sleb128 0
 9653 26f7 1A       		.byte	0x1a
 9654 26f8 27       		.byte	0x27
 9655 26f9 22       		.byte	0x22
 9656 26fa 9F       		.byte	0x9f
 9657 26fb 94090000 		.4byte	.LVL247
 9658 26ff AE090000 		.4byte	.LVL252
 9659 2703 0100     		.2byte	0x1
 9660 2705 59       		.byte	0x59
 9661 2706 AE090000 		.4byte	.LVL252
 9662 270a D0090000 		.4byte	.LVL254
 9663 270e 3000     		.2byte	0x30
 9664 2710 71       		.byte	0x71
 9665 2711 00       		.sleb128 0
 9666 2712 32       		.byte	0x32
 9667 2713 14       		.byte	0x14
 9668 2714 14       		.byte	0x14
 9669 2715 1F       		.byte	0x1f
 9670 2716 23       		.byte	0x23
 9671 2717 20       		.uleb128 0x20
 9672 2718 24       		.byte	0x24
 9673 2719 17       		.byte	0x17
 9674 271a 25       		.byte	0x25
 9675 271b 21       		.byte	0x21
 9676 271c 71       		.byte	0x71
 9677 271d 00       		.sleb128 0
 9678 271e 3D       		.byte	0x3d
 9679 271f 14       		.byte	0x14
 9680 2720 14       		.byte	0x14
ARM GAS  C:\Users\bogur\AppData\Local\Temp\cc4rWh5U.s 			page 176


 9681 2721 1F       		.byte	0x1f
 9682 2722 23       		.byte	0x23
 9683 2723 20       		.uleb128 0x20
 9684 2724 24       		.byte	0x24
 9685 2725 17       		.byte	0x17
 9686 2726 25       		.byte	0x25
 9687 2727 21       		.byte	0x21
 9688 2728 27       		.byte	0x27
 9689 2729 71       		.byte	0x71
 9690 272a 00       		.sleb128 0
 9691 272b 46       		.byte	0x46
 9692 272c 14       		.byte	0x14
 9693 272d 14       		.byte	0x14
 9694 272e 1F       		.byte	0x1f
 9695 272f 23       		.byte	0x23
 9696 2730 20       		.uleb128 0x20
 9697 2731 24       		.byte	0x24
 9698 2732 17       		.byte	0x17
 9699 2733 25       		.byte	0x25
 9700 2734 21       		.byte	0x21
 9701 2735 27       		.byte	0x27
 9702 2736 76       		.byte	0x76
 9703 2737 00       		.sleb128 0
 9704 2738 75       		.byte	0x75
 9705 2739 00       		.sleb128 0
 9706 273a 1A       		.byte	0x1a
 9707 273b 7A       		.byte	0x7a
 9708 273c 00       		.sleb128 0
 9709 273d 27       		.byte	0x27
 9710 273e 22       		.byte	0x22
 9711 273f 9F       		.byte	0x9f
 9712 2740 D0090000 		.4byte	.LVL254
 9713 2744 DE090000 		.4byte	.LVL255
 9714 2748 3600     		.2byte	0x36
 9715 274a 71       		.byte	0x71
 9716 274b 00       		.sleb128 0
 9717 274c 32       		.byte	0x32
 9718 274d 14       		.byte	0x14
 9719 274e 14       		.byte	0x14
 9720 274f 1F       		.byte	0x1f
 9721 2750 23       		.byte	0x23
 9722 2751 20       		.uleb128 0x20
 9723 2752 24       		.byte	0x24
 9724 2753 17       		.byte	0x17
 9725 2754 25       		.byte	0x25
 9726 2755 21       		.byte	0x21
 9727 2756 71       		.byte	0x71
 9728 2757 00       		.sleb128 0
 9729 2758 3D       		.byte	0x3d
 9730 2759 14       		.byte	0x14
 9731 275a 14       		.byte	0x14
 9732 275b 1F       		.byte	0x1f
 9733 275c 23       		.byte	0x23
 9734 275d 20       		.uleb128 0x20
 9735 275e 24       		.byte	0x24
 9736 275f 17       		.byte	0x17
 9737 2760 25       		.byte	0x25
ARM GAS  C:\Users\bogur\AppData\Local\Temp\cc4rWh5U.s 			page 177


 9738 2761 21       		.byte	0x21
 9739 2762 27       		.byte	0x27
 9740 2763 71       		.byte	0x71
 9741 2764 00       		.sleb128 0
 9742 2765 46       		.byte	0x46
 9743 2766 14       		.byte	0x14
 9744 2767 14       		.byte	0x14
 9745 2768 1F       		.byte	0x1f
 9746 2769 23       		.byte	0x23
 9747 276a 20       		.uleb128 0x20
 9748 276b 24       		.byte	0x24
 9749 276c 17       		.byte	0x17
 9750 276d 25       		.byte	0x25
 9751 276e 21       		.byte	0x21
 9752 276f 27       		.byte	0x27
 9753 2770 76       		.byte	0x76
 9754 2771 00       		.sleb128 0
 9755 2772 75       		.byte	0x75
 9756 2773 00       		.sleb128 0
 9757 2774 27       		.byte	0x27
 9758 2775 71       		.byte	0x71
 9759 2776 00       		.sleb128 0
 9760 2777 1A       		.byte	0x1a
 9761 2778 76       		.byte	0x76
 9762 2779 00       		.sleb128 0
 9763 277a 75       		.byte	0x75
 9764 277b 00       		.sleb128 0
 9765 277c 1A       		.byte	0x1a
 9766 277d 27       		.byte	0x27
 9767 277e 22       		.byte	0x22
 9768 277f 9F       		.byte	0x9f
 9769 2780 DE090000 		.4byte	.LVL255
 9770 2784 F4090000 		.4byte	.LVL259
 9771 2788 0100     		.2byte	0x1
 9772 278a 59       		.byte	0x59
 9773 278b F4090000 		.4byte	.LVL259
 9774 278f 160A0000 		.4byte	.LVL261
 9775 2793 3000     		.2byte	0x30
 9776 2795 70       		.byte	0x70
 9777 2796 00       		.sleb128 0
 9778 2797 32       		.byte	0x32
 9779 2798 14       		.byte	0x14
 9780 2799 14       		.byte	0x14
 9781 279a 1F       		.byte	0x1f
 9782 279b 23       		.byte	0x23
 9783 279c 20       		.uleb128 0x20
 9784 279d 24       		.byte	0x24
 9785 279e 17       		.byte	0x17
 9786 279f 25       		.byte	0x25
 9787 27a0 21       		.byte	0x21
 9788 27a1 70       		.byte	0x70
 9789 27a2 00       		.sleb128 0
 9790 27a3 3D       		.byte	0x3d
 9791 27a4 14       		.byte	0x14
 9792 27a5 14       		.byte	0x14
 9793 27a6 1F       		.byte	0x1f
 9794 27a7 23       		.byte	0x23
ARM GAS  C:\Users\bogur\AppData\Local\Temp\cc4rWh5U.s 			page 178


 9795 27a8 20       		.uleb128 0x20
 9796 27a9 24       		.byte	0x24
 9797 27aa 17       		.byte	0x17
 9798 27ab 25       		.byte	0x25
 9799 27ac 21       		.byte	0x21
 9800 27ad 27       		.byte	0x27
 9801 27ae 70       		.byte	0x70
 9802 27af 00       		.sleb128 0
 9803 27b0 46       		.byte	0x46
 9804 27b1 14       		.byte	0x14
 9805 27b2 14       		.byte	0x14
 9806 27b3 1F       		.byte	0x1f
 9807 27b4 23       		.byte	0x23
 9808 27b5 20       		.uleb128 0x20
 9809 27b6 24       		.byte	0x24
 9810 27b7 17       		.byte	0x17
 9811 27b8 25       		.byte	0x25
 9812 27b9 21       		.byte	0x21
 9813 27ba 27       		.byte	0x27
 9814 27bb 75       		.byte	0x75
 9815 27bc 00       		.sleb128 0
 9816 27bd 71       		.byte	0x71
 9817 27be 00       		.sleb128 0
 9818 27bf 1A       		.byte	0x1a
 9819 27c0 7A       		.byte	0x7a
 9820 27c1 00       		.sleb128 0
 9821 27c2 27       		.byte	0x27
 9822 27c3 22       		.byte	0x22
 9823 27c4 9F       		.byte	0x9f
 9824 27c5 160A0000 		.4byte	.LVL261
 9825 27c9 240A0000 		.4byte	.LVL262
 9826 27cd 3600     		.2byte	0x36
 9827 27cf 70       		.byte	0x70
 9828 27d0 00       		.sleb128 0
 9829 27d1 32       		.byte	0x32
 9830 27d2 14       		.byte	0x14
 9831 27d3 14       		.byte	0x14
 9832 27d4 1F       		.byte	0x1f
 9833 27d5 23       		.byte	0x23
 9834 27d6 20       		.uleb128 0x20
 9835 27d7 24       		.byte	0x24
 9836 27d8 17       		.byte	0x17
 9837 27d9 25       		.byte	0x25
 9838 27da 21       		.byte	0x21
 9839 27db 70       		.byte	0x70
 9840 27dc 00       		.sleb128 0
 9841 27dd 3D       		.byte	0x3d
 9842 27de 14       		.byte	0x14
 9843 27df 14       		.byte	0x14
 9844 27e0 1F       		.byte	0x1f
 9845 27e1 23       		.byte	0x23
 9846 27e2 20       		.uleb128 0x20
 9847 27e3 24       		.byte	0x24
 9848 27e4 17       		.byte	0x17
 9849 27e5 25       		.byte	0x25
 9850 27e6 21       		.byte	0x21
 9851 27e7 27       		.byte	0x27
ARM GAS  C:\Users\bogur\AppData\Local\Temp\cc4rWh5U.s 			page 179


 9852 27e8 70       		.byte	0x70
 9853 27e9 00       		.sleb128 0
 9854 27ea 46       		.byte	0x46
 9855 27eb 14       		.byte	0x14
 9856 27ec 14       		.byte	0x14
 9857 27ed 1F       		.byte	0x1f
 9858 27ee 23       		.byte	0x23
 9859 27ef 20       		.uleb128 0x20
 9860 27f0 24       		.byte	0x24
 9861 27f1 17       		.byte	0x17
 9862 27f2 25       		.byte	0x25
 9863 27f3 21       		.byte	0x21
 9864 27f4 27       		.byte	0x27
 9865 27f5 75       		.byte	0x75
 9866 27f6 00       		.sleb128 0
 9867 27f7 71       		.byte	0x71
 9868 27f8 00       		.sleb128 0
 9869 27f9 27       		.byte	0x27
 9870 27fa 70       		.byte	0x70
 9871 27fb 00       		.sleb128 0
 9872 27fc 1A       		.byte	0x1a
 9873 27fd 75       		.byte	0x75
 9874 27fe 00       		.sleb128 0
 9875 27ff 71       		.byte	0x71
 9876 2800 00       		.sleb128 0
 9877 2801 1A       		.byte	0x1a
 9878 2802 27       		.byte	0x27
 9879 2803 22       		.byte	0x22
 9880 2804 9F       		.byte	0x9f
 9881 2805 240A0000 		.4byte	.LVL262
 9882 2809 3A0A0000 		.4byte	.LVL266
 9883 280d 0100     		.2byte	0x1
 9884 280f 59       		.byte	0x59
 9885 2810 3A0A0000 		.4byte	.LVL266
 9886 2814 5C0A0000 		.4byte	.LVL268
 9887 2818 3000     		.2byte	0x30
 9888 281a 74       		.byte	0x74
 9889 281b 00       		.sleb128 0
 9890 281c 32       		.byte	0x32
 9891 281d 14       		.byte	0x14
 9892 281e 14       		.byte	0x14
 9893 281f 1F       		.byte	0x1f
 9894 2820 23       		.byte	0x23
 9895 2821 20       		.uleb128 0x20
 9896 2822 24       		.byte	0x24
 9897 2823 17       		.byte	0x17
 9898 2824 25       		.byte	0x25
 9899 2825 21       		.byte	0x21
 9900 2826 74       		.byte	0x74
 9901 2827 00       		.sleb128 0
 9902 2828 3D       		.byte	0x3d
 9903 2829 14       		.byte	0x14
 9904 282a 14       		.byte	0x14
 9905 282b 1F       		.byte	0x1f
 9906 282c 23       		.byte	0x23
 9907 282d 20       		.uleb128 0x20
 9908 282e 24       		.byte	0x24
ARM GAS  C:\Users\bogur\AppData\Local\Temp\cc4rWh5U.s 			page 180


 9909 282f 17       		.byte	0x17
 9910 2830 25       		.byte	0x25
 9911 2831 21       		.byte	0x21
 9912 2832 27       		.byte	0x27
 9913 2833 74       		.byte	0x74
 9914 2834 00       		.sleb128 0
 9915 2835 46       		.byte	0x46
 9916 2836 14       		.byte	0x14
 9917 2837 14       		.byte	0x14
 9918 2838 1F       		.byte	0x1f
 9919 2839 23       		.byte	0x23
 9920 283a 20       		.uleb128 0x20
 9921 283b 24       		.byte	0x24
 9922 283c 17       		.byte	0x17
 9923 283d 25       		.byte	0x25
 9924 283e 21       		.byte	0x21
 9925 283f 27       		.byte	0x27
 9926 2840 71       		.byte	0x71
 9927 2841 00       		.sleb128 0
 9928 2842 70       		.byte	0x70
 9929 2843 00       		.sleb128 0
 9930 2844 1A       		.byte	0x1a
 9931 2845 7A       		.byte	0x7a
 9932 2846 00       		.sleb128 0
 9933 2847 27       		.byte	0x27
 9934 2848 22       		.byte	0x22
 9935 2849 9F       		.byte	0x9f
 9936 284a 5C0A0000 		.4byte	.LVL268
 9937 284e 6A0A0000 		.4byte	.LVL269
 9938 2852 3600     		.2byte	0x36
 9939 2854 74       		.byte	0x74
 9940 2855 00       		.sleb128 0
 9941 2856 32       		.byte	0x32
 9942 2857 14       		.byte	0x14
 9943 2858 14       		.byte	0x14
 9944 2859 1F       		.byte	0x1f
 9945 285a 23       		.byte	0x23
 9946 285b 20       		.uleb128 0x20
 9947 285c 24       		.byte	0x24
 9948 285d 17       		.byte	0x17
 9949 285e 25       		.byte	0x25
 9950 285f 21       		.byte	0x21
 9951 2860 74       		.byte	0x74
 9952 2861 00       		.sleb128 0
 9953 2862 3D       		.byte	0x3d
 9954 2863 14       		.byte	0x14
 9955 2864 14       		.byte	0x14
 9956 2865 1F       		.byte	0x1f
 9957 2866 23       		.byte	0x23
 9958 2867 20       		.uleb128 0x20
 9959 2868 24       		.byte	0x24
 9960 2869 17       		.byte	0x17
 9961 286a 25       		.byte	0x25
 9962 286b 21       		.byte	0x21
 9963 286c 27       		.byte	0x27
 9964 286d 74       		.byte	0x74
 9965 286e 00       		.sleb128 0
ARM GAS  C:\Users\bogur\AppData\Local\Temp\cc4rWh5U.s 			page 181


 9966 286f 46       		.byte	0x46
 9967 2870 14       		.byte	0x14
 9968 2871 14       		.byte	0x14
 9969 2872 1F       		.byte	0x1f
 9970 2873 23       		.byte	0x23
 9971 2874 20       		.uleb128 0x20
 9972 2875 24       		.byte	0x24
 9973 2876 17       		.byte	0x17
 9974 2877 25       		.byte	0x25
 9975 2878 21       		.byte	0x21
 9976 2879 27       		.byte	0x27
 9977 287a 71       		.byte	0x71
 9978 287b 00       		.sleb128 0
 9979 287c 70       		.byte	0x70
 9980 287d 00       		.sleb128 0
 9981 287e 27       		.byte	0x27
 9982 287f 74       		.byte	0x74
 9983 2880 00       		.sleb128 0
 9984 2881 1A       		.byte	0x1a
 9985 2882 71       		.byte	0x71
 9986 2883 00       		.sleb128 0
 9987 2884 70       		.byte	0x70
 9988 2885 00       		.sleb128 0
 9989 2886 1A       		.byte	0x1a
 9990 2887 27       		.byte	0x27
 9991 2888 22       		.byte	0x22
 9992 2889 9F       		.byte	0x9f
 9993 288a 6A0A0000 		.4byte	.LVL269
 9994 288e 800A0000 		.4byte	.LVL273
 9995 2892 0100     		.2byte	0x1
 9996 2894 59       		.byte	0x59
 9997 2895 800A0000 		.4byte	.LVL273
 9998 2899 920A0000 		.4byte	.LVL274
 9999 289d 3000     		.2byte	0x30
 10000 289f 72       		.byte	0x72
 10001 28a0 00       		.sleb128 0
 10002 28a1 32       		.byte	0x32
 10003 28a2 14       		.byte	0x14
 10004 28a3 14       		.byte	0x14
 10005 28a4 1F       		.byte	0x1f
 10006 28a5 23       		.byte	0x23
 10007 28a6 20       		.uleb128 0x20
 10008 28a7 24       		.byte	0x24
 10009 28a8 17       		.byte	0x17
 10010 28a9 25       		.byte	0x25
 10011 28aa 21       		.byte	0x21
 10012 28ab 72       		.byte	0x72
 10013 28ac 00       		.sleb128 0
 10014 28ad 3D       		.byte	0x3d
 10015 28ae 14       		.byte	0x14
 10016 28af 14       		.byte	0x14
 10017 28b0 1F       		.byte	0x1f
 10018 28b1 23       		.byte	0x23
 10019 28b2 20       		.uleb128 0x20
 10020 28b3 24       		.byte	0x24
 10021 28b4 17       		.byte	0x17
 10022 28b5 25       		.byte	0x25
ARM GAS  C:\Users\bogur\AppData\Local\Temp\cc4rWh5U.s 			page 182


 10023 28b6 21       		.byte	0x21
 10024 28b7 27       		.byte	0x27
 10025 28b8 72       		.byte	0x72
 10026 28b9 00       		.sleb128 0
 10027 28ba 46       		.byte	0x46
 10028 28bb 14       		.byte	0x14
 10029 28bc 14       		.byte	0x14
 10030 28bd 1F       		.byte	0x1f
 10031 28be 23       		.byte	0x23
 10032 28bf 20       		.uleb128 0x20
 10033 28c0 24       		.byte	0x24
 10034 28c1 17       		.byte	0x17
 10035 28c2 25       		.byte	0x25
 10036 28c3 21       		.byte	0x21
 10037 28c4 27       		.byte	0x27
 10038 28c5 70       		.byte	0x70
 10039 28c6 00       		.sleb128 0
 10040 28c7 74       		.byte	0x74
 10041 28c8 00       		.sleb128 0
 10042 28c9 1A       		.byte	0x1a
 10043 28ca 7A       		.byte	0x7a
 10044 28cb 00       		.sleb128 0
 10045 28cc 27       		.byte	0x27
 10046 28cd 22       		.byte	0x22
 10047 28ce 9F       		.byte	0x9f
 10048 28cf 920A0000 		.4byte	.LVL274
 10049 28d3 B20A0000 		.4byte	.LVL276
 10050 28d7 3600     		.2byte	0x36
 10051 28d9 72       		.byte	0x72
 10052 28da 00       		.sleb128 0
 10053 28db 32       		.byte	0x32
 10054 28dc 14       		.byte	0x14
 10055 28dd 14       		.byte	0x14
 10056 28de 1F       		.byte	0x1f
 10057 28df 23       		.byte	0x23
 10058 28e0 20       		.uleb128 0x20
 10059 28e1 24       		.byte	0x24
 10060 28e2 17       		.byte	0x17
 10061 28e3 25       		.byte	0x25
 10062 28e4 21       		.byte	0x21
 10063 28e5 72       		.byte	0x72
 10064 28e6 00       		.sleb128 0
 10065 28e7 3D       		.byte	0x3d
 10066 28e8 14       		.byte	0x14
 10067 28e9 14       		.byte	0x14
 10068 28ea 1F       		.byte	0x1f
 10069 28eb 23       		.byte	0x23
 10070 28ec 20       		.uleb128 0x20
 10071 28ed 24       		.byte	0x24
 10072 28ee 17       		.byte	0x17
 10073 28ef 25       		.byte	0x25
 10074 28f0 21       		.byte	0x21
 10075 28f1 27       		.byte	0x27
 10076 28f2 72       		.byte	0x72
 10077 28f3 00       		.sleb128 0
 10078 28f4 46       		.byte	0x46
 10079 28f5 14       		.byte	0x14
ARM GAS  C:\Users\bogur\AppData\Local\Temp\cc4rWh5U.s 			page 183


 10080 28f6 14       		.byte	0x14
 10081 28f7 1F       		.byte	0x1f
 10082 28f8 23       		.byte	0x23
 10083 28f9 20       		.uleb128 0x20
 10084 28fa 24       		.byte	0x24
 10085 28fb 17       		.byte	0x17
 10086 28fc 25       		.byte	0x25
 10087 28fd 21       		.byte	0x21
 10088 28fe 27       		.byte	0x27
 10089 28ff 70       		.byte	0x70
 10090 2900 00       		.sleb128 0
 10091 2901 74       		.byte	0x74
 10092 2902 00       		.sleb128 0
 10093 2903 27       		.byte	0x27
 10094 2904 72       		.byte	0x72
 10095 2905 00       		.sleb128 0
 10096 2906 1A       		.byte	0x1a
 10097 2907 70       		.byte	0x70
 10098 2908 00       		.sleb128 0
 10099 2909 74       		.byte	0x74
 10100 290a 00       		.sleb128 0
 10101 290b 1A       		.byte	0x1a
 10102 290c 27       		.byte	0x27
 10103 290d 22       		.byte	0x22
 10104 290e 9F       		.byte	0x9f
 10105 290f B20A0000 		.4byte	.LVL276
 10106 2913 B60A0000 		.4byte	.LVL278
 10107 2917 0100     		.2byte	0x1
 10108 2919 58       		.byte	0x58
 10109 291a B60A0000 		.4byte	.LVL278
 10110 291e BA0A0000 		.4byte	.LVL279
 10111 2922 0F00     		.2byte	0xf
 10112 2924 74       		.byte	0x74
 10113 2925 00       		.sleb128 0
 10114 2926 72       		.byte	0x72
 10115 2927 00       		.sleb128 0
 10116 2928 27       		.byte	0x27
 10117 2929 73       		.byte	0x73
 10118 292a 00       		.sleb128 0
 10119 292b 1A       		.byte	0x1a
 10120 292c 77       		.byte	0x77
 10121 292d 00       		.sleb128 0
 10122 292e 27       		.byte	0x27
 10123 292f 79       		.byte	0x79
 10124 2930 00       		.sleb128 0
 10125 2931 22       		.byte	0x22
 10126 2932 9F       		.byte	0x9f
 10127 2933 BA0A0000 		.4byte	.LVL279
 10128 2937 C80A0000 		.4byte	.LVL281
 10129 293b 1200     		.2byte	0x12
 10130 293d 74       		.byte	0x74
 10131 293e 00       		.sleb128 0
 10132 293f 72       		.byte	0x72
 10133 2940 00       		.sleb128 0
 10134 2941 27       		.byte	0x27
 10135 2942 73       		.byte	0x73
 10136 2943 00       		.sleb128 0
ARM GAS  C:\Users\bogur\AppData\Local\Temp\cc4rWh5U.s 			page 184


 10137 2944 1A       		.byte	0x1a
 10138 2945 74       		.byte	0x74
 10139 2946 00       		.sleb128 0
 10140 2947 72       		.byte	0x72
 10141 2948 00       		.sleb128 0
 10142 2949 1A       		.byte	0x1a
 10143 294a 27       		.byte	0x27
 10144 294b 79       		.byte	0x79
 10145 294c 00       		.sleb128 0
 10146 294d 22       		.byte	0x22
 10147 294e 9F       		.byte	0x9f
 10148 294f C80A0000 		.4byte	.LVL281
 10149 2953 F80A0000 		.4byte	.LVL283
 10150 2957 3600     		.2byte	0x36
 10151 2959 74       		.byte	0x74
 10152 295a 00       		.sleb128 0
 10153 295b 72       		.byte	0x72
 10154 295c 00       		.sleb128 0
 10155 295d 27       		.byte	0x27
 10156 295e 73       		.byte	0x73
 10157 295f 00       		.sleb128 0
 10158 2960 1A       		.byte	0x1a
 10159 2961 74       		.byte	0x74
 10160 2962 00       		.sleb128 0
 10161 2963 72       		.byte	0x72
 10162 2964 00       		.sleb128 0
 10163 2965 1A       		.byte	0x1a
 10164 2966 27       		.byte	0x27
 10165 2967 73       		.byte	0x73
 10166 2968 00       		.sleb128 0
 10167 2969 32       		.byte	0x32
 10168 296a 14       		.byte	0x14
 10169 296b 14       		.byte	0x14
 10170 296c 1F       		.byte	0x1f
 10171 296d 23       		.byte	0x23
 10172 296e 20       		.uleb128 0x20
 10173 296f 24       		.byte	0x24
 10174 2970 17       		.byte	0x17
 10175 2971 25       		.byte	0x25
 10176 2972 21       		.byte	0x21
 10177 2973 73       		.byte	0x73
 10178 2974 00       		.sleb128 0
 10179 2975 3D       		.byte	0x3d
 10180 2976 14       		.byte	0x14
 10181 2977 14       		.byte	0x14
 10182 2978 1F       		.byte	0x1f
 10183 2979 23       		.byte	0x23
 10184 297a 20       		.uleb128 0x20
 10185 297b 24       		.byte	0x24
 10186 297c 17       		.byte	0x17
 10187 297d 25       		.byte	0x25
 10188 297e 21       		.byte	0x21
 10189 297f 27       		.byte	0x27
 10190 2980 73       		.byte	0x73
 10191 2981 00       		.sleb128 0
 10192 2982 46       		.byte	0x46
 10193 2983 14       		.byte	0x14
ARM GAS  C:\Users\bogur\AppData\Local\Temp\cc4rWh5U.s 			page 185


 10194 2984 14       		.byte	0x14
 10195 2985 1F       		.byte	0x1f
 10196 2986 23       		.byte	0x23
 10197 2987 20       		.uleb128 0x20
 10198 2988 24       		.byte	0x24
 10199 2989 17       		.byte	0x17
 10200 298a 25       		.byte	0x25
 10201 298b 21       		.byte	0x21
 10202 298c 27       		.byte	0x27
 10203 298d 22       		.byte	0x22
 10204 298e 9F       		.byte	0x9f
 10205 298f F80A0000 		.4byte	.LVL283
 10206 2993 0E0B0000 		.4byte	.LVL287
 10207 2997 0100     		.2byte	0x1
 10208 2999 59       		.byte	0x59
 10209 299a 0E0B0000 		.4byte	.LVL287
 10210 299e 300B0000 		.4byte	.LVL289
 10211 29a2 3000     		.2byte	0x30
 10212 29a4 78       		.byte	0x78
 10213 29a5 00       		.sleb128 0
 10214 29a6 32       		.byte	0x32
 10215 29a7 14       		.byte	0x14
 10216 29a8 14       		.byte	0x14
 10217 29a9 1F       		.byte	0x1f
 10218 29aa 23       		.byte	0x23
 10219 29ab 20       		.uleb128 0x20
 10220 29ac 24       		.byte	0x24
 10221 29ad 17       		.byte	0x17
 10222 29ae 25       		.byte	0x25
 10223 29af 21       		.byte	0x21
 10224 29b0 78       		.byte	0x78
 10225 29b1 00       		.sleb128 0
 10226 29b2 3D       		.byte	0x3d
 10227 29b3 14       		.byte	0x14
 10228 29b4 14       		.byte	0x14
 10229 29b5 1F       		.byte	0x1f
 10230 29b6 23       		.byte	0x23
 10231 29b7 20       		.uleb128 0x20
 10232 29b8 24       		.byte	0x24
 10233 29b9 17       		.byte	0x17
 10234 29ba 25       		.byte	0x25
 10235 29bb 21       		.byte	0x21
 10236 29bc 27       		.byte	0x27
 10237 29bd 78       		.byte	0x78
 10238 29be 00       		.sleb128 0
 10239 29bf 46       		.byte	0x46
 10240 29c0 14       		.byte	0x14
 10241 29c1 14       		.byte	0x14
 10242 29c2 1F       		.byte	0x1f
 10243 29c3 23       		.byte	0x23
 10244 29c4 20       		.uleb128 0x20
 10245 29c5 24       		.byte	0x24
 10246 29c6 17       		.byte	0x17
 10247 29c7 25       		.byte	0x25
 10248 29c8 21       		.byte	0x21
 10249 29c9 27       		.byte	0x27
 10250 29ca 72       		.byte	0x72
ARM GAS  C:\Users\bogur\AppData\Local\Temp\cc4rWh5U.s 			page 186


 10251 29cb 00       		.sleb128 0
 10252 29cc 73       		.byte	0x73
 10253 29cd 00       		.sleb128 0
 10254 29ce 1A       		.byte	0x1a
 10255 29cf 7A       		.byte	0x7a
 10256 29d0 00       		.sleb128 0
 10257 29d1 27       		.byte	0x27
 10258 29d2 22       		.byte	0x22
 10259 29d3 9F       		.byte	0x9f
 10260 29d4 300B0000 		.4byte	.LVL289
 10261 29d8 3E0B0000 		.4byte	.LVL290
 10262 29dc 3600     		.2byte	0x36
 10263 29de 78       		.byte	0x78
 10264 29df 00       		.sleb128 0
 10265 29e0 32       		.byte	0x32
 10266 29e1 14       		.byte	0x14
 10267 29e2 14       		.byte	0x14
 10268 29e3 1F       		.byte	0x1f
 10269 29e4 23       		.byte	0x23
 10270 29e5 20       		.uleb128 0x20
 10271 29e6 24       		.byte	0x24
 10272 29e7 17       		.byte	0x17
 10273 29e8 25       		.byte	0x25
 10274 29e9 21       		.byte	0x21
 10275 29ea 78       		.byte	0x78
 10276 29eb 00       		.sleb128 0
 10277 29ec 3D       		.byte	0x3d
 10278 29ed 14       		.byte	0x14
 10279 29ee 14       		.byte	0x14
 10280 29ef 1F       		.byte	0x1f
 10281 29f0 23       		.byte	0x23
 10282 29f1 20       		.uleb128 0x20
 10283 29f2 24       		.byte	0x24
 10284 29f3 17       		.byte	0x17
 10285 29f4 25       		.byte	0x25
 10286 29f5 21       		.byte	0x21
 10287 29f6 27       		.byte	0x27
 10288 29f7 78       		.byte	0x78
 10289 29f8 00       		.sleb128 0
 10290 29f9 46       		.byte	0x46
 10291 29fa 14       		.byte	0x14
 10292 29fb 14       		.byte	0x14
 10293 29fc 1F       		.byte	0x1f
 10294 29fd 23       		.byte	0x23
 10295 29fe 20       		.uleb128 0x20
 10296 29ff 24       		.byte	0x24
 10297 2a00 17       		.byte	0x17
 10298 2a01 25       		.byte	0x25
 10299 2a02 21       		.byte	0x21
 10300 2a03 27       		.byte	0x27
 10301 2a04 72       		.byte	0x72
 10302 2a05 00       		.sleb128 0
 10303 2a06 73       		.byte	0x73
 10304 2a07 00       		.sleb128 0
 10305 2a08 27       		.byte	0x27
 10306 2a09 78       		.byte	0x78
 10307 2a0a 00       		.sleb128 0
ARM GAS  C:\Users\bogur\AppData\Local\Temp\cc4rWh5U.s 			page 187


 10308 2a0b 1A       		.byte	0x1a
 10309 2a0c 72       		.byte	0x72
 10310 2a0d 00       		.sleb128 0
 10311 2a0e 73       		.byte	0x73
 10312 2a0f 00       		.sleb128 0
 10313 2a10 1A       		.byte	0x1a
 10314 2a11 27       		.byte	0x27
 10315 2a12 22       		.byte	0x22
 10316 2a13 9F       		.byte	0x9f
 10317 2a14 3E0B0000 		.4byte	.LVL290
 10318 2a18 540B0000 		.4byte	.LVL294
 10319 2a1c 0100     		.2byte	0x1
 10320 2a1e 59       		.byte	0x59
 10321 2a1f 540B0000 		.4byte	.LVL294
 10322 2a23 760B0000 		.4byte	.LVL296
 10323 2a27 3000     		.2byte	0x30
 10324 2a29 77       		.byte	0x77
 10325 2a2a 00       		.sleb128 0
 10326 2a2b 32       		.byte	0x32
 10327 2a2c 14       		.byte	0x14
 10328 2a2d 14       		.byte	0x14
 10329 2a2e 1F       		.byte	0x1f
 10330 2a2f 23       		.byte	0x23
 10331 2a30 20       		.uleb128 0x20
 10332 2a31 24       		.byte	0x24
 10333 2a32 17       		.byte	0x17
 10334 2a33 25       		.byte	0x25
 10335 2a34 21       		.byte	0x21
 10336 2a35 77       		.byte	0x77
 10337 2a36 00       		.sleb128 0
 10338 2a37 3D       		.byte	0x3d
 10339 2a38 14       		.byte	0x14
 10340 2a39 14       		.byte	0x14
 10341 2a3a 1F       		.byte	0x1f
 10342 2a3b 23       		.byte	0x23
 10343 2a3c 20       		.uleb128 0x20
 10344 2a3d 24       		.byte	0x24
 10345 2a3e 17       		.byte	0x17
 10346 2a3f 25       		.byte	0x25
 10347 2a40 21       		.byte	0x21
 10348 2a41 27       		.byte	0x27
 10349 2a42 77       		.byte	0x77
 10350 2a43 00       		.sleb128 0
 10351 2a44 46       		.byte	0x46
 10352 2a45 14       		.byte	0x14
 10353 2a46 14       		.byte	0x14
 10354 2a47 1F       		.byte	0x1f
 10355 2a48 23       		.byte	0x23
 10356 2a49 20       		.uleb128 0x20
 10357 2a4a 24       		.byte	0x24
 10358 2a4b 17       		.byte	0x17
 10359 2a4c 25       		.byte	0x25
 10360 2a4d 21       		.byte	0x21
 10361 2a4e 27       		.byte	0x27
 10362 2a4f 73       		.byte	0x73
 10363 2a50 00       		.sleb128 0
 10364 2a51 78       		.byte	0x78
ARM GAS  C:\Users\bogur\AppData\Local\Temp\cc4rWh5U.s 			page 188


 10365 2a52 00       		.sleb128 0
 10366 2a53 1A       		.byte	0x1a
 10367 2a54 7A       		.byte	0x7a
 10368 2a55 00       		.sleb128 0
 10369 2a56 27       		.byte	0x27
 10370 2a57 22       		.byte	0x22
 10371 2a58 9F       		.byte	0x9f
 10372 2a59 760B0000 		.4byte	.LVL296
 10373 2a5d 840B0000 		.4byte	.LVL297
 10374 2a61 3600     		.2byte	0x36
 10375 2a63 77       		.byte	0x77
 10376 2a64 00       		.sleb128 0
 10377 2a65 32       		.byte	0x32
 10378 2a66 14       		.byte	0x14
 10379 2a67 14       		.byte	0x14
 10380 2a68 1F       		.byte	0x1f
 10381 2a69 23       		.byte	0x23
 10382 2a6a 20       		.uleb128 0x20
 10383 2a6b 24       		.byte	0x24
 10384 2a6c 17       		.byte	0x17
 10385 2a6d 25       		.byte	0x25
 10386 2a6e 21       		.byte	0x21
 10387 2a6f 77       		.byte	0x77
 10388 2a70 00       		.sleb128 0
 10389 2a71 3D       		.byte	0x3d
 10390 2a72 14       		.byte	0x14
 10391 2a73 14       		.byte	0x14
 10392 2a74 1F       		.byte	0x1f
 10393 2a75 23       		.byte	0x23
 10394 2a76 20       		.uleb128 0x20
 10395 2a77 24       		.byte	0x24
 10396 2a78 17       		.byte	0x17
 10397 2a79 25       		.byte	0x25
 10398 2a7a 21       		.byte	0x21
 10399 2a7b 27       		.byte	0x27
 10400 2a7c 77       		.byte	0x77
 10401 2a7d 00       		.sleb128 0
 10402 2a7e 46       		.byte	0x46
 10403 2a7f 14       		.byte	0x14
 10404 2a80 14       		.byte	0x14
 10405 2a81 1F       		.byte	0x1f
 10406 2a82 23       		.byte	0x23
 10407 2a83 20       		.uleb128 0x20
 10408 2a84 24       		.byte	0x24
 10409 2a85 17       		.byte	0x17
 10410 2a86 25       		.byte	0x25
 10411 2a87 21       		.byte	0x21
 10412 2a88 27       		.byte	0x27
 10413 2a89 73       		.byte	0x73
 10414 2a8a 00       		.sleb128 0
 10415 2a8b 78       		.byte	0x78
 10416 2a8c 00       		.sleb128 0
 10417 2a8d 27       		.byte	0x27
 10418 2a8e 77       		.byte	0x77
 10419 2a8f 00       		.sleb128 0
 10420 2a90 1A       		.byte	0x1a
 10421 2a91 73       		.byte	0x73
ARM GAS  C:\Users\bogur\AppData\Local\Temp\cc4rWh5U.s 			page 189


 10422 2a92 00       		.sleb128 0
 10423 2a93 78       		.byte	0x78
 10424 2a94 00       		.sleb128 0
 10425 2a95 1A       		.byte	0x1a
 10426 2a96 27       		.byte	0x27
 10427 2a97 22       		.byte	0x22
 10428 2a98 9F       		.byte	0x9f
 10429 2a99 840B0000 		.4byte	.LVL297
 10430 2a9d 9A0B0000 		.4byte	.LVL301
 10431 2aa1 0100     		.2byte	0x1
 10432 2aa3 59       		.byte	0x59
 10433 2aa4 9A0B0000 		.4byte	.LVL301
 10434 2aa8 BC0B0000 		.4byte	.LVL303
 10435 2aac 3000     		.2byte	0x30
 10436 2aae 76       		.byte	0x76
 10437 2aaf 00       		.sleb128 0
 10438 2ab0 32       		.byte	0x32
 10439 2ab1 14       		.byte	0x14
 10440 2ab2 14       		.byte	0x14
 10441 2ab3 1F       		.byte	0x1f
 10442 2ab4 23       		.byte	0x23
 10443 2ab5 20       		.uleb128 0x20
 10444 2ab6 24       		.byte	0x24
 10445 2ab7 17       		.byte	0x17
 10446 2ab8 25       		.byte	0x25
 10447 2ab9 21       		.byte	0x21
 10448 2aba 76       		.byte	0x76
 10449 2abb 00       		.sleb128 0
 10450 2abc 3D       		.byte	0x3d
 10451 2abd 14       		.byte	0x14
 10452 2abe 14       		.byte	0x14
 10453 2abf 1F       		.byte	0x1f
 10454 2ac0 23       		.byte	0x23
 10455 2ac1 20       		.uleb128 0x20
 10456 2ac2 24       		.byte	0x24
 10457 2ac3 17       		.byte	0x17
 10458 2ac4 25       		.byte	0x25
 10459 2ac5 21       		.byte	0x21
 10460 2ac6 27       		.byte	0x27
 10461 2ac7 76       		.byte	0x76
 10462 2ac8 00       		.sleb128 0
 10463 2ac9 46       		.byte	0x46
 10464 2aca 14       		.byte	0x14
 10465 2acb 14       		.byte	0x14
 10466 2acc 1F       		.byte	0x1f
 10467 2acd 23       		.byte	0x23
 10468 2ace 20       		.uleb128 0x20
 10469 2acf 24       		.byte	0x24
 10470 2ad0 17       		.byte	0x17
 10471 2ad1 25       		.byte	0x25
 10472 2ad2 21       		.byte	0x21
 10473 2ad3 27       		.byte	0x27
 10474 2ad4 78       		.byte	0x78
 10475 2ad5 00       		.sleb128 0
 10476 2ad6 77       		.byte	0x77
 10477 2ad7 00       		.sleb128 0
 10478 2ad8 1A       		.byte	0x1a
ARM GAS  C:\Users\bogur\AppData\Local\Temp\cc4rWh5U.s 			page 190


 10479 2ad9 7A       		.byte	0x7a
 10480 2ada 00       		.sleb128 0
 10481 2adb 27       		.byte	0x27
 10482 2adc 22       		.byte	0x22
 10483 2add 9F       		.byte	0x9f
 10484 2ade BC0B0000 		.4byte	.LVL303
 10485 2ae2 CA0B0000 		.4byte	.LVL304
 10486 2ae6 3600     		.2byte	0x36
 10487 2ae8 76       		.byte	0x76
 10488 2ae9 00       		.sleb128 0
 10489 2aea 32       		.byte	0x32
 10490 2aeb 14       		.byte	0x14
 10491 2aec 14       		.byte	0x14
 10492 2aed 1F       		.byte	0x1f
 10493 2aee 23       		.byte	0x23
 10494 2aef 20       		.uleb128 0x20
 10495 2af0 24       		.byte	0x24
 10496 2af1 17       		.byte	0x17
 10497 2af2 25       		.byte	0x25
 10498 2af3 21       		.byte	0x21
 10499 2af4 76       		.byte	0x76
 10500 2af5 00       		.sleb128 0
 10501 2af6 3D       		.byte	0x3d
 10502 2af7 14       		.byte	0x14
 10503 2af8 14       		.byte	0x14
 10504 2af9 1F       		.byte	0x1f
 10505 2afa 23       		.byte	0x23
 10506 2afb 20       		.uleb128 0x20
 10507 2afc 24       		.byte	0x24
 10508 2afd 17       		.byte	0x17
 10509 2afe 25       		.byte	0x25
 10510 2aff 21       		.byte	0x21
 10511 2b00 27       		.byte	0x27
 10512 2b01 76       		.byte	0x76
 10513 2b02 00       		.sleb128 0
 10514 2b03 46       		.byte	0x46
 10515 2b04 14       		.byte	0x14
 10516 2b05 14       		.byte	0x14
 10517 2b06 1F       		.byte	0x1f
 10518 2b07 23       		.byte	0x23
 10519 2b08 20       		.uleb128 0x20
 10520 2b09 24       		.byte	0x24
 10521 2b0a 17       		.byte	0x17
 10522 2b0b 25       		.byte	0x25
 10523 2b0c 21       		.byte	0x21
 10524 2b0d 27       		.byte	0x27
 10525 2b0e 78       		.byte	0x78
 10526 2b0f 00       		.sleb128 0
 10527 2b10 77       		.byte	0x77
 10528 2b11 00       		.sleb128 0
 10529 2b12 27       		.byte	0x27
 10530 2b13 76       		.byte	0x76
 10531 2b14 00       		.sleb128 0
 10532 2b15 1A       		.byte	0x1a
 10533 2b16 78       		.byte	0x78
 10534 2b17 00       		.sleb128 0
 10535 2b18 77       		.byte	0x77
ARM GAS  C:\Users\bogur\AppData\Local\Temp\cc4rWh5U.s 			page 191


 10536 2b19 00       		.sleb128 0
 10537 2b1a 1A       		.byte	0x1a
 10538 2b1b 27       		.byte	0x27
 10539 2b1c 22       		.byte	0x22
 10540 2b1d 9F       		.byte	0x9f
 10541 2b1e CA0B0000 		.4byte	.LVL304
 10542 2b22 E00B0000 		.4byte	.LVL308
 10543 2b26 0100     		.2byte	0x1
 10544 2b28 59       		.byte	0x59
 10545 2b29 E00B0000 		.4byte	.LVL308
 10546 2b2d 020C0000 		.4byte	.LVL310
 10547 2b31 3000     		.2byte	0x30
 10548 2b33 71       		.byte	0x71
 10549 2b34 00       		.sleb128 0
 10550 2b35 32       		.byte	0x32
 10551 2b36 14       		.byte	0x14
 10552 2b37 14       		.byte	0x14
 10553 2b38 1F       		.byte	0x1f
 10554 2b39 23       		.byte	0x23
 10555 2b3a 20       		.uleb128 0x20
 10556 2b3b 24       		.byte	0x24
 10557 2b3c 17       		.byte	0x17
 10558 2b3d 25       		.byte	0x25
 10559 2b3e 21       		.byte	0x21
 10560 2b3f 71       		.byte	0x71
 10561 2b40 00       		.sleb128 0
 10562 2b41 3D       		.byte	0x3d
 10563 2b42 14       		.byte	0x14
 10564 2b43 14       		.byte	0x14
 10565 2b44 1F       		.byte	0x1f
 10566 2b45 23       		.byte	0x23
 10567 2b46 20       		.uleb128 0x20
 10568 2b47 24       		.byte	0x24
 10569 2b48 17       		.byte	0x17
 10570 2b49 25       		.byte	0x25
 10571 2b4a 21       		.byte	0x21
 10572 2b4b 27       		.byte	0x27
 10573 2b4c 71       		.byte	0x71
 10574 2b4d 00       		.sleb128 0
 10575 2b4e 46       		.byte	0x46
 10576 2b4f 14       		.byte	0x14
 10577 2b50 14       		.byte	0x14
 10578 2b51 1F       		.byte	0x1f
 10579 2b52 23       		.byte	0x23
 10580 2b53 20       		.uleb128 0x20
 10581 2b54 24       		.byte	0x24
 10582 2b55 17       		.byte	0x17
 10583 2b56 25       		.byte	0x25
 10584 2b57 21       		.byte	0x21
 10585 2b58 27       		.byte	0x27
 10586 2b59 77       		.byte	0x77
 10587 2b5a 00       		.sleb128 0
 10588 2b5b 76       		.byte	0x76
 10589 2b5c 00       		.sleb128 0
 10590 2b5d 1A       		.byte	0x1a
 10591 2b5e 7A       		.byte	0x7a
 10592 2b5f 00       		.sleb128 0
ARM GAS  C:\Users\bogur\AppData\Local\Temp\cc4rWh5U.s 			page 192


 10593 2b60 27       		.byte	0x27
 10594 2b61 22       		.byte	0x22
 10595 2b62 9F       		.byte	0x9f
 10596 2b63 020C0000 		.4byte	.LVL310
 10597 2b67 100C0000 		.4byte	.LVL311
 10598 2b6b 3600     		.2byte	0x36
 10599 2b6d 71       		.byte	0x71
 10600 2b6e 00       		.sleb128 0
 10601 2b6f 32       		.byte	0x32
 10602 2b70 14       		.byte	0x14
 10603 2b71 14       		.byte	0x14
 10604 2b72 1F       		.byte	0x1f
 10605 2b73 23       		.byte	0x23
 10606 2b74 20       		.uleb128 0x20
 10607 2b75 24       		.byte	0x24
 10608 2b76 17       		.byte	0x17
 10609 2b77 25       		.byte	0x25
 10610 2b78 21       		.byte	0x21
 10611 2b79 71       		.byte	0x71
 10612 2b7a 00       		.sleb128 0
 10613 2b7b 3D       		.byte	0x3d
 10614 2b7c 14       		.byte	0x14
 10615 2b7d 14       		.byte	0x14
 10616 2b7e 1F       		.byte	0x1f
 10617 2b7f 23       		.byte	0x23
 10618 2b80 20       		.uleb128 0x20
 10619 2b81 24       		.byte	0x24
 10620 2b82 17       		.byte	0x17
 10621 2b83 25       		.byte	0x25
 10622 2b84 21       		.byte	0x21
 10623 2b85 27       		.byte	0x27
 10624 2b86 71       		.byte	0x71
 10625 2b87 00       		.sleb128 0
 10626 2b88 46       		.byte	0x46
 10627 2b89 14       		.byte	0x14
 10628 2b8a 14       		.byte	0x14
 10629 2b8b 1F       		.byte	0x1f
 10630 2b8c 23       		.byte	0x23
 10631 2b8d 20       		.uleb128 0x20
 10632 2b8e 24       		.byte	0x24
 10633 2b8f 17       		.byte	0x17
 10634 2b90 25       		.byte	0x25
 10635 2b91 21       		.byte	0x21
 10636 2b92 27       		.byte	0x27
 10637 2b93 77       		.byte	0x77
 10638 2b94 00       		.sleb128 0
 10639 2b95 76       		.byte	0x76
 10640 2b96 00       		.sleb128 0
 10641 2b97 27       		.byte	0x27
 10642 2b98 71       		.byte	0x71
 10643 2b99 00       		.sleb128 0
 10644 2b9a 1A       		.byte	0x1a
 10645 2b9b 77       		.byte	0x77
 10646 2b9c 00       		.sleb128 0
 10647 2b9d 76       		.byte	0x76
 10648 2b9e 00       		.sleb128 0
 10649 2b9f 1A       		.byte	0x1a
ARM GAS  C:\Users\bogur\AppData\Local\Temp\cc4rWh5U.s 			page 193


 10650 2ba0 27       		.byte	0x27
 10651 2ba1 22       		.byte	0x22
 10652 2ba2 9F       		.byte	0x9f
 10653 2ba3 100C0000 		.4byte	.LVL311
 10654 2ba7 260C0000 		.4byte	.LVL315
 10655 2bab 0100     		.2byte	0x1
 10656 2bad 59       		.byte	0x59
 10657 2bae 260C0000 		.4byte	.LVL315
 10658 2bb2 480C0000 		.4byte	.LVL317
 10659 2bb6 3000     		.2byte	0x30
 10660 2bb8 70       		.byte	0x70
 10661 2bb9 00       		.sleb128 0
 10662 2bba 32       		.byte	0x32
 10663 2bbb 14       		.byte	0x14
 10664 2bbc 14       		.byte	0x14
 10665 2bbd 1F       		.byte	0x1f
 10666 2bbe 23       		.byte	0x23
 10667 2bbf 20       		.uleb128 0x20
 10668 2bc0 24       		.byte	0x24
 10669 2bc1 17       		.byte	0x17
 10670 2bc2 25       		.byte	0x25
 10671 2bc3 21       		.byte	0x21
 10672 2bc4 70       		.byte	0x70
 10673 2bc5 00       		.sleb128 0
 10674 2bc6 3D       		.byte	0x3d
 10675 2bc7 14       		.byte	0x14
 10676 2bc8 14       		.byte	0x14
 10677 2bc9 1F       		.byte	0x1f
 10678 2bca 23       		.byte	0x23
 10679 2bcb 20       		.uleb128 0x20
 10680 2bcc 24       		.byte	0x24
 10681 2bcd 17       		.byte	0x17
 10682 2bce 25       		.byte	0x25
 10683 2bcf 21       		.byte	0x21
 10684 2bd0 27       		.byte	0x27
 10685 2bd1 70       		.byte	0x70
 10686 2bd2 00       		.sleb128 0
 10687 2bd3 46       		.byte	0x46
 10688 2bd4 14       		.byte	0x14
 10689 2bd5 14       		.byte	0x14
 10690 2bd6 1F       		.byte	0x1f
 10691 2bd7 23       		.byte	0x23
 10692 2bd8 20       		.uleb128 0x20
 10693 2bd9 24       		.byte	0x24
 10694 2bda 17       		.byte	0x17
 10695 2bdb 25       		.byte	0x25
 10696 2bdc 21       		.byte	0x21
 10697 2bdd 27       		.byte	0x27
 10698 2bde 76       		.byte	0x76
 10699 2bdf 00       		.sleb128 0
 10700 2be0 71       		.byte	0x71
 10701 2be1 00       		.sleb128 0
 10702 2be2 1A       		.byte	0x1a
 10703 2be3 7A       		.byte	0x7a
 10704 2be4 00       		.sleb128 0
 10705 2be5 27       		.byte	0x27
 10706 2be6 22       		.byte	0x22
ARM GAS  C:\Users\bogur\AppData\Local\Temp\cc4rWh5U.s 			page 194


 10707 2be7 9F       		.byte	0x9f
 10708 2be8 480C0000 		.4byte	.LVL317
 10709 2bec 560C0000 		.4byte	.LVL318
 10710 2bf0 3600     		.2byte	0x36
 10711 2bf2 70       		.byte	0x70
 10712 2bf3 00       		.sleb128 0
 10713 2bf4 32       		.byte	0x32
 10714 2bf5 14       		.byte	0x14
 10715 2bf6 14       		.byte	0x14
 10716 2bf7 1F       		.byte	0x1f
 10717 2bf8 23       		.byte	0x23
 10718 2bf9 20       		.uleb128 0x20
 10719 2bfa 24       		.byte	0x24
 10720 2bfb 17       		.byte	0x17
 10721 2bfc 25       		.byte	0x25
 10722 2bfd 21       		.byte	0x21
 10723 2bfe 70       		.byte	0x70
 10724 2bff 00       		.sleb128 0
 10725 2c00 3D       		.byte	0x3d
 10726 2c01 14       		.byte	0x14
 10727 2c02 14       		.byte	0x14
 10728 2c03 1F       		.byte	0x1f
 10729 2c04 23       		.byte	0x23
 10730 2c05 20       		.uleb128 0x20
 10731 2c06 24       		.byte	0x24
 10732 2c07 17       		.byte	0x17
 10733 2c08 25       		.byte	0x25
 10734 2c09 21       		.byte	0x21
 10735 2c0a 27       		.byte	0x27
 10736 2c0b 70       		.byte	0x70
 10737 2c0c 00       		.sleb128 0
 10738 2c0d 46       		.byte	0x46
 10739 2c0e 14       		.byte	0x14
 10740 2c0f 14       		.byte	0x14
 10741 2c10 1F       		.byte	0x1f
 10742 2c11 23       		.byte	0x23
 10743 2c12 20       		.uleb128 0x20
 10744 2c13 24       		.byte	0x24
 10745 2c14 17       		.byte	0x17
 10746 2c15 25       		.byte	0x25
 10747 2c16 21       		.byte	0x21
 10748 2c17 27       		.byte	0x27
 10749 2c18 76       		.byte	0x76
 10750 2c19 00       		.sleb128 0
 10751 2c1a 71       		.byte	0x71
 10752 2c1b 00       		.sleb128 0
 10753 2c1c 27       		.byte	0x27
 10754 2c1d 70       		.byte	0x70
 10755 2c1e 00       		.sleb128 0
 10756 2c1f 1A       		.byte	0x1a
 10757 2c20 76       		.byte	0x76
 10758 2c21 00       		.sleb128 0
 10759 2c22 71       		.byte	0x71
 10760 2c23 00       		.sleb128 0
 10761 2c24 1A       		.byte	0x1a
 10762 2c25 27       		.byte	0x27
 10763 2c26 22       		.byte	0x22
ARM GAS  C:\Users\bogur\AppData\Local\Temp\cc4rWh5U.s 			page 195


 10764 2c27 9F       		.byte	0x9f
 10765 2c28 560C0000 		.4byte	.LVL318
 10766 2c2c 6E0C0000 		.4byte	.LVL322
 10767 2c30 0100     		.2byte	0x1
 10768 2c32 59       		.byte	0x59
 10769 2c33 6E0C0000 		.4byte	.LVL322
 10770 2c37 900C0000 		.4byte	.LVL325
 10771 2c3b 3000     		.2byte	0x30
 10772 2c3d 75       		.byte	0x75
 10773 2c3e 00       		.sleb128 0
 10774 2c3f 32       		.byte	0x32
 10775 2c40 14       		.byte	0x14
 10776 2c41 14       		.byte	0x14
 10777 2c42 1F       		.byte	0x1f
 10778 2c43 23       		.byte	0x23
 10779 2c44 20       		.uleb128 0x20
 10780 2c45 24       		.byte	0x24
 10781 2c46 17       		.byte	0x17
 10782 2c47 25       		.byte	0x25
 10783 2c48 21       		.byte	0x21
 10784 2c49 75       		.byte	0x75
 10785 2c4a 00       		.sleb128 0
 10786 2c4b 3D       		.byte	0x3d
 10787 2c4c 14       		.byte	0x14
 10788 2c4d 14       		.byte	0x14
 10789 2c4e 1F       		.byte	0x1f
 10790 2c4f 23       		.byte	0x23
 10791 2c50 20       		.uleb128 0x20
 10792 2c51 24       		.byte	0x24
 10793 2c52 17       		.byte	0x17
 10794 2c53 25       		.byte	0x25
 10795 2c54 21       		.byte	0x21
 10796 2c55 27       		.byte	0x27
 10797 2c56 75       		.byte	0x75
 10798 2c57 00       		.sleb128 0
 10799 2c58 46       		.byte	0x46
 10800 2c59 14       		.byte	0x14
 10801 2c5a 14       		.byte	0x14
 10802 2c5b 1F       		.byte	0x1f
 10803 2c5c 23       		.byte	0x23
 10804 2c5d 20       		.uleb128 0x20
 10805 2c5e 24       		.byte	0x24
 10806 2c5f 17       		.byte	0x17
 10807 2c60 25       		.byte	0x25
 10808 2c61 21       		.byte	0x21
 10809 2c62 27       		.byte	0x27
 10810 2c63 71       		.byte	0x71
 10811 2c64 00       		.sleb128 0
 10812 2c65 70       		.byte	0x70
 10813 2c66 00       		.sleb128 0
 10814 2c67 1A       		.byte	0x1a
 10815 2c68 7A       		.byte	0x7a
 10816 2c69 00       		.sleb128 0
 10817 2c6a 27       		.byte	0x27
 10818 2c6b 22       		.byte	0x22
 10819 2c6c 9F       		.byte	0x9f
 10820 2c6d 900C0000 		.4byte	.LVL325
ARM GAS  C:\Users\bogur\AppData\Local\Temp\cc4rWh5U.s 			page 196


 10821 2c71 9E0C0000 		.4byte	.LVL326
 10822 2c75 3600     		.2byte	0x36
 10823 2c77 75       		.byte	0x75
 10824 2c78 00       		.sleb128 0
 10825 2c79 32       		.byte	0x32
 10826 2c7a 14       		.byte	0x14
 10827 2c7b 14       		.byte	0x14
 10828 2c7c 1F       		.byte	0x1f
 10829 2c7d 23       		.byte	0x23
 10830 2c7e 20       		.uleb128 0x20
 10831 2c7f 24       		.byte	0x24
 10832 2c80 17       		.byte	0x17
 10833 2c81 25       		.byte	0x25
 10834 2c82 21       		.byte	0x21
 10835 2c83 75       		.byte	0x75
 10836 2c84 00       		.sleb128 0
 10837 2c85 3D       		.byte	0x3d
 10838 2c86 14       		.byte	0x14
 10839 2c87 14       		.byte	0x14
 10840 2c88 1F       		.byte	0x1f
 10841 2c89 23       		.byte	0x23
 10842 2c8a 20       		.uleb128 0x20
 10843 2c8b 24       		.byte	0x24
 10844 2c8c 17       		.byte	0x17
 10845 2c8d 25       		.byte	0x25
 10846 2c8e 21       		.byte	0x21
 10847 2c8f 27       		.byte	0x27
 10848 2c90 75       		.byte	0x75
 10849 2c91 00       		.sleb128 0
 10850 2c92 46       		.byte	0x46
 10851 2c93 14       		.byte	0x14
 10852 2c94 14       		.byte	0x14
 10853 2c95 1F       		.byte	0x1f
 10854 2c96 23       		.byte	0x23
 10855 2c97 20       		.uleb128 0x20
 10856 2c98 24       		.byte	0x24
 10857 2c99 17       		.byte	0x17
 10858 2c9a 25       		.byte	0x25
 10859 2c9b 21       		.byte	0x21
 10860 2c9c 27       		.byte	0x27
 10861 2c9d 71       		.byte	0x71
 10862 2c9e 00       		.sleb128 0
 10863 2c9f 70       		.byte	0x70
 10864 2ca0 00       		.sleb128 0
 10865 2ca1 27       		.byte	0x27
 10866 2ca2 75       		.byte	0x75
 10867 2ca3 00       		.sleb128 0
 10868 2ca4 1A       		.byte	0x1a
 10869 2ca5 71       		.byte	0x71
 10870 2ca6 00       		.sleb128 0
 10871 2ca7 70       		.byte	0x70
 10872 2ca8 00       		.sleb128 0
 10873 2ca9 1A       		.byte	0x1a
 10874 2caa 27       		.byte	0x27
 10875 2cab 22       		.byte	0x22
 10876 2cac 9F       		.byte	0x9f
 10877 2cad 9E0C0000 		.4byte	.LVL326
ARM GAS  C:\Users\bogur\AppData\Local\Temp\cc4rWh5U.s 			page 197


 10878 2cb1 E40C0000 		.4byte	.LVL329
 10879 2cb5 0100     		.2byte	0x1
 10880 2cb7 53       		.byte	0x53
 10881 2cb8 E40C0000 		.4byte	.LVL329
 10882 2cbc 040D0000 		.4byte	.LVL331
 10883 2cc0 3000     		.2byte	0x30
 10884 2cc2 70       		.byte	0x70
 10885 2cc3 00       		.sleb128 0
 10886 2cc4 75       		.byte	0x75
 10887 2cc5 00       		.sleb128 0
 10888 2cc6 1A       		.byte	0x1a
 10889 2cc7 7A       		.byte	0x7a
 10890 2cc8 00       		.sleb128 0
 10891 2cc9 27       		.byte	0x27
 10892 2cca 74       		.byte	0x74
 10893 2ccb 00       		.sleb128 0
 10894 2ccc 32       		.byte	0x32
 10895 2ccd 14       		.byte	0x14
 10896 2cce 14       		.byte	0x14
 10897 2ccf 1F       		.byte	0x1f
 10898 2cd0 23       		.byte	0x23
 10899 2cd1 20       		.uleb128 0x20
 10900 2cd2 24       		.byte	0x24
 10901 2cd3 17       		.byte	0x17
 10902 2cd4 25       		.byte	0x25
 10903 2cd5 21       		.byte	0x21
 10904 2cd6 74       		.byte	0x74
 10905 2cd7 00       		.sleb128 0
 10906 2cd8 3D       		.byte	0x3d
 10907 2cd9 14       		.byte	0x14
 10908 2cda 14       		.byte	0x14
 10909 2cdb 1F       		.byte	0x1f
 10910 2cdc 23       		.byte	0x23
 10911 2cdd 20       		.uleb128 0x20
 10912 2cde 24       		.byte	0x24
 10913 2cdf 17       		.byte	0x17
 10914 2ce0 25       		.byte	0x25
 10915 2ce1 21       		.byte	0x21
 10916 2ce2 27       		.byte	0x27
 10917 2ce3 74       		.byte	0x74
 10918 2ce4 00       		.sleb128 0
 10919 2ce5 46       		.byte	0x46
 10920 2ce6 14       		.byte	0x14
 10921 2ce7 14       		.byte	0x14
 10922 2ce8 1F       		.byte	0x1f
 10923 2ce9 23       		.byte	0x23
 10924 2cea 20       		.uleb128 0x20
 10925 2ceb 24       		.byte	0x24
 10926 2cec 17       		.byte	0x17
 10927 2ced 25       		.byte	0x25
 10928 2cee 21       		.byte	0x21
 10929 2cef 27       		.byte	0x27
 10930 2cf0 22       		.byte	0x22
 10931 2cf1 9F       		.byte	0x9f
 10932 2cf2 040D0000 		.4byte	.LVL331
 10933 2cf6 240D0000 		.4byte	.LVL333
 10934 2cfa 3600     		.2byte	0x36
ARM GAS  C:\Users\bogur\AppData\Local\Temp\cc4rWh5U.s 			page 198


 10935 2cfc 70       		.byte	0x70
 10936 2cfd 00       		.sleb128 0
 10937 2cfe 75       		.byte	0x75
 10938 2cff 00       		.sleb128 0
 10939 2d00 27       		.byte	0x27
 10940 2d01 74       		.byte	0x74
 10941 2d02 00       		.sleb128 0
 10942 2d03 1A       		.byte	0x1a
 10943 2d04 70       		.byte	0x70
 10944 2d05 00       		.sleb128 0
 10945 2d06 75       		.byte	0x75
 10946 2d07 00       		.sleb128 0
 10947 2d08 1A       		.byte	0x1a
 10948 2d09 27       		.byte	0x27
 10949 2d0a 74       		.byte	0x74
 10950 2d0b 00       		.sleb128 0
 10951 2d0c 32       		.byte	0x32
 10952 2d0d 14       		.byte	0x14
 10953 2d0e 14       		.byte	0x14
 10954 2d0f 1F       		.byte	0x1f
 10955 2d10 23       		.byte	0x23
 10956 2d11 20       		.uleb128 0x20
 10957 2d12 24       		.byte	0x24
 10958 2d13 17       		.byte	0x17
 10959 2d14 25       		.byte	0x25
 10960 2d15 21       		.byte	0x21
 10961 2d16 74       		.byte	0x74
 10962 2d17 00       		.sleb128 0
 10963 2d18 3D       		.byte	0x3d
 10964 2d19 14       		.byte	0x14
 10965 2d1a 14       		.byte	0x14
 10966 2d1b 1F       		.byte	0x1f
 10967 2d1c 23       		.byte	0x23
 10968 2d1d 20       		.uleb128 0x20
 10969 2d1e 24       		.byte	0x24
 10970 2d1f 17       		.byte	0x17
 10971 2d20 25       		.byte	0x25
 10972 2d21 21       		.byte	0x21
 10973 2d22 27       		.byte	0x27
 10974 2d23 74       		.byte	0x74
 10975 2d24 00       		.sleb128 0
 10976 2d25 46       		.byte	0x46
 10977 2d26 14       		.byte	0x14
 10978 2d27 14       		.byte	0x14
 10979 2d28 1F       		.byte	0x1f
 10980 2d29 23       		.byte	0x23
 10981 2d2a 20       		.uleb128 0x20
 10982 2d2b 24       		.byte	0x24
 10983 2d2c 17       		.byte	0x17
 10984 2d2d 25       		.byte	0x25
 10985 2d2e 21       		.byte	0x21
 10986 2d2f 27       		.byte	0x27
 10987 2d30 22       		.byte	0x22
 10988 2d31 9F       		.byte	0x9f
 10989 2d32 240D0000 		.4byte	.LVL333
 10990 2d36 280D0000 		.4byte	.LVL335
 10991 2d3a 0100     		.2byte	0x1
ARM GAS  C:\Users\bogur\AppData\Local\Temp\cc4rWh5U.s 			page 199


 10992 2d3c 53       		.byte	0x53
 10993 2d3d 280D0000 		.4byte	.LVL335
 10994 2d41 2C0D0000 		.4byte	.LVL336
 10995 2d45 0C00     		.2byte	0xc
 10996 2d47 75       		.byte	0x75
 10997 2d48 00       		.sleb128 0
 10998 2d49 74       		.byte	0x74
 10999 2d4a 00       		.sleb128 0
 11000 2d4b 1A       		.byte	0x1a
 11001 2d4c 78       		.byte	0x78
 11002 2d4d 00       		.sleb128 0
 11003 2d4e 27       		.byte	0x27
 11004 2d4f 71       		.byte	0x71
 11005 2d50 00       		.sleb128 0
 11006 2d51 22       		.byte	0x22
 11007 2d52 9F       		.byte	0x9f
 11008 2d53 2C0D0000 		.4byte	.LVL336
 11009 2d57 360D0000 		.4byte	.LVL337
 11010 2d5b 1200     		.2byte	0x12
 11011 2d5d 75       		.byte	0x75
 11012 2d5e 00       		.sleb128 0
 11013 2d5f 74       		.byte	0x74
 11014 2d60 00       		.sleb128 0
 11015 2d61 27       		.byte	0x27
 11016 2d62 72       		.byte	0x72
 11017 2d63 00       		.sleb128 0
 11018 2d64 1A       		.byte	0x1a
 11019 2d65 75       		.byte	0x75
 11020 2d66 00       		.sleb128 0
 11021 2d67 74       		.byte	0x74
 11022 2d68 00       		.sleb128 0
 11023 2d69 1A       		.byte	0x1a
 11024 2d6a 27       		.byte	0x27
 11025 2d6b 71       		.byte	0x71
 11026 2d6c 00       		.sleb128 0
 11027 2d6d 22       		.byte	0x22
 11028 2d6e 9F       		.byte	0x9f
 11029 2d6f 360D0000 		.4byte	.LVL337
 11030 2d73 18100000 		.4byte	.LVL374
 11031 2d77 3600     		.2byte	0x36
 11032 2d79 75       		.byte	0x75
 11033 2d7a 00       		.sleb128 0
 11034 2d7b 74       		.byte	0x74
 11035 2d7c 00       		.sleb128 0
 11036 2d7d 27       		.byte	0x27
 11037 2d7e 72       		.byte	0x72
 11038 2d7f 00       		.sleb128 0
 11039 2d80 1A       		.byte	0x1a
 11040 2d81 75       		.byte	0x75
 11041 2d82 00       		.sleb128 0
 11042 2d83 74       		.byte	0x74
 11043 2d84 00       		.sleb128 0
 11044 2d85 1A       		.byte	0x1a
 11045 2d86 27       		.byte	0x27
 11046 2d87 72       		.byte	0x72
 11047 2d88 00       		.sleb128 0
 11048 2d89 32       		.byte	0x32
ARM GAS  C:\Users\bogur\AppData\Local\Temp\cc4rWh5U.s 			page 200


 11049 2d8a 14       		.byte	0x14
 11050 2d8b 14       		.byte	0x14
 11051 2d8c 1F       		.byte	0x1f
 11052 2d8d 23       		.byte	0x23
 11053 2d8e 20       		.uleb128 0x20
 11054 2d8f 24       		.byte	0x24
 11055 2d90 17       		.byte	0x17
 11056 2d91 25       		.byte	0x25
 11057 2d92 21       		.byte	0x21
 11058 2d93 72       		.byte	0x72
 11059 2d94 00       		.sleb128 0
 11060 2d95 3D       		.byte	0x3d
 11061 2d96 14       		.byte	0x14
 11062 2d97 14       		.byte	0x14
 11063 2d98 1F       		.byte	0x1f
 11064 2d99 23       		.byte	0x23
 11065 2d9a 20       		.uleb128 0x20
 11066 2d9b 24       		.byte	0x24
 11067 2d9c 17       		.byte	0x17
 11068 2d9d 25       		.byte	0x25
 11069 2d9e 21       		.byte	0x21
 11070 2d9f 27       		.byte	0x27
 11071 2da0 72       		.byte	0x72
 11072 2da1 00       		.sleb128 0
 11073 2da2 46       		.byte	0x46
 11074 2da3 14       		.byte	0x14
 11075 2da4 14       		.byte	0x14
 11076 2da5 1F       		.byte	0x1f
 11077 2da6 23       		.byte	0x23
 11078 2da7 20       		.uleb128 0x20
 11079 2da8 24       		.byte	0x24
 11080 2da9 17       		.byte	0x17
 11081 2daa 25       		.byte	0x25
 11082 2dab 21       		.byte	0x21
 11083 2dac 27       		.byte	0x27
 11084 2dad 22       		.byte	0x22
 11085 2dae 9F       		.byte	0x9f
 11086 2daf 18100000 		.4byte	.LVL374
 11087 2db3 1C100000 		.4byte	.LVL376
 11088 2db7 0100     		.2byte	0x1
 11089 2db9 5C       		.byte	0x5c
 11090 2dba 1C100000 		.4byte	.LVL376
 11091 2dbe 20100000 		.4byte	.LVL377
 11092 2dc2 0F00     		.2byte	0xf
 11093 2dc4 74       		.byte	0x74
 11094 2dc5 00       		.sleb128 0
 11095 2dc6 72       		.byte	0x72
 11096 2dc7 00       		.sleb128 0
 11097 2dc8 27       		.byte	0x27
 11098 2dc9 73       		.byte	0x73
 11099 2dca 00       		.sleb128 0
 11100 2dcb 1A       		.byte	0x1a
 11101 2dcc 71       		.byte	0x71
 11102 2dcd 00       		.sleb128 0
 11103 2dce 27       		.byte	0x27
 11104 2dcf 77       		.byte	0x77
 11105 2dd0 00       		.sleb128 0
ARM GAS  C:\Users\bogur\AppData\Local\Temp\cc4rWh5U.s 			page 201


 11106 2dd1 22       		.byte	0x22
 11107 2dd2 9F       		.byte	0x9f
 11108 2dd3 20100000 		.4byte	.LVL377
 11109 2dd7 30100000 		.4byte	.LVL378
 11110 2ddb 1200     		.2byte	0x12
 11111 2ddd 74       		.byte	0x74
 11112 2dde 00       		.sleb128 0
 11113 2ddf 72       		.byte	0x72
 11114 2de0 00       		.sleb128 0
 11115 2de1 27       		.byte	0x27
 11116 2de2 73       		.byte	0x73
 11117 2de3 00       		.sleb128 0
 11118 2de4 1A       		.byte	0x1a
 11119 2de5 74       		.byte	0x74
 11120 2de6 00       		.sleb128 0
 11121 2de7 72       		.byte	0x72
 11122 2de8 00       		.sleb128 0
 11123 2de9 1A       		.byte	0x1a
 11124 2dea 27       		.byte	0x27
 11125 2deb 77       		.byte	0x77
 11126 2dec 00       		.sleb128 0
 11127 2ded 22       		.byte	0x22
 11128 2dee 9F       		.byte	0x9f
 11129 2def 30100000 		.4byte	.LVL378
 11130 2df3 5E100000 		.4byte	.LVL380
 11131 2df7 3600     		.2byte	0x36
 11132 2df9 74       		.byte	0x74
 11133 2dfa 00       		.sleb128 0
 11134 2dfb 72       		.byte	0x72
 11135 2dfc 00       		.sleb128 0
 11136 2dfd 27       		.byte	0x27
 11137 2dfe 73       		.byte	0x73
 11138 2dff 00       		.sleb128 0
 11139 2e00 1A       		.byte	0x1a
 11140 2e01 74       		.byte	0x74
 11141 2e02 00       		.sleb128 0
 11142 2e03 72       		.byte	0x72
 11143 2e04 00       		.sleb128 0
 11144 2e05 1A       		.byte	0x1a
 11145 2e06 27       		.byte	0x27
 11146 2e07 73       		.byte	0x73
 11147 2e08 00       		.sleb128 0
 11148 2e09 32       		.byte	0x32
 11149 2e0a 14       		.byte	0x14
 11150 2e0b 14       		.byte	0x14
 11151 2e0c 1F       		.byte	0x1f
 11152 2e0d 23       		.byte	0x23
 11153 2e0e 20       		.uleb128 0x20
 11154 2e0f 24       		.byte	0x24
 11155 2e10 17       		.byte	0x17
 11156 2e11 25       		.byte	0x25
 11157 2e12 21       		.byte	0x21
 11158 2e13 73       		.byte	0x73
 11159 2e14 00       		.sleb128 0
 11160 2e15 3D       		.byte	0x3d
 11161 2e16 14       		.byte	0x14
 11162 2e17 14       		.byte	0x14
ARM GAS  C:\Users\bogur\AppData\Local\Temp\cc4rWh5U.s 			page 202


 11163 2e18 1F       		.byte	0x1f
 11164 2e19 23       		.byte	0x23
 11165 2e1a 20       		.uleb128 0x20
 11166 2e1b 24       		.byte	0x24
 11167 2e1c 17       		.byte	0x17
 11168 2e1d 25       		.byte	0x25
 11169 2e1e 21       		.byte	0x21
 11170 2e1f 27       		.byte	0x27
 11171 2e20 73       		.byte	0x73
 11172 2e21 00       		.sleb128 0
 11173 2e22 46       		.byte	0x46
 11174 2e23 14       		.byte	0x14
 11175 2e24 14       		.byte	0x14
 11176 2e25 1F       		.byte	0x1f
 11177 2e26 23       		.byte	0x23
 11178 2e27 20       		.uleb128 0x20
 11179 2e28 24       		.byte	0x24
 11180 2e29 17       		.byte	0x17
 11181 2e2a 25       		.byte	0x25
 11182 2e2b 21       		.byte	0x21
 11183 2e2c 27       		.byte	0x27
 11184 2e2d 22       		.byte	0x22
 11185 2e2e 9F       		.byte	0x9f
 11186 2e2f 5E100000 		.4byte	.LVL380
 11187 2e33 62100000 		.4byte	.LVL382
 11188 2e37 0100     		.2byte	0x1
 11189 2e39 5E       		.byte	0x5e
 11190 2e3a 62100000 		.4byte	.LVL382
 11191 2e3e 66100000 		.4byte	.LVL383
 11192 2e42 0F00     		.2byte	0xf
 11193 2e44 72       		.byte	0x72
 11194 2e45 00       		.sleb128 0
 11195 2e46 73       		.byte	0x73
 11196 2e47 00       		.sleb128 0
 11197 2e48 27       		.byte	0x27
 11198 2e49 7C       		.byte	0x7c
 11199 2e4a 00       		.sleb128 0
 11200 2e4b 1A       		.byte	0x1a
 11201 2e4c 71       		.byte	0x71
 11202 2e4d 00       		.sleb128 0
 11203 2e4e 27       		.byte	0x27
 11204 2e4f 76       		.byte	0x76
 11205 2e50 00       		.sleb128 0
 11206 2e51 22       		.byte	0x22
 11207 2e52 9F       		.byte	0x9f
 11208 2e53 66100000 		.4byte	.LVL383
 11209 2e57 78100000 		.4byte	.LVL385
 11210 2e5b 1200     		.2byte	0x12
 11211 2e5d 72       		.byte	0x72
 11212 2e5e 00       		.sleb128 0
 11213 2e5f 73       		.byte	0x73
 11214 2e60 00       		.sleb128 0
 11215 2e61 27       		.byte	0x27
 11216 2e62 7C       		.byte	0x7c
 11217 2e63 00       		.sleb128 0
 11218 2e64 1A       		.byte	0x1a
 11219 2e65 72       		.byte	0x72
ARM GAS  C:\Users\bogur\AppData\Local\Temp\cc4rWh5U.s 			page 203


 11220 2e66 00       		.sleb128 0
 11221 2e67 73       		.byte	0x73
 11222 2e68 00       		.sleb128 0
 11223 2e69 1A       		.byte	0x1a
 11224 2e6a 27       		.byte	0x27
 11225 2e6b 76       		.byte	0x76
 11226 2e6c 00       		.sleb128 0
 11227 2e6d 22       		.byte	0x22
 11228 2e6e 9F       		.byte	0x9f
 11229 2e6f 78100000 		.4byte	.LVL385
 11230 2e73 A4100000 		.4byte	.LVL388
 11231 2e77 3600     		.2byte	0x36
 11232 2e79 72       		.byte	0x72
 11233 2e7a 00       		.sleb128 0
 11234 2e7b 73       		.byte	0x73
 11235 2e7c 00       		.sleb128 0
 11236 2e7d 27       		.byte	0x27
 11237 2e7e 7C       		.byte	0x7c
 11238 2e7f 00       		.sleb128 0
 11239 2e80 1A       		.byte	0x1a
 11240 2e81 72       		.byte	0x72
 11241 2e82 00       		.sleb128 0
 11242 2e83 73       		.byte	0x73
 11243 2e84 00       		.sleb128 0
 11244 2e85 1A       		.byte	0x1a
 11245 2e86 27       		.byte	0x27
 11246 2e87 7C       		.byte	0x7c
 11247 2e88 00       		.sleb128 0
 11248 2e89 32       		.byte	0x32
 11249 2e8a 14       		.byte	0x14
 11250 2e8b 14       		.byte	0x14
 11251 2e8c 1F       		.byte	0x1f
 11252 2e8d 23       		.byte	0x23
 11253 2e8e 20       		.uleb128 0x20
 11254 2e8f 24       		.byte	0x24
 11255 2e90 17       		.byte	0x17
 11256 2e91 25       		.byte	0x25
 11257 2e92 21       		.byte	0x21
 11258 2e93 7C       		.byte	0x7c
 11259 2e94 00       		.sleb128 0
 11260 2e95 3D       		.byte	0x3d
 11261 2e96 14       		.byte	0x14
 11262 2e97 14       		.byte	0x14
 11263 2e98 1F       		.byte	0x1f
 11264 2e99 23       		.byte	0x23
 11265 2e9a 20       		.uleb128 0x20
 11266 2e9b 24       		.byte	0x24
 11267 2e9c 17       		.byte	0x17
 11268 2e9d 25       		.byte	0x25
 11269 2e9e 21       		.byte	0x21
 11270 2e9f 27       		.byte	0x27
 11271 2ea0 7C       		.byte	0x7c
 11272 2ea1 00       		.sleb128 0
 11273 2ea2 46       		.byte	0x46
 11274 2ea3 14       		.byte	0x14
 11275 2ea4 14       		.byte	0x14
 11276 2ea5 1F       		.byte	0x1f
ARM GAS  C:\Users\bogur\AppData\Local\Temp\cc4rWh5U.s 			page 204


 11277 2ea6 23       		.byte	0x23
 11278 2ea7 20       		.uleb128 0x20
 11279 2ea8 24       		.byte	0x24
 11280 2ea9 17       		.byte	0x17
 11281 2eaa 25       		.byte	0x25
 11282 2eab 21       		.byte	0x21
 11283 2eac 27       		.byte	0x27
 11284 2ead 22       		.byte	0x22
 11285 2eae 9F       		.byte	0x9f
 11286 2eaf A4100000 		.4byte	.LVL388
 11287 2eb3 BA100000 		.4byte	.LVL392
 11288 2eb7 0100     		.2byte	0x1
 11289 2eb9 56       		.byte	0x56
 11290 2eba BA100000 		.4byte	.LVL392
 11291 2ebe DA100000 		.4byte	.LVL394
 11292 2ec2 3000     		.2byte	0x30
 11293 2ec4 7E       		.byte	0x7e
 11294 2ec5 00       		.sleb128 0
 11295 2ec6 32       		.byte	0x32
 11296 2ec7 14       		.byte	0x14
 11297 2ec8 14       		.byte	0x14
 11298 2ec9 1F       		.byte	0x1f
 11299 2eca 23       		.byte	0x23
 11300 2ecb 20       		.uleb128 0x20
 11301 2ecc 24       		.byte	0x24
 11302 2ecd 17       		.byte	0x17
 11303 2ece 25       		.byte	0x25
 11304 2ecf 21       		.byte	0x21
 11305 2ed0 7E       		.byte	0x7e
 11306 2ed1 00       		.sleb128 0
 11307 2ed2 3D       		.byte	0x3d
 11308 2ed3 14       		.byte	0x14
 11309 2ed4 14       		.byte	0x14
 11310 2ed5 1F       		.byte	0x1f
 11311 2ed6 23       		.byte	0x23
 11312 2ed7 20       		.uleb128 0x20
 11313 2ed8 24       		.byte	0x24
 11314 2ed9 17       		.byte	0x17
 11315 2eda 25       		.byte	0x25
 11316 2edb 21       		.byte	0x21
 11317 2edc 27       		.byte	0x27
 11318 2edd 7E       		.byte	0x7e
 11319 2ede 00       		.sleb128 0
 11320 2edf 46       		.byte	0x46
 11321 2ee0 14       		.byte	0x14
 11322 2ee1 14       		.byte	0x14
 11323 2ee2 1F       		.byte	0x1f
 11324 2ee3 23       		.byte	0x23
 11325 2ee4 20       		.uleb128 0x20
 11326 2ee5 24       		.byte	0x24
 11327 2ee6 17       		.byte	0x17
 11328 2ee7 25       		.byte	0x25
 11329 2ee8 21       		.byte	0x21
 11330 2ee9 27       		.byte	0x27
 11331 2eea 73       		.byte	0x73
 11332 2eeb 00       		.sleb128 0
 11333 2eec 7C       		.byte	0x7c
ARM GAS  C:\Users\bogur\AppData\Local\Temp\cc4rWh5U.s 			page 205


 11334 2eed 00       		.sleb128 0
 11335 2eee 1A       		.byte	0x1a
 11336 2eef 78       		.byte	0x78
 11337 2ef0 00       		.sleb128 0
 11338 2ef1 27       		.byte	0x27
 11339 2ef2 22       		.byte	0x22
 11340 2ef3 9F       		.byte	0x9f
 11341 2ef4 DA100000 		.4byte	.LVL394
 11342 2ef8 E8100000 		.4byte	.LVL395
 11343 2efc 3600     		.2byte	0x36
 11344 2efe 7E       		.byte	0x7e
 11345 2eff 00       		.sleb128 0
 11346 2f00 32       		.byte	0x32
 11347 2f01 14       		.byte	0x14
 11348 2f02 14       		.byte	0x14
 11349 2f03 1F       		.byte	0x1f
 11350 2f04 23       		.byte	0x23
 11351 2f05 20       		.uleb128 0x20
 11352 2f06 24       		.byte	0x24
 11353 2f07 17       		.byte	0x17
 11354 2f08 25       		.byte	0x25
 11355 2f09 21       		.byte	0x21
 11356 2f0a 7E       		.byte	0x7e
 11357 2f0b 00       		.sleb128 0
 11358 2f0c 3D       		.byte	0x3d
 11359 2f0d 14       		.byte	0x14
 11360 2f0e 14       		.byte	0x14
 11361 2f0f 1F       		.byte	0x1f
 11362 2f10 23       		.byte	0x23
 11363 2f11 20       		.uleb128 0x20
 11364 2f12 24       		.byte	0x24
 11365 2f13 17       		.byte	0x17
 11366 2f14 25       		.byte	0x25
 11367 2f15 21       		.byte	0x21
 11368 2f16 27       		.byte	0x27
 11369 2f17 7E       		.byte	0x7e
 11370 2f18 00       		.sleb128 0
 11371 2f19 46       		.byte	0x46
 11372 2f1a 14       		.byte	0x14
 11373 2f1b 14       		.byte	0x14
 11374 2f1c 1F       		.byte	0x1f
 11375 2f1d 23       		.byte	0x23
 11376 2f1e 20       		.uleb128 0x20
 11377 2f1f 24       		.byte	0x24
 11378 2f20 17       		.byte	0x17
 11379 2f21 25       		.byte	0x25
 11380 2f22 21       		.byte	0x21
 11381 2f23 27       		.byte	0x27
 11382 2f24 73       		.byte	0x73
 11383 2f25 00       		.sleb128 0
 11384 2f26 7C       		.byte	0x7c
 11385 2f27 00       		.sleb128 0
 11386 2f28 27       		.byte	0x27
 11387 2f29 7E       		.byte	0x7e
 11388 2f2a 00       		.sleb128 0
 11389 2f2b 1A       		.byte	0x1a
 11390 2f2c 73       		.byte	0x73
ARM GAS  C:\Users\bogur\AppData\Local\Temp\cc4rWh5U.s 			page 206


 11391 2f2d 00       		.sleb128 0
 11392 2f2e 7C       		.byte	0x7c
 11393 2f2f 00       		.sleb128 0
 11394 2f30 1A       		.byte	0x1a
 11395 2f31 27       		.byte	0x27
 11396 2f32 22       		.byte	0x22
 11397 2f33 9F       		.byte	0x9f
 11398 2f34 E8100000 		.4byte	.LVL395
 11399 2f38 0A110000 		.4byte	.LVL399
 11400 2f3c 0100     		.2byte	0x1
 11401 2f3e 50       		.byte	0x50
 11402 2f3f 0A110000 		.4byte	.LVL399
 11403 2f43 2A110000 		.4byte	.LVL401
 11404 2f47 3000     		.2byte	0x30
 11405 2f49 77       		.byte	0x77
 11406 2f4a 00       		.sleb128 0
 11407 2f4b 32       		.byte	0x32
 11408 2f4c 14       		.byte	0x14
 11409 2f4d 14       		.byte	0x14
 11410 2f4e 1F       		.byte	0x1f
 11411 2f4f 23       		.byte	0x23
 11412 2f50 20       		.uleb128 0x20
 11413 2f51 24       		.byte	0x24
 11414 2f52 17       		.byte	0x17
 11415 2f53 25       		.byte	0x25
 11416 2f54 21       		.byte	0x21
 11417 2f55 77       		.byte	0x77
 11418 2f56 00       		.sleb128 0
 11419 2f57 3D       		.byte	0x3d
 11420 2f58 14       		.byte	0x14
 11421 2f59 14       		.byte	0x14
 11422 2f5a 1F       		.byte	0x1f
 11423 2f5b 23       		.byte	0x23
 11424 2f5c 20       		.uleb128 0x20
 11425 2f5d 24       		.byte	0x24
 11426 2f5e 17       		.byte	0x17
 11427 2f5f 25       		.byte	0x25
 11428 2f60 21       		.byte	0x21
 11429 2f61 27       		.byte	0x27
 11430 2f62 77       		.byte	0x77
 11431 2f63 00       		.sleb128 0
 11432 2f64 46       		.byte	0x46
 11433 2f65 14       		.byte	0x14
 11434 2f66 14       		.byte	0x14
 11435 2f67 1F       		.byte	0x1f
 11436 2f68 23       		.byte	0x23
 11437 2f69 20       		.uleb128 0x20
 11438 2f6a 24       		.byte	0x24
 11439 2f6b 17       		.byte	0x17
 11440 2f6c 25       		.byte	0x25
 11441 2f6d 21       		.byte	0x21
 11442 2f6e 27       		.byte	0x27
 11443 2f6f 7C       		.byte	0x7c
 11444 2f70 00       		.sleb128 0
 11445 2f71 7E       		.byte	0x7e
 11446 2f72 00       		.sleb128 0
 11447 2f73 1A       		.byte	0x1a
ARM GAS  C:\Users\bogur\AppData\Local\Temp\cc4rWh5U.s 			page 207


 11448 2f74 78       		.byte	0x78
 11449 2f75 00       		.sleb128 0
 11450 2f76 27       		.byte	0x27
 11451 2f77 22       		.byte	0x22
 11452 2f78 9F       		.byte	0x9f
 11453 2f79 2A110000 		.4byte	.LVL401
 11454 2f7d 2E110000 		.4byte	.LVL403
 11455 2f81 0100     		.2byte	0x1
 11456 2f83 55       		.byte	0x55
 11457 2f84 2E110000 		.4byte	.LVL403
 11458 2f88 32110000 		.4byte	.LVL404
 11459 2f8c 0F00     		.2byte	0xf
 11460 2f8e 7E       		.byte	0x7e
 11461 2f8f 00       		.sleb128 0
 11462 2f90 77       		.byte	0x77
 11463 2f91 00       		.sleb128 0
 11464 2f92 27       		.byte	0x27
 11465 2f93 76       		.byte	0x76
 11466 2f94 00       		.sleb128 0
 11467 2f95 1A       		.byte	0x1a
 11468 2f96 73       		.byte	0x73
 11469 2f97 00       		.sleb128 0
 11470 2f98 27       		.byte	0x27
 11471 2f99 71       		.byte	0x71
 11472 2f9a 00       		.sleb128 0
 11473 2f9b 22       		.byte	0x22
 11474 2f9c 9F       		.byte	0x9f
 11475 2f9d 32110000 		.4byte	.LVL404
 11476 2fa1 40110000 		.4byte	.LVL406
 11477 2fa5 1200     		.2byte	0x12
 11478 2fa7 7E       		.byte	0x7e
 11479 2fa8 00       		.sleb128 0
 11480 2fa9 77       		.byte	0x77
 11481 2faa 00       		.sleb128 0
 11482 2fab 27       		.byte	0x27
 11483 2fac 76       		.byte	0x76
 11484 2fad 00       		.sleb128 0
 11485 2fae 1A       		.byte	0x1a
 11486 2faf 7E       		.byte	0x7e
 11487 2fb0 00       		.sleb128 0
 11488 2fb1 77       		.byte	0x77
 11489 2fb2 00       		.sleb128 0
 11490 2fb3 1A       		.byte	0x1a
 11491 2fb4 27       		.byte	0x27
 11492 2fb5 71       		.byte	0x71
 11493 2fb6 00       		.sleb128 0
 11494 2fb7 22       		.byte	0x22
 11495 2fb8 9F       		.byte	0x9f
 11496 2fb9 40110000 		.4byte	.LVL406
 11497 2fbd 6A110000 		.4byte	.LVL409
 11498 2fc1 3600     		.2byte	0x36
 11499 2fc3 7E       		.byte	0x7e
 11500 2fc4 00       		.sleb128 0
 11501 2fc5 77       		.byte	0x77
 11502 2fc6 00       		.sleb128 0
 11503 2fc7 27       		.byte	0x27
 11504 2fc8 76       		.byte	0x76
ARM GAS  C:\Users\bogur\AppData\Local\Temp\cc4rWh5U.s 			page 208


 11505 2fc9 00       		.sleb128 0
 11506 2fca 1A       		.byte	0x1a
 11507 2fcb 7E       		.byte	0x7e
 11508 2fcc 00       		.sleb128 0
 11509 2fcd 77       		.byte	0x77
 11510 2fce 00       		.sleb128 0
 11511 2fcf 1A       		.byte	0x1a
 11512 2fd0 27       		.byte	0x27
 11513 2fd1 76       		.byte	0x76
 11514 2fd2 00       		.sleb128 0
 11515 2fd3 32       		.byte	0x32
 11516 2fd4 14       		.byte	0x14
 11517 2fd5 14       		.byte	0x14
 11518 2fd6 1F       		.byte	0x1f
 11519 2fd7 23       		.byte	0x23
 11520 2fd8 20       		.uleb128 0x20
 11521 2fd9 24       		.byte	0x24
 11522 2fda 17       		.byte	0x17
 11523 2fdb 25       		.byte	0x25
 11524 2fdc 21       		.byte	0x21
 11525 2fdd 76       		.byte	0x76
 11526 2fde 00       		.sleb128 0
 11527 2fdf 3D       		.byte	0x3d
 11528 2fe0 14       		.byte	0x14
 11529 2fe1 14       		.byte	0x14
 11530 2fe2 1F       		.byte	0x1f
 11531 2fe3 23       		.byte	0x23
 11532 2fe4 20       		.uleb128 0x20
 11533 2fe5 24       		.byte	0x24
 11534 2fe6 17       		.byte	0x17
 11535 2fe7 25       		.byte	0x25
 11536 2fe8 21       		.byte	0x21
 11537 2fe9 27       		.byte	0x27
 11538 2fea 76       		.byte	0x76
 11539 2feb 00       		.sleb128 0
 11540 2fec 46       		.byte	0x46
 11541 2fed 14       		.byte	0x14
 11542 2fee 14       		.byte	0x14
 11543 2fef 1F       		.byte	0x1f
 11544 2ff0 23       		.byte	0x23
 11545 2ff1 20       		.uleb128 0x20
 11546 2ff2 24       		.byte	0x24
 11547 2ff3 17       		.byte	0x17
 11548 2ff4 25       		.byte	0x25
 11549 2ff5 21       		.byte	0x21
 11550 2ff6 27       		.byte	0x27
 11551 2ff7 22       		.byte	0x22
 11552 2ff8 9F       		.byte	0x9f
 11553 2ff9 6A110000 		.4byte	.LVL409
 11554 2ffd 6E110000 		.4byte	.LVL411
 11555 3001 0100     		.2byte	0x1
 11556 3003 54       		.byte	0x54
 11557 3004 6E110000 		.4byte	.LVL411
 11558 3008 72110000 		.4byte	.LVL412
 11559 300c 0F00     		.2byte	0xf
 11560 300e 77       		.byte	0x77
 11561 300f 00       		.sleb128 0
ARM GAS  C:\Users\bogur\AppData\Local\Temp\cc4rWh5U.s 			page 209


 11562 3010 76       		.byte	0x76
 11563 3011 00       		.sleb128 0
 11564 3012 27       		.byte	0x27
 11565 3013 75       		.byte	0x75
 11566 3014 00       		.sleb128 0
 11567 3015 1A       		.byte	0x1a
 11568 3016 73       		.byte	0x73
 11569 3017 00       		.sleb128 0
 11570 3018 27       		.byte	0x27
 11571 3019 71       		.byte	0x71
 11572 301a 00       		.sleb128 0
 11573 301b 22       		.byte	0x22
 11574 301c 9F       		.byte	0x9f
 11575 301d 72110000 		.4byte	.LVL412
 11576 3021 80110000 		.4byte	.LVL414
 11577 3025 1200     		.2byte	0x12
 11578 3027 77       		.byte	0x77
 11579 3028 00       		.sleb128 0
 11580 3029 76       		.byte	0x76
 11581 302a 00       		.sleb128 0
 11582 302b 27       		.byte	0x27
 11583 302c 75       		.byte	0x75
 11584 302d 00       		.sleb128 0
 11585 302e 1A       		.byte	0x1a
 11586 302f 77       		.byte	0x77
 11587 3030 00       		.sleb128 0
 11588 3031 76       		.byte	0x76
 11589 3032 00       		.sleb128 0
 11590 3033 1A       		.byte	0x1a
 11591 3034 27       		.byte	0x27
 11592 3035 71       		.byte	0x71
 11593 3036 00       		.sleb128 0
 11594 3037 22       		.byte	0x22
 11595 3038 9F       		.byte	0x9f
 11596 3039 80110000 		.4byte	.LVL414
 11597 303d AA110000 		.4byte	.LVL416
 11598 3041 3600     		.2byte	0x36
 11599 3043 77       		.byte	0x77
 11600 3044 00       		.sleb128 0
 11601 3045 76       		.byte	0x76
 11602 3046 00       		.sleb128 0
 11603 3047 27       		.byte	0x27
 11604 3048 75       		.byte	0x75
 11605 3049 00       		.sleb128 0
 11606 304a 1A       		.byte	0x1a
 11607 304b 77       		.byte	0x77
 11608 304c 00       		.sleb128 0
 11609 304d 76       		.byte	0x76
 11610 304e 00       		.sleb128 0
 11611 304f 1A       		.byte	0x1a
 11612 3050 27       		.byte	0x27
 11613 3051 75       		.byte	0x75
 11614 3052 00       		.sleb128 0
 11615 3053 32       		.byte	0x32
 11616 3054 14       		.byte	0x14
 11617 3055 14       		.byte	0x14
 11618 3056 1F       		.byte	0x1f
ARM GAS  C:\Users\bogur\AppData\Local\Temp\cc4rWh5U.s 			page 210


 11619 3057 23       		.byte	0x23
 11620 3058 20       		.uleb128 0x20
 11621 3059 24       		.byte	0x24
 11622 305a 17       		.byte	0x17
 11623 305b 25       		.byte	0x25
 11624 305c 21       		.byte	0x21
 11625 305d 75       		.byte	0x75
 11626 305e 00       		.sleb128 0
 11627 305f 3D       		.byte	0x3d
 11628 3060 14       		.byte	0x14
 11629 3061 14       		.byte	0x14
 11630 3062 1F       		.byte	0x1f
 11631 3063 23       		.byte	0x23
 11632 3064 20       		.uleb128 0x20
 11633 3065 24       		.byte	0x24
 11634 3066 17       		.byte	0x17
 11635 3067 25       		.byte	0x25
 11636 3068 21       		.byte	0x21
 11637 3069 27       		.byte	0x27
 11638 306a 75       		.byte	0x75
 11639 306b 00       		.sleb128 0
 11640 306c 46       		.byte	0x46
 11641 306d 14       		.byte	0x14
 11642 306e 14       		.byte	0x14
 11643 306f 1F       		.byte	0x1f
 11644 3070 23       		.byte	0x23
 11645 3071 20       		.uleb128 0x20
 11646 3072 24       		.byte	0x24
 11647 3073 17       		.byte	0x17
 11648 3074 25       		.byte	0x25
 11649 3075 21       		.byte	0x21
 11650 3076 27       		.byte	0x27
 11651 3077 22       		.byte	0x22
 11652 3078 9F       		.byte	0x9f
 11653 3079 AA110000 		.4byte	.LVL416
 11654 307d B0110000 		.4byte	.LVL418
 11655 3081 0100     		.2byte	0x1
 11656 3083 50       		.byte	0x50
 11657 3084 B0110000 		.4byte	.LVL418
 11658 3088 B4110000 		.4byte	.LVL419
 11659 308c 0F00     		.2byte	0xf
 11660 308e 76       		.byte	0x76
 11661 308f 00       		.sleb128 0
 11662 3090 75       		.byte	0x75
 11663 3091 00       		.sleb128 0
 11664 3092 27       		.byte	0x27
 11665 3093 74       		.byte	0x74
 11666 3094 00       		.sleb128 0
 11667 3095 1A       		.byte	0x1a
 11668 3096 73       		.byte	0x73
 11669 3097 00       		.sleb128 0
 11670 3098 27       		.byte	0x27
 11671 3099 72       		.byte	0x72
 11672 309a 00       		.sleb128 0
 11673 309b 22       		.byte	0x22
 11674 309c 9F       		.byte	0x9f
 11675 309d B4110000 		.4byte	.LVL419
ARM GAS  C:\Users\bogur\AppData\Local\Temp\cc4rWh5U.s 			page 211


 11676 30a1 C6110000 		.4byte	.LVL421
 11677 30a5 1200     		.2byte	0x12
 11678 30a7 76       		.byte	0x76
 11679 30a8 00       		.sleb128 0
 11680 30a9 75       		.byte	0x75
 11681 30aa 00       		.sleb128 0
 11682 30ab 27       		.byte	0x27
 11683 30ac 74       		.byte	0x74
 11684 30ad 00       		.sleb128 0
 11685 30ae 1A       		.byte	0x1a
 11686 30af 76       		.byte	0x76
 11687 30b0 00       		.sleb128 0
 11688 30b1 75       		.byte	0x75
 11689 30b2 00       		.sleb128 0
 11690 30b3 1A       		.byte	0x1a
 11691 30b4 27       		.byte	0x27
 11692 30b5 72       		.byte	0x72
 11693 30b6 00       		.sleb128 0
 11694 30b7 22       		.byte	0x22
 11695 30b8 9F       		.byte	0x9f
 11696 30b9 C6110000 		.4byte	.LVL421
 11697 30bd EC110000 		.4byte	.LVL423
 11698 30c1 3600     		.2byte	0x36
 11699 30c3 76       		.byte	0x76
 11700 30c4 00       		.sleb128 0
 11701 30c5 75       		.byte	0x75
 11702 30c6 00       		.sleb128 0
 11703 30c7 27       		.byte	0x27
 11704 30c8 74       		.byte	0x74
 11705 30c9 00       		.sleb128 0
 11706 30ca 1A       		.byte	0x1a
 11707 30cb 76       		.byte	0x76
 11708 30cc 00       		.sleb128 0
 11709 30cd 75       		.byte	0x75
 11710 30ce 00       		.sleb128 0
 11711 30cf 1A       		.byte	0x1a
 11712 30d0 27       		.byte	0x27
 11713 30d1 74       		.byte	0x74
 11714 30d2 00       		.sleb128 0
 11715 30d3 32       		.byte	0x32
 11716 30d4 14       		.byte	0x14
 11717 30d5 14       		.byte	0x14
 11718 30d6 1F       		.byte	0x1f
 11719 30d7 23       		.byte	0x23
 11720 30d8 20       		.uleb128 0x20
 11721 30d9 24       		.byte	0x24
 11722 30da 17       		.byte	0x17
 11723 30db 25       		.byte	0x25
 11724 30dc 21       		.byte	0x21
 11725 30dd 74       		.byte	0x74
 11726 30de 00       		.sleb128 0
 11727 30df 3D       		.byte	0x3d
 11728 30e0 14       		.byte	0x14
 11729 30e1 14       		.byte	0x14
 11730 30e2 1F       		.byte	0x1f
 11731 30e3 23       		.byte	0x23
 11732 30e4 20       		.uleb128 0x20
ARM GAS  C:\Users\bogur\AppData\Local\Temp\cc4rWh5U.s 			page 212


 11733 30e5 24       		.byte	0x24
 11734 30e6 17       		.byte	0x17
 11735 30e7 25       		.byte	0x25
 11736 30e8 21       		.byte	0x21
 11737 30e9 27       		.byte	0x27
 11738 30ea 74       		.byte	0x74
 11739 30eb 00       		.sleb128 0
 11740 30ec 46       		.byte	0x46
 11741 30ed 14       		.byte	0x14
 11742 30ee 14       		.byte	0x14
 11743 30ef 1F       		.byte	0x1f
 11744 30f0 23       		.byte	0x23
 11745 30f1 20       		.uleb128 0x20
 11746 30f2 24       		.byte	0x24
 11747 30f3 17       		.byte	0x17
 11748 30f4 25       		.byte	0x25
 11749 30f5 21       		.byte	0x21
 11750 30f6 27       		.byte	0x27
 11751 30f7 22       		.byte	0x22
 11752 30f8 9F       		.byte	0x9f
 11753 30f9 EC110000 		.4byte	.LVL423
 11754 30fd F2110000 		.4byte	.LVL425
 11755 3101 0100     		.2byte	0x1
 11756 3103 52       		.byte	0x52
 11757 3104 F2110000 		.4byte	.LVL425
 11758 3108 F6110000 		.4byte	.LVL426
 11759 310c 0F00     		.2byte	0xf
 11760 310e 75       		.byte	0x75
 11761 310f 00       		.sleb128 0
 11762 3110 74       		.byte	0x74
 11763 3111 00       		.sleb128 0
 11764 3112 27       		.byte	0x27
 11765 3113 70       		.byte	0x70
 11766 3114 00       		.sleb128 0
 11767 3115 1A       		.byte	0x1a
 11768 3116 73       		.byte	0x73
 11769 3117 00       		.sleb128 0
 11770 3118 27       		.byte	0x27
 11771 3119 71       		.byte	0x71
 11772 311a 00       		.sleb128 0
 11773 311b 22       		.byte	0x22
 11774 311c 9F       		.byte	0x9f
 11775 311d F6110000 		.4byte	.LVL426
 11776 3121 04120000 		.4byte	.LVL428
 11777 3125 1200     		.2byte	0x12
 11778 3127 75       		.byte	0x75
 11779 3128 00       		.sleb128 0
 11780 3129 74       		.byte	0x74
 11781 312a 00       		.sleb128 0
 11782 312b 27       		.byte	0x27
 11783 312c 70       		.byte	0x70
 11784 312d 00       		.sleb128 0
 11785 312e 1A       		.byte	0x1a
 11786 312f 75       		.byte	0x75
 11787 3130 00       		.sleb128 0
 11788 3131 74       		.byte	0x74
 11789 3132 00       		.sleb128 0
ARM GAS  C:\Users\bogur\AppData\Local\Temp\cc4rWh5U.s 			page 213


 11790 3133 1A       		.byte	0x1a
 11791 3134 27       		.byte	0x27
 11792 3135 71       		.byte	0x71
 11793 3136 00       		.sleb128 0
 11794 3137 22       		.byte	0x22
 11795 3138 9F       		.byte	0x9f
 11796 3139 04120000 		.4byte	.LVL428
 11797 313d 2E120000 		.4byte	.LVL431
 11798 3141 3600     		.2byte	0x36
 11799 3143 75       		.byte	0x75
 11800 3144 00       		.sleb128 0
 11801 3145 74       		.byte	0x74
 11802 3146 00       		.sleb128 0
 11803 3147 27       		.byte	0x27
 11804 3148 70       		.byte	0x70
 11805 3149 00       		.sleb128 0
 11806 314a 1A       		.byte	0x1a
 11807 314b 75       		.byte	0x75
 11808 314c 00       		.sleb128 0
 11809 314d 74       		.byte	0x74
 11810 314e 00       		.sleb128 0
 11811 314f 1A       		.byte	0x1a
 11812 3150 27       		.byte	0x27
 11813 3151 70       		.byte	0x70
 11814 3152 00       		.sleb128 0
 11815 3153 32       		.byte	0x32
 11816 3154 14       		.byte	0x14
 11817 3155 14       		.byte	0x14
 11818 3156 1F       		.byte	0x1f
 11819 3157 23       		.byte	0x23
 11820 3158 20       		.uleb128 0x20
 11821 3159 24       		.byte	0x24
 11822 315a 17       		.byte	0x17
 11823 315b 25       		.byte	0x25
 11824 315c 21       		.byte	0x21
 11825 315d 70       		.byte	0x70
 11826 315e 00       		.sleb128 0
 11827 315f 3D       		.byte	0x3d
 11828 3160 14       		.byte	0x14
 11829 3161 14       		.byte	0x14
 11830 3162 1F       		.byte	0x1f
 11831 3163 23       		.byte	0x23
 11832 3164 20       		.uleb128 0x20
 11833 3165 24       		.byte	0x24
 11834 3166 17       		.byte	0x17
 11835 3167 25       		.byte	0x25
 11836 3168 21       		.byte	0x21
 11837 3169 27       		.byte	0x27
 11838 316a 70       		.byte	0x70
 11839 316b 00       		.sleb128 0
 11840 316c 46       		.byte	0x46
 11841 316d 14       		.byte	0x14
 11842 316e 14       		.byte	0x14
 11843 316f 1F       		.byte	0x1f
 11844 3170 23       		.byte	0x23
 11845 3171 20       		.uleb128 0x20
 11846 3172 24       		.byte	0x24
ARM GAS  C:\Users\bogur\AppData\Local\Temp\cc4rWh5U.s 			page 214


 11847 3173 17       		.byte	0x17
 11848 3174 25       		.byte	0x25
 11849 3175 21       		.byte	0x21
 11850 3176 27       		.byte	0x27
 11851 3177 22       		.byte	0x22
 11852 3178 9F       		.byte	0x9f
 11853 3179 2E120000 		.4byte	.LVL431
 11854 317d 34120000 		.4byte	.LVL433
 11855 3181 0100     		.2byte	0x1
 11856 3183 53       		.byte	0x53
 11857 3184 34120000 		.4byte	.LVL433
 11858 3188 38120000 		.4byte	.LVL434
 11859 318c 0F00     		.2byte	0xf
 11860 318e 74       		.byte	0x74
 11861 318f 00       		.sleb128 0
 11862 3190 70       		.byte	0x70
 11863 3191 00       		.sleb128 0
 11864 3192 27       		.byte	0x27
 11865 3193 72       		.byte	0x72
 11866 3194 00       		.sleb128 0
 11867 3195 1A       		.byte	0x1a
 11868 3196 71       		.byte	0x71
 11869 3197 00       		.sleb128 0
 11870 3198 27       		.byte	0x27
 11871 3199 76       		.byte	0x76
 11872 319a 00       		.sleb128 0
 11873 319b 22       		.byte	0x22
 11874 319c 9F       		.byte	0x9f
 11875 319d 38120000 		.4byte	.LVL434
 11876 31a1 54120000 		.4byte	.LVL436
 11877 31a5 1200     		.2byte	0x12
 11878 31a7 74       		.byte	0x74
 11879 31a8 00       		.sleb128 0
 11880 31a9 70       		.byte	0x70
 11881 31aa 00       		.sleb128 0
 11882 31ab 27       		.byte	0x27
 11883 31ac 72       		.byte	0x72
 11884 31ad 00       		.sleb128 0
 11885 31ae 1A       		.byte	0x1a
 11886 31af 74       		.byte	0x74
 11887 31b0 00       		.sleb128 0
 11888 31b1 70       		.byte	0x70
 11889 31b2 00       		.sleb128 0
 11890 31b3 1A       		.byte	0x1a
 11891 31b4 27       		.byte	0x27
 11892 31b5 76       		.byte	0x76
 11893 31b6 00       		.sleb128 0
 11894 31b7 22       		.byte	0x22
 11895 31b8 9F       		.byte	0x9f
 11896 31b9 54120000 		.4byte	.LVL436
 11897 31bd 70120000 		.4byte	.LVL438
 11898 31c1 3600     		.2byte	0x36
 11899 31c3 74       		.byte	0x74
 11900 31c4 00       		.sleb128 0
 11901 31c5 70       		.byte	0x70
 11902 31c6 00       		.sleb128 0
 11903 31c7 27       		.byte	0x27
ARM GAS  C:\Users\bogur\AppData\Local\Temp\cc4rWh5U.s 			page 215


 11904 31c8 72       		.byte	0x72
 11905 31c9 00       		.sleb128 0
 11906 31ca 1A       		.byte	0x1a
 11907 31cb 74       		.byte	0x74
 11908 31cc 00       		.sleb128 0
 11909 31cd 70       		.byte	0x70
 11910 31ce 00       		.sleb128 0
 11911 31cf 1A       		.byte	0x1a
 11912 31d0 27       		.byte	0x27
 11913 31d1 72       		.byte	0x72
 11914 31d2 00       		.sleb128 0
 11915 31d3 32       		.byte	0x32
 11916 31d4 14       		.byte	0x14
 11917 31d5 14       		.byte	0x14
 11918 31d6 1F       		.byte	0x1f
 11919 31d7 23       		.byte	0x23
 11920 31d8 20       		.uleb128 0x20
 11921 31d9 24       		.byte	0x24
 11922 31da 17       		.byte	0x17
 11923 31db 25       		.byte	0x25
 11924 31dc 21       		.byte	0x21
 11925 31dd 72       		.byte	0x72
 11926 31de 00       		.sleb128 0
 11927 31df 3D       		.byte	0x3d
 11928 31e0 14       		.byte	0x14
 11929 31e1 14       		.byte	0x14
 11930 31e2 1F       		.byte	0x1f
 11931 31e3 23       		.byte	0x23
 11932 31e4 20       		.uleb128 0x20
 11933 31e5 24       		.byte	0x24
 11934 31e6 17       		.byte	0x17
 11935 31e7 25       		.byte	0x25
 11936 31e8 21       		.byte	0x21
 11937 31e9 27       		.byte	0x27
 11938 31ea 72       		.byte	0x72
 11939 31eb 00       		.sleb128 0
 11940 31ec 46       		.byte	0x46
 11941 31ed 14       		.byte	0x14
 11942 31ee 14       		.byte	0x14
 11943 31ef 1F       		.byte	0x1f
 11944 31f0 23       		.byte	0x23
 11945 31f1 20       		.uleb128 0x20
 11946 31f2 24       		.byte	0x24
 11947 31f3 17       		.byte	0x17
 11948 31f4 25       		.byte	0x25
 11949 31f5 21       		.byte	0x21
 11950 31f6 27       		.byte	0x27
 11951 31f7 22       		.byte	0x22
 11952 31f8 9F       		.byte	0x9f
 11953 31f9 70120000 		.4byte	.LVL438
 11954 31fd 7C120000 		.4byte	.LVL441
 11955 3201 0100     		.2byte	0x1
 11956 3203 57       		.byte	0x57
 11957 3204 7C120000 		.4byte	.LVL441
 11958 3208 8E120000 		.4byte	.LVL443
 11959 320c 0F00     		.2byte	0xf
 11960 320e 70       		.byte	0x70
ARM GAS  C:\Users\bogur\AppData\Local\Temp\cc4rWh5U.s 			page 216


 11961 320f 00       		.sleb128 0
 11962 3210 72       		.byte	0x72
 11963 3211 00       		.sleb128 0
 11964 3212 27       		.byte	0x27
 11965 3213 73       		.byte	0x73
 11966 3214 00       		.sleb128 0
 11967 3215 1A       		.byte	0x1a
 11968 3216 71       		.byte	0x71
 11969 3217 00       		.sleb128 0
 11970 3218 27       		.byte	0x27
 11971 3219 75       		.byte	0x75
 11972 321a 00       		.sleb128 0
 11973 321b 22       		.byte	0x22
 11974 321c 9F       		.byte	0x9f
 11975 321d 8E120000 		.4byte	.LVL443
 11976 3221 9A120000 		.4byte	.LVL444
 11977 3225 1200     		.2byte	0x12
 11978 3227 70       		.byte	0x70
 11979 3228 00       		.sleb128 0
 11980 3229 72       		.byte	0x72
 11981 322a 00       		.sleb128 0
 11982 322b 27       		.byte	0x27
 11983 322c 73       		.byte	0x73
 11984 322d 00       		.sleb128 0
 11985 322e 1A       		.byte	0x1a
 11986 322f 70       		.byte	0x70
 11987 3230 00       		.sleb128 0
 11988 3231 72       		.byte	0x72
 11989 3232 00       		.sleb128 0
 11990 3233 1A       		.byte	0x1a
 11991 3234 27       		.byte	0x27
 11992 3235 75       		.byte	0x75
 11993 3236 00       		.sleb128 0
 11994 3237 22       		.byte	0x22
 11995 3238 9F       		.byte	0x9f
 11996 3239 9A120000 		.4byte	.LVL444
 11997 323d B8120000 		.4byte	.LVL446
 11998 3241 3600     		.2byte	0x36
 11999 3243 70       		.byte	0x70
 12000 3244 00       		.sleb128 0
 12001 3245 72       		.byte	0x72
 12002 3246 00       		.sleb128 0
 12003 3247 27       		.byte	0x27
 12004 3248 73       		.byte	0x73
 12005 3249 00       		.sleb128 0
 12006 324a 1A       		.byte	0x1a
 12007 324b 70       		.byte	0x70
 12008 324c 00       		.sleb128 0
 12009 324d 72       		.byte	0x72
 12010 324e 00       		.sleb128 0
 12011 324f 1A       		.byte	0x1a
 12012 3250 27       		.byte	0x27
 12013 3251 73       		.byte	0x73
 12014 3252 00       		.sleb128 0
 12015 3253 32       		.byte	0x32
 12016 3254 14       		.byte	0x14
 12017 3255 14       		.byte	0x14
ARM GAS  C:\Users\bogur\AppData\Local\Temp\cc4rWh5U.s 			page 217


 12018 3256 1F       		.byte	0x1f
 12019 3257 23       		.byte	0x23
 12020 3258 20       		.uleb128 0x20
 12021 3259 24       		.byte	0x24
 12022 325a 17       		.byte	0x17
 12023 325b 25       		.byte	0x25
 12024 325c 21       		.byte	0x21
 12025 325d 73       		.byte	0x73
 12026 325e 00       		.sleb128 0
 12027 325f 3D       		.byte	0x3d
 12028 3260 14       		.byte	0x14
 12029 3261 14       		.byte	0x14
 12030 3262 1F       		.byte	0x1f
 12031 3263 23       		.byte	0x23
 12032 3264 20       		.uleb128 0x20
 12033 3265 24       		.byte	0x24
 12034 3266 17       		.byte	0x17
 12035 3267 25       		.byte	0x25
 12036 3268 21       		.byte	0x21
 12037 3269 27       		.byte	0x27
 12038 326a 73       		.byte	0x73
 12039 326b 00       		.sleb128 0
 12040 326c 46       		.byte	0x46
 12041 326d 14       		.byte	0x14
 12042 326e 14       		.byte	0x14
 12043 326f 1F       		.byte	0x1f
 12044 3270 23       		.byte	0x23
 12045 3271 20       		.uleb128 0x20
 12046 3272 24       		.byte	0x24
 12047 3273 17       		.byte	0x17
 12048 3274 25       		.byte	0x25
 12049 3275 21       		.byte	0x21
 12050 3276 27       		.byte	0x27
 12051 3277 22       		.byte	0x22
 12052 3278 9F       		.byte	0x9f
 12053 3279 B8120000 		.4byte	.LVL446
 12054 327d C2120000 		.4byte	.LVL449
 12055 3281 0100     		.2byte	0x1
 12056 3283 56       		.byte	0x56
 12057 3284 C2120000 		.4byte	.LVL449
 12058 3288 DC120000 		.4byte	.LVL451
 12059 328c 1200     		.2byte	0x12
 12060 328e 72       		.byte	0x72
 12061 328f 00       		.sleb128 0
 12062 3290 73       		.byte	0x73
 12063 3291 00       		.sleb128 0
 12064 3292 27       		.byte	0x27
 12065 3293 7A       		.byte	0x7a
 12066 3294 00       		.sleb128 0
 12067 3295 1A       		.byte	0x1a
 12068 3296 72       		.byte	0x72
 12069 3297 00       		.sleb128 0
 12070 3298 73       		.byte	0x73
 12071 3299 00       		.sleb128 0
 12072 329a 1A       		.byte	0x1a
 12073 329b 27       		.byte	0x27
 12074 329c 74       		.byte	0x74
ARM GAS  C:\Users\bogur\AppData\Local\Temp\cc4rWh5U.s 			page 218


 12075 329d 00       		.sleb128 0
 12076 329e 22       		.byte	0x22
 12077 329f 9F       		.byte	0x9f
 12078 32a0 DC120000 		.4byte	.LVL451
 12079 32a4 FE120000 		.4byte	.LVL453
 12080 32a8 3600     		.2byte	0x36
 12081 32aa 72       		.byte	0x72
 12082 32ab 00       		.sleb128 0
 12083 32ac 73       		.byte	0x73
 12084 32ad 00       		.sleb128 0
 12085 32ae 27       		.byte	0x27
 12086 32af 7A       		.byte	0x7a
 12087 32b0 00       		.sleb128 0
 12088 32b1 1A       		.byte	0x1a
 12089 32b2 72       		.byte	0x72
 12090 32b3 00       		.sleb128 0
 12091 32b4 73       		.byte	0x73
 12092 32b5 00       		.sleb128 0
 12093 32b6 1A       		.byte	0x1a
 12094 32b7 27       		.byte	0x27
 12095 32b8 7A       		.byte	0x7a
 12096 32b9 00       		.sleb128 0
 12097 32ba 32       		.byte	0x32
 12098 32bb 14       		.byte	0x14
 12099 32bc 14       		.byte	0x14
 12100 32bd 1F       		.byte	0x1f
 12101 32be 23       		.byte	0x23
 12102 32bf 20       		.uleb128 0x20
 12103 32c0 24       		.byte	0x24
 12104 32c1 17       		.byte	0x17
 12105 32c2 25       		.byte	0x25
 12106 32c3 21       		.byte	0x21
 12107 32c4 7A       		.byte	0x7a
 12108 32c5 00       		.sleb128 0
 12109 32c6 3D       		.byte	0x3d
 12110 32c7 14       		.byte	0x14
 12111 32c8 14       		.byte	0x14
 12112 32c9 1F       		.byte	0x1f
 12113 32ca 23       		.byte	0x23
 12114 32cb 20       		.uleb128 0x20
 12115 32cc 24       		.byte	0x24
 12116 32cd 17       		.byte	0x17
 12117 32ce 25       		.byte	0x25
 12118 32cf 21       		.byte	0x21
 12119 32d0 27       		.byte	0x27
 12120 32d1 7A       		.byte	0x7a
 12121 32d2 00       		.sleb128 0
 12122 32d3 46       		.byte	0x46
 12123 32d4 14       		.byte	0x14
 12124 32d5 14       		.byte	0x14
 12125 32d6 1F       		.byte	0x1f
 12126 32d7 23       		.byte	0x23
 12127 32d8 20       		.uleb128 0x20
 12128 32d9 24       		.byte	0x24
 12129 32da 17       		.byte	0x17
 12130 32db 25       		.byte	0x25
 12131 32dc 21       		.byte	0x21
ARM GAS  C:\Users\bogur\AppData\Local\Temp\cc4rWh5U.s 			page 219


 12132 32dd 27       		.byte	0x27
 12133 32de 22       		.byte	0x22
 12134 32df 9F       		.byte	0x9f
 12135 32e0 FE120000 		.4byte	.LVL453
 12136 32e4 08130000 		.4byte	.LVL456
 12137 32e8 0100     		.2byte	0x1
 12138 32ea 55       		.byte	0x55
 12139 32eb 08130000 		.4byte	.LVL456
 12140 32ef 1A130000 		.4byte	.LVL458
 12141 32f3 0F00     		.2byte	0xf
 12142 32f5 73       		.byte	0x73
 12143 32f6 00       		.sleb128 0
 12144 32f7 7A       		.byte	0x7a
 12145 32f8 00       		.sleb128 0
 12146 32f9 27       		.byte	0x27
 12147 32fa 79       		.byte	0x79
 12148 32fb 00       		.sleb128 0
 12149 32fc 1A       		.byte	0x1a
 12150 32fd 70       		.byte	0x70
 12151 32fe 00       		.sleb128 0
 12152 32ff 27       		.byte	0x27
 12153 3300 74       		.byte	0x74
 12154 3301 00       		.sleb128 0
 12155 3302 22       		.byte	0x22
 12156 3303 9F       		.byte	0x9f
 12157 3304 1A130000 		.4byte	.LVL458
 12158 3308 38130000 		.4byte	.LVL460
 12159 330c 1200     		.2byte	0x12
 12160 330e 73       		.byte	0x73
 12161 330f 00       		.sleb128 0
 12162 3310 7A       		.byte	0x7a
 12163 3311 00       		.sleb128 0
 12164 3312 27       		.byte	0x27
 12165 3313 79       		.byte	0x79
 12166 3314 00       		.sleb128 0
 12167 3315 1A       		.byte	0x1a
 12168 3316 73       		.byte	0x73
 12169 3317 00       		.sleb128 0
 12170 3318 7A       		.byte	0x7a
 12171 3319 00       		.sleb128 0
 12172 331a 1A       		.byte	0x1a
 12173 331b 27       		.byte	0x27
 12174 331c 74       		.byte	0x74
 12175 331d 00       		.sleb128 0
 12176 331e 22       		.byte	0x22
 12177 331f 9F       		.byte	0x9f
 12178 3320 38130000 		.4byte	.LVL460
 12179 3324 44130000 		.4byte	.LVL461
 12180 3328 3600     		.2byte	0x36
 12181 332a 73       		.byte	0x73
 12182 332b 00       		.sleb128 0
 12183 332c 7A       		.byte	0x7a
 12184 332d 00       		.sleb128 0
 12185 332e 27       		.byte	0x27
 12186 332f 79       		.byte	0x79
 12187 3330 00       		.sleb128 0
 12188 3331 1A       		.byte	0x1a
ARM GAS  C:\Users\bogur\AppData\Local\Temp\cc4rWh5U.s 			page 220


 12189 3332 73       		.byte	0x73
 12190 3333 00       		.sleb128 0
 12191 3334 7A       		.byte	0x7a
 12192 3335 00       		.sleb128 0
 12193 3336 1A       		.byte	0x1a
 12194 3337 27       		.byte	0x27
 12195 3338 79       		.byte	0x79
 12196 3339 00       		.sleb128 0
 12197 333a 32       		.byte	0x32
 12198 333b 14       		.byte	0x14
 12199 333c 14       		.byte	0x14
 12200 333d 1F       		.byte	0x1f
 12201 333e 23       		.byte	0x23
 12202 333f 20       		.uleb128 0x20
 12203 3340 24       		.byte	0x24
 12204 3341 17       		.byte	0x17
 12205 3342 25       		.byte	0x25
 12206 3343 21       		.byte	0x21
 12207 3344 79       		.byte	0x79
 12208 3345 00       		.sleb128 0
 12209 3346 3D       		.byte	0x3d
 12210 3347 14       		.byte	0x14
 12211 3348 14       		.byte	0x14
 12212 3349 1F       		.byte	0x1f
 12213 334a 23       		.byte	0x23
 12214 334b 20       		.uleb128 0x20
 12215 334c 24       		.byte	0x24
 12216 334d 17       		.byte	0x17
 12217 334e 25       		.byte	0x25
 12218 334f 21       		.byte	0x21
 12219 3350 27       		.byte	0x27
 12220 3351 79       		.byte	0x79
 12221 3352 00       		.sleb128 0
 12222 3353 46       		.byte	0x46
 12223 3354 14       		.byte	0x14
 12224 3355 14       		.byte	0x14
 12225 3356 1F       		.byte	0x1f
 12226 3357 23       		.byte	0x23
 12227 3358 20       		.uleb128 0x20
 12228 3359 24       		.byte	0x24
 12229 335a 17       		.byte	0x17
 12230 335b 25       		.byte	0x25
 12231 335c 21       		.byte	0x21
 12232 335d 27       		.byte	0x27
 12233 335e 22       		.byte	0x22
 12234 335f 9F       		.byte	0x9f
 12235 3360 44130000 		.4byte	.LVL461
 12236 3364 4A130000 		.4byte	.LVL463
 12237 3368 0100     		.2byte	0x1
 12238 336a 54       		.byte	0x54
 12239 336b 4A130000 		.4byte	.LVL463
 12240 336f 4E130000 		.4byte	.LVL464
 12241 3373 3300     		.2byte	0x33
 12242 3375 7A       		.byte	0x7a
 12243 3376 00       		.sleb128 0
 12244 3377 79       		.byte	0x79
 12245 3378 00       		.sleb128 0
ARM GAS  C:\Users\bogur\AppData\Local\Temp\cc4rWh5U.s 			page 221


 12246 3379 27       		.byte	0x27
 12247 337a 78       		.byte	0x78
 12248 337b 00       		.sleb128 0
 12249 337c 1A       		.byte	0x1a
 12250 337d 70       		.byte	0x70
 12251 337e 00       		.sleb128 0
 12252 337f 27       		.byte	0x27
 12253 3380 78       		.byte	0x78
 12254 3381 00       		.sleb128 0
 12255 3382 32       		.byte	0x32
 12256 3383 14       		.byte	0x14
 12257 3384 14       		.byte	0x14
 12258 3385 1F       		.byte	0x1f
 12259 3386 23       		.byte	0x23
 12260 3387 20       		.uleb128 0x20
 12261 3388 24       		.byte	0x24
 12262 3389 17       		.byte	0x17
 12263 338a 25       		.byte	0x25
 12264 338b 21       		.byte	0x21
 12265 338c 78       		.byte	0x78
 12266 338d 00       		.sleb128 0
 12267 338e 3D       		.byte	0x3d
 12268 338f 14       		.byte	0x14
 12269 3390 14       		.byte	0x14
 12270 3391 1F       		.byte	0x1f
 12271 3392 23       		.byte	0x23
 12272 3393 20       		.uleb128 0x20
 12273 3394 24       		.byte	0x24
 12274 3395 17       		.byte	0x17
 12275 3396 25       		.byte	0x25
 12276 3397 21       		.byte	0x21
 12277 3398 27       		.byte	0x27
 12278 3399 78       		.byte	0x78
 12279 339a 00       		.sleb128 0
 12280 339b 46       		.byte	0x46
 12281 339c 14       		.byte	0x14
 12282 339d 14       		.byte	0x14
 12283 339e 1F       		.byte	0x1f
 12284 339f 23       		.byte	0x23
 12285 33a0 20       		.uleb128 0x20
 12286 33a1 24       		.byte	0x24
 12287 33a2 17       		.byte	0x17
 12288 33a3 25       		.byte	0x25
 12289 33a4 21       		.byte	0x21
 12290 33a5 27       		.byte	0x27
 12291 33a6 22       		.byte	0x22
 12292 33a7 9F       		.byte	0x9f
 12293 33a8 4E130000 		.4byte	.LVL464
 12294 33ac 84130000 		.4byte	.LVL467
 12295 33b0 3600     		.2byte	0x36
 12296 33b2 7A       		.byte	0x7a
 12297 33b3 00       		.sleb128 0
 12298 33b4 79       		.byte	0x79
 12299 33b5 00       		.sleb128 0
 12300 33b6 27       		.byte	0x27
 12301 33b7 78       		.byte	0x78
 12302 33b8 00       		.sleb128 0
ARM GAS  C:\Users\bogur\AppData\Local\Temp\cc4rWh5U.s 			page 222


 12303 33b9 1A       		.byte	0x1a
 12304 33ba 7A       		.byte	0x7a
 12305 33bb 00       		.sleb128 0
 12306 33bc 79       		.byte	0x79
 12307 33bd 00       		.sleb128 0
 12308 33be 1A       		.byte	0x1a
 12309 33bf 27       		.byte	0x27
 12310 33c0 78       		.byte	0x78
 12311 33c1 00       		.sleb128 0
 12312 33c2 32       		.byte	0x32
 12313 33c3 14       		.byte	0x14
 12314 33c4 14       		.byte	0x14
 12315 33c5 1F       		.byte	0x1f
 12316 33c6 23       		.byte	0x23
 12317 33c7 20       		.uleb128 0x20
 12318 33c8 24       		.byte	0x24
 12319 33c9 17       		.byte	0x17
 12320 33ca 25       		.byte	0x25
 12321 33cb 21       		.byte	0x21
 12322 33cc 78       		.byte	0x78
 12323 33cd 00       		.sleb128 0
 12324 33ce 3D       		.byte	0x3d
 12325 33cf 14       		.byte	0x14
 12326 33d0 14       		.byte	0x14
 12327 33d1 1F       		.byte	0x1f
 12328 33d2 23       		.byte	0x23
 12329 33d3 20       		.uleb128 0x20
 12330 33d4 24       		.byte	0x24
 12331 33d5 17       		.byte	0x17
 12332 33d6 25       		.byte	0x25
 12333 33d7 21       		.byte	0x21
 12334 33d8 27       		.byte	0x27
 12335 33d9 78       		.byte	0x78
 12336 33da 00       		.sleb128 0
 12337 33db 46       		.byte	0x46
 12338 33dc 14       		.byte	0x14
 12339 33dd 14       		.byte	0x14
 12340 33de 1F       		.byte	0x1f
 12341 33df 23       		.byte	0x23
 12342 33e0 20       		.uleb128 0x20
 12343 33e1 24       		.byte	0x24
 12344 33e2 17       		.byte	0x17
 12345 33e3 25       		.byte	0x25
 12346 33e4 21       		.byte	0x21
 12347 33e5 27       		.byte	0x27
 12348 33e6 22       		.byte	0x22
 12349 33e7 9F       		.byte	0x9f
 12350 33e8 84130000 		.4byte	.LVL467
 12351 33ec 9C130000 		.4byte	.LVL471
 12352 33f0 0100     		.2byte	0x1
 12353 33f2 56       		.byte	0x56
 12354 33f3 9C130000 		.4byte	.LVL471
 12355 33f7 CC130000 		.4byte	.LVL474
 12356 33fb 3600     		.2byte	0x36
 12357 33fd 74       		.byte	0x74
 12358 33fe 00       		.sleb128 0
 12359 33ff 32       		.byte	0x32
ARM GAS  C:\Users\bogur\AppData\Local\Temp\cc4rWh5U.s 			page 223


 12360 3400 14       		.byte	0x14
 12361 3401 14       		.byte	0x14
 12362 3402 1F       		.byte	0x1f
 12363 3403 23       		.byte	0x23
 12364 3404 20       		.uleb128 0x20
 12365 3405 24       		.byte	0x24
 12366 3406 17       		.byte	0x17
 12367 3407 25       		.byte	0x25
 12368 3408 21       		.byte	0x21
 12369 3409 74       		.byte	0x74
 12370 340a 00       		.sleb128 0
 12371 340b 3D       		.byte	0x3d
 12372 340c 14       		.byte	0x14
 12373 340d 14       		.byte	0x14
 12374 340e 1F       		.byte	0x1f
 12375 340f 23       		.byte	0x23
 12376 3410 20       		.uleb128 0x20
 12377 3411 24       		.byte	0x24
 12378 3412 17       		.byte	0x17
 12379 3413 25       		.byte	0x25
 12380 3414 21       		.byte	0x21
 12381 3415 27       		.byte	0x27
 12382 3416 74       		.byte	0x74
 12383 3417 00       		.sleb128 0
 12384 3418 46       		.byte	0x46
 12385 3419 14       		.byte	0x14
 12386 341a 14       		.byte	0x14
 12387 341b 1F       		.byte	0x1f
 12388 341c 23       		.byte	0x23
 12389 341d 20       		.uleb128 0x20
 12390 341e 24       		.byte	0x24
 12391 341f 17       		.byte	0x17
 12392 3420 25       		.byte	0x25
 12393 3421 21       		.byte	0x21
 12394 3422 27       		.byte	0x27
 12395 3423 79       		.byte	0x79
 12396 3424 00       		.sleb128 0
 12397 3425 78       		.byte	0x78
 12398 3426 00       		.sleb128 0
 12399 3427 1A       		.byte	0x1a
 12400 3428 79       		.byte	0x79
 12401 3429 00       		.sleb128 0
 12402 342a 78       		.byte	0x78
 12403 342b 00       		.sleb128 0
 12404 342c 27       		.byte	0x27
 12405 342d 74       		.byte	0x74
 12406 342e 00       		.sleb128 0
 12407 342f 1A       		.byte	0x1a
 12408 3430 27       		.byte	0x27
 12409 3431 22       		.byte	0x22
 12410 3432 9F       		.byte	0x9f
 12411 3433 CC130000 		.4byte	.LVL474
 12412 3437 D6130000 		.4byte	.LVL477
 12413 343b 0100     		.2byte	0x1
 12414 343d 55       		.byte	0x55
 12415 343e D6130000 		.4byte	.LVL477
 12416 3442 E4130000 		.4byte	.LVL479
ARM GAS  C:\Users\bogur\AppData\Local\Temp\cc4rWh5U.s 			page 224


 12417 3446 3000     		.2byte	0x30
 12418 3448 78       		.byte	0x78
 12419 3449 00       		.sleb128 0
 12420 344a 74       		.byte	0x74
 12421 344b 00       		.sleb128 0
 12422 344c 1A       		.byte	0x1a
 12423 344d 7E       		.byte	0x7e
 12424 344e 00       		.sleb128 0
 12425 344f 27       		.byte	0x27
 12426 3450 70       		.byte	0x70
 12427 3451 00       		.sleb128 0
 12428 3452 32       		.byte	0x32
 12429 3453 14       		.byte	0x14
 12430 3454 14       		.byte	0x14
 12431 3455 1F       		.byte	0x1f
 12432 3456 23       		.byte	0x23
 12433 3457 20       		.uleb128 0x20
 12434 3458 24       		.byte	0x24
 12435 3459 17       		.byte	0x17
 12436 345a 25       		.byte	0x25
 12437 345b 21       		.byte	0x21
 12438 345c 70       		.byte	0x70
 12439 345d 00       		.sleb128 0
 12440 345e 3D       		.byte	0x3d
 12441 345f 14       		.byte	0x14
 12442 3460 14       		.byte	0x14
 12443 3461 1F       		.byte	0x1f
 12444 3462 23       		.byte	0x23
 12445 3463 20       		.uleb128 0x20
 12446 3464 24       		.byte	0x24
 12447 3465 17       		.byte	0x17
 12448 3466 25       		.byte	0x25
 12449 3467 21       		.byte	0x21
 12450 3468 27       		.byte	0x27
 12451 3469 70       		.byte	0x70
 12452 346a 00       		.sleb128 0
 12453 346b 46       		.byte	0x46
 12454 346c 14       		.byte	0x14
 12455 346d 14       		.byte	0x14
 12456 346e 1F       		.byte	0x1f
 12457 346f 23       		.byte	0x23
 12458 3470 20       		.uleb128 0x20
 12459 3471 24       		.byte	0x24
 12460 3472 17       		.byte	0x17
 12461 3473 25       		.byte	0x25
 12462 3474 21       		.byte	0x21
 12463 3475 27       		.byte	0x27
 12464 3476 22       		.byte	0x22
 12465 3477 9F       		.byte	0x9f
 12466 3478 E4130000 		.4byte	.LVL479
 12467 347c 5A140000 		.4byte	.LVL481
 12468 3480 3600     		.2byte	0x36
 12469 3482 78       		.byte	0x78
 12470 3483 00       		.sleb128 0
 12471 3484 74       		.byte	0x74
 12472 3485 00       		.sleb128 0
 12473 3486 27       		.byte	0x27
ARM GAS  C:\Users\bogur\AppData\Local\Temp\cc4rWh5U.s 			page 225


 12474 3487 70       		.byte	0x70
 12475 3488 00       		.sleb128 0
 12476 3489 1A       		.byte	0x1a
 12477 348a 78       		.byte	0x78
 12478 348b 00       		.sleb128 0
 12479 348c 74       		.byte	0x74
 12480 348d 00       		.sleb128 0
 12481 348e 1A       		.byte	0x1a
 12482 348f 27       		.byte	0x27
 12483 3490 70       		.byte	0x70
 12484 3491 00       		.sleb128 0
 12485 3492 32       		.byte	0x32
 12486 3493 14       		.byte	0x14
 12487 3494 14       		.byte	0x14
 12488 3495 1F       		.byte	0x1f
 12489 3496 23       		.byte	0x23
 12490 3497 20       		.uleb128 0x20
 12491 3498 24       		.byte	0x24
 12492 3499 17       		.byte	0x17
 12493 349a 25       		.byte	0x25
 12494 349b 21       		.byte	0x21
 12495 349c 70       		.byte	0x70
 12496 349d 00       		.sleb128 0
 12497 349e 3D       		.byte	0x3d
 12498 349f 14       		.byte	0x14
 12499 34a0 14       		.byte	0x14
 12500 34a1 1F       		.byte	0x1f
 12501 34a2 23       		.byte	0x23
 12502 34a3 20       		.uleb128 0x20
 12503 34a4 24       		.byte	0x24
 12504 34a5 17       		.byte	0x17
 12505 34a6 25       		.byte	0x25
 12506 34a7 21       		.byte	0x21
 12507 34a8 27       		.byte	0x27
 12508 34a9 70       		.byte	0x70
 12509 34aa 00       		.sleb128 0
 12510 34ab 46       		.byte	0x46
 12511 34ac 14       		.byte	0x14
 12512 34ad 14       		.byte	0x14
 12513 34ae 1F       		.byte	0x1f
 12514 34af 23       		.byte	0x23
 12515 34b0 20       		.uleb128 0x20
 12516 34b1 24       		.byte	0x24
 12517 34b2 17       		.byte	0x17
 12518 34b3 25       		.byte	0x25
 12519 34b4 21       		.byte	0x21
 12520 34b5 27       		.byte	0x27
 12521 34b6 22       		.byte	0x22
 12522 34b7 9F       		.byte	0x9f
 12523 34b8 5A140000 		.4byte	.LVL481
 12524 34bc 62140000 		.4byte	.LVL484
 12525 34c0 0100     		.2byte	0x1
 12526 34c2 5E       		.byte	0x5e
 12527 34c3 62140000 		.4byte	.LVL484
 12528 34c7 66140000 		.4byte	.LVL485
 12529 34cb 3000     		.2byte	0x30
 12530 34cd 71       		.byte	0x71
ARM GAS  C:\Users\bogur\AppData\Local\Temp\cc4rWh5U.s 			page 226


 12531 34ce 00       		.sleb128 0
 12532 34cf 32       		.byte	0x32
 12533 34d0 14       		.byte	0x14
 12534 34d1 14       		.byte	0x14
 12535 34d2 1F       		.byte	0x1f
 12536 34d3 23       		.byte	0x23
 12537 34d4 20       		.uleb128 0x20
 12538 34d5 24       		.byte	0x24
 12539 34d6 17       		.byte	0x17
 12540 34d7 25       		.byte	0x25
 12541 34d8 21       		.byte	0x21
 12542 34d9 71       		.byte	0x71
 12543 34da 00       		.sleb128 0
 12544 34db 3D       		.byte	0x3d
 12545 34dc 14       		.byte	0x14
 12546 34dd 14       		.byte	0x14
 12547 34de 1F       		.byte	0x1f
 12548 34df 23       		.byte	0x23
 12549 34e0 20       		.uleb128 0x20
 12550 34e1 24       		.byte	0x24
 12551 34e2 17       		.byte	0x17
 12552 34e3 25       		.byte	0x25
 12553 34e4 21       		.byte	0x21
 12554 34e5 27       		.byte	0x27
 12555 34e6 71       		.byte	0x71
 12556 34e7 00       		.sleb128 0
 12557 34e8 46       		.byte	0x46
 12558 34e9 14       		.byte	0x14
 12559 34ea 14       		.byte	0x14
 12560 34eb 1F       		.byte	0x1f
 12561 34ec 23       		.byte	0x23
 12562 34ed 20       		.uleb128 0x20
 12563 34ee 24       		.byte	0x24
 12564 34ef 17       		.byte	0x17
 12565 34f0 25       		.byte	0x25
 12566 34f1 21       		.byte	0x21
 12567 34f2 27       		.byte	0x27
 12568 34f3 74       		.byte	0x74
 12569 34f4 00       		.sleb128 0
 12570 34f5 70       		.byte	0x70
 12571 34f6 00       		.sleb128 0
 12572 34f7 1A       		.byte	0x1a
 12573 34f8 7C       		.byte	0x7c
 12574 34f9 00       		.sleb128 0
 12575 34fa 27       		.byte	0x27
 12576 34fb 22       		.byte	0x22
 12577 34fc 9F       		.byte	0x9f
 12578 34fd 66140000 		.4byte	.LVL485
 12579 3501 44170000 		.4byte	.LVL516
 12580 3505 3600     		.2byte	0x36
 12581 3507 71       		.byte	0x71
 12582 3508 00       		.sleb128 0
 12583 3509 32       		.byte	0x32
 12584 350a 14       		.byte	0x14
 12585 350b 14       		.byte	0x14
 12586 350c 1F       		.byte	0x1f
 12587 350d 23       		.byte	0x23
ARM GAS  C:\Users\bogur\AppData\Local\Temp\cc4rWh5U.s 			page 227


 12588 350e 20       		.uleb128 0x20
 12589 350f 24       		.byte	0x24
 12590 3510 17       		.byte	0x17
 12591 3511 25       		.byte	0x25
 12592 3512 21       		.byte	0x21
 12593 3513 71       		.byte	0x71
 12594 3514 00       		.sleb128 0
 12595 3515 3D       		.byte	0x3d
 12596 3516 14       		.byte	0x14
 12597 3517 14       		.byte	0x14
 12598 3518 1F       		.byte	0x1f
 12599 3519 23       		.byte	0x23
 12600 351a 20       		.uleb128 0x20
 12601 351b 24       		.byte	0x24
 12602 351c 17       		.byte	0x17
 12603 351d 25       		.byte	0x25
 12604 351e 21       		.byte	0x21
 12605 351f 27       		.byte	0x27
 12606 3520 71       		.byte	0x71
 12607 3521 00       		.sleb128 0
 12608 3522 46       		.byte	0x46
 12609 3523 14       		.byte	0x14
 12610 3524 14       		.byte	0x14
 12611 3525 1F       		.byte	0x1f
 12612 3526 23       		.byte	0x23
 12613 3527 20       		.uleb128 0x20
 12614 3528 24       		.byte	0x24
 12615 3529 17       		.byte	0x17
 12616 352a 25       		.byte	0x25
 12617 352b 21       		.byte	0x21
 12618 352c 27       		.byte	0x27
 12619 352d 74       		.byte	0x74
 12620 352e 00       		.sleb128 0
 12621 352f 70       		.byte	0x70
 12622 3530 00       		.sleb128 0
 12623 3531 27       		.byte	0x27
 12624 3532 71       		.byte	0x71
 12625 3533 00       		.sleb128 0
 12626 3534 1A       		.byte	0x1a
 12627 3535 74       		.byte	0x74
 12628 3536 00       		.sleb128 0
 12629 3537 70       		.byte	0x70
 12630 3538 00       		.sleb128 0
 12631 3539 1A       		.byte	0x1a
 12632 353a 27       		.byte	0x27
 12633 353b 22       		.byte	0x22
 12634 353c 9F       		.byte	0x9f
 12635 353d 44170000 		.4byte	.LVL516
 12636 3541 5A170000 		.4byte	.LVL520
 12637 3545 0100     		.2byte	0x1
 12638 3547 5E       		.byte	0x5e
 12639 3548 5A170000 		.4byte	.LVL520
 12640 354c 8A170000 		.4byte	.LVL523
 12641 3550 3000     		.2byte	0x30
 12642 3552 72       		.byte	0x72
 12643 3553 00       		.sleb128 0
 12644 3554 32       		.byte	0x32
ARM GAS  C:\Users\bogur\AppData\Local\Temp\cc4rWh5U.s 			page 228


 12645 3555 14       		.byte	0x14
 12646 3556 14       		.byte	0x14
 12647 3557 1F       		.byte	0x1f
 12648 3558 23       		.byte	0x23
 12649 3559 20       		.uleb128 0x20
 12650 355a 24       		.byte	0x24
 12651 355b 17       		.byte	0x17
 12652 355c 25       		.byte	0x25
 12653 355d 21       		.byte	0x21
 12654 355e 72       		.byte	0x72
 12655 355f 00       		.sleb128 0
 12656 3560 3D       		.byte	0x3d
 12657 3561 14       		.byte	0x14
 12658 3562 14       		.byte	0x14
 12659 3563 1F       		.byte	0x1f
 12660 3564 23       		.byte	0x23
 12661 3565 20       		.uleb128 0x20
 12662 3566 24       		.byte	0x24
 12663 3567 17       		.byte	0x17
 12664 3568 25       		.byte	0x25
 12665 3569 21       		.byte	0x21
 12666 356a 27       		.byte	0x27
 12667 356b 72       		.byte	0x72
 12668 356c 00       		.sleb128 0
 12669 356d 46       		.byte	0x46
 12670 356e 14       		.byte	0x14
 12671 356f 14       		.byte	0x14
 12672 3570 1F       		.byte	0x1f
 12673 3571 23       		.byte	0x23
 12674 3572 20       		.uleb128 0x20
 12675 3573 24       		.byte	0x24
 12676 3574 17       		.byte	0x17
 12677 3575 25       		.byte	0x25
 12678 3576 21       		.byte	0x21
 12679 3577 27       		.byte	0x27
 12680 3578 70       		.byte	0x70
 12681 3579 00       		.sleb128 0
 12682 357a 71       		.byte	0x71
 12683 357b 00       		.sleb128 0
 12684 357c 1A       		.byte	0x1a
 12685 357d 7A       		.byte	0x7a
 12686 357e 00       		.sleb128 0
 12687 357f 27       		.byte	0x27
 12688 3580 22       		.byte	0x22
 12689 3581 9F       		.byte	0x9f
 12690 3582 8A170000 		.4byte	.LVL523
 12691 3586 92170000 		.4byte	.LVL526
 12692 358a 0100     		.2byte	0x1
 12693 358c 53       		.byte	0x53
 12694 358d 92170000 		.4byte	.LVL526
 12695 3591 A0170000 		.4byte	.LVL528
 12696 3595 2A00     		.2byte	0x2a
 12697 3597 7B       		.byte	0x7b
 12698 3598 00       		.sleb128 0
 12699 3599 32       		.byte	0x32
 12700 359a 14       		.byte	0x14
 12701 359b 14       		.byte	0x14
ARM GAS  C:\Users\bogur\AppData\Local\Temp\cc4rWh5U.s 			page 229


 12702 359c 1F       		.byte	0x1f
 12703 359d 23       		.byte	0x23
 12704 359e 20       		.uleb128 0x20
 12705 359f 24       		.byte	0x24
 12706 35a0 17       		.byte	0x17
 12707 35a1 25       		.byte	0x25
 12708 35a2 21       		.byte	0x21
 12709 35a3 7B       		.byte	0x7b
 12710 35a4 00       		.sleb128 0
 12711 35a5 3D       		.byte	0x3d
 12712 35a6 14       		.byte	0x14
 12713 35a7 14       		.byte	0x14
 12714 35a8 1F       		.byte	0x1f
 12715 35a9 23       		.byte	0x23
 12716 35aa 20       		.uleb128 0x20
 12717 35ab 24       		.byte	0x24
 12718 35ac 17       		.byte	0x17
 12719 35ad 25       		.byte	0x25
 12720 35ae 21       		.byte	0x21
 12721 35af 27       		.byte	0x27
 12722 35b0 7B       		.byte	0x7b
 12723 35b1 00       		.sleb128 0
 12724 35b2 46       		.byte	0x46
 12725 35b3 14       		.byte	0x14
 12726 35b4 14       		.byte	0x14
 12727 35b5 1F       		.byte	0x1f
 12728 35b6 23       		.byte	0x23
 12729 35b7 20       		.uleb128 0x20
 12730 35b8 24       		.byte	0x24
 12731 35b9 17       		.byte	0x17
 12732 35ba 25       		.byte	0x25
 12733 35bb 21       		.byte	0x21
 12734 35bc 27       		.byte	0x27
 12735 35bd 77       		.byte	0x77
 12736 35be 00       		.sleb128 0
 12737 35bf 22       		.byte	0x22
 12738 35c0 9F       		.byte	0x9f
 12739 35c1 A0170000 		.4byte	.LVL528
 12740 35c5 DC170000 		.4byte	.LVL531
 12741 35c9 3000     		.2byte	0x30
 12742 35cb 7B       		.byte	0x7b
 12743 35cc 00       		.sleb128 0
 12744 35cd 32       		.byte	0x32
 12745 35ce 14       		.byte	0x14
 12746 35cf 14       		.byte	0x14
 12747 35d0 1F       		.byte	0x1f
 12748 35d1 23       		.byte	0x23
 12749 35d2 20       		.uleb128 0x20
 12750 35d3 24       		.byte	0x24
 12751 35d4 17       		.byte	0x17
 12752 35d5 25       		.byte	0x25
 12753 35d6 21       		.byte	0x21
 12754 35d7 7B       		.byte	0x7b
 12755 35d8 00       		.sleb128 0
 12756 35d9 3D       		.byte	0x3d
 12757 35da 14       		.byte	0x14
 12758 35db 14       		.byte	0x14
ARM GAS  C:\Users\bogur\AppData\Local\Temp\cc4rWh5U.s 			page 230


 12759 35dc 1F       		.byte	0x1f
 12760 35dd 23       		.byte	0x23
 12761 35de 20       		.uleb128 0x20
 12762 35df 24       		.byte	0x24
 12763 35e0 17       		.byte	0x17
 12764 35e1 25       		.byte	0x25
 12765 35e2 21       		.byte	0x21
 12766 35e3 27       		.byte	0x27
 12767 35e4 7B       		.byte	0x7b
 12768 35e5 00       		.sleb128 0
 12769 35e6 46       		.byte	0x46
 12770 35e7 14       		.byte	0x14
 12771 35e8 14       		.byte	0x14
 12772 35e9 1F       		.byte	0x1f
 12773 35ea 23       		.byte	0x23
 12774 35eb 20       		.uleb128 0x20
 12775 35ec 24       		.byte	0x24
 12776 35ed 17       		.byte	0x17
 12777 35ee 25       		.byte	0x25
 12778 35ef 21       		.byte	0x21
 12779 35f0 27       		.byte	0x27
 12780 35f1 71       		.byte	0x71
 12781 35f2 00       		.sleb128 0
 12782 35f3 72       		.byte	0x72
 12783 35f4 00       		.sleb128 0
 12784 35f5 1A       		.byte	0x1a
 12785 35f6 79       		.byte	0x79
 12786 35f7 00       		.sleb128 0
 12787 35f8 27       		.byte	0x27
 12788 35f9 22       		.byte	0x22
 12789 35fa 9F       		.byte	0x9f
 12790 35fb DC170000 		.4byte	.LVL531
 12791 35ff E4170000 		.4byte	.LVL534
 12792 3603 0100     		.2byte	0x1
 12793 3605 53       		.byte	0x53
 12794 3606 E4170000 		.4byte	.LVL534
 12795 360a F2170000 		.4byte	.LVL536
 12796 360e 2A00     		.2byte	0x2a
 12797 3610 7E       		.byte	0x7e
 12798 3611 00       		.sleb128 0
 12799 3612 32       		.byte	0x32
 12800 3613 14       		.byte	0x14
 12801 3614 14       		.byte	0x14
 12802 3615 1F       		.byte	0x1f
 12803 3616 23       		.byte	0x23
 12804 3617 20       		.uleb128 0x20
 12805 3618 24       		.byte	0x24
 12806 3619 17       		.byte	0x17
 12807 361a 25       		.byte	0x25
 12808 361b 21       		.byte	0x21
 12809 361c 7E       		.byte	0x7e
 12810 361d 00       		.sleb128 0
 12811 361e 3D       		.byte	0x3d
 12812 361f 14       		.byte	0x14
 12813 3620 14       		.byte	0x14
 12814 3621 1F       		.byte	0x1f
 12815 3622 23       		.byte	0x23
ARM GAS  C:\Users\bogur\AppData\Local\Temp\cc4rWh5U.s 			page 231


 12816 3623 20       		.uleb128 0x20
 12817 3624 24       		.byte	0x24
 12818 3625 17       		.byte	0x17
 12819 3626 25       		.byte	0x25
 12820 3627 21       		.byte	0x21
 12821 3628 27       		.byte	0x27
 12822 3629 7E       		.byte	0x7e
 12823 362a 00       		.sleb128 0
 12824 362b 46       		.byte	0x46
 12825 362c 14       		.byte	0x14
 12826 362d 14       		.byte	0x14
 12827 362e 1F       		.byte	0x1f
 12828 362f 23       		.byte	0x23
 12829 3630 20       		.uleb128 0x20
 12830 3631 24       		.byte	0x24
 12831 3632 17       		.byte	0x17
 12832 3633 25       		.byte	0x25
 12833 3634 21       		.byte	0x21
 12834 3635 27       		.byte	0x27
 12835 3636 76       		.byte	0x76
 12836 3637 00       		.sleb128 0
 12837 3638 22       		.byte	0x22
 12838 3639 9F       		.byte	0x9f
 12839 363a F2170000 		.4byte	.LVL536
 12840 363e 1E180000 		.4byte	.LVL539
 12841 3642 3000     		.2byte	0x30
 12842 3644 7E       		.byte	0x7e
 12843 3645 00       		.sleb128 0
 12844 3646 32       		.byte	0x32
 12845 3647 14       		.byte	0x14
 12846 3648 14       		.byte	0x14
 12847 3649 1F       		.byte	0x1f
 12848 364a 23       		.byte	0x23
 12849 364b 20       		.uleb128 0x20
 12850 364c 24       		.byte	0x24
 12851 364d 17       		.byte	0x17
 12852 364e 25       		.byte	0x25
 12853 364f 21       		.byte	0x21
 12854 3650 7E       		.byte	0x7e
 12855 3651 00       		.sleb128 0
 12856 3652 3D       		.byte	0x3d
 12857 3653 14       		.byte	0x14
 12858 3654 14       		.byte	0x14
 12859 3655 1F       		.byte	0x1f
 12860 3656 23       		.byte	0x23
 12861 3657 20       		.uleb128 0x20
 12862 3658 24       		.byte	0x24
 12863 3659 17       		.byte	0x17
 12864 365a 25       		.byte	0x25
 12865 365b 21       		.byte	0x21
 12866 365c 27       		.byte	0x27
 12867 365d 7E       		.byte	0x7e
 12868 365e 00       		.sleb128 0
 12869 365f 46       		.byte	0x46
 12870 3660 14       		.byte	0x14
 12871 3661 14       		.byte	0x14
 12872 3662 1F       		.byte	0x1f
ARM GAS  C:\Users\bogur\AppData\Local\Temp\cc4rWh5U.s 			page 232


 12873 3663 23       		.byte	0x23
 12874 3664 20       		.uleb128 0x20
 12875 3665 24       		.byte	0x24
 12876 3666 17       		.byte	0x17
 12877 3667 25       		.byte	0x25
 12878 3668 21       		.byte	0x21
 12879 3669 27       		.byte	0x27
 12880 366a 72       		.byte	0x72
 12881 366b 00       		.sleb128 0
 12882 366c 7B       		.byte	0x7b
 12883 366d 00       		.sleb128 0
 12884 366e 1A       		.byte	0x1a
 12885 366f 78       		.byte	0x78
 12886 3670 00       		.sleb128 0
 12887 3671 27       		.byte	0x27
 12888 3672 22       		.byte	0x22
 12889 3673 9F       		.byte	0x9f
 12890 3674 1E180000 		.4byte	.LVL539
 12891 3678 26180000 		.4byte	.LVL542
 12892 367c 0100     		.2byte	0x1
 12893 367e 53       		.byte	0x53
 12894 367f 26180000 		.4byte	.LVL542
 12895 3683 34180000 		.4byte	.LVL544
 12896 3687 2A00     		.2byte	0x2a
 12897 3689 77       		.byte	0x77
 12898 368a 00       		.sleb128 0
 12899 368b 32       		.byte	0x32
 12900 368c 14       		.byte	0x14
 12901 368d 14       		.byte	0x14
 12902 368e 1F       		.byte	0x1f
 12903 368f 23       		.byte	0x23
 12904 3690 20       		.uleb128 0x20
 12905 3691 24       		.byte	0x24
 12906 3692 17       		.byte	0x17
 12907 3693 25       		.byte	0x25
 12908 3694 21       		.byte	0x21
 12909 3695 77       		.byte	0x77
 12910 3696 00       		.sleb128 0
 12911 3697 3D       		.byte	0x3d
 12912 3698 14       		.byte	0x14
 12913 3699 14       		.byte	0x14
 12914 369a 1F       		.byte	0x1f
 12915 369b 23       		.byte	0x23
 12916 369c 20       		.uleb128 0x20
 12917 369d 24       		.byte	0x24
 12918 369e 17       		.byte	0x17
 12919 369f 25       		.byte	0x25
 12920 36a0 21       		.byte	0x21
 12921 36a1 27       		.byte	0x27
 12922 36a2 77       		.byte	0x77
 12923 36a3 00       		.sleb128 0
 12924 36a4 46       		.byte	0x46
 12925 36a5 14       		.byte	0x14
 12926 36a6 14       		.byte	0x14
 12927 36a7 1F       		.byte	0x1f
 12928 36a8 23       		.byte	0x23
 12929 36a9 20       		.uleb128 0x20
ARM GAS  C:\Users\bogur\AppData\Local\Temp\cc4rWh5U.s 			page 233


 12930 36aa 24       		.byte	0x24
 12931 36ab 17       		.byte	0x17
 12932 36ac 25       		.byte	0x25
 12933 36ad 21       		.byte	0x21
 12934 36ae 27       		.byte	0x27
 12935 36af 75       		.byte	0x75
 12936 36b0 00       		.sleb128 0
 12937 36b1 22       		.byte	0x22
 12938 36b2 9F       		.byte	0x9f
 12939 36b3 34180000 		.4byte	.LVL544
 12940 36b7 54180000 		.4byte	.LVL546
 12941 36bb 3000     		.2byte	0x30
 12942 36bd 77       		.byte	0x77
 12943 36be 00       		.sleb128 0
 12944 36bf 32       		.byte	0x32
 12945 36c0 14       		.byte	0x14
 12946 36c1 14       		.byte	0x14
 12947 36c2 1F       		.byte	0x1f
 12948 36c3 23       		.byte	0x23
 12949 36c4 20       		.uleb128 0x20
 12950 36c5 24       		.byte	0x24
 12951 36c6 17       		.byte	0x17
 12952 36c7 25       		.byte	0x25
 12953 36c8 21       		.byte	0x21
 12954 36c9 77       		.byte	0x77
 12955 36ca 00       		.sleb128 0
 12956 36cb 3D       		.byte	0x3d
 12957 36cc 14       		.byte	0x14
 12958 36cd 14       		.byte	0x14
 12959 36ce 1F       		.byte	0x1f
 12960 36cf 23       		.byte	0x23
 12961 36d0 20       		.uleb128 0x20
 12962 36d1 24       		.byte	0x24
 12963 36d2 17       		.byte	0x17
 12964 36d3 25       		.byte	0x25
 12965 36d4 21       		.byte	0x21
 12966 36d5 27       		.byte	0x27
 12967 36d6 77       		.byte	0x77
 12968 36d7 00       		.sleb128 0
 12969 36d8 46       		.byte	0x46
 12970 36d9 14       		.byte	0x14
 12971 36da 14       		.byte	0x14
 12972 36db 1F       		.byte	0x1f
 12973 36dc 23       		.byte	0x23
 12974 36dd 20       		.uleb128 0x20
 12975 36de 24       		.byte	0x24
 12976 36df 17       		.byte	0x17
 12977 36e0 25       		.byte	0x25
 12978 36e1 21       		.byte	0x21
 12979 36e2 27       		.byte	0x27
 12980 36e3 7B       		.byte	0x7b
 12981 36e4 00       		.sleb128 0
 12982 36e5 7E       		.byte	0x7e
 12983 36e6 00       		.sleb128 0
 12984 36e7 1A       		.byte	0x1a
 12985 36e8 7C       		.byte	0x7c
 12986 36e9 00       		.sleb128 0
ARM GAS  C:\Users\bogur\AppData\Local\Temp\cc4rWh5U.s 			page 234


 12987 36ea 27       		.byte	0x27
 12988 36eb 22       		.byte	0x22
 12989 36ec 9F       		.byte	0x9f
 12990 36ed 54180000 		.4byte	.LVL546
 12991 36f1 62180000 		.4byte	.LVL547
 12992 36f5 3600     		.2byte	0x36
 12993 36f7 77       		.byte	0x77
 12994 36f8 00       		.sleb128 0
 12995 36f9 32       		.byte	0x32
 12996 36fa 14       		.byte	0x14
 12997 36fb 14       		.byte	0x14
 12998 36fc 1F       		.byte	0x1f
 12999 36fd 23       		.byte	0x23
 13000 36fe 20       		.uleb128 0x20
 13001 36ff 24       		.byte	0x24
 13002 3700 17       		.byte	0x17
 13003 3701 25       		.byte	0x25
 13004 3702 21       		.byte	0x21
 13005 3703 77       		.byte	0x77
 13006 3704 00       		.sleb128 0
 13007 3705 3D       		.byte	0x3d
 13008 3706 14       		.byte	0x14
 13009 3707 14       		.byte	0x14
 13010 3708 1F       		.byte	0x1f
 13011 3709 23       		.byte	0x23
 13012 370a 20       		.uleb128 0x20
 13013 370b 24       		.byte	0x24
 13014 370c 17       		.byte	0x17
 13015 370d 25       		.byte	0x25
 13016 370e 21       		.byte	0x21
 13017 370f 27       		.byte	0x27
 13018 3710 77       		.byte	0x77
 13019 3711 00       		.sleb128 0
 13020 3712 46       		.byte	0x46
 13021 3713 14       		.byte	0x14
 13022 3714 14       		.byte	0x14
 13023 3715 1F       		.byte	0x1f
 13024 3716 23       		.byte	0x23
 13025 3717 20       		.uleb128 0x20
 13026 3718 24       		.byte	0x24
 13027 3719 17       		.byte	0x17
 13028 371a 25       		.byte	0x25
 13029 371b 21       		.byte	0x21
 13030 371c 27       		.byte	0x27
 13031 371d 7B       		.byte	0x7b
 13032 371e 00       		.sleb128 0
 13033 371f 7E       		.byte	0x7e
 13034 3720 00       		.sleb128 0
 13035 3721 27       		.byte	0x27
 13036 3722 77       		.byte	0x77
 13037 3723 00       		.sleb128 0
 13038 3724 1A       		.byte	0x1a
 13039 3725 7B       		.byte	0x7b
 13040 3726 00       		.sleb128 0
 13041 3727 7E       		.byte	0x7e
 13042 3728 00       		.sleb128 0
 13043 3729 1A       		.byte	0x1a
ARM GAS  C:\Users\bogur\AppData\Local\Temp\cc4rWh5U.s 			page 235


 13044 372a 27       		.byte	0x27
 13045 372b 22       		.byte	0x22
 13046 372c 9F       		.byte	0x9f
 13047 372d 62180000 		.4byte	.LVL547
 13048 3731 6A180000 		.4byte	.LVL550
 13049 3735 0100     		.2byte	0x1
 13050 3737 53       		.byte	0x53
 13051 3738 6A180000 		.4byte	.LVL550
 13052 373c 78180000 		.4byte	.LVL552
 13053 3740 2A00     		.2byte	0x2a
 13054 3742 76       		.byte	0x76
 13055 3743 00       		.sleb128 0
 13056 3744 32       		.byte	0x32
 13057 3745 14       		.byte	0x14
 13058 3746 14       		.byte	0x14
 13059 3747 1F       		.byte	0x1f
 13060 3748 23       		.byte	0x23
 13061 3749 20       		.uleb128 0x20
 13062 374a 24       		.byte	0x24
 13063 374b 17       		.byte	0x17
 13064 374c 25       		.byte	0x25
 13065 374d 21       		.byte	0x21
 13066 374e 76       		.byte	0x76
 13067 374f 00       		.sleb128 0
 13068 3750 3D       		.byte	0x3d
 13069 3751 14       		.byte	0x14
 13070 3752 14       		.byte	0x14
 13071 3753 1F       		.byte	0x1f
 13072 3754 23       		.byte	0x23
 13073 3755 20       		.uleb128 0x20
 13074 3756 24       		.byte	0x24
 13075 3757 17       		.byte	0x17
 13076 3758 25       		.byte	0x25
 13077 3759 21       		.byte	0x21
 13078 375a 27       		.byte	0x27
 13079 375b 76       		.byte	0x76
 13080 375c 00       		.sleb128 0
 13081 375d 46       		.byte	0x46
 13082 375e 14       		.byte	0x14
 13083 375f 14       		.byte	0x14
 13084 3760 1F       		.byte	0x1f
 13085 3761 23       		.byte	0x23
 13086 3762 20       		.uleb128 0x20
 13087 3763 24       		.byte	0x24
 13088 3764 17       		.byte	0x17
 13089 3765 25       		.byte	0x25
 13090 3766 21       		.byte	0x21
 13091 3767 27       		.byte	0x27
 13092 3768 74       		.byte	0x74
 13093 3769 00       		.sleb128 0
 13094 376a 22       		.byte	0x22
 13095 376b 9F       		.byte	0x9f
 13096 376c 78180000 		.4byte	.LVL552
 13097 3770 98180000 		.4byte	.LVL554
 13098 3774 3000     		.2byte	0x30
 13099 3776 76       		.byte	0x76
 13100 3777 00       		.sleb128 0
ARM GAS  C:\Users\bogur\AppData\Local\Temp\cc4rWh5U.s 			page 236


 13101 3778 32       		.byte	0x32
 13102 3779 14       		.byte	0x14
 13103 377a 14       		.byte	0x14
 13104 377b 1F       		.byte	0x1f
 13105 377c 23       		.byte	0x23
 13106 377d 20       		.uleb128 0x20
 13107 377e 24       		.byte	0x24
 13108 377f 17       		.byte	0x17
 13109 3780 25       		.byte	0x25
 13110 3781 21       		.byte	0x21
 13111 3782 76       		.byte	0x76
 13112 3783 00       		.sleb128 0
 13113 3784 3D       		.byte	0x3d
 13114 3785 14       		.byte	0x14
 13115 3786 14       		.byte	0x14
 13116 3787 1F       		.byte	0x1f
 13117 3788 23       		.byte	0x23
 13118 3789 20       		.uleb128 0x20
 13119 378a 24       		.byte	0x24
 13120 378b 17       		.byte	0x17
 13121 378c 25       		.byte	0x25
 13122 378d 21       		.byte	0x21
 13123 378e 27       		.byte	0x27
 13124 378f 76       		.byte	0x76
 13125 3790 00       		.sleb128 0
 13126 3791 46       		.byte	0x46
 13127 3792 14       		.byte	0x14
 13128 3793 14       		.byte	0x14
 13129 3794 1F       		.byte	0x1f
 13130 3795 23       		.byte	0x23
 13131 3796 20       		.uleb128 0x20
 13132 3797 24       		.byte	0x24
 13133 3798 17       		.byte	0x17
 13134 3799 25       		.byte	0x25
 13135 379a 21       		.byte	0x21
 13136 379b 27       		.byte	0x27
 13137 379c 7E       		.byte	0x7e
 13138 379d 00       		.sleb128 0
 13139 379e 77       		.byte	0x77
 13140 379f 00       		.sleb128 0
 13141 37a0 1A       		.byte	0x1a
 13142 37a1 7C       		.byte	0x7c
 13143 37a2 00       		.sleb128 0
 13144 37a3 27       		.byte	0x27
 13145 37a4 22       		.byte	0x22
 13146 37a5 9F       		.byte	0x9f
 13147 37a6 98180000 		.4byte	.LVL554
 13148 37aa A6180000 		.4byte	.LVL555
 13149 37ae 3600     		.2byte	0x36
 13150 37b0 76       		.byte	0x76
 13151 37b1 00       		.sleb128 0
 13152 37b2 32       		.byte	0x32
 13153 37b3 14       		.byte	0x14
 13154 37b4 14       		.byte	0x14
 13155 37b5 1F       		.byte	0x1f
 13156 37b6 23       		.byte	0x23
 13157 37b7 20       		.uleb128 0x20
ARM GAS  C:\Users\bogur\AppData\Local\Temp\cc4rWh5U.s 			page 237


 13158 37b8 24       		.byte	0x24
 13159 37b9 17       		.byte	0x17
 13160 37ba 25       		.byte	0x25
 13161 37bb 21       		.byte	0x21
 13162 37bc 76       		.byte	0x76
 13163 37bd 00       		.sleb128 0
 13164 37be 3D       		.byte	0x3d
 13165 37bf 14       		.byte	0x14
 13166 37c0 14       		.byte	0x14
 13167 37c1 1F       		.byte	0x1f
 13168 37c2 23       		.byte	0x23
 13169 37c3 20       		.uleb128 0x20
 13170 37c4 24       		.byte	0x24
 13171 37c5 17       		.byte	0x17
 13172 37c6 25       		.byte	0x25
 13173 37c7 21       		.byte	0x21
 13174 37c8 27       		.byte	0x27
 13175 37c9 76       		.byte	0x76
 13176 37ca 00       		.sleb128 0
 13177 37cb 46       		.byte	0x46
 13178 37cc 14       		.byte	0x14
 13179 37cd 14       		.byte	0x14
 13180 37ce 1F       		.byte	0x1f
 13181 37cf 23       		.byte	0x23
 13182 37d0 20       		.uleb128 0x20
 13183 37d1 24       		.byte	0x24
 13184 37d2 17       		.byte	0x17
 13185 37d3 25       		.byte	0x25
 13186 37d4 21       		.byte	0x21
 13187 37d5 27       		.byte	0x27
 13188 37d6 7E       		.byte	0x7e
 13189 37d7 00       		.sleb128 0
 13190 37d8 77       		.byte	0x77
 13191 37d9 00       		.sleb128 0
 13192 37da 27       		.byte	0x27
 13193 37db 76       		.byte	0x76
 13194 37dc 00       		.sleb128 0
 13195 37dd 1A       		.byte	0x1a
 13196 37de 7E       		.byte	0x7e
 13197 37df 00       		.sleb128 0
 13198 37e0 77       		.byte	0x77
 13199 37e1 00       		.sleb128 0
 13200 37e2 1A       		.byte	0x1a
 13201 37e3 27       		.byte	0x27
 13202 37e4 22       		.byte	0x22
 13203 37e5 9F       		.byte	0x9f
 13204 37e6 A6180000 		.4byte	.LVL555
 13205 37ea AE180000 		.4byte	.LVL558
 13206 37ee 0100     		.2byte	0x1
 13207 37f0 53       		.byte	0x53
 13208 37f1 AE180000 		.4byte	.LVL558
 13209 37f5 CE180000 		.4byte	.LVL560
 13210 37f9 2A00     		.2byte	0x2a
 13211 37fb 75       		.byte	0x75
 13212 37fc 00       		.sleb128 0
 13213 37fd 32       		.byte	0x32
 13214 37fe 14       		.byte	0x14
ARM GAS  C:\Users\bogur\AppData\Local\Temp\cc4rWh5U.s 			page 238


 13215 37ff 14       		.byte	0x14
 13216 3800 1F       		.byte	0x1f
 13217 3801 23       		.byte	0x23
 13218 3802 20       		.uleb128 0x20
 13219 3803 24       		.byte	0x24
 13220 3804 17       		.byte	0x17
 13221 3805 25       		.byte	0x25
 13222 3806 21       		.byte	0x21
 13223 3807 75       		.byte	0x75
 13224 3808 00       		.sleb128 0
 13225 3809 3D       		.byte	0x3d
 13226 380a 14       		.byte	0x14
 13227 380b 14       		.byte	0x14
 13228 380c 1F       		.byte	0x1f
 13229 380d 23       		.byte	0x23
 13230 380e 20       		.uleb128 0x20
 13231 380f 24       		.byte	0x24
 13232 3810 17       		.byte	0x17
 13233 3811 25       		.byte	0x25
 13234 3812 21       		.byte	0x21
 13235 3813 27       		.byte	0x27
 13236 3814 75       		.byte	0x75
 13237 3815 00       		.sleb128 0
 13238 3816 46       		.byte	0x46
 13239 3817 14       		.byte	0x14
 13240 3818 14       		.byte	0x14
 13241 3819 1F       		.byte	0x1f
 13242 381a 23       		.byte	0x23
 13243 381b 20       		.uleb128 0x20
 13244 381c 24       		.byte	0x24
 13245 381d 17       		.byte	0x17
 13246 381e 25       		.byte	0x25
 13247 381f 21       		.byte	0x21
 13248 3820 27       		.byte	0x27
 13249 3821 70       		.byte	0x70
 13250 3822 00       		.sleb128 0
 13251 3823 22       		.byte	0x22
 13252 3824 9F       		.byte	0x9f
 13253 3825 CE180000 		.4byte	.LVL560
 13254 3829 E0180000 		.4byte	.LVL562
 13255 382d 3000     		.2byte	0x30
 13256 382f 75       		.byte	0x75
 13257 3830 00       		.sleb128 0
 13258 3831 32       		.byte	0x32
 13259 3832 14       		.byte	0x14
 13260 3833 14       		.byte	0x14
 13261 3834 1F       		.byte	0x1f
 13262 3835 23       		.byte	0x23
 13263 3836 20       		.uleb128 0x20
 13264 3837 24       		.byte	0x24
 13265 3838 17       		.byte	0x17
 13266 3839 25       		.byte	0x25
 13267 383a 21       		.byte	0x21
 13268 383b 75       		.byte	0x75
 13269 383c 00       		.sleb128 0
 13270 383d 3D       		.byte	0x3d
 13271 383e 14       		.byte	0x14
ARM GAS  C:\Users\bogur\AppData\Local\Temp\cc4rWh5U.s 			page 239


 13272 383f 14       		.byte	0x14
 13273 3840 1F       		.byte	0x1f
 13274 3841 23       		.byte	0x23
 13275 3842 20       		.uleb128 0x20
 13276 3843 24       		.byte	0x24
 13277 3844 17       		.byte	0x17
 13278 3845 25       		.byte	0x25
 13279 3846 21       		.byte	0x21
 13280 3847 27       		.byte	0x27
 13281 3848 75       		.byte	0x75
 13282 3849 00       		.sleb128 0
 13283 384a 46       		.byte	0x46
 13284 384b 14       		.byte	0x14
 13285 384c 14       		.byte	0x14
 13286 384d 1F       		.byte	0x1f
 13287 384e 23       		.byte	0x23
 13288 384f 20       		.uleb128 0x20
 13289 3850 24       		.byte	0x24
 13290 3851 17       		.byte	0x17
 13291 3852 25       		.byte	0x25
 13292 3853 21       		.byte	0x21
 13293 3854 27       		.byte	0x27
 13294 3855 77       		.byte	0x77
 13295 3856 00       		.sleb128 0
 13296 3857 76       		.byte	0x76
 13297 3858 00       		.sleb128 0
 13298 3859 1A       		.byte	0x1a
 13299 385a 7C       		.byte	0x7c
 13300 385b 00       		.sleb128 0
 13301 385c 27       		.byte	0x27
 13302 385d 22       		.byte	0x22
 13303 385e 9F       		.byte	0x9f
 13304 385f E0180000 		.4byte	.LVL562
 13305 3863 EE180000 		.4byte	.LVL563
 13306 3867 3600     		.2byte	0x36
 13307 3869 75       		.byte	0x75
 13308 386a 00       		.sleb128 0
 13309 386b 32       		.byte	0x32
 13310 386c 14       		.byte	0x14
 13311 386d 14       		.byte	0x14
 13312 386e 1F       		.byte	0x1f
 13313 386f 23       		.byte	0x23
 13314 3870 20       		.uleb128 0x20
 13315 3871 24       		.byte	0x24
 13316 3872 17       		.byte	0x17
 13317 3873 25       		.byte	0x25
 13318 3874 21       		.byte	0x21
 13319 3875 75       		.byte	0x75
 13320 3876 00       		.sleb128 0
 13321 3877 3D       		.byte	0x3d
 13322 3878 14       		.byte	0x14
 13323 3879 14       		.byte	0x14
 13324 387a 1F       		.byte	0x1f
 13325 387b 23       		.byte	0x23
 13326 387c 20       		.uleb128 0x20
 13327 387d 24       		.byte	0x24
 13328 387e 17       		.byte	0x17
ARM GAS  C:\Users\bogur\AppData\Local\Temp\cc4rWh5U.s 			page 240


 13329 387f 25       		.byte	0x25
 13330 3880 21       		.byte	0x21
 13331 3881 27       		.byte	0x27
 13332 3882 75       		.byte	0x75
 13333 3883 00       		.sleb128 0
 13334 3884 46       		.byte	0x46
 13335 3885 14       		.byte	0x14
 13336 3886 14       		.byte	0x14
 13337 3887 1F       		.byte	0x1f
 13338 3888 23       		.byte	0x23
 13339 3889 20       		.uleb128 0x20
 13340 388a 24       		.byte	0x24
 13341 388b 17       		.byte	0x17
 13342 388c 25       		.byte	0x25
 13343 388d 21       		.byte	0x21
 13344 388e 27       		.byte	0x27
 13345 388f 77       		.byte	0x77
 13346 3890 00       		.sleb128 0
 13347 3891 76       		.byte	0x76
 13348 3892 00       		.sleb128 0
 13349 3893 27       		.byte	0x27
 13350 3894 75       		.byte	0x75
 13351 3895 00       		.sleb128 0
 13352 3896 1A       		.byte	0x1a
 13353 3897 77       		.byte	0x77
 13354 3898 00       		.sleb128 0
 13355 3899 76       		.byte	0x76
 13356 389a 00       		.sleb128 0
 13357 389b 1A       		.byte	0x1a
 13358 389c 27       		.byte	0x27
 13359 389d 22       		.byte	0x22
 13360 389e 9F       		.byte	0x9f
 13361 389f EE180000 		.4byte	.LVL563
 13362 38a3 F6180000 		.4byte	.LVL566
 13363 38a7 0100     		.2byte	0x1
 13364 38a9 53       		.byte	0x53
 13365 38aa F6180000 		.4byte	.LVL566
 13366 38ae 16190000 		.4byte	.LVL569
 13367 38b2 2A00     		.2byte	0x2a
 13368 38b4 74       		.byte	0x74
 13369 38b5 00       		.sleb128 0
 13370 38b6 32       		.byte	0x32
 13371 38b7 14       		.byte	0x14
 13372 38b8 14       		.byte	0x14
 13373 38b9 1F       		.byte	0x1f
 13374 38ba 23       		.byte	0x23
 13375 38bb 20       		.uleb128 0x20
 13376 38bc 24       		.byte	0x24
 13377 38bd 17       		.byte	0x17
 13378 38be 25       		.byte	0x25
 13379 38bf 21       		.byte	0x21
 13380 38c0 74       		.byte	0x74
 13381 38c1 00       		.sleb128 0
 13382 38c2 3D       		.byte	0x3d
 13383 38c3 14       		.byte	0x14
 13384 38c4 14       		.byte	0x14
 13385 38c5 1F       		.byte	0x1f
ARM GAS  C:\Users\bogur\AppData\Local\Temp\cc4rWh5U.s 			page 241


 13386 38c6 23       		.byte	0x23
 13387 38c7 20       		.uleb128 0x20
 13388 38c8 24       		.byte	0x24
 13389 38c9 17       		.byte	0x17
 13390 38ca 25       		.byte	0x25
 13391 38cb 21       		.byte	0x21
 13392 38cc 27       		.byte	0x27
 13393 38cd 74       		.byte	0x74
 13394 38ce 00       		.sleb128 0
 13395 38cf 46       		.byte	0x46
 13396 38d0 14       		.byte	0x14
 13397 38d1 14       		.byte	0x14
 13398 38d2 1F       		.byte	0x1f
 13399 38d3 23       		.byte	0x23
 13400 38d4 20       		.uleb128 0x20
 13401 38d5 24       		.byte	0x24
 13402 38d6 17       		.byte	0x17
 13403 38d7 25       		.byte	0x25
 13404 38d8 21       		.byte	0x21
 13405 38d9 27       		.byte	0x27
 13406 38da 71       		.byte	0x71
 13407 38db 00       		.sleb128 0
 13408 38dc 22       		.byte	0x22
 13409 38dd 9F       		.byte	0x9f
 13410 38de 16190000 		.4byte	.LVL569
 13411 38e2 28190000 		.4byte	.LVL571
 13412 38e6 3000     		.2byte	0x30
 13413 38e8 74       		.byte	0x74
 13414 38e9 00       		.sleb128 0
 13415 38ea 32       		.byte	0x32
 13416 38eb 14       		.byte	0x14
 13417 38ec 14       		.byte	0x14
 13418 38ed 1F       		.byte	0x1f
 13419 38ee 23       		.byte	0x23
 13420 38ef 20       		.uleb128 0x20
 13421 38f0 24       		.byte	0x24
 13422 38f1 17       		.byte	0x17
 13423 38f2 25       		.byte	0x25
 13424 38f3 21       		.byte	0x21
 13425 38f4 74       		.byte	0x74
 13426 38f5 00       		.sleb128 0
 13427 38f6 3D       		.byte	0x3d
 13428 38f7 14       		.byte	0x14
 13429 38f8 14       		.byte	0x14
 13430 38f9 1F       		.byte	0x1f
 13431 38fa 23       		.byte	0x23
 13432 38fb 20       		.uleb128 0x20
 13433 38fc 24       		.byte	0x24
 13434 38fd 17       		.byte	0x17
 13435 38fe 25       		.byte	0x25
 13436 38ff 21       		.byte	0x21
 13437 3900 27       		.byte	0x27
 13438 3901 74       		.byte	0x74
 13439 3902 00       		.sleb128 0
 13440 3903 46       		.byte	0x46
 13441 3904 14       		.byte	0x14
 13442 3905 14       		.byte	0x14
ARM GAS  C:\Users\bogur\AppData\Local\Temp\cc4rWh5U.s 			page 242


 13443 3906 1F       		.byte	0x1f
 13444 3907 23       		.byte	0x23
 13445 3908 20       		.uleb128 0x20
 13446 3909 24       		.byte	0x24
 13447 390a 17       		.byte	0x17
 13448 390b 25       		.byte	0x25
 13449 390c 21       		.byte	0x21
 13450 390d 27       		.byte	0x27
 13451 390e 76       		.byte	0x76
 13452 390f 00       		.sleb128 0
 13453 3910 75       		.byte	0x75
 13454 3911 00       		.sleb128 0
 13455 3912 1A       		.byte	0x1a
 13456 3913 7C       		.byte	0x7c
 13457 3914 00       		.sleb128 0
 13458 3915 27       		.byte	0x27
 13459 3916 22       		.byte	0x22
 13460 3917 9F       		.byte	0x9f
 13461 3918 28190000 		.4byte	.LVL571
 13462 391c 36190000 		.4byte	.LVL572
 13463 3920 3600     		.2byte	0x36
 13464 3922 74       		.byte	0x74
 13465 3923 00       		.sleb128 0
 13466 3924 32       		.byte	0x32
 13467 3925 14       		.byte	0x14
 13468 3926 14       		.byte	0x14
 13469 3927 1F       		.byte	0x1f
 13470 3928 23       		.byte	0x23
 13471 3929 20       		.uleb128 0x20
 13472 392a 24       		.byte	0x24
 13473 392b 17       		.byte	0x17
 13474 392c 25       		.byte	0x25
 13475 392d 21       		.byte	0x21
 13476 392e 74       		.byte	0x74
 13477 392f 00       		.sleb128 0
 13478 3930 3D       		.byte	0x3d
 13479 3931 14       		.byte	0x14
 13480 3932 14       		.byte	0x14
 13481 3933 1F       		.byte	0x1f
 13482 3934 23       		.byte	0x23
 13483 3935 20       		.uleb128 0x20
 13484 3936 24       		.byte	0x24
 13485 3937 17       		.byte	0x17
 13486 3938 25       		.byte	0x25
 13487 3939 21       		.byte	0x21
 13488 393a 27       		.byte	0x27
 13489 393b 74       		.byte	0x74
 13490 393c 00       		.sleb128 0
 13491 393d 46       		.byte	0x46
 13492 393e 14       		.byte	0x14
 13493 393f 14       		.byte	0x14
 13494 3940 1F       		.byte	0x1f
 13495 3941 23       		.byte	0x23
 13496 3942 20       		.uleb128 0x20
 13497 3943 24       		.byte	0x24
 13498 3944 17       		.byte	0x17
 13499 3945 25       		.byte	0x25
ARM GAS  C:\Users\bogur\AppData\Local\Temp\cc4rWh5U.s 			page 243


 13500 3946 21       		.byte	0x21
 13501 3947 27       		.byte	0x27
 13502 3948 76       		.byte	0x76
 13503 3949 00       		.sleb128 0
 13504 394a 75       		.byte	0x75
 13505 394b 00       		.sleb128 0
 13506 394c 27       		.byte	0x27
 13507 394d 74       		.byte	0x74
 13508 394e 00       		.sleb128 0
 13509 394f 1A       		.byte	0x1a
 13510 3950 76       		.byte	0x76
 13511 3951 00       		.sleb128 0
 13512 3952 75       		.byte	0x75
 13513 3953 00       		.sleb128 0
 13514 3954 1A       		.byte	0x1a
 13515 3955 27       		.byte	0x27
 13516 3956 22       		.byte	0x22
 13517 3957 9F       		.byte	0x9f
 13518 3958 36190000 		.4byte	.LVL572
 13519 395c 3A190000 		.4byte	.LVL574
 13520 3960 0100     		.2byte	0x1
 13521 3962 52       		.byte	0x52
 13522 3963 3A190000 		.4byte	.LVL574
 13523 3967 58190000 		.4byte	.LVL578
 13524 396b 0C00     		.2byte	0xc
 13525 396d 75       		.byte	0x75
 13526 396e 00       		.sleb128 0
 13527 396f 74       		.byte	0x74
 13528 3970 00       		.sleb128 0
 13529 3971 1A       		.byte	0x1a
 13530 3972 7C       		.byte	0x7c
 13531 3973 00       		.sleb128 0
 13532 3974 27       		.byte	0x27
 13533 3975 73       		.byte	0x73
 13534 3976 00       		.sleb128 0
 13535 3977 22       		.byte	0x22
 13536 3978 9F       		.byte	0x9f
 13537 3979 58190000 		.4byte	.LVL578
 13538 397d 70190000 		.4byte	.LVL580
 13539 3981 3000     		.2byte	0x30
 13540 3983 75       		.byte	0x75
 13541 3984 00       		.sleb128 0
 13542 3985 74       		.byte	0x74
 13543 3986 00       		.sleb128 0
 13544 3987 1A       		.byte	0x1a
 13545 3988 7C       		.byte	0x7c
 13546 3989 00       		.sleb128 0
 13547 398a 27       		.byte	0x27
 13548 398b 70       		.byte	0x70
 13549 398c 00       		.sleb128 0
 13550 398d 32       		.byte	0x32
 13551 398e 14       		.byte	0x14
 13552 398f 14       		.byte	0x14
 13553 3990 1F       		.byte	0x1f
 13554 3991 23       		.byte	0x23
 13555 3992 20       		.uleb128 0x20
 13556 3993 24       		.byte	0x24
ARM GAS  C:\Users\bogur\AppData\Local\Temp\cc4rWh5U.s 			page 244


 13557 3994 17       		.byte	0x17
 13558 3995 25       		.byte	0x25
 13559 3996 21       		.byte	0x21
 13560 3997 70       		.byte	0x70
 13561 3998 00       		.sleb128 0
 13562 3999 3D       		.byte	0x3d
 13563 399a 14       		.byte	0x14
 13564 399b 14       		.byte	0x14
 13565 399c 1F       		.byte	0x1f
 13566 399d 23       		.byte	0x23
 13567 399e 20       		.uleb128 0x20
 13568 399f 24       		.byte	0x24
 13569 39a0 17       		.byte	0x17
 13570 39a1 25       		.byte	0x25
 13571 39a2 21       		.byte	0x21
 13572 39a3 27       		.byte	0x27
 13573 39a4 70       		.byte	0x70
 13574 39a5 00       		.sleb128 0
 13575 39a6 46       		.byte	0x46
 13576 39a7 14       		.byte	0x14
 13577 39a8 14       		.byte	0x14
 13578 39a9 1F       		.byte	0x1f
 13579 39aa 23       		.byte	0x23
 13580 39ab 20       		.uleb128 0x20
 13581 39ac 24       		.byte	0x24
 13582 39ad 17       		.byte	0x17
 13583 39ae 25       		.byte	0x25
 13584 39af 21       		.byte	0x21
 13585 39b0 27       		.byte	0x27
 13586 39b1 22       		.byte	0x22
 13587 39b2 9F       		.byte	0x9f
 13588 39b3 70190000 		.4byte	.LVL580
 13589 39b7 7E190000 		.4byte	.LVL581
 13590 39bb 3600     		.2byte	0x36
 13591 39bd 75       		.byte	0x75
 13592 39be 00       		.sleb128 0
 13593 39bf 74       		.byte	0x74
 13594 39c0 00       		.sleb128 0
 13595 39c1 27       		.byte	0x27
 13596 39c2 70       		.byte	0x70
 13597 39c3 00       		.sleb128 0
 13598 39c4 1A       		.byte	0x1a
 13599 39c5 75       		.byte	0x75
 13600 39c6 00       		.sleb128 0
 13601 39c7 74       		.byte	0x74
 13602 39c8 00       		.sleb128 0
 13603 39c9 1A       		.byte	0x1a
 13604 39ca 27       		.byte	0x27
 13605 39cb 70       		.byte	0x70
 13606 39cc 00       		.sleb128 0
 13607 39cd 32       		.byte	0x32
 13608 39ce 14       		.byte	0x14
 13609 39cf 14       		.byte	0x14
 13610 39d0 1F       		.byte	0x1f
 13611 39d1 23       		.byte	0x23
 13612 39d2 20       		.uleb128 0x20
 13613 39d3 24       		.byte	0x24
ARM GAS  C:\Users\bogur\AppData\Local\Temp\cc4rWh5U.s 			page 245


 13614 39d4 17       		.byte	0x17
 13615 39d5 25       		.byte	0x25
 13616 39d6 21       		.byte	0x21
 13617 39d7 70       		.byte	0x70
 13618 39d8 00       		.sleb128 0
 13619 39d9 3D       		.byte	0x3d
 13620 39da 14       		.byte	0x14
 13621 39db 14       		.byte	0x14
 13622 39dc 1F       		.byte	0x1f
 13623 39dd 23       		.byte	0x23
 13624 39de 20       		.uleb128 0x20
 13625 39df 24       		.byte	0x24
 13626 39e0 17       		.byte	0x17
 13627 39e1 25       		.byte	0x25
 13628 39e2 21       		.byte	0x21
 13629 39e3 27       		.byte	0x27
 13630 39e4 70       		.byte	0x70
 13631 39e5 00       		.sleb128 0
 13632 39e6 46       		.byte	0x46
 13633 39e7 14       		.byte	0x14
 13634 39e8 14       		.byte	0x14
 13635 39e9 1F       		.byte	0x1f
 13636 39ea 23       		.byte	0x23
 13637 39eb 20       		.uleb128 0x20
 13638 39ec 24       		.byte	0x24
 13639 39ed 17       		.byte	0x17
 13640 39ee 25       		.byte	0x25
 13641 39ef 21       		.byte	0x21
 13642 39f0 27       		.byte	0x27
 13643 39f1 22       		.byte	0x22
 13644 39f2 9F       		.byte	0x9f
 13645 39f3 7E190000 		.4byte	.LVL581
 13646 39f7 82190000 		.4byte	.LVL583
 13647 39fb 0100     		.2byte	0x1
 13648 39fd 5C       		.byte	0x5c
 13649 39fe 82190000 		.4byte	.LVL583
 13650 3a02 86190000 		.4byte	.LVL584
 13651 3a06 0F00     		.2byte	0xf
 13652 3a08 74       		.byte	0x74
 13653 3a09 00       		.sleb128 0
 13654 3a0a 70       		.byte	0x70
 13655 3a0b 00       		.sleb128 0
 13656 3a0c 27       		.byte	0x27
 13657 3a0d 72       		.byte	0x72
 13658 3a0e 00       		.sleb128 0
 13659 3a0f 1A       		.byte	0x1a
 13660 3a10 78       		.byte	0x78
 13661 3a11 00       		.sleb128 0
 13662 3a12 27       		.byte	0x27
 13663 3a13 73       		.byte	0x73
 13664 3a14 00       		.sleb128 0
 13665 3a15 22       		.byte	0x22
 13666 3a16 9F       		.byte	0x9f
 13667 3a17 86190000 		.4byte	.LVL584
 13668 3a1b 94190000 		.4byte	.LVL586
 13669 3a1f 1200     		.2byte	0x12
 13670 3a21 74       		.byte	0x74
ARM GAS  C:\Users\bogur\AppData\Local\Temp\cc4rWh5U.s 			page 246


 13671 3a22 00       		.sleb128 0
 13672 3a23 70       		.byte	0x70
 13673 3a24 00       		.sleb128 0
 13674 3a25 27       		.byte	0x27
 13675 3a26 72       		.byte	0x72
 13676 3a27 00       		.sleb128 0
 13677 3a28 1A       		.byte	0x1a
 13678 3a29 74       		.byte	0x74
 13679 3a2a 00       		.sleb128 0
 13680 3a2b 70       		.byte	0x70
 13681 3a2c 00       		.sleb128 0
 13682 3a2d 1A       		.byte	0x1a
 13683 3a2e 27       		.byte	0x27
 13684 3a2f 73       		.byte	0x73
 13685 3a30 00       		.sleb128 0
 13686 3a31 22       		.byte	0x22
 13687 3a32 9F       		.byte	0x9f
 13688 3a33 94190000 		.4byte	.LVL586
 13689 3a37 C8190000 		.4byte	.LVL588
 13690 3a3b 3600     		.2byte	0x36
 13691 3a3d 74       		.byte	0x74
 13692 3a3e 00       		.sleb128 0
 13693 3a3f 70       		.byte	0x70
 13694 3a40 00       		.sleb128 0
 13695 3a41 27       		.byte	0x27
 13696 3a42 72       		.byte	0x72
 13697 3a43 00       		.sleb128 0
 13698 3a44 1A       		.byte	0x1a
 13699 3a45 74       		.byte	0x74
 13700 3a46 00       		.sleb128 0
 13701 3a47 70       		.byte	0x70
 13702 3a48 00       		.sleb128 0
 13703 3a49 1A       		.byte	0x1a
 13704 3a4a 27       		.byte	0x27
 13705 3a4b 72       		.byte	0x72
 13706 3a4c 00       		.sleb128 0
 13707 3a4d 32       		.byte	0x32
 13708 3a4e 14       		.byte	0x14
 13709 3a4f 14       		.byte	0x14
 13710 3a50 1F       		.byte	0x1f
 13711 3a51 23       		.byte	0x23
 13712 3a52 20       		.uleb128 0x20
 13713 3a53 24       		.byte	0x24
 13714 3a54 17       		.byte	0x17
 13715 3a55 25       		.byte	0x25
 13716 3a56 21       		.byte	0x21
 13717 3a57 72       		.byte	0x72
 13718 3a58 00       		.sleb128 0
 13719 3a59 3D       		.byte	0x3d
 13720 3a5a 14       		.byte	0x14
 13721 3a5b 14       		.byte	0x14
 13722 3a5c 1F       		.byte	0x1f
 13723 3a5d 23       		.byte	0x23
 13724 3a5e 20       		.uleb128 0x20
 13725 3a5f 24       		.byte	0x24
 13726 3a60 17       		.byte	0x17
 13727 3a61 25       		.byte	0x25
ARM GAS  C:\Users\bogur\AppData\Local\Temp\cc4rWh5U.s 			page 247


 13728 3a62 21       		.byte	0x21
 13729 3a63 27       		.byte	0x27
 13730 3a64 72       		.byte	0x72
 13731 3a65 00       		.sleb128 0
 13732 3a66 46       		.byte	0x46
 13733 3a67 14       		.byte	0x14
 13734 3a68 14       		.byte	0x14
 13735 3a69 1F       		.byte	0x1f
 13736 3a6a 23       		.byte	0x23
 13737 3a6b 20       		.uleb128 0x20
 13738 3a6c 24       		.byte	0x24
 13739 3a6d 17       		.byte	0x17
 13740 3a6e 25       		.byte	0x25
 13741 3a6f 21       		.byte	0x21
 13742 3a70 27       		.byte	0x27
 13743 3a71 22       		.byte	0x22
 13744 3a72 9F       		.byte	0x9f
 13745 3a73 C8190000 		.4byte	.LVL588
 13746 3a77 CC190000 		.4byte	.LVL590
 13747 3a7b 0100     		.2byte	0x1
 13748 3a7d 58       		.byte	0x58
 13749 3a7e CC190000 		.4byte	.LVL590
 13750 3a82 D0190000 		.4byte	.LVL591
 13751 3a86 0900     		.2byte	0x9
 13752 3a88 7E       		.byte	0x7e
 13753 3a89 00       		.sleb128 0
 13754 3a8a 71       		.byte	0x71
 13755 3a8b 00       		.sleb128 0
 13756 3a8c 27       		.byte	0x27
 13757 3a8d 73       		.byte	0x73
 13758 3a8e 00       		.sleb128 0
 13759 3a8f 22       		.byte	0x22
 13760 3a90 9F       		.byte	0x9f
 13761 3a91 D0190000 		.4byte	.LVL591
 13762 3a95 DE190000 		.4byte	.LVL593
 13763 3a99 0F00     		.2byte	0xf
 13764 3a9b 70       		.byte	0x70
 13765 3a9c 00       		.sleb128 0
 13766 3a9d 72       		.byte	0x72
 13767 3a9e 00       		.sleb128 0
 13768 3a9f 27       		.byte	0x27
 13769 3aa0 7C       		.byte	0x7c
 13770 3aa1 00       		.sleb128 0
 13771 3aa2 1A       		.byte	0x1a
 13772 3aa3 71       		.byte	0x71
 13773 3aa4 00       		.sleb128 0
 13774 3aa5 27       		.byte	0x27
 13775 3aa6 73       		.byte	0x73
 13776 3aa7 00       		.sleb128 0
 13777 3aa8 22       		.byte	0x22
 13778 3aa9 9F       		.byte	0x9f
 13779 3aaa DE190000 		.4byte	.LVL593
 13780 3aae F6190000 		.4byte	.LVL595
 13781 3ab2 3300     		.2byte	0x33
 13782 3ab4 70       		.byte	0x70
 13783 3ab5 00       		.sleb128 0
 13784 3ab6 72       		.byte	0x72
ARM GAS  C:\Users\bogur\AppData\Local\Temp\cc4rWh5U.s 			page 248


 13785 3ab7 00       		.sleb128 0
 13786 3ab8 27       		.byte	0x27
 13787 3ab9 7C       		.byte	0x7c
 13788 3aba 00       		.sleb128 0
 13789 3abb 1A       		.byte	0x1a
 13790 3abc 71       		.byte	0x71
 13791 3abd 00       		.sleb128 0
 13792 3abe 27       		.byte	0x27
 13793 3abf 7C       		.byte	0x7c
 13794 3ac0 00       		.sleb128 0
 13795 3ac1 32       		.byte	0x32
 13796 3ac2 14       		.byte	0x14
 13797 3ac3 14       		.byte	0x14
 13798 3ac4 1F       		.byte	0x1f
 13799 3ac5 23       		.byte	0x23
 13800 3ac6 20       		.uleb128 0x20
 13801 3ac7 24       		.byte	0x24
 13802 3ac8 17       		.byte	0x17
 13803 3ac9 25       		.byte	0x25
 13804 3aca 21       		.byte	0x21
 13805 3acb 7C       		.byte	0x7c
 13806 3acc 00       		.sleb128 0
 13807 3acd 3D       		.byte	0x3d
 13808 3ace 14       		.byte	0x14
 13809 3acf 14       		.byte	0x14
 13810 3ad0 1F       		.byte	0x1f
 13811 3ad1 23       		.byte	0x23
 13812 3ad2 20       		.uleb128 0x20
 13813 3ad3 24       		.byte	0x24
 13814 3ad4 17       		.byte	0x17
 13815 3ad5 25       		.byte	0x25
 13816 3ad6 21       		.byte	0x21
 13817 3ad7 27       		.byte	0x27
 13818 3ad8 7C       		.byte	0x7c
 13819 3ad9 00       		.sleb128 0
 13820 3ada 46       		.byte	0x46
 13821 3adb 14       		.byte	0x14
 13822 3adc 14       		.byte	0x14
 13823 3add 1F       		.byte	0x1f
 13824 3ade 23       		.byte	0x23
 13825 3adf 20       		.uleb128 0x20
 13826 3ae0 24       		.byte	0x24
 13827 3ae1 17       		.byte	0x17
 13828 3ae2 25       		.byte	0x25
 13829 3ae3 21       		.byte	0x21
 13830 3ae4 27       		.byte	0x27
 13831 3ae5 22       		.byte	0x22
 13832 3ae6 9F       		.byte	0x9f
 13833 3ae7 F6190000 		.4byte	.LVL595
 13834 3aeb 101A0000 		.4byte	.LVL596
 13835 3aef 3600     		.2byte	0x36
 13836 3af1 70       		.byte	0x70
 13837 3af2 00       		.sleb128 0
 13838 3af3 72       		.byte	0x72
 13839 3af4 00       		.sleb128 0
 13840 3af5 27       		.byte	0x27
 13841 3af6 7C       		.byte	0x7c
ARM GAS  C:\Users\bogur\AppData\Local\Temp\cc4rWh5U.s 			page 249


 13842 3af7 00       		.sleb128 0
 13843 3af8 1A       		.byte	0x1a
 13844 3af9 70       		.byte	0x70
 13845 3afa 00       		.sleb128 0
 13846 3afb 72       		.byte	0x72
 13847 3afc 00       		.sleb128 0
 13848 3afd 1A       		.byte	0x1a
 13849 3afe 27       		.byte	0x27
 13850 3aff 7C       		.byte	0x7c
 13851 3b00 00       		.sleb128 0
 13852 3b01 32       		.byte	0x32
 13853 3b02 14       		.byte	0x14
 13854 3b03 14       		.byte	0x14
 13855 3b04 1F       		.byte	0x1f
 13856 3b05 23       		.byte	0x23
 13857 3b06 20       		.uleb128 0x20
 13858 3b07 24       		.byte	0x24
 13859 3b08 17       		.byte	0x17
 13860 3b09 25       		.byte	0x25
 13861 3b0a 21       		.byte	0x21
 13862 3b0b 7C       		.byte	0x7c
 13863 3b0c 00       		.sleb128 0
 13864 3b0d 3D       		.byte	0x3d
 13865 3b0e 14       		.byte	0x14
 13866 3b0f 14       		.byte	0x14
 13867 3b10 1F       		.byte	0x1f
 13868 3b11 23       		.byte	0x23
 13869 3b12 20       		.uleb128 0x20
 13870 3b13 24       		.byte	0x24
 13871 3b14 17       		.byte	0x17
 13872 3b15 25       		.byte	0x25
 13873 3b16 21       		.byte	0x21
 13874 3b17 27       		.byte	0x27
 13875 3b18 7C       		.byte	0x7c
 13876 3b19 00       		.sleb128 0
 13877 3b1a 46       		.byte	0x46
 13878 3b1b 14       		.byte	0x14
 13879 3b1c 14       		.byte	0x14
 13880 3b1d 1F       		.byte	0x1f
 13881 3b1e 23       		.byte	0x23
 13882 3b1f 20       		.uleb128 0x20
 13883 3b20 24       		.byte	0x24
 13884 3b21 17       		.byte	0x17
 13885 3b22 25       		.byte	0x25
 13886 3b23 21       		.byte	0x21
 13887 3b24 27       		.byte	0x27
 13888 3b25 22       		.byte	0x22
 13889 3b26 9F       		.byte	0x9f
 13890 3b27 101A0000 		.4byte	.LVL596
 13891 3b2b 141A0000 		.4byte	.LVL598
 13892 3b2f 0100     		.2byte	0x1
 13893 3b31 5E       		.byte	0x5e
 13894 3b32 141A0000 		.4byte	.LVL598
 13895 3b36 261A0000 		.4byte	.LVL601
 13896 3b3a 0F00     		.2byte	0xf
 13897 3b3c 72       		.byte	0x72
 13898 3b3d 00       		.sleb128 0
ARM GAS  C:\Users\bogur\AppData\Local\Temp\cc4rWh5U.s 			page 250


 13899 3b3e 7C       		.byte	0x7c
 13900 3b3f 00       		.sleb128 0
 13901 3b40 27       		.byte	0x27
 13902 3b41 78       		.byte	0x78
 13903 3b42 00       		.sleb128 0
 13904 3b43 1A       		.byte	0x1a
 13905 3b44 73       		.byte	0x73
 13906 3b45 00       		.sleb128 0
 13907 3b46 27       		.byte	0x27
 13908 3b47 71       		.byte	0x71
 13909 3b48 00       		.sleb128 0
 13910 3b49 22       		.byte	0x22
 13911 3b4a 9F       		.byte	0x9f
 13912 3b4b 261A0000 		.4byte	.LVL601
 13913 3b4f 3C1A0000 		.4byte	.LVL604
 13914 3b53 1200     		.2byte	0x12
 13915 3b55 72       		.byte	0x72
 13916 3b56 00       		.sleb128 0
 13917 3b57 7C       		.byte	0x7c
 13918 3b58 00       		.sleb128 0
 13919 3b59 27       		.byte	0x27
 13920 3b5a 78       		.byte	0x78
 13921 3b5b 00       		.sleb128 0
 13922 3b5c 1A       		.byte	0x1a
 13923 3b5d 72       		.byte	0x72
 13924 3b5e 00       		.sleb128 0
 13925 3b5f 7C       		.byte	0x7c
 13926 3b60 00       		.sleb128 0
 13927 3b61 1A       		.byte	0x1a
 13928 3b62 27       		.byte	0x27
 13929 3b63 71       		.byte	0x71
 13930 3b64 00       		.sleb128 0
 13931 3b65 22       		.byte	0x22
 13932 3b66 9F       		.byte	0x9f
 13933 3b67 3C1A0000 		.4byte	.LVL604
 13934 3b6b 541A0000 		.4byte	.LVL605
 13935 3b6f 3600     		.2byte	0x36
 13936 3b71 72       		.byte	0x72
 13937 3b72 00       		.sleb128 0
 13938 3b73 7C       		.byte	0x7c
 13939 3b74 00       		.sleb128 0
 13940 3b75 27       		.byte	0x27
 13941 3b76 78       		.byte	0x78
 13942 3b77 00       		.sleb128 0
 13943 3b78 1A       		.byte	0x1a
 13944 3b79 72       		.byte	0x72
 13945 3b7a 00       		.sleb128 0
 13946 3b7b 7C       		.byte	0x7c
 13947 3b7c 00       		.sleb128 0
 13948 3b7d 1A       		.byte	0x1a
 13949 3b7e 27       		.byte	0x27
 13950 3b7f 78       		.byte	0x78
 13951 3b80 00       		.sleb128 0
 13952 3b81 32       		.byte	0x32
 13953 3b82 14       		.byte	0x14
 13954 3b83 14       		.byte	0x14
 13955 3b84 1F       		.byte	0x1f
ARM GAS  C:\Users\bogur\AppData\Local\Temp\cc4rWh5U.s 			page 251


 13956 3b85 23       		.byte	0x23
 13957 3b86 20       		.uleb128 0x20
 13958 3b87 24       		.byte	0x24
 13959 3b88 17       		.byte	0x17
 13960 3b89 25       		.byte	0x25
 13961 3b8a 21       		.byte	0x21
 13962 3b8b 78       		.byte	0x78
 13963 3b8c 00       		.sleb128 0
 13964 3b8d 3D       		.byte	0x3d
 13965 3b8e 14       		.byte	0x14
 13966 3b8f 14       		.byte	0x14
 13967 3b90 1F       		.byte	0x1f
 13968 3b91 23       		.byte	0x23
 13969 3b92 20       		.uleb128 0x20
 13970 3b93 24       		.byte	0x24
 13971 3b94 17       		.byte	0x17
 13972 3b95 25       		.byte	0x25
 13973 3b96 21       		.byte	0x21
 13974 3b97 27       		.byte	0x27
 13975 3b98 78       		.byte	0x78
 13976 3b99 00       		.sleb128 0
 13977 3b9a 46       		.byte	0x46
 13978 3b9b 14       		.byte	0x14
 13979 3b9c 14       		.byte	0x14
 13980 3b9d 1F       		.byte	0x1f
 13981 3b9e 23       		.byte	0x23
 13982 3b9f 20       		.uleb128 0x20
 13983 3ba0 24       		.byte	0x24
 13984 3ba1 17       		.byte	0x17
 13985 3ba2 25       		.byte	0x25
 13986 3ba3 21       		.byte	0x21
 13987 3ba4 27       		.byte	0x27
 13988 3ba5 22       		.byte	0x22
 13989 3ba6 9F       		.byte	0x9f
 13990 3ba7 541A0000 		.4byte	.LVL605
 13991 3bab 581A0000 		.4byte	.LVL607
 13992 3baf 0100     		.2byte	0x1
 13993 3bb1 57       		.byte	0x57
 13994 3bb2 581A0000 		.4byte	.LVL607
 13995 3bb6 6A1A0000 		.4byte	.LVL610
 13996 3bba 0F00     		.2byte	0xf
 13997 3bbc 7C       		.byte	0x7c
 13998 3bbd 00       		.sleb128 0
 13999 3bbe 78       		.byte	0x78
 14000 3bbf 00       		.sleb128 0
 14001 3bc0 27       		.byte	0x27
 14002 3bc1 7E       		.byte	0x7e
 14003 3bc2 00       		.sleb128 0
 14004 3bc3 1A       		.byte	0x1a
 14005 3bc4 73       		.byte	0x73
 14006 3bc5 00       		.sleb128 0
 14007 3bc6 27       		.byte	0x27
 14008 3bc7 71       		.byte	0x71
 14009 3bc8 00       		.sleb128 0
 14010 3bc9 22       		.byte	0x22
 14011 3bca 9F       		.byte	0x9f
 14012 3bcb 6A1A0000 		.4byte	.LVL610
ARM GAS  C:\Users\bogur\AppData\Local\Temp\cc4rWh5U.s 			page 252


 14013 3bcf 801A0000 		.4byte	.LVL613
 14014 3bd3 1200     		.2byte	0x12
 14015 3bd5 7C       		.byte	0x7c
 14016 3bd6 00       		.sleb128 0
 14017 3bd7 78       		.byte	0x78
 14018 3bd8 00       		.sleb128 0
 14019 3bd9 27       		.byte	0x27
 14020 3bda 7E       		.byte	0x7e
 14021 3bdb 00       		.sleb128 0
 14022 3bdc 1A       		.byte	0x1a
 14023 3bdd 7C       		.byte	0x7c
 14024 3bde 00       		.sleb128 0
 14025 3bdf 78       		.byte	0x78
 14026 3be0 00       		.sleb128 0
 14027 3be1 1A       		.byte	0x1a
 14028 3be2 27       		.byte	0x27
 14029 3be3 71       		.byte	0x71
 14030 3be4 00       		.sleb128 0
 14031 3be5 22       		.byte	0x22
 14032 3be6 9F       		.byte	0x9f
 14033 3be7 801A0000 		.4byte	.LVL613
 14034 3beb 9A1A0000 		.4byte	.LVL614
 14035 3bef 3600     		.2byte	0x36
 14036 3bf1 7C       		.byte	0x7c
 14037 3bf2 00       		.sleb128 0
 14038 3bf3 78       		.byte	0x78
 14039 3bf4 00       		.sleb128 0
 14040 3bf5 27       		.byte	0x27
 14041 3bf6 7E       		.byte	0x7e
 14042 3bf7 00       		.sleb128 0
 14043 3bf8 1A       		.byte	0x1a
 14044 3bf9 7C       		.byte	0x7c
 14045 3bfa 00       		.sleb128 0
 14046 3bfb 78       		.byte	0x78
 14047 3bfc 00       		.sleb128 0
 14048 3bfd 1A       		.byte	0x1a
 14049 3bfe 27       		.byte	0x27
 14050 3bff 7E       		.byte	0x7e
 14051 3c00 00       		.sleb128 0
 14052 3c01 32       		.byte	0x32
 14053 3c02 14       		.byte	0x14
 14054 3c03 14       		.byte	0x14
 14055 3c04 1F       		.byte	0x1f
 14056 3c05 23       		.byte	0x23
 14057 3c06 20       		.uleb128 0x20
 14058 3c07 24       		.byte	0x24
 14059 3c08 17       		.byte	0x17
 14060 3c09 25       		.byte	0x25
 14061 3c0a 21       		.byte	0x21
 14062 3c0b 7E       		.byte	0x7e
 14063 3c0c 00       		.sleb128 0
 14064 3c0d 3D       		.byte	0x3d
 14065 3c0e 14       		.byte	0x14
 14066 3c0f 14       		.byte	0x14
 14067 3c10 1F       		.byte	0x1f
 14068 3c11 23       		.byte	0x23
 14069 3c12 20       		.uleb128 0x20
ARM GAS  C:\Users\bogur\AppData\Local\Temp\cc4rWh5U.s 			page 253


 14070 3c13 24       		.byte	0x24
 14071 3c14 17       		.byte	0x17
 14072 3c15 25       		.byte	0x25
 14073 3c16 21       		.byte	0x21
 14074 3c17 27       		.byte	0x27
 14075 3c18 7E       		.byte	0x7e
 14076 3c19 00       		.sleb128 0
 14077 3c1a 46       		.byte	0x46
 14078 3c1b 14       		.byte	0x14
 14079 3c1c 14       		.byte	0x14
 14080 3c1d 1F       		.byte	0x1f
 14081 3c1e 23       		.byte	0x23
 14082 3c1f 20       		.uleb128 0x20
 14083 3c20 24       		.byte	0x24
 14084 3c21 17       		.byte	0x17
 14085 3c22 25       		.byte	0x25
 14086 3c23 21       		.byte	0x21
 14087 3c24 27       		.byte	0x27
 14088 3c25 22       		.byte	0x22
 14089 3c26 9F       		.byte	0x9f
 14090 3c27 9A1A0000 		.4byte	.LVL614
 14091 3c2b 9E1A0000 		.4byte	.LVL616
 14092 3c2f 0100     		.2byte	0x1
 14093 3c31 59       		.byte	0x59
 14094 3c32 9E1A0000 		.4byte	.LVL616
 14095 3c36 B01A0000 		.4byte	.LVL618
 14096 3c3a 0F00     		.2byte	0xf
 14097 3c3c 78       		.byte	0x78
 14098 3c3d 00       		.sleb128 0
 14099 3c3e 7E       		.byte	0x7e
 14100 3c3f 00       		.sleb128 0
 14101 3c40 27       		.byte	0x27
 14102 3c41 77       		.byte	0x77
 14103 3c42 00       		.sleb128 0
 14104 3c43 1A       		.byte	0x1a
 14105 3c44 73       		.byte	0x73
 14106 3c45 00       		.sleb128 0
 14107 3c46 27       		.byte	0x27
 14108 3c47 71       		.byte	0x71
 14109 3c48 00       		.sleb128 0
 14110 3c49 22       		.byte	0x22
 14111 3c4a 9F       		.byte	0x9f
 14112 3c4b B01A0000 		.4byte	.LVL618
 14113 3c4f C61A0000 		.4byte	.LVL620
 14114 3c53 1200     		.2byte	0x12
 14115 3c55 78       		.byte	0x78
 14116 3c56 00       		.sleb128 0
 14117 3c57 7E       		.byte	0x7e
 14118 3c58 00       		.sleb128 0
 14119 3c59 27       		.byte	0x27
 14120 3c5a 77       		.byte	0x77
 14121 3c5b 00       		.sleb128 0
 14122 3c5c 1A       		.byte	0x1a
 14123 3c5d 78       		.byte	0x78
 14124 3c5e 00       		.sleb128 0
 14125 3c5f 7E       		.byte	0x7e
 14126 3c60 00       		.sleb128 0
ARM GAS  C:\Users\bogur\AppData\Local\Temp\cc4rWh5U.s 			page 254


 14127 3c61 1A       		.byte	0x1a
 14128 3c62 27       		.byte	0x27
 14129 3c63 71       		.byte	0x71
 14130 3c64 00       		.sleb128 0
 14131 3c65 22       		.byte	0x22
 14132 3c66 9F       		.byte	0x9f
 14133 3c67 C61A0000 		.4byte	.LVL620
 14134 3c6b DE1A0000 		.4byte	.LVL621
 14135 3c6f 3600     		.2byte	0x36
 14136 3c71 78       		.byte	0x78
 14137 3c72 00       		.sleb128 0
 14138 3c73 7E       		.byte	0x7e
 14139 3c74 00       		.sleb128 0
 14140 3c75 27       		.byte	0x27
 14141 3c76 77       		.byte	0x77
 14142 3c77 00       		.sleb128 0
 14143 3c78 1A       		.byte	0x1a
 14144 3c79 78       		.byte	0x78
 14145 3c7a 00       		.sleb128 0
 14146 3c7b 7E       		.byte	0x7e
 14147 3c7c 00       		.sleb128 0
 14148 3c7d 1A       		.byte	0x1a
 14149 3c7e 27       		.byte	0x27
 14150 3c7f 77       		.byte	0x77
 14151 3c80 00       		.sleb128 0
 14152 3c81 32       		.byte	0x32
 14153 3c82 14       		.byte	0x14
 14154 3c83 14       		.byte	0x14
 14155 3c84 1F       		.byte	0x1f
 14156 3c85 23       		.byte	0x23
 14157 3c86 20       		.uleb128 0x20
 14158 3c87 24       		.byte	0x24
 14159 3c88 17       		.byte	0x17
 14160 3c89 25       		.byte	0x25
 14161 3c8a 21       		.byte	0x21
 14162 3c8b 77       		.byte	0x77
 14163 3c8c 00       		.sleb128 0
 14164 3c8d 3D       		.byte	0x3d
 14165 3c8e 14       		.byte	0x14
 14166 3c8f 14       		.byte	0x14
 14167 3c90 1F       		.byte	0x1f
 14168 3c91 23       		.byte	0x23
 14169 3c92 20       		.uleb128 0x20
 14170 3c93 24       		.byte	0x24
 14171 3c94 17       		.byte	0x17
 14172 3c95 25       		.byte	0x25
 14173 3c96 21       		.byte	0x21
 14174 3c97 27       		.byte	0x27
 14175 3c98 77       		.byte	0x77
 14176 3c99 00       		.sleb128 0
 14177 3c9a 46       		.byte	0x46
 14178 3c9b 14       		.byte	0x14
 14179 3c9c 14       		.byte	0x14
 14180 3c9d 1F       		.byte	0x1f
 14181 3c9e 23       		.byte	0x23
 14182 3c9f 20       		.uleb128 0x20
 14183 3ca0 24       		.byte	0x24
ARM GAS  C:\Users\bogur\AppData\Local\Temp\cc4rWh5U.s 			page 255


 14184 3ca1 17       		.byte	0x17
 14185 3ca2 25       		.byte	0x25
 14186 3ca3 21       		.byte	0x21
 14187 3ca4 27       		.byte	0x27
 14188 3ca5 22       		.byte	0x22
 14189 3ca6 9F       		.byte	0x9f
 14190 3ca7 DE1A0000 		.4byte	.LVL621
 14191 3cab E21A0000 		.4byte	.LVL623
 14192 3caf 0100     		.2byte	0x1
 14193 3cb1 56       		.byte	0x56
 14194 3cb2 E21A0000 		.4byte	.LVL623
 14195 3cb6 001B0000 		.4byte	.LVL625
 14196 3cba 0F00     		.2byte	0xf
 14197 3cbc 7E       		.byte	0x7e
 14198 3cbd 00       		.sleb128 0
 14199 3cbe 77       		.byte	0x77
 14200 3cbf 00       		.sleb128 0
 14201 3cc0 27       		.byte	0x27
 14202 3cc1 79       		.byte	0x79
 14203 3cc2 00       		.sleb128 0
 14204 3cc3 1A       		.byte	0x1a
 14205 3cc4 73       		.byte	0x73
 14206 3cc5 00       		.sleb128 0
 14207 3cc6 27       		.byte	0x27
 14208 3cc7 71       		.byte	0x71
 14209 3cc8 00       		.sleb128 0
 14210 3cc9 22       		.byte	0x22
 14211 3cca 9F       		.byte	0x9f
 14212 3ccb 001B0000 		.4byte	.LVL625
 14213 3ccf 1C1B0000 		.4byte	.LVL627
 14214 3cd3 1200     		.2byte	0x12
 14215 3cd5 7E       		.byte	0x7e
 14216 3cd6 00       		.sleb128 0
 14217 3cd7 77       		.byte	0x77
 14218 3cd8 00       		.sleb128 0
 14219 3cd9 27       		.byte	0x27
 14220 3cda 79       		.byte	0x79
 14221 3cdb 00       		.sleb128 0
 14222 3cdc 1A       		.byte	0x1a
 14223 3cdd 7E       		.byte	0x7e
 14224 3cde 00       		.sleb128 0
 14225 3cdf 77       		.byte	0x77
 14226 3ce0 00       		.sleb128 0
 14227 3ce1 1A       		.byte	0x1a
 14228 3ce2 27       		.byte	0x27
 14229 3ce3 71       		.byte	0x71
 14230 3ce4 00       		.sleb128 0
 14231 3ce5 22       		.byte	0x22
 14232 3ce6 9F       		.byte	0x9f
 14233 3ce7 1C1B0000 		.4byte	.LVL627
 14234 3ceb 201B0000 		.4byte	.LVL628
 14235 3cef 3600     		.2byte	0x36
 14236 3cf1 7E       		.byte	0x7e
 14237 3cf2 00       		.sleb128 0
 14238 3cf3 77       		.byte	0x77
 14239 3cf4 00       		.sleb128 0
 14240 3cf5 27       		.byte	0x27
ARM GAS  C:\Users\bogur\AppData\Local\Temp\cc4rWh5U.s 			page 256


 14241 3cf6 79       		.byte	0x79
 14242 3cf7 00       		.sleb128 0
 14243 3cf8 1A       		.byte	0x1a
 14244 3cf9 7E       		.byte	0x7e
 14245 3cfa 00       		.sleb128 0
 14246 3cfb 77       		.byte	0x77
 14247 3cfc 00       		.sleb128 0
 14248 3cfd 1A       		.byte	0x1a
 14249 3cfe 27       		.byte	0x27
 14250 3cff 79       		.byte	0x79
 14251 3d00 00       		.sleb128 0
 14252 3d01 32       		.byte	0x32
 14253 3d02 14       		.byte	0x14
 14254 3d03 14       		.byte	0x14
 14255 3d04 1F       		.byte	0x1f
 14256 3d05 23       		.byte	0x23
 14257 3d06 20       		.uleb128 0x20
 14258 3d07 24       		.byte	0x24
 14259 3d08 17       		.byte	0x17
 14260 3d09 25       		.byte	0x25
 14261 3d0a 21       		.byte	0x21
 14262 3d0b 79       		.byte	0x79
 14263 3d0c 00       		.sleb128 0
 14264 3d0d 3D       		.byte	0x3d
 14265 3d0e 14       		.byte	0x14
 14266 3d0f 14       		.byte	0x14
 14267 3d10 1F       		.byte	0x1f
 14268 3d11 23       		.byte	0x23
 14269 3d12 20       		.uleb128 0x20
 14270 3d13 24       		.byte	0x24
 14271 3d14 17       		.byte	0x17
 14272 3d15 25       		.byte	0x25
 14273 3d16 21       		.byte	0x21
 14274 3d17 27       		.byte	0x27
 14275 3d18 79       		.byte	0x79
 14276 3d19 00       		.sleb128 0
 14277 3d1a 46       		.byte	0x46
 14278 3d1b 14       		.byte	0x14
 14279 3d1c 14       		.byte	0x14
 14280 3d1d 1F       		.byte	0x1f
 14281 3d1e 23       		.byte	0x23
 14282 3d1f 20       		.uleb128 0x20
 14283 3d20 24       		.byte	0x24
 14284 3d21 17       		.byte	0x17
 14285 3d22 25       		.byte	0x25
 14286 3d23 21       		.byte	0x21
 14287 3d24 27       		.byte	0x27
 14288 3d25 22       		.byte	0x22
 14289 3d26 9F       		.byte	0x9f
 14290 3d27 201B0000 		.4byte	.LVL628
 14291 3d2b 241B0000 		.4byte	.LVL630
 14292 3d2f 0100     		.2byte	0x1
 14293 3d31 55       		.byte	0x55
 14294 3d32 241B0000 		.4byte	.LVL630
 14295 3d36 3A1B0000 		.4byte	.LVL632
 14296 3d3a 0F00     		.2byte	0xf
 14297 3d3c 77       		.byte	0x77
ARM GAS  C:\Users\bogur\AppData\Local\Temp\cc4rWh5U.s 			page 257


 14298 3d3d 00       		.sleb128 0
 14299 3d3e 79       		.byte	0x79
 14300 3d3f 00       		.sleb128 0
 14301 3d40 27       		.byte	0x27
 14302 3d41 76       		.byte	0x76
 14303 3d42 00       		.sleb128 0
 14304 3d43 1A       		.byte	0x1a
 14305 3d44 71       		.byte	0x71
 14306 3d45 00       		.sleb128 0
 14307 3d46 27       		.byte	0x27
 14308 3d47 70       		.byte	0x70
 14309 3d48 00       		.sleb128 0
 14310 3d49 22       		.byte	0x22
 14311 3d4a 9F       		.byte	0x9f
 14312 3d4b 3A1B0000 		.4byte	.LVL632
 14313 3d4f 5C1B0000 		.4byte	.LVL635
 14314 3d53 3300     		.2byte	0x33
 14315 3d55 77       		.byte	0x77
 14316 3d56 00       		.sleb128 0
 14317 3d57 79       		.byte	0x79
 14318 3d58 00       		.sleb128 0
 14319 3d59 27       		.byte	0x27
 14320 3d5a 76       		.byte	0x76
 14321 3d5b 00       		.sleb128 0
 14322 3d5c 1A       		.byte	0x1a
 14323 3d5d 71       		.byte	0x71
 14324 3d5e 00       		.sleb128 0
 14325 3d5f 27       		.byte	0x27
 14326 3d60 76       		.byte	0x76
 14327 3d61 00       		.sleb128 0
 14328 3d62 32       		.byte	0x32
 14329 3d63 14       		.byte	0x14
 14330 3d64 14       		.byte	0x14
 14331 3d65 1F       		.byte	0x1f
 14332 3d66 23       		.byte	0x23
 14333 3d67 20       		.uleb128 0x20
 14334 3d68 24       		.byte	0x24
 14335 3d69 17       		.byte	0x17
 14336 3d6a 25       		.byte	0x25
 14337 3d6b 21       		.byte	0x21
 14338 3d6c 76       		.byte	0x76
 14339 3d6d 00       		.sleb128 0
 14340 3d6e 3D       		.byte	0x3d
 14341 3d6f 14       		.byte	0x14
 14342 3d70 14       		.byte	0x14
 14343 3d71 1F       		.byte	0x1f
 14344 3d72 23       		.byte	0x23
 14345 3d73 20       		.uleb128 0x20
 14346 3d74 24       		.byte	0x24
 14347 3d75 17       		.byte	0x17
 14348 3d76 25       		.byte	0x25
 14349 3d77 21       		.byte	0x21
 14350 3d78 27       		.byte	0x27
 14351 3d79 76       		.byte	0x76
 14352 3d7a 00       		.sleb128 0
 14353 3d7b 46       		.byte	0x46
 14354 3d7c 14       		.byte	0x14
ARM GAS  C:\Users\bogur\AppData\Local\Temp\cc4rWh5U.s 			page 258


 14355 3d7d 14       		.byte	0x14
 14356 3d7e 1F       		.byte	0x1f
 14357 3d7f 23       		.byte	0x23
 14358 3d80 20       		.uleb128 0x20
 14359 3d81 24       		.byte	0x24
 14360 3d82 17       		.byte	0x17
 14361 3d83 25       		.byte	0x25
 14362 3d84 21       		.byte	0x21
 14363 3d85 27       		.byte	0x27
 14364 3d86 22       		.byte	0x22
 14365 3d87 9F       		.byte	0x9f
 14366 3d88 5C1B0000 		.4byte	.LVL635
 14367 3d8c 641B0000 		.4byte	.LVL636
 14368 3d90 3600     		.2byte	0x36
 14369 3d92 77       		.byte	0x77
 14370 3d93 00       		.sleb128 0
 14371 3d94 79       		.byte	0x79
 14372 3d95 00       		.sleb128 0
 14373 3d96 27       		.byte	0x27
 14374 3d97 76       		.byte	0x76
 14375 3d98 00       		.sleb128 0
 14376 3d99 1A       		.byte	0x1a
 14377 3d9a 77       		.byte	0x77
 14378 3d9b 00       		.sleb128 0
 14379 3d9c 79       		.byte	0x79
 14380 3d9d 00       		.sleb128 0
 14381 3d9e 1A       		.byte	0x1a
 14382 3d9f 27       		.byte	0x27
 14383 3da0 76       		.byte	0x76
 14384 3da1 00       		.sleb128 0
 14385 3da2 32       		.byte	0x32
 14386 3da3 14       		.byte	0x14
 14387 3da4 14       		.byte	0x14
 14388 3da5 1F       		.byte	0x1f
 14389 3da6 23       		.byte	0x23
 14390 3da7 20       		.uleb128 0x20
 14391 3da8 24       		.byte	0x24
 14392 3da9 17       		.byte	0x17
 14393 3daa 25       		.byte	0x25
 14394 3dab 21       		.byte	0x21
 14395 3dac 76       		.byte	0x76
 14396 3dad 00       		.sleb128 0
 14397 3dae 3D       		.byte	0x3d
 14398 3daf 14       		.byte	0x14
 14399 3db0 14       		.byte	0x14
 14400 3db1 1F       		.byte	0x1f
 14401 3db2 23       		.byte	0x23
 14402 3db3 20       		.uleb128 0x20
 14403 3db4 24       		.byte	0x24
 14404 3db5 17       		.byte	0x17
 14405 3db6 25       		.byte	0x25
 14406 3db7 21       		.byte	0x21
 14407 3db8 27       		.byte	0x27
 14408 3db9 76       		.byte	0x76
 14409 3dba 00       		.sleb128 0
 14410 3dbb 46       		.byte	0x46
 14411 3dbc 14       		.byte	0x14
ARM GAS  C:\Users\bogur\AppData\Local\Temp\cc4rWh5U.s 			page 259


 14412 3dbd 14       		.byte	0x14
 14413 3dbe 1F       		.byte	0x1f
 14414 3dbf 23       		.byte	0x23
 14415 3dc0 20       		.uleb128 0x20
 14416 3dc1 24       		.byte	0x24
 14417 3dc2 17       		.byte	0x17
 14418 3dc3 25       		.byte	0x25
 14419 3dc4 21       		.byte	0x21
 14420 3dc5 27       		.byte	0x27
 14421 3dc6 22       		.byte	0x22
 14422 3dc7 9F       		.byte	0x9f
 14423 3dc8 641B0000 		.4byte	.LVL636
 14424 3dcc 681B0000 		.4byte	.LVL638
 14425 3dd0 0100     		.2byte	0x1
 14426 3dd2 54       		.byte	0x54
 14427 3dd3 681B0000 		.4byte	.LVL638
 14428 3dd7 6A1B0000 		.4byte	.LVL639
 14429 3ddb 2A00     		.2byte	0x2a
 14430 3ddd 75       		.byte	0x75
 14431 3dde 00       		.sleb128 0
 14432 3ddf 32       		.byte	0x32
 14433 3de0 14       		.byte	0x14
 14434 3de1 14       		.byte	0x14
 14435 3de2 1F       		.byte	0x1f
 14436 3de3 23       		.byte	0x23
 14437 3de4 20       		.uleb128 0x20
 14438 3de5 24       		.byte	0x24
 14439 3de6 17       		.byte	0x17
 14440 3de7 25       		.byte	0x25
 14441 3de8 21       		.byte	0x21
 14442 3de9 75       		.byte	0x75
 14443 3dea 00       		.sleb128 0
 14444 3deb 3D       		.byte	0x3d
 14445 3dec 14       		.byte	0x14
 14446 3ded 14       		.byte	0x14
 14447 3dee 1F       		.byte	0x1f
 14448 3def 23       		.byte	0x23
 14449 3df0 20       		.uleb128 0x20
 14450 3df1 24       		.byte	0x24
 14451 3df2 17       		.byte	0x17
 14452 3df3 25       		.byte	0x25
 14453 3df4 21       		.byte	0x21
 14454 3df5 27       		.byte	0x27
 14455 3df6 75       		.byte	0x75
 14456 3df7 00       		.sleb128 0
 14457 3df8 46       		.byte	0x46
 14458 3df9 14       		.byte	0x14
 14459 3dfa 14       		.byte	0x14
 14460 3dfb 1F       		.byte	0x1f
 14461 3dfc 23       		.byte	0x23
 14462 3dfd 20       		.uleb128 0x20
 14463 3dfe 24       		.byte	0x24
 14464 3dff 17       		.byte	0x17
 14465 3e00 25       		.byte	0x25
 14466 3e01 21       		.byte	0x21
 14467 3e02 27       		.byte	0x27
 14468 3e03 73       		.byte	0x73
ARM GAS  C:\Users\bogur\AppData\Local\Temp\cc4rWh5U.s 			page 260


 14469 3e04 00       		.sleb128 0
 14470 3e05 22       		.byte	0x22
 14471 3e06 9F       		.byte	0x9f
 14472 3e07 6A1B0000 		.4byte	.LVL639
 14473 3e0b 701B0000 		.4byte	.LVL641
 14474 3e0f 3000     		.2byte	0x30
 14475 3e11 75       		.byte	0x75
 14476 3e12 00       		.sleb128 0
 14477 3e13 32       		.byte	0x32
 14478 3e14 14       		.byte	0x14
 14479 3e15 14       		.byte	0x14
 14480 3e16 1F       		.byte	0x1f
 14481 3e17 23       		.byte	0x23
 14482 3e18 20       		.uleb128 0x20
 14483 3e19 24       		.byte	0x24
 14484 3e1a 17       		.byte	0x17
 14485 3e1b 25       		.byte	0x25
 14486 3e1c 21       		.byte	0x21
 14487 3e1d 75       		.byte	0x75
 14488 3e1e 00       		.sleb128 0
 14489 3e1f 3D       		.byte	0x3d
 14490 3e20 14       		.byte	0x14
 14491 3e21 14       		.byte	0x14
 14492 3e22 1F       		.byte	0x1f
 14493 3e23 23       		.byte	0x23
 14494 3e24 20       		.uleb128 0x20
 14495 3e25 24       		.byte	0x24
 14496 3e26 17       		.byte	0x17
 14497 3e27 25       		.byte	0x25
 14498 3e28 21       		.byte	0x21
 14499 3e29 27       		.byte	0x27
 14500 3e2a 75       		.byte	0x75
 14501 3e2b 00       		.sleb128 0
 14502 3e2c 46       		.byte	0x46
 14503 3e2d 14       		.byte	0x14
 14504 3e2e 14       		.byte	0x14
 14505 3e2f 1F       		.byte	0x1f
 14506 3e30 23       		.byte	0x23
 14507 3e31 20       		.uleb128 0x20
 14508 3e32 24       		.byte	0x24
 14509 3e33 17       		.byte	0x17
 14510 3e34 25       		.byte	0x25
 14511 3e35 21       		.byte	0x21
 14512 3e36 27       		.byte	0x27
 14513 3e37 79       		.byte	0x79
 14514 3e38 00       		.sleb128 0
 14515 3e39 76       		.byte	0x76
 14516 3e3a 00       		.sleb128 0
 14517 3e3b 1A       		.byte	0x1a
 14518 3e3c 71       		.byte	0x71
 14519 3e3d 00       		.sleb128 0
 14520 3e3e 27       		.byte	0x27
 14521 3e3f 22       		.byte	0x22
 14522 3e40 9F       		.byte	0x9f
 14523 3e41 00000000 		.4byte	0
 14524 3e45 00000000 		.4byte	0
 14525              	.LLST15:
ARM GAS  C:\Users\bogur\AppData\Local\Temp\cc4rWh5U.s 			page 261


 14526 3e49 A0000000 		.4byte	.LVL36
 14527 3e4d A4000000 		.4byte	.LVL37
 14528 3e51 0100     		.2byte	0x1
 14529 3e53 50       		.byte	0x50
 14530 3e54 A4000000 		.4byte	.LVL37
 14531 3e58 12060000 		.4byte	.LVL197
 14532 3e5c 0300     		.2byte	0x3
 14533 3e5e 91       		.byte	0x91
 14534 3e5f 8C7F     		.sleb128 -116
 14535 3e61 12060000 		.4byte	.LVL197
 14536 3e65 480D0000 		.4byte	.LVL338
 14537 3e69 0100     		.2byte	0x1
 14538 3e6b 5E       		.byte	0x5e
 14539 3e6c 4C0D0000 		.4byte	.LVL339
 14540 3e70 520D0000 		.4byte	.LVL340
 14541 3e74 0100     		.2byte	0x1
 14542 3e76 5E       		.byte	0x5e
 14543 3e77 520D0000 		.4byte	.LVL340
 14544 3e7b 88140000 		.4byte	.LVL486
 14545 3e7f 0300     		.2byte	0x3
 14546 3e81 91       		.byte	0x91
 14547 3e82 F87E     		.sleb128 -136
 14548 3e84 88140000 		.4byte	.LVL486
 14549 3e88 20170000 		.4byte	.LVL514
 14550 3e8c 0100     		.2byte	0x1
 14551 3e8e 5E       		.byte	0x5e
 14552 3e8f 00000000 		.4byte	0
 14553 3e93 00000000 		.4byte	0
 14554              	.LLST16:
 14555 3e97 AA000000 		.4byte	.LVL39
 14556 3e9b B0000000 		.4byte	.LVL40
 14557 3e9f 0100     		.2byte	0x1
 14558 3ea1 50       		.byte	0x50
 14559 3ea2 B0000000 		.4byte	.LVL40
 14560 3ea6 3C060000 		.4byte	.LVL198
 14561 3eaa 0300     		.2byte	0x3
 14562 3eac 91       		.byte	0x91
 14563 3ead C87E     		.sleb128 -184
 14564 3eaf 3C060000 		.4byte	.LVL198
 14565 3eb3 740D0000 		.4byte	.LVL341
 14566 3eb7 0100     		.2byte	0x1
 14567 3eb9 5B       		.byte	0x5b
 14568 3eba 740D0000 		.4byte	.LVL341
 14569 3ebe 8E0D0000 		.4byte	.LVL342
 14570 3ec2 0100     		.2byte	0x1
 14571 3ec4 5E       		.byte	0x5e
 14572 3ec5 8E0D0000 		.4byte	.LVL342
 14573 3ec9 B4140000 		.4byte	.LVL487
 14574 3ecd 0300     		.2byte	0x3
 14575 3ecf 91       		.byte	0x91
 14576 3ed0 FC7E     		.sleb128 -132
 14577 3ed2 B4140000 		.4byte	.LVL487
 14578 3ed6 66170000 		.4byte	.LVL521
 14579 3eda 0100     		.2byte	0x1
 14580 3edc 59       		.byte	0x59
 14581 3edd 00000000 		.4byte	0
 14582 3ee1 00000000 		.4byte	0
ARM GAS  C:\Users\bogur\AppData\Local\Temp\cc4rWh5U.s 			page 262


 14583              	.LLST17:
 14584 3ee5 B6000000 		.4byte	.LVL42
 14585 3ee9 BC000000 		.4byte	.LVL43
 14586 3eed 0100     		.2byte	0x1
 14587 3eef 50       		.byte	0x50
 14588 3ef0 BC000000 		.4byte	.LVL43
 14589 3ef4 64060000 		.4byte	.LVL199
 14590 3ef8 0300     		.2byte	0x3
 14591 3efa 91       		.byte	0x91
 14592 3efb CC7E     		.sleb128 -180
 14593 3efd 64060000 		.4byte	.LVL199
 14594 3f01 A00D0000 		.4byte	.LVL343
 14595 3f05 0100     		.2byte	0x1
 14596 3f07 5C       		.byte	0x5c
 14597 3f08 A00D0000 		.4byte	.LVL343
 14598 3f0c BA0D0000 		.4byte	.LVL344
 14599 3f10 0100     		.2byte	0x1
 14600 3f12 5E       		.byte	0x5e
 14601 3f13 BA0D0000 		.4byte	.LVL344
 14602 3f17 DC140000 		.4byte	.LVL488
 14603 3f1b 0300     		.2byte	0x3
 14604 3f1d 91       		.byte	0x91
 14605 3f1e 807F     		.sleb128 -128
 14606 3f20 DC140000 		.4byte	.LVL488
 14607 3f24 BA170000 		.4byte	.LVL529
 14608 3f28 0100     		.2byte	0x1
 14609 3f2a 58       		.byte	0x58
 14610 3f2b 00000000 		.4byte	0
 14611 3f2f 00000000 		.4byte	0
 14612              	.LLST18:
 14613 3f33 C2000000 		.4byte	.LVL45
 14614 3f37 C8000000 		.4byte	.LVL46
 14615 3f3b 0100     		.2byte	0x1
 14616 3f3d 50       		.byte	0x50
 14617 3f3e C8000000 		.4byte	.LVL46
 14618 3f42 8C060000 		.4byte	.LVL200
 14619 3f46 0300     		.2byte	0x3
 14620 3f48 91       		.byte	0x91
 14621 3f49 D07E     		.sleb128 -176
 14622 3f4b 8C060000 		.4byte	.LVL200
 14623 3f4f 9A060000 		.4byte	.LVL201
 14624 3f53 0100     		.2byte	0x1
 14625 3f55 50       		.byte	0x50
 14626 3f56 9A060000 		.4byte	.LVL201
 14627 3f5a CE0D0000 		.4byte	.LVL345
 14628 3f5e 0300     		.2byte	0x3
 14629 3f60 91       		.byte	0x91
 14630 3f61 C87E     		.sleb128 -184
 14631 3f63 CE0D0000 		.4byte	.LVL345
 14632 3f67 D40D0000 		.4byte	.LVL346
 14633 3f6b 0100     		.2byte	0x1
 14634 3f6d 5E       		.byte	0x5e
 14635 3f6e D40D0000 		.4byte	.LVL346
 14636 3f72 02150000 		.4byte	.LVL489
 14637 3f76 0300     		.2byte	0x3
 14638 3f78 91       		.byte	0x91
 14639 3f79 847F     		.sleb128 -124
ARM GAS  C:\Users\bogur\AppData\Local\Temp\cc4rWh5U.s 			page 263


 14640 3f7b 02150000 		.4byte	.LVL489
 14641 3f7f FC170000 		.4byte	.LVL537
 14642 3f83 0100     		.2byte	0x1
 14643 3f85 5C       		.byte	0x5c
 14644 3f86 00000000 		.4byte	0
 14645 3f8a 00000000 		.4byte	0
 14646              	.LLST19:
 14647 3f8e CE000000 		.4byte	.LVL48
 14648 3f92 D4000000 		.4byte	.LVL49
 14649 3f96 0100     		.2byte	0x1
 14650 3f98 50       		.byte	0x50
 14651 3f99 D4000000 		.4byte	.LVL49
 14652 3f9d B4060000 		.4byte	.LVL202
 14653 3fa1 0300     		.2byte	0x3
 14654 3fa3 91       		.byte	0x91
 14655 3fa4 D47E     		.sleb128 -172
 14656 3fa6 B4060000 		.4byte	.LVL202
 14657 3faa CA060000 		.4byte	.LVL203
 14658 3fae 0100     		.2byte	0x1
 14659 3fb0 50       		.byte	0x50
 14660 3fb1 CA060000 		.4byte	.LVL203
 14661 3fb5 F80D0000 		.4byte	.LVL347
 14662 3fb9 0300     		.2byte	0x3
 14663 3fbb 91       		.byte	0x91
 14664 3fbc CC7E     		.sleb128 -180
 14665 3fbe F80D0000 		.4byte	.LVL347
 14666 3fc2 FA0D0000 		.4byte	.LVL348
 14667 3fc6 0100     		.2byte	0x1
 14668 3fc8 56       		.byte	0x56
 14669 3fc9 FA0D0000 		.4byte	.LVL348
 14670 3fcd 2A150000 		.4byte	.LVL490
 14671 3fd1 0300     		.2byte	0x3
 14672 3fd3 91       		.byte	0x91
 14673 3fd4 887F     		.sleb128 -120
 14674 3fd6 2A150000 		.4byte	.LVL490
 14675 3fda 40150000 		.4byte	.LVL491
 14676 3fde 0100     		.2byte	0x1
 14677 3fe0 5A       		.byte	0x5a
 14678 3fe1 40150000 		.4byte	.LVL491
 14679 3fe5 EE1B0000 		.4byte	.LVL650
 14680 3fe9 0300     		.2byte	0x3
 14681 3feb 91       		.byte	0x91
 14682 3fec F47E     		.sleb128 -140
 14683 3fee 00000000 		.4byte	0
 14684 3ff2 00000000 		.4byte	0
 14685              	.LLST20:
 14686 3ff6 DA000000 		.4byte	.LVL51
 14687 3ffa E0000000 		.4byte	.LVL52
 14688 3ffe 0100     		.2byte	0x1
 14689 4000 50       		.byte	0x50
 14690 4001 E0000000 		.4byte	.LVL52
 14691 4005 DC060000 		.4byte	.LVL204
 14692 4009 0300     		.2byte	0x3
 14693 400b 91       		.byte	0x91
 14694 400c D87E     		.sleb128 -168
 14695 400e DC060000 		.4byte	.LVL204
 14696 4012 EC060000 		.4byte	.LVL205
ARM GAS  C:\Users\bogur\AppData\Local\Temp\cc4rWh5U.s 			page 264


 14697 4016 0100     		.2byte	0x1
 14698 4018 50       		.byte	0x50
 14699 4019 EC060000 		.4byte	.LVL205
 14700 401d 220E0000 		.4byte	.LVL349
 14701 4021 0300     		.2byte	0x3
 14702 4023 91       		.byte	0x91
 14703 4024 D07E     		.sleb128 -176
 14704 4026 220E0000 		.4byte	.LVL349
 14705 402a 360E0000 		.4byte	.LVL351
 14706 402e 0100     		.2byte	0x1
 14707 4030 56       		.byte	0x56
 14708 4031 360E0000 		.4byte	.LVL351
 14709 4035 52150000 		.4byte	.LVL492
 14710 4039 0300     		.2byte	0x3
 14711 403b 91       		.byte	0x91
 14712 403c D07E     		.sleb128 -176
 14713 403e 52150000 		.4byte	.LVL492
 14714 4042 56150000 		.4byte	.LVL493
 14715 4046 0100     		.2byte	0x1
 14716 4048 5A       		.byte	0x5a
 14717 4049 56150000 		.4byte	.LVL493
 14718 404d EE1B0000 		.4byte	.LVL650
 14719 4051 0300     		.2byte	0x3
 14720 4053 91       		.byte	0x91
 14721 4054 D07E     		.sleb128 -176
 14722 4056 00000000 		.4byte	0
 14723 405a 00000000 		.4byte	0
 14724              	.LLST21:
 14725 405e E6000000 		.4byte	.LVL54
 14726 4062 EC000000 		.4byte	.LVL55
 14727 4066 0100     		.2byte	0x1
 14728 4068 50       		.byte	0x50
 14729 4069 EC000000 		.4byte	.LVL55
 14730 406d 06070000 		.4byte	.LVL206
 14731 4071 0300     		.2byte	0x3
 14732 4073 91       		.byte	0x91
 14733 4074 DC7E     		.sleb128 -164
 14734 4076 06070000 		.4byte	.LVL206
 14735 407a 1C070000 		.4byte	.LVL207
 14736 407e 0100     		.2byte	0x1
 14737 4080 50       		.byte	0x50
 14738 4081 1C070000 		.4byte	.LVL207
 14739 4085 500E0000 		.4byte	.LVL352
 14740 4089 0300     		.2byte	0x3
 14741 408b 91       		.byte	0x91
 14742 408c D47E     		.sleb128 -172
 14743 408e 500E0000 		.4byte	.LVL352
 14744 4092 6A0E0000 		.4byte	.LVL353
 14745 4096 0100     		.2byte	0x1
 14746 4098 5E       		.byte	0x5e
 14747 4099 6A0E0000 		.4byte	.LVL353
 14748 409d 7E150000 		.4byte	.LVL494
 14749 40a1 0300     		.2byte	0x3
 14750 40a3 91       		.byte	0x91
 14751 40a4 D47E     		.sleb128 -172
 14752 40a6 7E150000 		.4byte	.LVL494
 14753 40aa 82150000 		.4byte	.LVL495
ARM GAS  C:\Users\bogur\AppData\Local\Temp\cc4rWh5U.s 			page 265


 14754 40ae 0100     		.2byte	0x1
 14755 40b0 5A       		.byte	0x5a
 14756 40b1 82150000 		.4byte	.LVL495
 14757 40b5 EE1B0000 		.4byte	.LVL650
 14758 40b9 0300     		.2byte	0x3
 14759 40bb 91       		.byte	0x91
 14760 40bc D47E     		.sleb128 -172
 14761 40be 00000000 		.4byte	0
 14762 40c2 00000000 		.4byte	0
 14763              	.LLST22:
 14764 40c6 F2000000 		.4byte	.LVL57
 14765 40ca F8000000 		.4byte	.LVL58
 14766 40ce 0100     		.2byte	0x1
 14767 40d0 50       		.byte	0x50
 14768 40d1 F8000000 		.4byte	.LVL58
 14769 40d5 2E070000 		.4byte	.LVL208
 14770 40d9 0300     		.2byte	0x3
 14771 40db 91       		.byte	0x91
 14772 40dc E07E     		.sleb128 -160
 14773 40de 2E070000 		.4byte	.LVL208
 14774 40e2 42070000 		.4byte	.LVL209
 14775 40e6 0100     		.2byte	0x1
 14776 40e8 50       		.byte	0x50
 14777 40e9 42070000 		.4byte	.LVL209
 14778 40ed 7E0E0000 		.4byte	.LVL354
 14779 40f1 0300     		.2byte	0x3
 14780 40f3 91       		.byte	0x91
 14781 40f4 D87E     		.sleb128 -168
 14782 40f6 7E0E0000 		.4byte	.LVL354
 14783 40fa 980E0000 		.4byte	.LVL355
 14784 40fe 0100     		.2byte	0x1
 14785 4100 5E       		.byte	0x5e
 14786 4101 980E0000 		.4byte	.LVL355
 14787 4105 A8150000 		.4byte	.LVL496
 14788 4109 0300     		.2byte	0x3
 14789 410b 91       		.byte	0x91
 14790 410c D87E     		.sleb128 -168
 14791 410e A8150000 		.4byte	.LVL496
 14792 4112 AC150000 		.4byte	.LVL497
 14793 4116 0100     		.2byte	0x1
 14794 4118 5A       		.byte	0x5a
 14795 4119 AC150000 		.4byte	.LVL497
 14796 411d EE1B0000 		.4byte	.LVL650
 14797 4121 0300     		.2byte	0x3
 14798 4123 91       		.byte	0x91
 14799 4124 D87E     		.sleb128 -168
 14800 4126 00000000 		.4byte	0
 14801 412a 00000000 		.4byte	0
 14802              	.LLST23:
 14803 412e FE000000 		.4byte	.LVL60
 14804 4132 04010000 		.4byte	.LVL61
 14805 4136 0100     		.2byte	0x1
 14806 4138 50       		.byte	0x50
 14807 4139 04010000 		.4byte	.LVL61
 14808 413d 52070000 		.4byte	.LVL210
 14809 4141 0300     		.2byte	0x3
 14810 4143 91       		.byte	0x91
ARM GAS  C:\Users\bogur\AppData\Local\Temp\cc4rWh5U.s 			page 266


 14811 4144 E47E     		.sleb128 -156
 14812 4146 52070000 		.4byte	.LVL210
 14813 414a 68070000 		.4byte	.LVL211
 14814 414e 0100     		.2byte	0x1
 14815 4150 50       		.byte	0x50
 14816 4151 68070000 		.4byte	.LVL211
 14817 4155 AC0E0000 		.4byte	.LVL356
 14818 4159 0300     		.2byte	0x3
 14819 415b 91       		.byte	0x91
 14820 415c DC7E     		.sleb128 -164
 14821 415e AC0E0000 		.4byte	.LVL356
 14822 4162 C60E0000 		.4byte	.LVL357
 14823 4166 0100     		.2byte	0x1
 14824 4168 5E       		.byte	0x5e
 14825 4169 C60E0000 		.4byte	.LVL357
 14826 416d D2150000 		.4byte	.LVL498
 14827 4171 0300     		.2byte	0x3
 14828 4173 91       		.byte	0x91
 14829 4174 DC7E     		.sleb128 -164
 14830 4176 D2150000 		.4byte	.LVL498
 14831 417a D6150000 		.4byte	.LVL499
 14832 417e 0100     		.2byte	0x1
 14833 4180 5A       		.byte	0x5a
 14834 4181 D6150000 		.4byte	.LVL499
 14835 4185 EE1B0000 		.4byte	.LVL650
 14836 4189 0300     		.2byte	0x3
 14837 418b 91       		.byte	0x91
 14838 418c DC7E     		.sleb128 -164
 14839 418e 00000000 		.4byte	0
 14840 4192 00000000 		.4byte	0
 14841              	.LLST24:
 14842 4196 0A010000 		.4byte	.LVL63
 14843 419a 10010000 		.4byte	.LVL64
 14844 419e 0100     		.2byte	0x1
 14845 41a0 50       		.byte	0x50
 14846 41a1 10010000 		.4byte	.LVL64
 14847 41a5 78070000 		.4byte	.LVL212
 14848 41a9 0300     		.2byte	0x3
 14849 41ab 91       		.byte	0x91
 14850 41ac 807F     		.sleb128 -128
 14851 41ae 78070000 		.4byte	.LVL212
 14852 41b2 88070000 		.4byte	.LVL213
 14853 41b6 0100     		.2byte	0x1
 14854 41b8 50       		.byte	0x50
 14855 41b9 88070000 		.4byte	.LVL213
 14856 41bd D60E0000 		.4byte	.LVL358
 14857 41c1 0300     		.2byte	0x3
 14858 41c3 91       		.byte	0x91
 14859 41c4 E07E     		.sleb128 -160
 14860 41c6 D60E0000 		.4byte	.LVL358
 14861 41ca EE0E0000 		.4byte	.LVL359
 14862 41ce 0100     		.2byte	0x1
 14863 41d0 51       		.byte	0x51
 14864 41d1 EE0E0000 		.4byte	.LVL359
 14865 41d5 FC150000 		.4byte	.LVL500
 14866 41d9 0300     		.2byte	0x3
 14867 41db 91       		.byte	0x91
ARM GAS  C:\Users\bogur\AppData\Local\Temp\cc4rWh5U.s 			page 267


 14868 41dc E07E     		.sleb128 -160
 14869 41de FC150000 		.4byte	.LVL500
 14870 41e2 00160000 		.4byte	.LVL501
 14871 41e6 0100     		.2byte	0x1
 14872 41e8 5A       		.byte	0x5a
 14873 41e9 00160000 		.4byte	.LVL501
 14874 41ed EE1B0000 		.4byte	.LVL650
 14875 41f1 0300     		.2byte	0x3
 14876 41f3 91       		.byte	0x91
 14877 41f4 E07E     		.sleb128 -160
 14878 41f6 00000000 		.4byte	0
 14879 41fa 00000000 		.4byte	0
 14880              	.LLST25:
 14881 41fe 16010000 		.4byte	.LVL66
 14882 4202 1C010000 		.4byte	.LVL67
 14883 4206 0100     		.2byte	0x1
 14884 4208 50       		.byte	0x50
 14885 4209 1C010000 		.4byte	.LVL67
 14886 420d A0070000 		.4byte	.LVL214
 14887 4211 0300     		.2byte	0x3
 14888 4213 91       		.byte	0x91
 14889 4214 E87E     		.sleb128 -152
 14890 4216 A0070000 		.4byte	.LVL214
 14891 421a B0070000 		.4byte	.LVL215
 14892 421e 0100     		.2byte	0x1
 14893 4220 50       		.byte	0x50
 14894 4221 B0070000 		.4byte	.LVL215
 14895 4225 000F0000 		.4byte	.LVL360
 14896 4229 0300     		.2byte	0x3
 14897 422b 91       		.byte	0x91
 14898 422c E47E     		.sleb128 -156
 14899 422e 000F0000 		.4byte	.LVL360
 14900 4232 100F0000 		.4byte	.LVL361
 14901 4236 0100     		.2byte	0x1
 14902 4238 51       		.byte	0x51
 14903 4239 100F0000 		.4byte	.LVL361
 14904 423d 26160000 		.4byte	.LVL502
 14905 4241 0300     		.2byte	0x3
 14906 4243 91       		.byte	0x91
 14907 4244 E47E     		.sleb128 -156
 14908 4246 26160000 		.4byte	.LVL502
 14909 424a 2A160000 		.4byte	.LVL503
 14910 424e 0100     		.2byte	0x1
 14911 4250 5A       		.byte	0x5a
 14912 4251 2A160000 		.4byte	.LVL503
 14913 4255 EE1B0000 		.4byte	.LVL650
 14914 4259 0300     		.2byte	0x3
 14915 425b 91       		.byte	0x91
 14916 425c E47E     		.sleb128 -156
 14917 425e 00000000 		.4byte	0
 14918 4262 00000000 		.4byte	0
 14919              	.LLST26:
 14920 4266 22010000 		.4byte	.LVL69
 14921 426a 28010000 		.4byte	.LVL70
 14922 426e 0100     		.2byte	0x1
 14923 4270 50       		.byte	0x50
 14924 4271 28010000 		.4byte	.LVL70
ARM GAS  C:\Users\bogur\AppData\Local\Temp\cc4rWh5U.s 			page 268


 14925 4275 C8070000 		.4byte	.LVL216
 14926 4279 0300     		.2byte	0x3
 14927 427b 91       		.byte	0x91
 14928 427c EC7E     		.sleb128 -148
 14929 427e C8070000 		.4byte	.LVL216
 14930 4282 D8070000 		.4byte	.LVL217
 14931 4286 0100     		.2byte	0x1
 14932 4288 50       		.byte	0x50
 14933 4289 D8070000 		.4byte	.LVL217
 14934 428d 2A0F0000 		.4byte	.LVL362
 14935 4291 0300     		.2byte	0x3
 14936 4293 91       		.byte	0x91
 14937 4294 E87E     		.sleb128 -152
 14938 4296 2A0F0000 		.4byte	.LVL362
 14939 429a 3E0F0000 		.4byte	.LVL363
 14940 429e 0100     		.2byte	0x1
 14941 42a0 56       		.byte	0x56
 14942 42a1 3E0F0000 		.4byte	.LVL363
 14943 42a5 52160000 		.4byte	.LVL504
 14944 42a9 0300     		.2byte	0x3
 14945 42ab 91       		.byte	0x91
 14946 42ac E87E     		.sleb128 -152
 14947 42ae 52160000 		.4byte	.LVL504
 14948 42b2 56160000 		.4byte	.LVL505
 14949 42b6 0100     		.2byte	0x1
 14950 42b8 5A       		.byte	0x5a
 14951 42b9 56160000 		.4byte	.LVL505
 14952 42bd EE1B0000 		.4byte	.LVL650
 14953 42c1 0300     		.2byte	0x3
 14954 42c3 91       		.byte	0x91
 14955 42c4 E87E     		.sleb128 -152
 14956 42c6 00000000 		.4byte	0
 14957 42ca 00000000 		.4byte	0
 14958              	.LLST27:
 14959 42ce 2E010000 		.4byte	.LVL72
 14960 42d2 34010000 		.4byte	.LVL73
 14961 42d6 0100     		.2byte	0x1
 14962 42d8 50       		.byte	0x50
 14963 42d9 34010000 		.4byte	.LVL73
 14964 42dd F0070000 		.4byte	.LVL218
 14965 42e1 0300     		.2byte	0x3
 14966 42e3 91       		.byte	0x91
 14967 42e4 F07E     		.sleb128 -144
 14968 42e6 F0070000 		.4byte	.LVL218
 14969 42ea 00080000 		.4byte	.LVL219
 14970 42ee 0100     		.2byte	0x1
 14971 42f0 50       		.byte	0x50
 14972 42f1 00080000 		.4byte	.LVL219
 14973 42f5 540F0000 		.4byte	.LVL364
 14974 42f9 0300     		.2byte	0x3
 14975 42fb 91       		.byte	0x91
 14976 42fc EC7E     		.sleb128 -148
 14977 42fe 540F0000 		.4byte	.LVL364
 14978 4302 640F0000 		.4byte	.LVL365
 14979 4306 0100     		.2byte	0x1
 14980 4308 51       		.byte	0x51
 14981 4309 640F0000 		.4byte	.LVL365
ARM GAS  C:\Users\bogur\AppData\Local\Temp\cc4rWh5U.s 			page 269


 14982 430d 7E160000 		.4byte	.LVL506
 14983 4311 0300     		.2byte	0x3
 14984 4313 91       		.byte	0x91
 14985 4314 EC7E     		.sleb128 -148
 14986 4316 7E160000 		.4byte	.LVL506
 14987 431a 82160000 		.4byte	.LVL507
 14988 431e 0100     		.2byte	0x1
 14989 4320 5A       		.byte	0x5a
 14990 4321 82160000 		.4byte	.LVL507
 14991 4325 EE1B0000 		.4byte	.LVL650
 14992 4329 0300     		.2byte	0x3
 14993 432b 91       		.byte	0x91
 14994 432c EC7E     		.sleb128 -148
 14995 432e 00000000 		.4byte	0
 14996 4332 00000000 		.4byte	0
 14997              	.LLST28:
 14998 4336 3A010000 		.4byte	.LVL75
 14999 433a 40010000 		.4byte	.LVL76
 15000 433e 0100     		.2byte	0x1
 15001 4340 50       		.byte	0x50
 15002 4341 40010000 		.4byte	.LVL76
 15003 4345 18080000 		.4byte	.LVL220
 15004 4349 0300     		.2byte	0x3
 15005 434b 91       		.byte	0x91
 15006 434c F47E     		.sleb128 -140
 15007 434e 18080000 		.4byte	.LVL220
 15008 4352 28080000 		.4byte	.LVL221
 15009 4356 0100     		.2byte	0x1
 15010 4358 55       		.byte	0x55
 15011 4359 28080000 		.4byte	.LVL221
 15012 435d 7E0F0000 		.4byte	.LVL366
 15013 4361 0300     		.2byte	0x3
 15014 4363 91       		.byte	0x91
 15015 4364 F07E     		.sleb128 -144
 15016 4366 7E0F0000 		.4byte	.LVL366
 15017 436a 920F0000 		.4byte	.LVL367
 15018 436e 0100     		.2byte	0x1
 15019 4370 56       		.byte	0x56
 15020 4371 920F0000 		.4byte	.LVL367
 15021 4375 AA160000 		.4byte	.LVL508
 15022 4379 0300     		.2byte	0x3
 15023 437b 91       		.byte	0x91
 15024 437c F07E     		.sleb128 -144
 15025 437e AA160000 		.4byte	.LVL508
 15026 4382 AE160000 		.4byte	.LVL509
 15027 4386 0100     		.2byte	0x1
 15028 4388 5A       		.byte	0x5a
 15029 4389 AE160000 		.4byte	.LVL509
 15030 438d EE1B0000 		.4byte	.LVL650
 15031 4391 0300     		.2byte	0x3
 15032 4393 91       		.byte	0x91
 15033 4394 F07E     		.sleb128 -144
 15034 4396 00000000 		.4byte	0
 15035 439a 00000000 		.4byte	0
 15036              	.LLST29:
 15037 439e 46010000 		.4byte	.LVL78
 15038 43a2 4C010000 		.4byte	.LVL79
ARM GAS  C:\Users\bogur\AppData\Local\Temp\cc4rWh5U.s 			page 270


 15039 43a6 0100     		.2byte	0x1
 15040 43a8 50       		.byte	0x50
 15041 43a9 4C010000 		.4byte	.LVL79
 15042 43ad 40080000 		.4byte	.LVL222
 15043 43b1 0300     		.2byte	0x3
 15044 43b3 91       		.byte	0x91
 15045 43b4 847F     		.sleb128 -124
 15046 43b6 40080000 		.4byte	.LVL222
 15047 43ba 50080000 		.4byte	.LVL223
 15048 43be 0100     		.2byte	0x1
 15049 43c0 55       		.byte	0x55
 15050 43c1 50080000 		.4byte	.LVL223
 15051 43c5 A80F0000 		.4byte	.LVL368
 15052 43c9 0300     		.2byte	0x3
 15053 43cb 91       		.byte	0x91
 15054 43cc 8C7F     		.sleb128 -116
 15055 43ce A80F0000 		.4byte	.LVL368
 15056 43d2 B80F0000 		.4byte	.LVL369
 15057 43d6 0100     		.2byte	0x1
 15058 43d8 56       		.byte	0x56
 15059 43d9 B80F0000 		.4byte	.LVL369
 15060 43dd D6160000 		.4byte	.LVL510
 15061 43e1 0300     		.2byte	0x3
 15062 43e3 91       		.byte	0x91
 15063 43e4 C87E     		.sleb128 -184
 15064 43e6 D6160000 		.4byte	.LVL510
 15065 43ea DA160000 		.4byte	.LVL511
 15066 43ee 0100     		.2byte	0x1
 15067 43f0 5A       		.byte	0x5a
 15068 43f1 DA160000 		.4byte	.LVL511
 15069 43f5 EE1B0000 		.4byte	.LVL650
 15070 43f9 0300     		.2byte	0x3
 15071 43fb 91       		.byte	0x91
 15072 43fc C87E     		.sleb128 -184
 15073 43fe 00000000 		.4byte	0
 15074 4402 00000000 		.4byte	0
 15075              	.LLST30:
 15076 4406 52010000 		.4byte	.LVL81
 15077 440a 90010000 		.4byte	.LVL84
 15078 440e 0100     		.2byte	0x1
 15079 4410 50       		.byte	0x50
 15080 4411 90010000 		.4byte	.LVL84
 15081 4415 66080000 		.4byte	.LVL224
 15082 4419 0300     		.2byte	0x3
 15083 441b 91       		.byte	0x91
 15084 441c F87E     		.sleb128 -136
 15085 441e 66080000 		.4byte	.LVL224
 15086 4422 68080000 		.4byte	.LVL225
 15087 4426 0100     		.2byte	0x1
 15088 4428 55       		.byte	0x55
 15089 4429 68080000 		.4byte	.LVL225
 15090 442d D20F0000 		.4byte	.LVL370
 15091 4431 0300     		.2byte	0x3
 15092 4433 91       		.byte	0x91
 15093 4434 F47E     		.sleb128 -140
 15094 4436 D20F0000 		.4byte	.LVL370
 15095 443a F20F0000 		.4byte	.LVL372
ARM GAS  C:\Users\bogur\AppData\Local\Temp\cc4rWh5U.s 			page 271


 15096 443e 0100     		.2byte	0x1
 15097 4440 56       		.byte	0x56
 15098 4441 F20F0000 		.4byte	.LVL372
 15099 4445 00170000 		.4byte	.LVL512
 15100 4449 0300     		.2byte	0x3
 15101 444b 91       		.byte	0x91
 15102 444c CC7E     		.sleb128 -180
 15103 444e 00170000 		.4byte	.LVL512
 15104 4452 04170000 		.4byte	.LVL513
 15105 4456 0100     		.2byte	0x1
 15106 4458 5A       		.byte	0x5a
 15107 4459 04170000 		.4byte	.LVL513
 15108 445d EE1B0000 		.4byte	.LVL650
 15109 4461 0300     		.2byte	0x3
 15110 4463 91       		.byte	0x91
 15111 4464 CC7E     		.sleb128 -180
 15112 4466 00000000 		.4byte	0
 15113 446a 00000000 		.4byte	0
 15114              	.LLST31:
 15115 446e 00000000 		.4byte	.LVL659
 15116 4472 28000000 		.4byte	.LVL663
 15117 4476 0100     		.2byte	0x1
 15118 4478 50       		.byte	0x50
 15119 4479 28000000 		.4byte	.LVL663
 15120 447d FE000000 		.4byte	.LVL683
 15121 4481 0100     		.2byte	0x1
 15122 4483 54       		.byte	0x54
 15123 4484 FE000000 		.4byte	.LVL683
 15124 4488 04010000 		.4byte	.LFE3
 15125 448c 0400     		.2byte	0x4
 15126 448e F3       		.byte	0xf3
 15127 448f 01       		.uleb128 0x1
 15128 4490 50       		.byte	0x50
 15129 4491 9F       		.byte	0x9f
 15130 4492 00000000 		.4byte	0
 15131 4496 00000000 		.4byte	0
 15132              	.LLST32:
 15133 449a 00000000 		.4byte	.LVL659
 15134 449e 10000000 		.4byte	.LVL661
 15135 44a2 0100     		.2byte	0x1
 15136 44a4 51       		.byte	0x51
 15137 44a5 10000000 		.4byte	.LVL661
 15138 44a9 2C000000 		.4byte	.LVL664
 15139 44ad 0100     		.2byte	0x1
 15140 44af 56       		.byte	0x56
 15141 44b0 2C000000 		.4byte	.LVL664
 15142 44b4 FE000000 		.4byte	.LVL683
 15143 44b8 0600     		.2byte	0x6
 15144 44ba 76       		.byte	0x76
 15145 44bb 00       		.sleb128 0
 15146 44bc 77       		.byte	0x77
 15147 44bd 00       		.sleb128 0
 15148 44be 22       		.byte	0x22
 15149 44bf 9F       		.byte	0x9f
 15150 44c0 FE000000 		.4byte	.LVL683
 15151 44c4 04010000 		.4byte	.LFE3
 15152 44c8 0B00     		.2byte	0xb
ARM GAS  C:\Users\bogur\AppData\Local\Temp\cc4rWh5U.s 			page 272


 15153 44ca F3       		.byte	0xf3
 15154 44cb 01       		.uleb128 0x1
 15155 44cc 52       		.byte	0x52
 15156 44cd 09       		.byte	0x9
 15157 44ce C0       		.byte	0xc0
 15158 44cf 1A       		.byte	0x1a
 15159 44d0 F3       		.byte	0xf3
 15160 44d1 01       		.uleb128 0x1
 15161 44d2 51       		.byte	0x51
 15162 44d3 22       		.byte	0x22
 15163 44d4 9F       		.byte	0x9f
 15164 44d5 00000000 		.4byte	0
 15165 44d9 00000000 		.4byte	0
 15166              	.LLST33:
 15167 44dd 00000000 		.4byte	.LVL659
 15168 44e1 10000000 		.4byte	.LVL661
 15169 44e5 0100     		.2byte	0x1
 15170 44e7 52       		.byte	0x52
 15171 44e8 10000000 		.4byte	.LVL661
 15172 44ec 30000000 		.4byte	.LVL665
 15173 44f0 0100     		.2byte	0x1
 15174 44f2 57       		.byte	0x57
 15175 44f3 30000000 		.4byte	.LVL665
 15176 44f7 5A000000 		.4byte	.LVL671
 15177 44fb 0100     		.2byte	0x1
 15178 44fd 52       		.byte	0x52
 15179 44fe 5A000000 		.4byte	.LVL671
 15180 4502 A0000000 		.4byte	.LVL675
 15181 4506 0700     		.2byte	0x7
 15182 4508 F3       		.byte	0xf3
 15183 4509 01       		.uleb128 0x1
 15184 450a 52       		.byte	0x52
 15185 450b 08       		.byte	0x8
 15186 450c 3F       		.byte	0x3f
 15187 450d 1A       		.byte	0x1a
 15188 450e 9F       		.byte	0x9f
 15189 450f A0000000 		.4byte	.LVL675
 15190 4513 A4000000 		.4byte	.LVL677
 15191 4517 0100     		.2byte	0x1
 15192 4519 52       		.byte	0x52
 15193 451a A4000000 		.4byte	.LVL677
 15194 451e 04010000 		.4byte	.LFE3
 15195 4522 0700     		.2byte	0x7
 15196 4524 F3       		.byte	0xf3
 15197 4525 01       		.uleb128 0x1
 15198 4526 52       		.byte	0x52
 15199 4527 08       		.byte	0x8
 15200 4528 3F       		.byte	0x3f
 15201 4529 1A       		.byte	0x1a
 15202 452a 9F       		.byte	0x9f
 15203 452b 00000000 		.4byte	0
 15204 452f 00000000 		.4byte	0
 15205              	.LLST34:
 15206 4533 0C000000 		.4byte	.LVL660
 15207 4537 10000000 		.4byte	.LVL661
 15208 453b 0200     		.2byte	0x2
 15209 453d 30       		.byte	0x30
ARM GAS  C:\Users\bogur\AppData\Local\Temp\cc4rWh5U.s 			page 273


 15210 453e 9F       		.byte	0x9f
 15211 453f 10000000 		.4byte	.LVL661
 15212 4543 2B000000 		.4byte	.LVL664-1
 15213 4547 0100     		.2byte	0x1
 15214 4549 53       		.byte	0x53
 15215 454a 32000000 		.4byte	.LVL666
 15216 454e 36000000 		.4byte	.LVL667
 15217 4552 0200     		.2byte	0x2
 15218 4554 30       		.byte	0x30
 15219 4555 9F       		.byte	0x9f
 15220 4556 36000000 		.4byte	.LVL667
 15221 455a 4C000000 		.4byte	.LVL669
 15222 455e 0100     		.2byte	0x1
 15223 4560 53       		.byte	0x53
 15224 4561 58000000 		.4byte	.LVL670
 15225 4565 6C000000 		.4byte	.LVL673
 15226 4569 0100     		.2byte	0x1
 15227 456b 53       		.byte	0x53
 15228 456c A2000000 		.4byte	.LVL676
 15229 4570 B6000000 		.4byte	.LVL679
 15230 4574 0100     		.2byte	0x1
 15231 4576 53       		.byte	0x53
 15232 4577 EA000000 		.4byte	.LVL681
 15233 457b 04010000 		.4byte	.LFE3
 15234 457f 0100     		.2byte	0x1
 15235 4581 53       		.byte	0x53
 15236 4582 00000000 		.4byte	0
 15237 4586 00000000 		.4byte	0
 15238              	.LLST35:
 15239 458a 0C000000 		.4byte	.LVL660
 15240 458e FE000000 		.4byte	.LVL683
 15241 4592 0100     		.2byte	0x1
 15242 4594 55       		.byte	0x55
 15243 4595 FE000000 		.4byte	.LVL683
 15244 4599 04010000 		.4byte	.LFE3
 15245 459d 0600     		.2byte	0x6
 15246 459f F3       		.byte	0xf3
 15247 45a0 01       		.uleb128 0x1
 15248 45a1 52       		.byte	0x52
 15249 45a2 33       		.byte	0x33
 15250 45a3 24       		.byte	0x24
 15251 45a4 9F       		.byte	0x9f
 15252 45a5 00000000 		.4byte	0
 15253 45a9 00000000 		.4byte	0
 15254              		.section	.debug_aranges,"",%progbits
 15255 0000 34000000 		.4byte	0x34
 15256 0004 0200     		.2byte	0x2
 15257 0006 00000000 		.4byte	.Ldebug_info0
 15258 000a 04       		.byte	0x4
 15259 000b 00       		.byte	0
 15260 000c 0000     		.2byte	0
 15261 000e 0000     		.2byte	0
 15262 0010 00000000 		.4byte	.LFB0
 15263 0014 16000000 		.4byte	.LFE0-.LFB0
 15264 0018 00000000 		.4byte	.LFB1
 15265 001c 10000000 		.4byte	.LFE1-.LFB1
 15266 0020 00000000 		.4byte	.LFB2
ARM GAS  C:\Users\bogur\AppData\Local\Temp\cc4rWh5U.s 			page 274


 15267 0024 3E1C0000 		.4byte	.LFE2-.LFB2
 15268 0028 00000000 		.4byte	.LFB3
 15269 002c 04010000 		.4byte	.LFE3-.LFB3
 15270 0030 00000000 		.4byte	0
 15271 0034 00000000 		.4byte	0
 15272              		.section	.debug_ranges,"",%progbits
 15273              	.Ldebug_ranges0:
 15274 0000 00000000 		.4byte	.LFB0
 15275 0004 16000000 		.4byte	.LFE0
 15276 0008 00000000 		.4byte	.LFB1
 15277 000c 10000000 		.4byte	.LFE1
 15278 0010 00000000 		.4byte	.LFB2
 15279 0014 3E1C0000 		.4byte	.LFE2
 15280 0018 00000000 		.4byte	.LFB3
 15281 001c 04010000 		.4byte	.LFE3
 15282 0020 00000000 		.4byte	0
 15283 0024 00000000 		.4byte	0
 15284              		.section	.debug_line,"",%progbits
 15285              	.Ldebug_line0:
 15286 0000 4D030000 		.section	.debug_str,"MS",%progbits,1
 15286      0200A101 
 15286      00000201 
 15286      FB0E0D00 
 15286      01010101 
 15287              	.LASF19:
 15288 0000 73746174 		.ascii	"state\000"
 15288      6500
 15289              	.LASF7:
 15290 0006 73686F72 		.ascii	"short int\000"
 15290      7420696E 
 15290      7400
 15291              	.LASF4:
 15292 0010 73697A65 		.ascii	"size_t\000"
 15292      5F7400
 15293              	.LASF20:
 15294 0017 73697A65 		.ascii	"sizetype\000"
 15294      74797065 
 15294      00
 15295              	.LASF16:
 15296 0020 63727970 		.ascii	"crypto_hashblocks_sha256\000"
 15296      746F5F68 
 15296      61736862 
 15296      6C6F636B 
 15296      735F7368 
 15297              	.LASF23:
 15298 0039 474E5520 		.ascii	"GNU C11 5.4.1 20160609 (release) [ARM/embedded-5-br"
 15298      43313120 
 15298      352E342E 
 15298      31203230 
 15298      31363036 
 15299 006c 616E6368 		.ascii	"anch revision 237715] -mcpu=cortex-m4 -mfloat-abi=s"
 15299      20726576 
 15299      6973696F 
 15299      6E203233 
 15299      37373135 
 15300 009f 6F667466 		.ascii	"oftfp -mfpu=fpv4-sp-d16 -mthumb -g -Og -ffunction-s"
 15300      70202D6D 
ARM GAS  C:\Users\bogur\AppData\Local\Temp\cc4rWh5U.s 			page 275


 15300      6670753D 
 15300      66707634 
 15300      2D73702D 
 15301 00d2 65637469 		.ascii	"ections -ffat-lto-objects\000"
 15301      6F6E7320 
 15301      2D666661 
 15301      742D6C74 
 15301      6F2D6F62 
 15302              	.LASF10:
 15303 00ec 5F5F7569 		.ascii	"__uint32_t\000"
 15303      6E743332 
 15303      5F7400
 15304              	.LASF13:
 15305 00f7 75696E74 		.ascii	"uint8_t\000"
 15305      385F7400 
 15306              	.LASF18:
 15307 00ff 696E6C65 		.ascii	"inlen\000"
 15307      6E00
 15308              	.LASF1:
 15309 0105 6C6F6E67 		.ascii	"long long int\000"
 15309      206C6F6E 
 15309      6720696E 
 15309      7400
 15310              	.LASF22:
 15311 0113 62697473 		.ascii	"bits\000"
 15311      00
 15312              	.LASF25:
 15313 0118 433A5C55 		.ascii	"C:\\Users\\bogur\\Documents\\GitHub\\TFG2\\Codigo\\"
 15313      73657273 
 15313      5C626F67 
 15313      75725C44 
 15313      6F63756D 
 15314 0144 416C676F 		.ascii	"Algoritmos postcuanticos\\PSOC\\KYBER\\Kyber\\Kyber"
 15314      7269746D 
 15314      6F732070 
 15314      6F737463 
 15314      75616E74 
 15315 0173 2E637964 		.ascii	".cydsn\000"
 15315      736E00
 15316              	.LASF17:
 15317 017a 73746174 		.ascii	"statebytes\000"
 15317      65627974 
 15317      657300
 15318              	.LASF5:
 15319 0185 5F5F7569 		.ascii	"__uint8_t\000"
 15319      6E74385F 
 15319      7400
 15320              	.LASF2:
 15321 018f 6C6F6E67 		.ascii	"long double\000"
 15321      20646F75 
 15321      626C6500 
 15322              	.LASF24:
 15323 019b 2E2E5C73 		.ascii	"..\\sha256.c\000"
 15323      68613235 
 15323      362E6300 
 15324              	.LASF6:
 15325 01a7 756E7369 		.ascii	"unsigned char\000"
ARM GAS  C:\Users\bogur\AppData\Local\Temp\cc4rWh5U.s 			page 276


 15325      676E6564 
 15325      20636861 
 15325      7200
 15326              	.LASF3:
 15327 01b5 7369676E 		.ascii	"signed char\000"
 15327      65642063 
 15327      68617200 
 15328              	.LASF12:
 15329 01c1 6C6F6E67 		.ascii	"long long unsigned int\000"
 15329      206C6F6E 
 15329      6720756E 
 15329      7369676E 
 15329      65642069 
 15330              	.LASF14:
 15331 01d8 75696E74 		.ascii	"uint32_t\000"
 15331      33325F74 
 15331      00
 15332              	.LASF0:
 15333 01e1 756E7369 		.ascii	"unsigned int\000"
 15333      676E6564 
 15333      20696E74 
 15333      00
 15334              	.LASF26:
 15335 01ee 73746F72 		.ascii	"store_bigendian\000"
 15335      655F6269 
 15335      67656E64 
 15335      69616E00 
 15336              	.LASF8:
 15337 01fe 73686F72 		.ascii	"short unsigned int\000"
 15337      7420756E 
 15337      7369676E 
 15337      65642069 
 15337      6E7400
 15338              	.LASF21:
 15339 0211 70616464 		.ascii	"padded\000"
 15339      656400
 15340              	.LASF9:
 15341 0218 6C6F6E67 		.ascii	"long int\000"
 15341      20696E74 
 15341      00
 15342              	.LASF27:
 15343 0221 73686132 		.ascii	"sha256\000"
 15343      353600
 15344              	.LASF11:
 15345 0228 6C6F6E67 		.ascii	"long unsigned int\000"
 15345      20756E73 
 15345      69676E65 
 15345      6420696E 
 15345      7400
 15346              	.LASF15:
 15347 023a 6C6F6164 		.ascii	"load_bigendian\000"
 15347      5F626967 
 15347      656E6469 
 15347      616E00
 15348              		.ident	"GCC: (GNU Tools for ARM Embedded Processors) 5.4.1 20160609 (release) [ARM/embedded-5-bran
