ARM GAS  C:\Users\bogur\AppData\Local\Temp\cc4rWh5U.s 			page 1


   1              		.syntax unified
   2              		.cpu cortex-m4
   3              		.eabi_attribute 27, 1
   4              		.fpu fpv4-sp-d16
   5              		.eabi_attribute 20, 1
   6              		.eabi_attribute 21, 1
   7              		.eabi_attribute 23, 3
   8              		.eabi_attribute 24, 1
   9              		.eabi_attribute 25, 1
  10              		.eabi_attribute 26, 1
  11              		.eabi_attribute 30, 1
  12              		.eabi_attribute 34, 1
  13              		.eabi_attribute 18, 4
  14              		.thumb
  15              		.syntax unified
  16              		.file	"sha256.c"
  17              		.text
  18              	.Ltext0:
  19              		.cfi_sections	.debug_frame
  20              		.section	.text.load_bigendian,"ax",%progbits
  21              		.align	2
  22              		.thumb
  23              		.thumb_func
  24              		.type	load_bigendian, %function
  25              	load_bigendian:
  26              	.LFB0:
  27              		.file 1 "..\\sha256.c"
   1:..\sha256.c   **** /* Adapted from Public Domain code by D. J. Bernstein. */
   2:..\sha256.c   **** 
   3:..\sha256.c   **** #include <stddef.h>
   4:..\sha256.c   **** #include <stdint.h>
   5:..\sha256.c   **** #include "sha2.h"
   6:..\sha256.c   **** 
   7:..\sha256.c   **** static uint32_t load_bigendian(const uint8_t *x)
   8:..\sha256.c   **** {
  28              		.loc 1 8 0
  29              		.cfi_startproc
  30              		@ args = 0, pretend = 0, frame = 0
  31              		@ frame_needed = 0, uses_anonymous_args = 0
  32              		@ link register save eliminated.
  33              	.LVL0:
   9:..\sha256.c   ****   return
  10:..\sha256.c   ****       (uint32_t) (x[3]) \
  34              		.loc 1 10 0
  35 0000 C378     		ldrb	r3, [r0, #3]	@ zero_extendqisi2
  11:..\sha256.c   ****   | (((uint32_t) (x[2])) << 8) \
  36              		.loc 1 11 0
  37 0002 8278     		ldrb	r2, [r0, #2]	@ zero_extendqisi2
  38 0004 43EA0223 		orr	r3, r3, r2, lsl #8
  12:..\sha256.c   ****   | (((uint32_t) (x[1])) << 16) \
  39              		.loc 1 12 0
  40 0008 4278     		ldrb	r2, [r0, #1]	@ zero_extendqisi2
  41 000a 43EA0243 		orr	r3, r3, r2, lsl #16
  13:..\sha256.c   ****   | (((uint32_t) (x[0])) << 24)
  42              		.loc 1 13 0
  43 000e 0078     		ldrb	r0, [r0]	@ zero_extendqisi2
  44              	.LVL1:
ARM GAS  C:\Users\bogur\AppData\Local\Temp\cc4rWh5U.s 			page 2


  14:..\sha256.c   ****   ;
  15:..\sha256.c   **** }
  45              		.loc 1 15 0
  46 0010 43EA0060 		orr	r0, r3, r0, lsl #24
  47 0014 7047     		bx	lr
  48              		.cfi_endproc
  49              	.LFE0:
  50              		.size	load_bigendian, .-load_bigendian
  51 0016 00BF     		.section	.text.store_bigendian,"ax",%progbits
  52              		.align	2
  53              		.thumb
  54              		.thumb_func
  55              		.type	store_bigendian, %function
  56              	store_bigendian:
  57              	.LFB1:
  16:..\sha256.c   **** 
  17:..\sha256.c   **** static void store_bigendian(uint8_t *x,uint32_t u)
  18:..\sha256.c   **** {
  58              		.loc 1 18 0
  59              		.cfi_startproc
  60              		@ args = 0, pretend = 0, frame = 0
  61              		@ frame_needed = 0, uses_anonymous_args = 0
  62              		@ link register save eliminated.
  63              	.LVL2:
  19:..\sha256.c   ****   x[3] = u; u >>= 8;
  64              		.loc 1 19 0
  65 0000 C170     		strb	r1, [r0, #3]
  66 0002 0B0A     		lsrs	r3, r1, #8
  67              	.LVL3:
  20:..\sha256.c   ****   x[2] = u; u >>= 8;
  68              		.loc 1 20 0
  69 0004 8370     		strb	r3, [r0, #2]
  70 0006 0B0C     		lsrs	r3, r1, #16
  71              	.LVL4:
  21:..\sha256.c   ****   x[1] = u; u >>= 8;
  72              		.loc 1 21 0
  73 0008 4370     		strb	r3, [r0, #1]
  74 000a 090E     		lsrs	r1, r1, #24
  75              	.LVL5:
  22:..\sha256.c   ****   x[0] = u;
  76              		.loc 1 22 0
  77 000c 0170     		strb	r1, [r0]
  78 000e 7047     		bx	lr
  79              		.cfi_endproc
  80              	.LFE1:
  81              		.size	store_bigendian, .-store_bigendian
  82              		.section	.text.crypto_hashblocks_sha256,"ax",%progbits
  83              		.align	2
  84              		.thumb
  85              		.thumb_func
  86              		.type	crypto_hashblocks_sha256, %function
  87              	crypto_hashblocks_sha256:
  88              	.LFB2:
  23:..\sha256.c   **** }
  24:..\sha256.c   **** 
  25:..\sha256.c   **** #define SHR(x,c) ((x) >> (c))
  26:..\sha256.c   **** #define ROTR(x,c) (((x) >> (c)) | ((x) << (32 - (c))))
ARM GAS  C:\Users\bogur\AppData\Local\Temp\cc4rWh5U.s 			page 3


  27:..\sha256.c   **** 
  28:..\sha256.c   **** #define Ch(x,y,z) ((x & y) ^ (~x & z))
  29:..\sha256.c   **** #define Maj(x,y,z) ((x & y) ^ (x & z) ^ (y & z))
  30:..\sha256.c   **** #define Sigma0(x) (ROTR(x, 2) ^ ROTR(x,13) ^ ROTR(x,22))
  31:..\sha256.c   **** #define Sigma1(x) (ROTR(x, 6) ^ ROTR(x,11) ^ ROTR(x,25))
  32:..\sha256.c   **** #define sigma0(x) (ROTR(x, 7) ^ ROTR(x,18) ^ SHR(x, 3))
  33:..\sha256.c   **** #define sigma1(x) (ROTR(x,17) ^ ROTR(x,19) ^ SHR(x,10))
  34:..\sha256.c   **** 
  35:..\sha256.c   **** #define M(w0,w14,w9,w1) w0 = sigma1(w14) + w9 + sigma0(w1) + w0;
  36:..\sha256.c   **** 
  37:..\sha256.c   **** #define EXPAND \
  38:..\sha256.c   ****   M(w0 ,w14,w9 ,w1 ) \
  39:..\sha256.c   ****   M(w1 ,w15,w10,w2 ) \
  40:..\sha256.c   ****   M(w2 ,w0 ,w11,w3 ) \
  41:..\sha256.c   ****   M(w3 ,w1 ,w12,w4 ) \
  42:..\sha256.c   ****   M(w4 ,w2 ,w13,w5 ) \
  43:..\sha256.c   ****   M(w5 ,w3 ,w14,w6 ) \
  44:..\sha256.c   ****   M(w6 ,w4 ,w15,w7 ) \
  45:..\sha256.c   ****   M(w7 ,w5 ,w0 ,w8 ) \
  46:..\sha256.c   ****   M(w8 ,w6 ,w1 ,w9 ) \
  47:..\sha256.c   ****   M(w9 ,w7 ,w2 ,w10) \
  48:..\sha256.c   ****   M(w10,w8 ,w3 ,w11) \
  49:..\sha256.c   ****   M(w11,w9 ,w4 ,w12) \
  50:..\sha256.c   ****   M(w12,w10,w5 ,w13) \
  51:..\sha256.c   ****   M(w13,w11,w6 ,w14) \
  52:..\sha256.c   ****   M(w14,w12,w7 ,w15) \
  53:..\sha256.c   ****   M(w15,w13,w8 ,w0 )
  54:..\sha256.c   **** 
  55:..\sha256.c   **** #define F(w,k) \
  56:..\sha256.c   ****   T1 = h + Sigma1(e) + Ch(e,f,g) + k + w; \
  57:..\sha256.c   ****   T2 = Sigma0(a) + Maj(a,b,c); \
  58:..\sha256.c   ****   h = g; \
  59:..\sha256.c   ****   g = f; \
  60:..\sha256.c   ****   f = e; \
  61:..\sha256.c   ****   e = d + T1; \
  62:..\sha256.c   ****   d = c; \
  63:..\sha256.c   ****   c = b; \
  64:..\sha256.c   ****   b = a; \
  65:..\sha256.c   ****   a = T1 + T2;
  66:..\sha256.c   **** 
  67:..\sha256.c   **** static int crypto_hashblocks_sha256(uint8_t *statebytes,const uint8_t *in,size_t inlen)
  68:..\sha256.c   **** {
  89              		.loc 1 68 0
  90              		.cfi_startproc
  91              		@ args = 0, pretend = 0, frame = 152
  92              		@ frame_needed = 0, uses_anonymous_args = 0
  93              	.LVL6:
  94 0000 2DE9F04F 		push	{r4, r5, r6, r7, r8, r9, r10, fp, lr}
  95              		.cfi_def_cfa_offset 36
  96              		.cfi_offset 4, -36
  97              		.cfi_offset 5, -32
  98              		.cfi_offset 6, -28
  99              		.cfi_offset 7, -24
 100              		.cfi_offset 8, -20
 101              		.cfi_offset 9, -16
 102              		.cfi_offset 10, -12
 103              		.cfi_offset 11, -8
ARM GAS  C:\Users\bogur\AppData\Local\Temp\cc4rWh5U.s 			page 4


 104              		.cfi_offset 14, -4
 105 0004 A7B0     		sub	sp, sp, #156
 106              		.cfi_def_cfa_offset 192
 107 0006 0446     		mov	r4, r0
 108 0008 1D90     		str	r0, [sp, #116]
 109 000a 0191     		str	r1, [sp, #4]
 110 000c 1592     		str	r2, [sp, #84]
  69:..\sha256.c   ****   uint32_t state[8];
  70:..\sha256.c   ****   uint32_t a;
  71:..\sha256.c   ****   uint32_t b;
  72:..\sha256.c   ****   uint32_t c;
  73:..\sha256.c   ****   uint32_t d;
  74:..\sha256.c   ****   uint32_t e;
  75:..\sha256.c   ****   uint32_t f;
  76:..\sha256.c   ****   uint32_t g;
  77:..\sha256.c   ****   uint32_t h;
  78:..\sha256.c   ****   uint32_t T1;
  79:..\sha256.c   ****   uint32_t T2;
  80:..\sha256.c   **** 
  81:..\sha256.c   ****   a = load_bigendian(statebytes +  0); state[0] = a;
 111              		.loc 1 81 0
 112 000e FFF7FEFF 		bl	load_bigendian
 113              	.LVL7:
 114 0012 8146     		mov	r9, r0
 115              	.LVL8:
 116 0014 1E90     		str	r0, [sp, #120]
  82:..\sha256.c   ****   b = load_bigendian(statebytes +  4); state[1] = b;
 117              		.loc 1 82 0
 118 0016 2346     		mov	r3, r4
 119 0018 0433     		adds	r3, r3, #4
 120 001a 1693     		str	r3, [sp, #88]
 121 001c 1846     		mov	r0, r3
 122              	.LVL9:
 123 001e FFF7FEFF 		bl	load_bigendian
 124              	.LVL10:
 125 0022 8346     		mov	fp, r0
 126              	.LVL11:
 127 0024 1F90     		str	r0, [sp, #124]
  83:..\sha256.c   ****   c = load_bigendian(statebytes +  8); state[2] = c;
 128              		.loc 1 83 0
 129 0026 04F10803 		add	r3, r4, #8
 130 002a 1793     		str	r3, [sp, #92]
 131 002c 1846     		mov	r0, r3
 132              	.LVL12:
 133 002e FFF7FEFF 		bl	load_bigendian
 134              	.LVL13:
 135 0032 0290     		str	r0, [sp, #8]
 136 0034 2090     		str	r0, [sp, #128]
  84:..\sha256.c   ****   d = load_bigendian(statebytes + 12); state[3] = d;
 137              		.loc 1 84 0
 138 0036 04F10C02 		add	r2, r4, #12
 139 003a 1892     		str	r2, [sp, #96]
 140 003c 1046     		mov	r0, r2
 141              	.LVL14:
 142 003e FFF7FEFF 		bl	load_bigendian
 143              	.LVL15:
 144 0042 0646     		mov	r6, r0
ARM GAS  C:\Users\bogur\AppData\Local\Temp\cc4rWh5U.s 			page 5


 145              	.LVL16:
 146 0044 2190     		str	r0, [sp, #132]
  85:..\sha256.c   ****   e = load_bigendian(statebytes + 16); state[4] = e;
 147              		.loc 1 85 0
 148 0046 04F11002 		add	r2, r4, #16
 149 004a 1992     		str	r2, [sp, #100]
 150 004c 1046     		mov	r0, r2
 151              	.LVL17:
 152 004e FFF7FEFF 		bl	load_bigendian
 153              	.LVL18:
 154 0052 8046     		mov	r8, r0
 155              	.LVL19:
 156 0054 2290     		str	r0, [sp, #136]
  86:..\sha256.c   ****   f = load_bigendian(statebytes + 20); state[5] = f;
 157              		.loc 1 86 0
 158 0056 2246     		mov	r2, r4
 159 0058 1432     		adds	r2, r2, #20
 160 005a 1A92     		str	r2, [sp, #104]
 161 005c 1046     		mov	r0, r2
 162              	.LVL20:
 163 005e FFF7FEFF 		bl	load_bigendian
 164              	.LVL21:
 165 0062 8246     		mov	r10, r0
 166              	.LVL22:
 167 0064 2390     		str	r0, [sp, #140]
  87:..\sha256.c   ****   g = load_bigendian(statebytes + 24); state[6] = g;
 168              		.loc 1 87 0
 169 0066 04F11802 		add	r2, r4, #24
 170 006a 1B92     		str	r2, [sp, #108]
 171 006c 1046     		mov	r0, r2
 172              	.LVL23:
 173 006e FFF7FEFF 		bl	load_bigendian
 174              	.LVL24:
 175 0072 0746     		mov	r7, r0
 176              	.LVL25:
 177 0074 2490     		str	r0, [sp, #144]
  88:..\sha256.c   ****   h = load_bigendian(statebytes + 28); state[7] = h;
 178              		.loc 1 88 0
 179 0076 04F11C02 		add	r2, r4, #28
 180 007a 1C92     		str	r2, [sp, #112]
 181 007c 1046     		mov	r0, r2
 182              	.LVL26:
 183 007e FFF7FEFF 		bl	load_bigendian
 184              	.LVL27:
 185 0082 2590     		str	r0, [sp, #148]
 186 0084 5D46     		mov	r5, fp
 187 0086 3A46     		mov	r2, r7
 188 0088 4746     		mov	r7, r8
 189              	.LVL28:
 190 008a 8346     		mov	fp, r0
 191              	.LVL29:
 192 008c 4C46     		mov	r4, r9
 193              	.LVL30:
 194 008e B146     		mov	r9, r6
 195              	.LVL31:
 196 0090 029E     		ldr	r6, [sp, #8]
 197              	.LVL32:
ARM GAS  C:\Users\bogur\AppData\Local\Temp\cc4rWh5U.s 			page 6


 198 0092 9046     		mov	r8, r2
 199              	.LVL33:
  89:..\sha256.c   **** 
  90:..\sha256.c   ****   while (inlen >= 64) {
 200              		.loc 1 90 0
 201 0094 01F0ABBD 		b	.L4
 202              	.LVL34:
 203              	.L5:
 204              	.LBB2:
  91:..\sha256.c   ****     uint32_t w0  = load_bigendian(in +  0);
 205              		.loc 1 91 0
 206 0098 0198     		ldr	r0, [sp, #4]
 207 009a FFF7FEFF 		bl	load_bigendian
 208              	.LVL35:
 209 009e 1390     		str	r0, [sp, #76]
 210              	.LVL36:
  92:..\sha256.c   ****     uint32_t w1  = load_bigendian(in +  4);
 211              		.loc 1 92 0
 212 00a0 019B     		ldr	r3, [sp, #4]
 213 00a2 181D     		adds	r0, r3, #4
 214              	.LVL37:
 215 00a4 FFF7FEFF 		bl	load_bigendian
 216              	.LVL38:
 217 00a8 0290     		str	r0, [sp, #8]
 218              	.LVL39:
  93:..\sha256.c   ****     uint32_t w2  = load_bigendian(in +  8);
 219              		.loc 1 93 0
 220 00aa 019A     		ldr	r2, [sp, #4]
 221 00ac 02F10800 		add	r0, r2, #8
 222              	.LVL40:
 223 00b0 FFF7FEFF 		bl	load_bigendian
 224              	.LVL41:
 225 00b4 0390     		str	r0, [sp, #12]
 226              	.LVL42:
  94:..\sha256.c   ****     uint32_t w3  = load_bigendian(in + 12);
 227              		.loc 1 94 0
 228 00b6 0199     		ldr	r1, [sp, #4]
 229 00b8 01F10C00 		add	r0, r1, #12
 230              	.LVL43:
 231 00bc FFF7FEFF 		bl	load_bigendian
 232              	.LVL44:
 233 00c0 0490     		str	r0, [sp, #16]
 234              	.LVL45:
  95:..\sha256.c   ****     uint32_t w4  = load_bigendian(in + 16);
 235              		.loc 1 95 0
 236 00c2 019B     		ldr	r3, [sp, #4]
 237 00c4 03F11000 		add	r0, r3, #16
 238              	.LVL46:
 239 00c8 FFF7FEFF 		bl	load_bigendian
 240              	.LVL47:
 241 00cc 0590     		str	r0, [sp, #20]
 242              	.LVL48:
  96:..\sha256.c   ****     uint32_t w5  = load_bigendian(in + 20);
 243              		.loc 1 96 0
 244 00ce 019A     		ldr	r2, [sp, #4]
 245 00d0 02F11400 		add	r0, r2, #20
 246              	.LVL49:
ARM GAS  C:\Users\bogur\AppData\Local\Temp\cc4rWh5U.s 			page 7


 247 00d4 FFF7FEFF 		bl	load_bigendian
 248              	.LVL50:
 249 00d8 0690     		str	r0, [sp, #24]
 250              	.LVL51:
  97:..\sha256.c   ****     uint32_t w6  = load_bigendian(in + 24);
 251              		.loc 1 97 0
 252 00da 0199     		ldr	r1, [sp, #4]
 253 00dc 01F11800 		add	r0, r1, #24
 254              	.LVL52:
 255 00e0 FFF7FEFF 		bl	load_bigendian
 256              	.LVL53:
 257 00e4 0790     		str	r0, [sp, #28]
 258              	.LVL54:
  98:..\sha256.c   ****     uint32_t w7  = load_bigendian(in + 28);
 259              		.loc 1 98 0
 260 00e6 019B     		ldr	r3, [sp, #4]
 261 00e8 03F11C00 		add	r0, r3, #28
 262              	.LVL55:
 263 00ec FFF7FEFF 		bl	load_bigendian
 264              	.LVL56:
 265 00f0 0890     		str	r0, [sp, #32]
 266              	.LVL57:
  99:..\sha256.c   ****     uint32_t w8  = load_bigendian(in + 32);
 267              		.loc 1 99 0
 268 00f2 019A     		ldr	r2, [sp, #4]
 269 00f4 02F12000 		add	r0, r2, #32
 270              	.LVL58:
 271 00f8 FFF7FEFF 		bl	load_bigendian
 272              	.LVL59:
 273 00fc 0990     		str	r0, [sp, #36]
 274              	.LVL60:
 100:..\sha256.c   ****     uint32_t w9  = load_bigendian(in + 36);
 275              		.loc 1 100 0
 276 00fe 0199     		ldr	r1, [sp, #4]
 277 0100 01F12400 		add	r0, r1, #36
 278              	.LVL61:
 279 0104 FFF7FEFF 		bl	load_bigendian
 280              	.LVL62:
 281 0108 1090     		str	r0, [sp, #64]
 282              	.LVL63:
 101:..\sha256.c   ****     uint32_t w10 = load_bigendian(in + 40);
 283              		.loc 1 101 0
 284 010a 019B     		ldr	r3, [sp, #4]
 285 010c 03F12800 		add	r0, r3, #40
 286              	.LVL64:
 287 0110 FFF7FEFF 		bl	load_bigendian
 288              	.LVL65:
 289 0114 0A90     		str	r0, [sp, #40]
 290              	.LVL66:
 102:..\sha256.c   ****     uint32_t w11 = load_bigendian(in + 44);
 291              		.loc 1 102 0
 292 0116 019A     		ldr	r2, [sp, #4]
 293 0118 02F12C00 		add	r0, r2, #44
 294              	.LVL67:
 295 011c FFF7FEFF 		bl	load_bigendian
 296              	.LVL68:
 297 0120 0B90     		str	r0, [sp, #44]
ARM GAS  C:\Users\bogur\AppData\Local\Temp\cc4rWh5U.s 			page 8


 298              	.LVL69:
 103:..\sha256.c   ****     uint32_t w12 = load_bigendian(in + 48);
 299              		.loc 1 103 0
 300 0122 0199     		ldr	r1, [sp, #4]
 301 0124 01F13000 		add	r0, r1, #48
 302              	.LVL70:
 303 0128 FFF7FEFF 		bl	load_bigendian
 304              	.LVL71:
 305 012c 0C90     		str	r0, [sp, #48]
 306              	.LVL72:
 104:..\sha256.c   ****     uint32_t w13 = load_bigendian(in + 52);
 307              		.loc 1 104 0
 308 012e 019B     		ldr	r3, [sp, #4]
 309 0130 03F13400 		add	r0, r3, #52
 310              	.LVL73:
 311 0134 FFF7FEFF 		bl	load_bigendian
 312              	.LVL74:
 313 0138 0D90     		str	r0, [sp, #52]
 314              	.LVL75:
 105:..\sha256.c   ****     uint32_t w14 = load_bigendian(in + 56);
 315              		.loc 1 105 0
 316 013a 019A     		ldr	r2, [sp, #4]
 317 013c 02F13800 		add	r0, r2, #56
 318              	.LVL76:
 319 0140 FFF7FEFF 		bl	load_bigendian
 320              	.LVL77:
 321 0144 1190     		str	r0, [sp, #68]
 322              	.LVL78:
 106:..\sha256.c   ****     uint32_t w15 = load_bigendian(in + 60);
 323              		.loc 1 106 0
 324 0146 0199     		ldr	r1, [sp, #4]
 325 0148 01F13C00 		add	r0, r1, #60
 326              	.LVL79:
 327 014c FFF7FEFF 		bl	load_bigendian
 328              	.LVL80:
 329 0150 0E90     		str	r0, [sp, #56]
 330              	.LVL81:
 107:..\sha256.c   **** 
 108:..\sha256.c   ****     F(w0 ,0x428a2f98)
 331              		.loc 1 108 0
 332 0152 4FEAF723 		ror	r3, r7, #11
 333 0156 83EAB713 		eor	r3, r3, r7, ror #6
 334 015a 83EA7763 		eor	r3, r3, r7, ror #25
 335 015e 9B44     		add	fp, fp, r3
 336              	.LVL82:
 337 0160 07EA0A02 		and	r2, r7, r10
 338 0164 28EA0703 		bic	r3, r8, r7
 339 0168 5340     		eors	r3, r3, r2
 340 016a 9B44     		add	fp, fp, r3
 341 016c 139B     		ldr	r3, [sp, #76]
 342 016e 9B44     		add	fp, fp, r3
 343 0170 F04A     		ldr	r2, .L7
 344 0172 5A44     		add	r2, r2, fp
 345              	.LVL83:
 346 0174 4FEA7433 		ror	r3, r4, #13
 347 0178 83EAB403 		eor	r3, r3, r4, ror #2
 348 017c 83EAB45C 		eor	ip, r3, r4, ror #22
ARM GAS  C:\Users\bogur\AppData\Local\Temp\cc4rWh5U.s 			page 9


 349 0180 04EA050E 		and	lr, r4, r5
 350 0184 04EA0601 		and	r1, r4, r6
 351 0188 8EEA0101 		eor	r1, lr, r1
 352 018c 05EA0600 		and	r0, r5, r6
 353              	.LVL84:
 354 0190 4140     		eors	r1, r1, r0
 355 0192 0CEB0103 		add	r3, ip, r1
 356              	.LVL85:
 357 0196 09EB0200 		add	r0, r9, r2
 358              	.LVL86:
 359 019a D118     		adds	r1, r2, r3
 360              	.LVL87:
 109:..\sha256.c   ****     F(w1 ,0x71374491)
 361              		.loc 1 109 0
 362 019c 4FEAF023 		ror	r3, r0, #11
 363              	.LVL88:
 364 01a0 83EAB013 		eor	r3, r3, r0, ror #6
 365 01a4 83EA7063 		eor	r3, r3, r0, ror #25
 366 01a8 9844     		add	r8, r8, r3
 367              	.LVL89:
 368 01aa 07EA0002 		and	r2, r7, r0
 369              	.LVL90:
 370 01ae 2AEA0003 		bic	r3, r10, r0
 371 01b2 5340     		eors	r3, r3, r2
 372 01b4 9844     		add	r8, r8, r3
 373 01b6 029B     		ldr	r3, [sp, #8]
 374 01b8 9844     		add	r8, r8, r3
 375 01ba DF4B     		ldr	r3, .L7+4
 376 01bc 4344     		add	r3, r3, r8
 377              	.LVL91:
 378 01be 4FEA713C 		ror	ip, r1, #13
 379              	.LVL92:
 380 01c2 8CEAB10C 		eor	ip, ip, r1, ror #2
 381 01c6 8CEAB15C 		eor	ip, ip, r1, ror #22
 382 01ca 84EA0502 		eor	r2, r4, r5
 383 01ce 0A40     		ands	r2, r2, r1
 384 01d0 8EEA0202 		eor	r2, lr, r2
 385 01d4 9444     		add	ip, ip, r2
 386              	.LVL93:
 387 01d6 06EB0308 		add	r8, r6, r3
 388              	.LVL94:
 389 01da 6344     		add	r3, r3, ip
 390              	.LVL95:
 110:..\sha256.c   ****     F(w2 ,0xb5c0fbcf)
 391              		.loc 1 110 0
 392 01dc 4FEAF822 		ror	r2, r8, #11
 393 01e0 82EAB812 		eor	r2, r2, r8, ror #6
 394 01e4 82EA7862 		eor	r2, r2, r8, ror #25
 395 01e8 9244     		add	r10, r10, r2
 396              	.LVL96:
 397 01ea 00EA0806 		and	r6, r0, r8
 398 01ee 27EA0802 		bic	r2, r7, r8
 399 01f2 7240     		eors	r2, r2, r6
 400 01f4 9244     		add	r10, r10, r2
 401 01f6 039E     		ldr	r6, [sp, #12]
 402 01f8 B244     		add	r10, r10, r6
 403 01fa D04A     		ldr	r2, .L7+8
ARM GAS  C:\Users\bogur\AppData\Local\Temp\cc4rWh5U.s 			page 10


 404 01fc 5244     		add	r2, r2, r10
 405              	.LVL97:
 406 01fe 4FEA733E 		ror	lr, r3, #13
 407 0202 8EEAB30E 		eor	lr, lr, r3, ror #2
 408 0206 8EEAB35E 		eor	lr, lr, r3, ror #22
 409 020a 84EA010C 		eor	ip, r4, r1
 410              	.LVL98:
 411 020e 0CEA030C 		and	ip, ip, r3
 412 0212 04EA0106 		and	r6, r4, r1
 413 0216 8CEA0606 		eor	r6, ip, r6
 414 021a B644     		add	lr, lr, r6
 415              	.LVL99:
 416 021c 05EB020C 		add	ip, r5, r2
 417              	.LVL100:
 418 0220 7244     		add	r2, r2, lr
 419              	.LVL101:
 111:..\sha256.c   ****     F(w3 ,0xe9b5dba5)
 420              		.loc 1 111 0
 421 0222 4FEAFC25 		ror	r5, ip, #11
 422 0226 85EABC15 		eor	r5, r5, ip, ror #6
 423 022a 85EA7C65 		eor	r5, r5, ip, ror #25
 424 022e 2F44     		add	r7, r7, r5
 425              	.LVL102:
 426 0230 08EA0C06 		and	r6, r8, ip
 427 0234 20EA0C05 		bic	r5, r0, ip
 428 0238 7540     		eors	r5, r5, r6
 429 023a 2F44     		add	r7, r7, r5
 430 023c 049E     		ldr	r6, [sp, #16]
 431 023e 3744     		add	r7, r7, r6
 432 0240 BF4D     		ldr	r5, .L7+12
 433 0242 3D44     		add	r5, r5, r7
 434              	.LVL103:
 435 0244 4FEA7237 		ror	r7, r2, #13
 436 0248 87EAB207 		eor	r7, r7, r2, ror #2
 437 024c 87EAB257 		eor	r7, r7, r2, ror #22
 438 0250 81EA030E 		eor	lr, r1, r3
 439              	.LVL104:
 440 0254 0EEA020E 		and	lr, lr, r2
 441 0258 01EA0306 		and	r6, r1, r3
 442 025c 8EEA0606 		eor	r6, lr, r6
 443 0260 3744     		add	r7, r7, r6
 444              	.LVL105:
 445 0262 04EB050E 		add	lr, r4, r5
 446              	.LVL106:
 447 0266 3D44     		add	r5, r5, r7
 448              	.LVL107:
 112:..\sha256.c   ****     F(w4 ,0x3956c25b)
 449              		.loc 1 112 0
 450 0268 4FEAFE24 		ror	r4, lr, #11
 451 026c 84EABE14 		eor	r4, r4, lr, ror #6
 452 0270 84EA7E64 		eor	r4, r4, lr, ror #25
 453 0274 2044     		add	r0, r0, r4
 454              	.LVL108:
 455 0276 0CEA0E06 		and	r6, ip, lr
 456 027a 28EA0E04 		bic	r4, r8, lr
 457 027e 7440     		eors	r4, r4, r6
 458 0280 2044     		add	r0, r0, r4
ARM GAS  C:\Users\bogur\AppData\Local\Temp\cc4rWh5U.s 			page 11


 459 0282 059F     		ldr	r7, [sp, #20]
 460              	.LVL109:
 461 0284 3844     		add	r0, r0, r7
 462 0286 AF4F     		ldr	r7, .L7+16
 463 0288 0744     		add	r7, r7, r0
 464              	.LVL110:
 465 028a 4FEA7536 		ror	r6, r5, #13
 466 028e 86EAB506 		eor	r6, r6, r5, ror #2
 467 0292 86EAB556 		eor	r6, r6, r5, ror #22
 468 0296 83EA0204 		eor	r4, r3, r2
 469 029a 2C40     		ands	r4, r4, r5
 470 029c 03EA0200 		and	r0, r3, r2
 471 02a0 4440     		eors	r4, r4, r0
 472 02a2 3444     		add	r4, r4, r6
 473              	.LVL111:
 474 02a4 CE19     		adds	r6, r1, r7
 475              	.LVL112:
 476 02a6 3C44     		add	r4, r4, r7
 477              	.LVL113:
 113:..\sha256.c   ****     F(w5 ,0x59f111f1)
 478              		.loc 1 113 0
 479 02a8 4FEAF621 		ror	r1, r6, #11
 480 02ac 81EAB611 		eor	r1, r1, r6, ror #6
 481 02b0 81EA7661 		eor	r1, r1, r6, ror #25
 482 02b4 8844     		add	r8, r8, r1
 483              	.LVL114:
 484 02b6 0EEA0600 		and	r0, lr, r6
 485              	.LVL115:
 486 02ba 2CEA0601 		bic	r1, ip, r6
 487 02be 4140     		eors	r1, r1, r0
 488 02c0 8844     		add	r8, r8, r1
 489 02c2 069F     		ldr	r7, [sp, #24]
 490              	.LVL116:
 491 02c4 B844     		add	r8, r8, r7
 492 02c6 A049     		ldr	r1, .L7+20
 493 02c8 4144     		add	r1, r1, r8
 494              	.LVL117:
 495 02ca 4FEA7437 		ror	r7, r4, #13
 496 02ce 87EAB407 		eor	r7, r7, r4, ror #2
 497 02d2 87EAB457 		eor	r7, r7, r4, ror #22
 498 02d6 82EA0508 		eor	r8, r2, r5
 499 02da 08EA0408 		and	r8, r8, r4
 500 02de 02EA0500 		and	r0, r2, r5
 501 02e2 88EA0000 		eor	r0, r8, r0
 502 02e6 0744     		add	r7, r7, r0
 503              	.LVL118:
 504 02e8 0B44     		add	r3, r3, r1
 505              	.LVL119:
 506 02ea 3944     		add	r1, r1, r7
 507              	.LVL120:
 114:..\sha256.c   ****     F(w6 ,0x923f82a4)
 508              		.loc 1 114 0
 509 02ec 4FEAF320 		ror	r0, r3, #11
 510 02f0 80EAB310 		eor	r0, r0, r3, ror #6
 511 02f4 80EA7360 		eor	r0, r0, r3, ror #25
 512 02f8 8444     		add	ip, ip, r0
 513              	.LVL121:
ARM GAS  C:\Users\bogur\AppData\Local\Temp\cc4rWh5U.s 			page 12


 514 02fa 06EA0307 		and	r7, r6, r3
 515              	.LVL122:
 516 02fe 2EEA0300 		bic	r0, lr, r3
 517 0302 7840     		eors	r0, r0, r7
 518 0304 8444     		add	ip, ip, r0
 519 0306 079F     		ldr	r7, [sp, #28]
 520 0308 BC44     		add	ip, ip, r7
 521 030a 9048     		ldr	r0, .L7+24
 522 030c 6044     		add	r0, r0, ip
 523              	.LVL123:
 524 030e 4FEA713C 		ror	ip, r1, #13
 525 0312 8CEAB10C 		eor	ip, ip, r1, ror #2
 526 0316 8CEAB15C 		eor	ip, ip, r1, ror #22
 527 031a 85EA0408 		eor	r8, r5, r4
 528              	.LVL124:
 529 031e 08EA0108 		and	r8, r8, r1
 530 0322 05EA0407 		and	r7, r5, r4
 531 0326 88EA0707 		eor	r7, r8, r7
 532 032a BC44     		add	ip, ip, r7
 533              	.LVL125:
 534 032c 1718     		adds	r7, r2, r0
 535              	.LVL126:
 536 032e 6044     		add	r0, r0, ip
 537              	.LVL127:
 115:..\sha256.c   ****     F(w7 ,0xab1c5ed5)
 538              		.loc 1 115 0
 539 0330 4FEAF722 		ror	r2, r7, #11
 540 0334 82EAB712 		eor	r2, r2, r7, ror #6
 541 0338 82EA7762 		eor	r2, r2, r7, ror #25
 542 033c 9644     		add	lr, lr, r2
 543              	.LVL128:
 544 033e 03EA070C 		and	ip, r3, r7
 545              	.LVL129:
 546 0342 26EA0702 		bic	r2, r6, r7
 547 0346 8CEA0202 		eor	r2, ip, r2
 548 034a 9644     		add	lr, lr, r2
 549 034c 089A     		ldr	r2, [sp, #32]
 550 034e 9644     		add	lr, lr, r2
 551 0350 7F4A     		ldr	r2, .L7+28
 552 0352 7244     		add	r2, r2, lr
 553              	.LVL130:
 554 0354 4FEA703C 		ror	ip, r0, #13
 555 0358 8CEAB00C 		eor	ip, ip, r0, ror #2
 556 035c 8CEAB05C 		eor	ip, ip, r0, ror #22
 557 0360 84EA0108 		eor	r8, r4, r1
 558              	.LVL131:
 559 0364 08EA0008 		and	r8, r8, r0
 560 0368 04EA010E 		and	lr, r4, r1
 561 036c 88EA0E0E 		eor	lr, r8, lr
 562 0370 F444     		add	ip, ip, lr
 563              	.LVL132:
 564 0372 05EB0208 		add	r8, r5, r2
 565              	.LVL133:
 566 0376 6244     		add	r2, r2, ip
 567              	.LVL134:
 116:..\sha256.c   ****     F(w8 ,0xd807aa98)
 568              		.loc 1 116 0
ARM GAS  C:\Users\bogur\AppData\Local\Temp\cc4rWh5U.s 			page 13


 569 0378 4FEAF825 		ror	r5, r8, #11
 570 037c 85EAB815 		eor	r5, r5, r8, ror #6
 571 0380 85EA7865 		eor	r5, r5, r8, ror #25
 572 0384 2E44     		add	r6, r6, r5
 573              	.LVL135:
 574 0386 07EA080E 		and	lr, r7, r8
 575 038a 23EA0805 		bic	r5, r3, r8
 576 038e 8EEA0505 		eor	r5, lr, r5
 577 0392 3544     		add	r5, r5, r6
 578 0394 099E     		ldr	r6, [sp, #36]
 579 0396 3544     		add	r5, r5, r6
 580 0398 6E4E     		ldr	r6, .L7+32
 581 039a 2E44     		add	r6, r6, r5
 582              	.LVL136:
 583 039c 4FEA723E 		ror	lr, r2, #13
 584 03a0 8EEAB20E 		eor	lr, lr, r2, ror #2
 585 03a4 8EEAB25E 		eor	lr, lr, r2, ror #22
 586 03a8 81EA000C 		eor	ip, r1, r0
 587              	.LVL137:
 588 03ac 0CEA020C 		and	ip, ip, r2
 589 03b0 01EA0005 		and	r5, r1, r0
 590 03b4 8CEA0505 		eor	r5, ip, r5
 591 03b8 AE44     		add	lr, lr, r5
 592              	.LVL138:
 593 03ba 04EB060C 		add	ip, r4, r6
 594              	.LVL139:
 595 03be 7644     		add	r6, r6, lr
 596              	.LVL140:
 117:..\sha256.c   ****     F(w9 ,0x12835b01)
 597              		.loc 1 117 0
 598 03c0 4FEAFC24 		ror	r4, ip, #11
 599 03c4 84EABC14 		eor	r4, r4, ip, ror #6
 600 03c8 84EA7C64 		eor	r4, r4, ip, ror #25
 601 03cc 2344     		add	r3, r3, r4
 602              	.LVL141:
 603 03ce 08EA0C05 		and	r5, r8, ip
 604 03d2 27EA0C04 		bic	r4, r7, ip
 605 03d6 6C40     		eors	r4, r4, r5
 606 03d8 2344     		add	r3, r3, r4
 607 03da 109C     		ldr	r4, [sp, #64]
 608 03dc 2344     		add	r3, r3, r4
 609 03de 5E4D     		ldr	r5, .L7+36
 610 03e0 1D44     		add	r5, r5, r3
 611              	.LVL142:
 612 03e2 4FEA7634 		ror	r4, r6, #13
 613 03e6 84EAB604 		eor	r4, r4, r6, ror #2
 614 03ea 84EAB654 		eor	r4, r4, r6, ror #22
 615 03ee 80EA020B 		eor	fp, r0, r2
 616 03f2 0BEA060B 		and	fp, fp, r6
 617 03f6 00EA0203 		and	r3, r0, r2
 618 03fa 8BEA030B 		eor	fp, fp, r3
 619 03fe A344     		add	fp, fp, r4
 620              	.LVL143:
 621 0400 01EB050E 		add	lr, r1, r5
 622              	.LVL144:
 623 0404 AB44     		add	fp, fp, r5
 624              	.LVL145:
ARM GAS  C:\Users\bogur\AppData\Local\Temp\cc4rWh5U.s 			page 14


 118:..\sha256.c   ****     F(w10,0x243185be)
 625              		.loc 1 118 0
 626 0406 4FEAFE23 		ror	r3, lr, #11
 627              	.LVL146:
 628 040a 83EABE13 		eor	r3, r3, lr, ror #6
 629 040e 83EA7E63 		eor	r3, r3, lr, ror #25
 630 0412 1F44     		add	r7, r7, r3
 631              	.LVL147:
 632 0414 0CEA0E01 		and	r1, ip, lr
 633 0418 28EA0E03 		bic	r3, r8, lr
 634 041c 4B40     		eors	r3, r3, r1
 635 041e 1F44     		add	r7, r7, r3
 636 0420 0A9B     		ldr	r3, [sp, #40]
 637 0422 1F44     		add	r7, r7, r3
 638 0424 4D4D     		ldr	r5, .L7+40
 639              	.LVL148:
 640 0426 3D44     		add	r5, r5, r7
 641              	.LVL149:
 642 0428 4FEA7B34 		ror	r4, fp, #13
 643              	.LVL150:
 644 042c 84EABB04 		eor	r4, r4, fp, ror #2
 645 0430 84EABB54 		eor	r4, r4, fp, ror #22
 646 0434 82EA0601 		eor	r1, r2, r6
 647 0438 01EA0B01 		and	r1, r1, fp
 648 043c 02EA0603 		and	r3, r2, r6
 649 0440 5940     		eors	r1, r1, r3
 650 0442 2144     		add	r1, r1, r4
 651              	.LVL151:
 652 0444 4719     		adds	r7, r0, r5
 653              	.LVL152:
 654 0446 05EB010A 		add	r10, r5, r1
 655              	.LVL153:
 119:..\sha256.c   ****     F(w11,0x550c7dc3)
 656              		.loc 1 119 0
 657 044a 4FEAF725 		ror	r5, r7, #11
 658              	.LVL154:
 659 044e 85EAB715 		eor	r5, r5, r7, ror #6
 660 0452 85EA7765 		eor	r5, r5, r7, ror #25
 661 0456 4544     		add	r5, r5, r8
 662 0458 0EEA0708 		and	r8, lr, r7
 663              	.LVL155:
 664 045c 2CEA0703 		bic	r3, ip, r7
 665 0460 88EA0308 		eor	r8, r8, r3
 666 0464 A844     		add	r8, r8, r5
 667 0466 0B9B     		ldr	r3, [sp, #44]
 668 0468 9844     		add	r8, r8, r3
 669 046a 3D4D     		ldr	r5, .L7+44
 670 046c 4544     		add	r5, r5, r8
 671              	.LVL156:
 672 046e 4FEA7A31 		ror	r1, r10, #13
 673              	.LVL157:
 674 0472 81EABA01 		eor	r1, r1, r10, ror #2
 675 0476 81EABA51 		eor	r1, r1, r10, ror #22
 676 047a 86EA0B04 		eor	r4, r6, fp
 677              	.LVL158:
 678 047e 04EA0A04 		and	r4, r4, r10
 679 0482 06EA0B03 		and	r3, r6, fp
ARM GAS  C:\Users\bogur\AppData\Local\Temp\cc4rWh5U.s 			page 15


 680 0486 5C40     		eors	r4, r4, r3
 681 0488 0C44     		add	r4, r4, r1
 682              	.LVL159:
 683 048a 5019     		adds	r0, r2, r5
 684              	.LVL160:
 685 048c 05EB0409 		add	r9, r5, r4
 686              	.LVL161:
 120:..\sha256.c   ****     F(w12,0x72be5d74)
 687              		.loc 1 120 0
 688 0490 4FEAF024 		ror	r4, r0, #11
 689              	.LVL162:
 690 0494 84EAB014 		eor	r4, r4, r0, ror #6
 691 0498 84EA7064 		eor	r4, r4, r0, ror #25
 692 049c 6444     		add	r4, r4, ip
 693 049e 07EA000C 		and	ip, r7, r0
 694              	.LVL163:
 695 04a2 2EEA0003 		bic	r3, lr, r0
 696              	.LVL164:
 697 04a6 8CEA0303 		eor	r3, ip, r3
 698 04aa 1C44     		add	r4, r4, r3
 699 04ac 0C9A     		ldr	r2, [sp, #48]
 700 04ae 1444     		add	r4, r4, r2
 701 04b0 2C4D     		ldr	r5, .L7+48
 702              	.LVL165:
 703 04b2 2544     		add	r5, r5, r4
 704              	.LVL166:
 705 04b4 4FEA7931 		ror	r1, r9, #13
 706              	.LVL167:
 707 04b8 81EAB901 		eor	r1, r1, r9, ror #2
 708 04bc 81EAB951 		eor	r1, r1, r9, ror #22
 709 04c0 8BEA0A03 		eor	r3, fp, r10
 710 04c4 03EA0903 		and	r3, r3, r9
 711 04c8 0BEA0A02 		and	r2, fp, r10
 712 04cc 5340     		eors	r3, r3, r2
 713 04ce 0B44     		add	r3, r3, r1
 714              	.LVL168:
 715 04d0 2E44     		add	r6, r6, r5
 716              	.LVL169:
 717 04d2 2B44     		add	r3, r3, r5
 718              	.LVL170:
 121:..\sha256.c   ****     F(w13,0x80deb1fe)
 719              		.loc 1 121 0
 720 04d4 4FEAF621 		ror	r1, r6, #11
 721              	.LVL171:
 722 04d8 81EAB611 		eor	r1, r1, r6, ror #6
 723 04dc 81EA7661 		eor	r1, r1, r6, ror #25
 724 04e0 7144     		add	r1, r1, lr
 725 04e2 00EA060E 		and	lr, r0, r6
 726              	.LVL172:
 727 04e6 27EA0602 		bic	r2, r7, r6
 728              	.LVL173:
 729 04ea 8EEA0202 		eor	r2, lr, r2
 730 04ee 1144     		add	r1, r1, r2
 731 04f0 0D9D     		ldr	r5, [sp, #52]
 732              	.LVL174:
 733 04f2 2944     		add	r1, r1, r5
 734 04f4 1C4A     		ldr	r2, .L7+52
ARM GAS  C:\Users\bogur\AppData\Local\Temp\cc4rWh5U.s 			page 16


 735 04f6 0A44     		add	r2, r2, r1
 736              	.LVL175:
 737 04f8 4FEA7334 		ror	r4, r3, #13
 738 04fc 84EAB304 		eor	r4, r4, r3, ror #2
 739 0500 84EAB354 		eor	r4, r4, r3, ror #22
 740 0504 8AEA0905 		eor	r5, r10, r9
 741 0508 1D40     		ands	r5, r5, r3
 742 050a 0AEA0901 		and	r1, r10, r9
 743 050e 6940     		eors	r1, r1, r5
 744 0510 0C44     		add	r4, r4, r1
 745              	.LVL176:
 746 0512 0BEB0205 		add	r5, fp, r2
 747              	.LVL177:
 748 0516 2244     		add	r2, r2, r4
 749              	.LVL178:
 122:..\sha256.c   ****     F(w14,0x9bdc06a7)
 750              		.loc 1 122 0
 751 0518 4FEAF521 		ror	r1, r5, #11
 752 051c 81EAB511 		eor	r1, r1, r5, ror #6
 753 0520 81EA7561 		eor	r1, r1, r5, ror #25
 754 0524 0F44     		add	r7, r7, r1
 755              	.LVL179:
 756 0526 06EA0504 		and	r4, r6, r5
 757              	.LVL180:
 758 052a 1295     		str	r5, [sp, #72]
 759 052c 20EA0501 		bic	r1, r0, r5
 760 0530 1CE0     		b	.L8
 761              	.L9:
 762 0532 00BF     		.align	2
 763              	.L7:
 764 0534 982F8A42 		.word	1116352408
 765 0538 91443771 		.word	1899447441
 766 053c CFFBC0B5 		.word	-1245643825
 767 0540 A5DBB5E9 		.word	-373957723
 768 0544 5BC25639 		.word	961987163
 769 0548 F111F159 		.word	1508970993
 770 054c A4823F92 		.word	-1841331548
 771 0550 D55E1CAB 		.word	-1424204075
 772 0554 98AA07D8 		.word	-670586216
 773 0558 015B8312 		.word	310598401
 774 055c BE853124 		.word	607225278
 775 0560 C37D0C55 		.word	1426881987
 776 0564 745DBE72 		.word	1925078388
 777 0568 FEB1DE80 		.word	-2132889090
 778              	.L8:
 779 056c 6140     		eors	r1, r1, r4
 780 056e 3944     		add	r1, r1, r7
 781 0570 119D     		ldr	r5, [sp, #68]
 782              	.LVL181:
 783 0572 2944     		add	r1, r1, r5
 784 0574 D84F     		ldr	r7, .L10
 785 0576 0F44     		add	r7, r7, r1
 786              	.LVL182:
 787 0578 4FEA7234 		ror	r4, r2, #13
 788 057c 84EAB204 		eor	r4, r4, r2, ror #2
 789 0580 84EAB254 		eor	r4, r4, r2, ror #22
 790 0584 89EA0308 		eor	r8, r9, r3
ARM GAS  C:\Users\bogur\AppData\Local\Temp\cc4rWh5U.s 			page 17


 791 0588 08EA0208 		and	r8, r8, r2
 792 058c 09EA0301 		and	r1, r9, r3
 793 0590 88EA0108 		eor	r8, r8, r1
 794 0594 A044     		add	r8, r8, r4
 795              	.LVL183:
 796 0596 0AEB0701 		add	r1, r10, r7
 797              	.LVL184:
 798 059a B844     		add	r8, r8, r7
 799              	.LVL185:
 123:..\sha256.c   ****     F(w15,0xc19bf174)
 800              		.loc 1 123 0
 801 059c 4FEAF124 		ror	r4, r1, #11
 802              	.LVL186:
 803 05a0 84EAB114 		eor	r4, r4, r1, ror #6
 804 05a4 84EA7164 		eor	r4, r4, r1, ror #25
 805 05a8 2044     		add	r0, r0, r4
 806              	.LVL187:
 807 05aa 129C     		ldr	r4, [sp, #72]
 808 05ac 04EA0107 		and	r7, r4, r1
 809              	.LVL188:
 810 05b0 26EA0104 		bic	r4, r6, r1
 811 05b4 7C40     		eors	r4, r4, r7
 812 05b6 2044     		add	r0, r0, r4
 813 05b8 0E9C     		ldr	r4, [sp, #56]
 814 05ba 2044     		add	r0, r0, r4
 815 05bc C74F     		ldr	r7, .L10+4
 816 05be 0744     		add	r7, r7, r0
 817              	.LVL189:
 818 05c0 4FEA7834 		ror	r4, r8, #13
 819 05c4 84EAB804 		eor	r4, r4, r8, ror #2
 820 05c8 84EAB854 		eor	r4, r4, r8, ror #22
 821 05cc 83EA020E 		eor	lr, r3, r2
 822 05d0 0EEA080E 		and	lr, lr, r8
 823 05d4 03EA0200 		and	r0, r3, r2
 824 05d8 8EEA0000 		eor	r0, lr, r0
 825 05dc 2044     		add	r0, r0, r4
 826              	.LVL190:
 827 05de 09EB070E 		add	lr, r9, r7
 828 05e2 CDF83CE0 		str	lr, [sp, #60]
 829              	.LVL191:
 830 05e6 3C18     		adds	r4, r7, r0
 831 05e8 1494     		str	r4, [sp, #80]
 832              	.LVL192:
 124:..\sha256.c   **** 
 125:..\sha256.c   ****     EXPAND
 833              		.loc 1 125 0
 834 05ea 4FEAF54C 		ror	ip, r5, #19
 835 05ee 8CEA754C 		eor	ip, ip, r5, ror #17
 836 05f2 8CEA952C 		eor	ip, ip, r5, lsr #10
 837 05f6 109F     		ldr	r7, [sp, #64]
 838              	.LVL193:
 839 05f8 BC44     		add	ip, ip, r7
 840 05fa 029C     		ldr	r4, [sp, #8]
 841              	.LVL194:
 842 05fc 4FEAB440 		ror	r0, r4, #18
 843              	.LVL195:
 844 0600 A646     		mov	lr, r4
ARM GAS  C:\Users\bogur\AppData\Local\Temp\cc4rWh5U.s 			page 18


 845              	.LVL196:
 846 0602 80EAF410 		eor	r0, r0, r4, ror #7
 847 0606 80EADE00 		eor	r0, r0, lr, lsr #3
 848 060a 0CEB000E 		add	lr, ip, r0
 849 060e 1398     		ldr	r0, [sp, #76]
 850 0610 8644     		add	lr, lr, r0
 851              	.LVL197:
 852 0612 0E9C     		ldr	r4, [sp, #56]
 853 0614 4FEAF449 		ror	r9, r4, #19
 854 0618 89EA7449 		eor	r9, r9, r4, ror #17
 855 061c 89EA9429 		eor	r9, r9, r4, lsr #10
 856 0620 0A98     		ldr	r0, [sp, #40]
 857 0622 8144     		add	r9, r9, r0
 858 0624 039C     		ldr	r4, [sp, #12]
 859 0626 4FEAB440 		ror	r0, r4, #18
 860 062a A446     		mov	ip, r4
 861 062c 80EAF410 		eor	r0, r0, r4, ror #7
 862 0630 80EADC00 		eor	r0, r0, ip, lsr #3
 863 0634 09EB000B 		add	fp, r9, r0
 864 0638 029C     		ldr	r4, [sp, #8]
 865 063a A344     		add	fp, fp, r4
 866              	.LVL198:
 867 063c 4FEAFE49 		ror	r9, lr, #19
 868 0640 89EA7E49 		eor	r9, r9, lr, ror #17
 869 0644 89EA9E29 		eor	r9, r9, lr, lsr #10
 870 0648 0B98     		ldr	r0, [sp, #44]
 871 064a 8144     		add	r9, r9, r0
 872 064c 049C     		ldr	r4, [sp, #16]
 873 064e 4FEAB440 		ror	r0, r4, #18
 874 0652 A446     		mov	ip, r4
 875 0654 80EAF410 		eor	r0, r0, r4, ror #7
 876 0658 80EADC00 		eor	r0, r0, ip, lsr #3
 877 065c 09EB000C 		add	ip, r9, r0
 878 0660 039C     		ldr	r4, [sp, #12]
 879 0662 A444     		add	ip, ip, r4
 880              	.LVL199:
 881 0664 4FEAFB49 		ror	r9, fp, #19
 882 0668 89EA7B49 		eor	r9, r9, fp, ror #17
 883 066c 89EA9B29 		eor	r9, r9, fp, lsr #10
 884 0670 0C98     		ldr	r0, [sp, #48]
 885 0672 8144     		add	r9, r9, r0
 886 0674 059C     		ldr	r4, [sp, #20]
 887 0676 4FEAB440 		ror	r0, r4, #18
 888 067a A246     		mov	r10, r4
 889 067c 80EAF410 		eor	r0, r0, r4, ror #7
 890 0680 80EADA00 		eor	r0, r0, r10, lsr #3
 891 0684 4844     		add	r0, r0, r9
 892 0686 049C     		ldr	r4, [sp, #16]
 893 0688 2018     		adds	r0, r4, r0
 894 068a 0290     		str	r0, [sp, #8]
 895              	.LVL200:
 896 068c 4FEAFC49 		ror	r9, ip, #19
 897 0690 89EA7C49 		eor	r9, r9, ip, ror #17
 898 0694 89EA9C29 		eor	r9, r9, ip, lsr #10
 899 0698 0D98     		ldr	r0, [sp, #52]
 900              	.LVL201:
 901 069a 8144     		add	r9, r9, r0
ARM GAS  C:\Users\bogur\AppData\Local\Temp\cc4rWh5U.s 			page 19


 902 069c 069C     		ldr	r4, [sp, #24]
 903 069e 4FEAB440 		ror	r0, r4, #18
 904 06a2 A246     		mov	r10, r4
 905 06a4 80EAF410 		eor	r0, r0, r4, ror #7
 906 06a8 80EADA00 		eor	r0, r0, r10, lsr #3
 907 06ac 4844     		add	r0, r0, r9
 908 06ae 059C     		ldr	r4, [sp, #20]
 909 06b0 2018     		adds	r0, r4, r0
 910 06b2 0390     		str	r0, [sp, #12]
 911              	.LVL202:
 912 06b4 029C     		ldr	r4, [sp, #8]
 913 06b6 4FEAF449 		ror	r9, r4, #19
 914 06ba 89EA7449 		eor	r9, r9, r4, ror #17
 915 06be 89EA9429 		eor	r9, r9, r4, lsr #10
 916 06c2 A944     		add	r9, r9, r5
 917 06c4 079C     		ldr	r4, [sp, #28]
 918 06c6 4FEAB440 		ror	r0, r4, #18
 919              	.LVL203:
 920 06ca A246     		mov	r10, r4
 921 06cc 80EAF410 		eor	r0, r0, r4, ror #7
 922 06d0 80EADA00 		eor	r0, r0, r10, lsr #3
 923 06d4 4844     		add	r0, r0, r9
 924 06d6 069C     		ldr	r4, [sp, #24]
 925 06d8 2018     		adds	r0, r4, r0
 926 06da 0490     		str	r0, [sp, #16]
 927              	.LVL204:
 928 06dc 039C     		ldr	r4, [sp, #12]
 929 06de 4FEAF44A 		ror	r10, r4, #19
 930 06e2 8AEA744A 		eor	r10, r10, r4, ror #17
 931 06e6 8AEA942A 		eor	r10, r10, r4, lsr #10
 932 06ea 0E98     		ldr	r0, [sp, #56]
 933              	.LVL205:
 934 06ec 8244     		add	r10, r10, r0
 935 06ee 089C     		ldr	r4, [sp, #32]
 936 06f0 4FEAB440 		ror	r0, r4, #18
 937 06f4 A146     		mov	r9, r4
 938 06f6 80EAF410 		eor	r0, r0, r4, ror #7
 939 06fa 80EAD900 		eor	r0, r0, r9, lsr #3
 940 06fe 5044     		add	r0, r0, r10
 941 0700 079C     		ldr	r4, [sp, #28]
 942 0702 2018     		adds	r0, r4, r0
 943 0704 0590     		str	r0, [sp, #20]
 944              	.LVL206:
 945 0706 049C     		ldr	r4, [sp, #16]
 946 0708 4FEAF44A 		ror	r10, r4, #19
 947 070c 8AEA744A 		eor	r10, r10, r4, ror #17
 948 0710 8AEA942A 		eor	r10, r10, r4, lsr #10
 949 0714 F244     		add	r10, r10, lr
 950 0716 099C     		ldr	r4, [sp, #36]
 951 0718 4FEAB440 		ror	r0, r4, #18
 952              	.LVL207:
 953 071c A146     		mov	r9, r4
 954 071e 80EAF410 		eor	r0, r0, r4, ror #7
 955 0722 80EAD900 		eor	r0, r0, r9, lsr #3
 956 0726 5044     		add	r0, r0, r10
 957 0728 089C     		ldr	r4, [sp, #32]
 958 072a 2018     		adds	r0, r4, r0
ARM GAS  C:\Users\bogur\AppData\Local\Temp\cc4rWh5U.s 			page 20


 959 072c 0690     		str	r0, [sp, #24]
 960              	.LVL208:
 961 072e 059C     		ldr	r4, [sp, #20]
 962 0730 4FEAF44A 		ror	r10, r4, #19
 963 0734 8AEA744A 		eor	r10, r10, r4, ror #17
 964 0738 8AEA942A 		eor	r10, r10, r4, lsr #10
 965 073c DA44     		add	r10, r10, fp
 966 073e 4FEAB740 		ror	r0, r7, #18
 967              	.LVL209:
 968 0742 80EAF710 		eor	r0, r0, r7, ror #7
 969 0746 80EAD700 		eor	r0, r0, r7, lsr #3
 970 074a 5044     		add	r0, r0, r10
 971 074c 099C     		ldr	r4, [sp, #36]
 972 074e 2018     		adds	r0, r4, r0
 973 0750 0790     		str	r0, [sp, #28]
 974              	.LVL210:
 975 0752 069C     		ldr	r4, [sp, #24]
 976 0754 4FEAF449 		ror	r9, r4, #19
 977 0758 89EA7449 		eor	r9, r9, r4, ror #17
 978 075c 89EA9429 		eor	r9, r9, r4, lsr #10
 979 0760 E144     		add	r9, r9, ip
 980 0762 0A9C     		ldr	r4, [sp, #40]
 981 0764 4FEAB440 		ror	r0, r4, #18
 982              	.LVL211:
 983 0768 80EAF410 		eor	r0, r0, r4, ror #7
 984 076c 80EAD400 		eor	r0, r0, r4, lsr #3
 985 0770 4844     		add	r0, r0, r9
 986 0772 109F     		ldr	r7, [sp, #64]
 987 0774 3818     		adds	r0, r7, r0
 988 0776 0890     		str	r0, [sp, #32]
 989              	.LVL212:
 990 0778 079C     		ldr	r4, [sp, #28]
 991 077a 4FEAF449 		ror	r9, r4, #19
 992 077e 89EA7449 		eor	r9, r9, r4, ror #17
 993 0782 89EA9429 		eor	r9, r9, r4, lsr #10
 994 0786 0298     		ldr	r0, [sp, #8]
 995              	.LVL213:
 996 0788 8144     		add	r9, r9, r0
 997 078a 0B9C     		ldr	r4, [sp, #44]
 998 078c 4FEAB440 		ror	r0, r4, #18
 999 0790 80EAF410 		eor	r0, r0, r4, ror #7
 1000 0794 80EAD400 		eor	r0, r0, r4, lsr #3
 1001 0798 4844     		add	r0, r0, r9
 1002 079a 0A9F     		ldr	r7, [sp, #40]
 1003 079c 3818     		adds	r0, r7, r0
 1004 079e 0990     		str	r0, [sp, #36]
 1005              	.LVL214:
 1006 07a0 089C     		ldr	r4, [sp, #32]
 1007 07a2 4FEAF449 		ror	r9, r4, #19
 1008 07a6 89EA7449 		eor	r9, r9, r4, ror #17
 1009 07aa 89EA9429 		eor	r9, r9, r4, lsr #10
 1010 07ae 0398     		ldr	r0, [sp, #12]
 1011              	.LVL215:
 1012 07b0 8144     		add	r9, r9, r0
 1013 07b2 0C9C     		ldr	r4, [sp, #48]
 1014 07b4 4FEAB440 		ror	r0, r4, #18
 1015 07b8 80EAF410 		eor	r0, r0, r4, ror #7
ARM GAS  C:\Users\bogur\AppData\Local\Temp\cc4rWh5U.s 			page 21


 1016 07bc 80EAD400 		eor	r0, r0, r4, lsr #3
 1017 07c0 4844     		add	r0, r0, r9
 1018 07c2 0B9F     		ldr	r7, [sp, #44]
 1019 07c4 3818     		adds	r0, r7, r0
 1020 07c6 0A90     		str	r0, [sp, #40]
 1021              	.LVL216:
 1022 07c8 099C     		ldr	r4, [sp, #36]
 1023 07ca 4FEAF449 		ror	r9, r4, #19
 1024 07ce 89EA7449 		eor	r9, r9, r4, ror #17
 1025 07d2 89EA9429 		eor	r9, r9, r4, lsr #10
 1026 07d6 0498     		ldr	r0, [sp, #16]
 1027              	.LVL217:
 1028 07d8 8144     		add	r9, r9, r0
 1029 07da 0D9C     		ldr	r4, [sp, #52]
 1030 07dc 4FEAB440 		ror	r0, r4, #18
 1031 07e0 80EAF410 		eor	r0, r0, r4, ror #7
 1032 07e4 80EAD400 		eor	r0, r0, r4, lsr #3
 1033 07e8 4844     		add	r0, r0, r9
 1034 07ea 0C9F     		ldr	r7, [sp, #48]
 1035 07ec 3818     		adds	r0, r7, r0
 1036 07ee 0B90     		str	r0, [sp, #44]
 1037              	.LVL218:
 1038 07f0 0A9C     		ldr	r4, [sp, #40]
 1039 07f2 4FEAF449 		ror	r9, r4, #19
 1040 07f6 89EA7449 		eor	r9, r9, r4, ror #17
 1041 07fa 89EA9429 		eor	r9, r9, r4, lsr #10
 1042 07fe 0598     		ldr	r0, [sp, #20]
 1043              	.LVL219:
 1044 0800 8144     		add	r9, r9, r0
 1045 0802 4FEAB540 		ror	r0, r5, #18
 1046 0806 AA46     		mov	r10, r5
 1047 0808 80EAF510 		eor	r0, r0, r5, ror #7
 1048 080c 80EAD500 		eor	r0, r0, r5, lsr #3
 1049 0810 4844     		add	r0, r0, r9
 1050 0812 0D9F     		ldr	r7, [sp, #52]
 1051 0814 3D18     		adds	r5, r7, r0
 1052 0816 0C95     		str	r5, [sp, #48]
 1053              	.LVL220:
 1054 0818 0B98     		ldr	r0, [sp, #44]
 1055 081a 4FEAF049 		ror	r9, r0, #19
 1056 081e 89EA7049 		eor	r9, r9, r0, ror #17
 1057 0822 89EA9029 		eor	r9, r9, r0, lsr #10
 1058 0826 069D     		ldr	r5, [sp, #24]
 1059              	.LVL221:
 1060 0828 A944     		add	r9, r9, r5
 1061 082a 0E9C     		ldr	r4, [sp, #56]
 1062 082c 4FEAB440 		ror	r0, r4, #18
 1063 0830 80EAF410 		eor	r0, r0, r4, ror #7
 1064 0834 80EAD400 		eor	r0, r0, r4, lsr #3
 1065 0838 4844     		add	r0, r0, r9
 1066 083a 5546     		mov	r5, r10
 1067 083c 0544     		add	r5, r5, r0
 1068 083e 1395     		str	r5, [sp, #76]
 1069              	.LVL222:
 1070 0840 0C98     		ldr	r0, [sp, #48]
 1071 0842 4FEAF049 		ror	r9, r0, #19
 1072 0846 89EA7049 		eor	r9, r9, r0, ror #17
ARM GAS  C:\Users\bogur\AppData\Local\Temp\cc4rWh5U.s 			page 22


 1073 084a 89EA9029 		eor	r9, r9, r0, lsr #10
 1074 084e 079D     		ldr	r5, [sp, #28]
 1075              	.LVL223:
 1076 0850 A944     		add	r9, r9, r5
 1077 0852 4FEABE40 		ror	r0, lr, #18
 1078 0856 80EAFE10 		eor	r0, r0, lr, ror #7
 1079 085a 80EADE00 		eor	r0, r0, lr, lsr #3
 1080 085e 4844     		add	r0, r0, r9
 1081 0860 2546     		mov	r5, r4
 1082 0862 0544     		add	r5, r5, r0
 1083 0864 0D95     		str	r5, [sp, #52]
 1084              	.LVL224:
 126:..\sha256.c   **** 
 127:..\sha256.c   ****     F(w0 ,0xe49b69c1)
 1085              		.loc 1 127 0
 1086 0866 0F9D     		ldr	r5, [sp, #60]
 1087              	.LVL225:
 1088 0868 2F46     		mov	r7, r5
 1089 086a 4FEAF520 		ror	r0, r5, #11
 1090 086e 80EAB510 		eor	r0, r0, r5, ror #6
 1091 0872 80EA7560 		eor	r0, r0, r5, ror #25
 1092 0876 0644     		add	r6, r6, r0
 1093              	.LVL226:
 1094 0878 01EA0509 		and	r9, r1, r5
 1095 087c 1298     		ldr	r0, [sp, #72]
 1096 087e 20EA0500 		bic	r0, r0, r5
 1097 0882 89EA0000 		eor	r0, r9, r0
 1098 0886 3044     		add	r0, r0, r6
 1099 0888 7044     		add	r0, r0, lr
 1100 088a 154E     		ldr	r6, .L10+8
 1101 088c 0644     		add	r6, r6, r0
 1102              	.LVL227:
 1103 088e 1498     		ldr	r0, [sp, #80]
 1104 0890 0446     		mov	r4, r0
 1105 0892 4FEA7039 		ror	r9, r0, #13
 1106 0896 89EAB009 		eor	r9, r9, r0, ror #2
 1107 089a 89EAB059 		eor	r9, r9, r0, ror #22
 1108 089e 82EA080A 		eor	r10, r2, r8
 1109 08a2 0AEA000A 		and	r10, r10, r0
 1110 08a6 02EA0800 		and	r0, r2, r8
 1111 08aa 8AEA0000 		eor	r0, r10, r0
 1112 08ae 8144     		add	r9, r9, r0
 1113              	.LVL228:
 1114 08b0 3344     		add	r3, r3, r6
 1115              	.LVL229:
 1116 08b2 4E44     		add	r6, r6, r9
 1117              	.LVL230:
 128:..\sha256.c   ****     F(w1 ,0xefbe4786)
 1118              		.loc 1 128 0
 1119 08b4 4FEAF320 		ror	r0, r3, #11
 1120 08b8 80EAB310 		eor	r0, r0, r3, ror #6
 1121 08bc 80EA7360 		eor	r0, r0, r3, ror #25
 1122 08c0 129D     		ldr	r5, [sp, #72]
 1123 08c2 0544     		add	r5, r5, r0
 1124 08c4 07EA0309 		and	r9, r7, r3
 1125              	.LVL231:
 1126 08c8 21EA0300 		bic	r0, r1, r3
ARM GAS  C:\Users\bogur\AppData\Local\Temp\cc4rWh5U.s 			page 23


 1127 08cc 89EA0000 		eor	r0, r9, r0
 1128 08d0 2844     		add	r0, r0, r5
 1129 08d2 5844     		add	r0, r0, fp
 1130 08d4 06E0     		b	.L11
 1131              	.L12:
 1132 08d6 00BF     		.align	2
 1133              	.L10:
 1134 08d8 A706DC9B 		.word	-1680079193
 1135 08dc 74F19BC1 		.word	-1046744716
 1136 08e0 C1699BE4 		.word	-459576895
 1137              	.L11:
 1138 08e4 F04D     		ldr	r5, .L13
 1139 08e6 0544     		add	r5, r5, r0
 1140              	.LVL232:
 1141 08e8 4FEA7639 		ror	r9, r6, #13
 1142 08ec 89EAB609 		eor	r9, r9, r6, ror #2
 1143 08f0 89EAB659 		eor	r9, r9, r6, ror #22
 1144 08f4 88EA040A 		eor	r10, r8, r4
 1145              	.LVL233:
 1146 08f8 0AEA060A 		and	r10, r10, r6
 1147 08fc 08EA0400 		and	r0, r8, r4
 1148 0900 8AEA0000 		eor	r0, r10, r0
 1149 0904 8144     		add	r9, r9, r0
 1150              	.LVL234:
 1151 0906 2A44     		add	r2, r2, r5
 1152              	.LVL235:
 1153 0908 4D44     		add	r5, r5, r9
 1154              	.LVL236:
 129:..\sha256.c   ****     F(w2 ,0x0fc19dc6)
 1155              		.loc 1 129 0
 1156 090a 4FEAF220 		ror	r0, r2, #11
 1157 090e 80EAB210 		eor	r0, r0, r2, ror #6
 1158 0912 80EA7260 		eor	r0, r0, r2, ror #25
 1159 0916 0144     		add	r1, r1, r0
 1160              	.LVL237:
 1161 0918 03EA0209 		and	r9, r3, r2
 1162              	.LVL238:
 1163 091c 27EA0200 		bic	r0, r7, r2
 1164 0920 89EA0000 		eor	r0, r9, r0
 1165 0924 0844     		add	r0, r0, r1
 1166 0926 6044     		add	r0, r0, ip
 1167 0928 E049     		ldr	r1, .L13+4
 1168 092a 0144     		add	r1, r1, r0
 1169              	.LVL239:
 1170 092c 4FEA7539 		ror	r9, r5, #13
 1171 0930 89EAB509 		eor	r9, r9, r5, ror #2
 1172 0934 89EAB559 		eor	r9, r9, r5, ror #22
 1173 0938 84EA060A 		eor	r10, r4, r6
 1174              	.LVL240:
 1175 093c 0AEA050A 		and	r10, r10, r5
 1176 0940 04EA0600 		and	r0, r4, r6
 1177 0944 8AEA0000 		eor	r0, r10, r0
 1178 0948 8144     		add	r9, r9, r0
 1179              	.LVL241:
 1180 094a 8844     		add	r8, r8, r1
 1181              	.LVL242:
 1182 094c 4944     		add	r1, r1, r9
ARM GAS  C:\Users\bogur\AppData\Local\Temp\cc4rWh5U.s 			page 24


 1183              	.LVL243:
 130:..\sha256.c   ****     F(w3 ,0x240ca1cc)
 1184              		.loc 1 130 0
 1185 094e 4FEAF820 		ror	r0, r8, #11
 1186 0952 80EAB810 		eor	r0, r0, r8, ror #6
 1187 0956 80EA7860 		eor	r0, r0, r8, ror #25
 1188 095a 0F9F     		ldr	r7, [sp, #60]
 1189 095c 0744     		add	r7, r7, r0
 1190 095e 3C46     		mov	r4, r7
 1191 0960 02EA0809 		and	r9, r2, r8
 1192              	.LVL244:
 1193 0964 23EA0800 		bic	r0, r3, r8
 1194 0968 89EA0000 		eor	r0, r9, r0
 1195 096c 0444     		add	r4, r4, r0
 1196 096e 0298     		ldr	r0, [sp, #8]
 1197 0970 0444     		add	r4, r4, r0
 1198 0972 CF48     		ldr	r0, .L13+8
 1199 0974 2044     		add	r0, r0, r4
 1200              	.LVL245:
 1201 0976 4FEA7139 		ror	r9, r1, #13
 1202 097a 89EAB109 		eor	r9, r9, r1, ror #2
 1203 097e 89EAB159 		eor	r9, r9, r1, ror #22
 1204 0982 86EA050A 		eor	r10, r6, r5
 1205              	.LVL246:
 1206 0986 0AEA010A 		and	r10, r10, r1
 1207 098a 06EA0504 		and	r4, r6, r5
 1208 098e 8AEA0404 		eor	r4, r10, r4
 1209 0992 A144     		add	r9, r9, r4
 1210              	.LVL247:
 1211 0994 149C     		ldr	r4, [sp, #80]
 1212 0996 0444     		add	r4, r4, r0
 1213 0998 2746     		mov	r7, r4
 1214              	.LVL248:
 1215 099a 4844     		add	r0, r0, r9
 1216              	.LVL249:
 131:..\sha256.c   ****     F(w4 ,0x2de92c6f)
 1217              		.loc 1 131 0
 1218 099c 4FEAF424 		ror	r4, r4, #11
 1219              	.LVL250:
 1220 09a0 84EAB714 		eor	r4, r4, r7, ror #6
 1221 09a4 84EA7764 		eor	r4, r4, r7, ror #25
 1222 09a8 2344     		add	r3, r3, r4
 1223              	.LVL251:
 1224 09aa 08EA0709 		and	r9, r8, r7
 1225              	.LVL252:
 1226 09ae 22EA0704 		bic	r4, r2, r7
 1227 09b2 89EA0404 		eor	r4, r9, r4
 1228 09b6 2344     		add	r3, r3, r4
 1229 09b8 039C     		ldr	r4, [sp, #12]
 1230 09ba 2344     		add	r3, r3, r4
 1231 09bc BD4C     		ldr	r4, .L13+12
 1232 09be 1C44     		add	r4, r4, r3
 1233              	.LVL253:
 1234 09c0 4FEA7039 		ror	r9, r0, #13
 1235 09c4 89EAB009 		eor	r9, r9, r0, ror #2
 1236 09c8 89EAB059 		eor	r9, r9, r0, ror #22
 1237 09cc 85EA010A 		eor	r10, r5, r1
ARM GAS  C:\Users\bogur\AppData\Local\Temp\cc4rWh5U.s 			page 25


 1238              	.LVL254:
 1239 09d0 0AEA000A 		and	r10, r10, r0
 1240 09d4 05EA0103 		and	r3, r5, r1
 1241 09d8 8AEA0303 		eor	r3, r10, r3
 1242 09dc 9944     		add	r9, r9, r3
 1243              	.LVL255:
 1244 09de 2644     		add	r6, r6, r4
 1245              	.LVL256:
 1246 09e0 4C44     		add	r4, r4, r9
 1247              	.LVL257:
 132:..\sha256.c   ****     F(w5 ,0x4a7484aa)
 1248              		.loc 1 132 0
 1249 09e2 4FEAF623 		ror	r3, r6, #11
 1250 09e6 83EAB613 		eor	r3, r3, r6, ror #6
 1251 09ea 83EA7663 		eor	r3, r3, r6, ror #25
 1252 09ee 1A44     		add	r2, r2, r3
 1253              	.LVL258:
 1254 09f0 07EA0609 		and	r9, r7, r6
 1255              	.LVL259:
 1256 09f4 28EA0603 		bic	r3, r8, r6
 1257 09f8 89EA0303 		eor	r3, r9, r3
 1258 09fc 1344     		add	r3, r3, r2
 1259 09fe 049A     		ldr	r2, [sp, #16]
 1260 0a00 1344     		add	r3, r3, r2
 1261 0a02 AD4A     		ldr	r2, .L13+16
 1262 0a04 1A44     		add	r2, r2, r3
 1263              	.LVL260:
 1264 0a06 4FEA7439 		ror	r9, r4, #13
 1265 0a0a 89EAB409 		eor	r9, r9, r4, ror #2
 1266 0a0e 89EAB459 		eor	r9, r9, r4, ror #22
 1267 0a12 81EA000A 		eor	r10, r1, r0
 1268              	.LVL261:
 1269 0a16 0AEA040A 		and	r10, r10, r4
 1270 0a1a 01EA0003 		and	r3, r1, r0
 1271 0a1e 8AEA0303 		eor	r3, r10, r3
 1272 0a22 9944     		add	r9, r9, r3
 1273              	.LVL262:
 1274 0a24 1544     		add	r5, r5, r2
 1275              	.LVL263:
 1276 0a26 4A44     		add	r2, r2, r9
 1277              	.LVL264:
 133:..\sha256.c   ****     F(w6 ,0x5cb0a9dc)
 1278              		.loc 1 133 0
 1279 0a28 4FEAF523 		ror	r3, r5, #11
 1280 0a2c 83EAB513 		eor	r3, r3, r5, ror #6
 1281 0a30 83EA7563 		eor	r3, r3, r5, ror #25
 1282 0a34 9844     		add	r8, r8, r3
 1283              	.LVL265:
 1284 0a36 06EA0509 		and	r9, r6, r5
 1285              	.LVL266:
 1286 0a3a 27EA0503 		bic	r3, r7, r5
 1287 0a3e 89EA0303 		eor	r3, r9, r3
 1288 0a42 9844     		add	r8, r8, r3
 1289 0a44 059B     		ldr	r3, [sp, #20]
 1290 0a46 9844     		add	r8, r8, r3
 1291 0a48 9C4B     		ldr	r3, .L13+20
 1292 0a4a 4344     		add	r3, r3, r8
ARM GAS  C:\Users\bogur\AppData\Local\Temp\cc4rWh5U.s 			page 26


 1293              	.LVL267:
 1294 0a4c 4FEA7239 		ror	r9, r2, #13
 1295 0a50 89EAB209 		eor	r9, r9, r2, ror #2
 1296 0a54 89EAB259 		eor	r9, r9, r2, ror #22
 1297 0a58 80EA040A 		eor	r10, r0, r4
 1298              	.LVL268:
 1299 0a5c 0AEA020A 		and	r10, r10, r2
 1300 0a60 00EA0408 		and	r8, r0, r4
 1301 0a64 8AEA0808 		eor	r8, r10, r8
 1302 0a68 C144     		add	r9, r9, r8
 1303              	.LVL269:
 1304 0a6a 1944     		add	r1, r1, r3
 1305              	.LVL270:
 1306 0a6c 4B44     		add	r3, r3, r9
 1307              	.LVL271:
 134:..\sha256.c   ****     F(w7 ,0x76f988da)
 1308              		.loc 1 134 0
 1309 0a6e 4FEAF128 		ror	r8, r1, #11
 1310 0a72 88EAB118 		eor	r8, r8, r1, ror #6
 1311 0a76 88EA7168 		eor	r8, r8, r1, ror #25
 1312 0a7a 4744     		add	r7, r7, r8
 1313              	.LVL272:
 1314 0a7c 05EA0109 		and	r9, r5, r1
 1315              	.LVL273:
 1316 0a80 26EA0108 		bic	r8, r6, r1
 1317 0a84 89EA0808 		eor	r8, r9, r8
 1318 0a88 B844     		add	r8, r8, r7
 1319 0a8a 069F     		ldr	r7, [sp, #24]
 1320 0a8c 4744     		add	r7, r7, r8
 1321 0a8e DFF84CA2 		ldr	r10, .L13+52
 1322              	.LVL274:
 1323 0a92 BA44     		add	r10, r10, r7
 1324              	.LVL275:
 1325 0a94 4FEA7339 		ror	r9, r3, #13
 1326 0a98 89EAB309 		eor	r9, r9, r3, ror #2
 1327 0a9c 89EAB359 		eor	r9, r9, r3, ror #22
 1328 0aa0 84EA0208 		eor	r8, r4, r2
 1329 0aa4 08EA0308 		and	r8, r8, r3
 1330 0aa8 04EA0207 		and	r7, r4, r2
 1331 0aac 88EA0708 		eor	r8, r8, r7
 1332 0ab0 C844     		add	r8, r8, r9
 1333              	.LVL276:
 1334 0ab2 5044     		add	r0, r0, r10
 1335              	.LVL277:
 1336 0ab4 D044     		add	r8, r8, r10
 1337              	.LVL278:
 135:..\sha256.c   ****     F(w8 ,0x983e5152)
 1338              		.loc 1 135 0
 1339 0ab6 4FEAF027 		ror	r7, r0, #11
 1340              	.LVL279:
 1341 0aba 87EAB017 		eor	r7, r7, r0, ror #6
 1342 0abe 87EA7067 		eor	r7, r7, r0, ror #25
 1343 0ac2 3E44     		add	r6, r6, r7
 1344              	.LVL280:
 1345 0ac4 01EA0009 		and	r9, r1, r0
 1346              	.LVL281:
 1347 0ac8 25EA0007 		bic	r7, r5, r0
ARM GAS  C:\Users\bogur\AppData\Local\Temp\cc4rWh5U.s 			page 27


 1348 0acc 89EA0707 		eor	r7, r9, r7
 1349 0ad0 3E44     		add	r6, r6, r7
 1350 0ad2 079F     		ldr	r7, [sp, #28]
 1351 0ad4 3E44     		add	r6, r6, r7
 1352 0ad6 7A4F     		ldr	r7, .L13+24
 1353 0ad8 3744     		add	r7, r7, r6
 1354              	.LVL282:
 1355 0ada 4FEA7839 		ror	r9, r8, #13
 1356 0ade 89EAB809 		eor	r9, r9, r8, ror #2
 1357 0ae2 89EAB859 		eor	r9, r9, r8, ror #22
 1358 0ae6 82EA030A 		eor	r10, r2, r3
 1359 0aea 0AEA080A 		and	r10, r10, r8
 1360 0aee 02EA0306 		and	r6, r2, r3
 1361 0af2 8AEA0606 		eor	r6, r10, r6
 1362 0af6 B144     		add	r9, r9, r6
 1363              	.LVL283:
 1364 0af8 3C44     		add	r4, r4, r7
 1365              	.LVL284:
 1366 0afa 4F44     		add	r7, r7, r9
 1367              	.LVL285:
 136:..\sha256.c   ****     F(w9 ,0xa831c66d)
 1368              		.loc 1 136 0
 1369 0afc 4FEAF426 		ror	r6, r4, #11
 1370 0b00 86EAB416 		eor	r6, r6, r4, ror #6
 1371 0b04 86EA7466 		eor	r6, r6, r4, ror #25
 1372 0b08 3544     		add	r5, r5, r6
 1373              	.LVL286:
 1374 0b0a 00EA0409 		and	r9, r0, r4
 1375              	.LVL287:
 1376 0b0e 21EA0406 		bic	r6, r1, r4
 1377 0b12 89EA0606 		eor	r6, r9, r6
 1378 0b16 3544     		add	r5, r5, r6
 1379 0b18 089E     		ldr	r6, [sp, #32]
 1380 0b1a 3544     		add	r5, r5, r6
 1381 0b1c 694E     		ldr	r6, .L13+28
 1382 0b1e 2E44     		add	r6, r6, r5
 1383              	.LVL288:
 1384 0b20 4FEA7739 		ror	r9, r7, #13
 1385 0b24 89EAB709 		eor	r9, r9, r7, ror #2
 1386 0b28 89EAB759 		eor	r9, r9, r7, ror #22
 1387 0b2c 83EA080A 		eor	r10, r3, r8
 1388              	.LVL289:
 1389 0b30 0AEA070A 		and	r10, r10, r7
 1390 0b34 03EA0805 		and	r5, r3, r8
 1391 0b38 8AEA0505 		eor	r5, r10, r5
 1392 0b3c A944     		add	r9, r9, r5
 1393              	.LVL290:
 1394 0b3e 3244     		add	r2, r2, r6
 1395              	.LVL291:
 1396 0b40 4E44     		add	r6, r6, r9
 1397              	.LVL292:
 137:..\sha256.c   ****     F(w10,0xb00327c8)
 1398              		.loc 1 137 0
 1399 0b42 4FEAF225 		ror	r5, r2, #11
 1400 0b46 85EAB215 		eor	r5, r5, r2, ror #6
 1401 0b4a 85EA7265 		eor	r5, r5, r2, ror #25
 1402 0b4e 2944     		add	r1, r1, r5
ARM GAS  C:\Users\bogur\AppData\Local\Temp\cc4rWh5U.s 			page 28


 1403              	.LVL293:
 1404 0b50 04EA0209 		and	r9, r4, r2
 1405              	.LVL294:
 1406 0b54 20EA0205 		bic	r5, r0, r2
 1407 0b58 89EA0505 		eor	r5, r9, r5
 1408 0b5c 0D44     		add	r5, r5, r1
 1409 0b5e 0999     		ldr	r1, [sp, #36]
 1410 0b60 0D44     		add	r5, r5, r1
 1411 0b62 5949     		ldr	r1, .L13+32
 1412 0b64 2944     		add	r1, r1, r5
 1413              	.LVL295:
 1414 0b66 4FEA7639 		ror	r9, r6, #13
 1415 0b6a 89EAB609 		eor	r9, r9, r6, ror #2
 1416 0b6e 89EAB659 		eor	r9, r9, r6, ror #22
 1417 0b72 88EA070A 		eor	r10, r8, r7
 1418              	.LVL296:
 1419 0b76 0AEA060A 		and	r10, r10, r6
 1420 0b7a 08EA0705 		and	r5, r8, r7
 1421 0b7e 8AEA0505 		eor	r5, r10, r5
 1422 0b82 A944     		add	r9, r9, r5
 1423              	.LVL297:
 1424 0b84 0B44     		add	r3, r3, r1
 1425              	.LVL298:
 1426 0b86 4944     		add	r1, r1, r9
 1427              	.LVL299:
 138:..\sha256.c   ****     F(w11,0xbf597fc7)
 1428              		.loc 1 138 0
 1429 0b88 4FEAF325 		ror	r5, r3, #11
 1430 0b8c 85EAB315 		eor	r5, r5, r3, ror #6
 1431 0b90 85EA7365 		eor	r5, r5, r3, ror #25
 1432 0b94 2844     		add	r0, r0, r5
 1433              	.LVL300:
 1434 0b96 02EA0309 		and	r9, r2, r3
 1435              	.LVL301:
 1436 0b9a 24EA0305 		bic	r5, r4, r3
 1437 0b9e 89EA0505 		eor	r5, r9, r5
 1438 0ba2 0544     		add	r5, r5, r0
 1439 0ba4 0A98     		ldr	r0, [sp, #40]
 1440 0ba6 0544     		add	r5, r5, r0
 1441 0ba8 4848     		ldr	r0, .L13+36
 1442 0baa 2844     		add	r0, r0, r5
 1443              	.LVL302:
 1444 0bac 4FEA7139 		ror	r9, r1, #13
 1445 0bb0 89EAB109 		eor	r9, r9, r1, ror #2
 1446 0bb4 89EAB159 		eor	r9, r9, r1, ror #22
 1447 0bb8 87EA060A 		eor	r10, r7, r6
 1448              	.LVL303:
 1449 0bbc 0AEA010A 		and	r10, r10, r1
 1450 0bc0 07EA0605 		and	r5, r7, r6
 1451 0bc4 8AEA0505 		eor	r5, r10, r5
 1452 0bc8 A944     		add	r9, r9, r5
 1453              	.LVL304:
 1454 0bca 8044     		add	r8, r8, r0
 1455              	.LVL305:
 1456 0bcc 4844     		add	r0, r0, r9
 1457              	.LVL306:
 139:..\sha256.c   ****     F(w12,0xc6e00bf3)
ARM GAS  C:\Users\bogur\AppData\Local\Temp\cc4rWh5U.s 			page 29


 1458              		.loc 1 139 0
 1459 0bce 4FEAF825 		ror	r5, r8, #11
 1460 0bd2 85EAB815 		eor	r5, r5, r8, ror #6
 1461 0bd6 85EA7865 		eor	r5, r5, r8, ror #25
 1462 0bda 2C44     		add	r4, r4, r5
 1463              	.LVL307:
 1464 0bdc 03EA0809 		and	r9, r3, r8
 1465              	.LVL308:
 1466 0be0 22EA0805 		bic	r5, r2, r8
 1467 0be4 89EA0505 		eor	r5, r9, r5
 1468 0be8 2C44     		add	r4, r4, r5
 1469 0bea 0B9D     		ldr	r5, [sp, #44]
 1470 0bec 2C44     		add	r4, r4, r5
 1471 0bee 384D     		ldr	r5, .L13+40
 1472 0bf0 2544     		add	r5, r5, r4
 1473              	.LVL309:
 1474 0bf2 4FEA7039 		ror	r9, r0, #13
 1475 0bf6 89EAB009 		eor	r9, r9, r0, ror #2
 1476 0bfa 89EAB059 		eor	r9, r9, r0, ror #22
 1477 0bfe 86EA010A 		eor	r10, r6, r1
 1478              	.LVL310:
 1479 0c02 0AEA000A 		and	r10, r10, r0
 1480 0c06 06EA0104 		and	r4, r6, r1
 1481 0c0a 8AEA0404 		eor	r4, r10, r4
 1482 0c0e A144     		add	r9, r9, r4
 1483              	.LVL311:
 1484 0c10 2F44     		add	r7, r7, r5
 1485              	.LVL312:
 1486 0c12 4D44     		add	r5, r5, r9
 1487              	.LVL313:
 140:..\sha256.c   ****     F(w13,0xd5a79147)
 1488              		.loc 1 140 0
 1489 0c14 4FEAF724 		ror	r4, r7, #11
 1490 0c18 84EAB714 		eor	r4, r4, r7, ror #6
 1491 0c1c 84EA7764 		eor	r4, r4, r7, ror #25
 1492 0c20 2244     		add	r2, r2, r4
 1493              	.LVL314:
 1494 0c22 08EA0709 		and	r9, r8, r7
 1495              	.LVL315:
 1496 0c26 23EA0704 		bic	r4, r3, r7
 1497 0c2a 89EA0404 		eor	r4, r9, r4
 1498 0c2e 2244     		add	r2, r2, r4
 1499 0c30 0C9C     		ldr	r4, [sp, #48]
 1500 0c32 2244     		add	r2, r2, r4
 1501 0c34 274C     		ldr	r4, .L13+44
 1502 0c36 1444     		add	r4, r4, r2
 1503              	.LVL316:
 1504 0c38 4FEA7539 		ror	r9, r5, #13
 1505 0c3c 89EAB509 		eor	r9, r9, r5, ror #2
 1506 0c40 89EAB559 		eor	r9, r9, r5, ror #22
 1507 0c44 81EA000A 		eor	r10, r1, r0
 1508              	.LVL317:
 1509 0c48 0AEA050A 		and	r10, r10, r5
 1510 0c4c 01EA0002 		and	r2, r1, r0
 1511 0c50 8AEA0202 		eor	r2, r10, r2
 1512 0c54 9144     		add	r9, r9, r2
 1513              	.LVL318:
ARM GAS  C:\Users\bogur\AppData\Local\Temp\cc4rWh5U.s 			page 30


 1514 0c56 2644     		add	r6, r6, r4
 1515              	.LVL319:
 1516 0c58 4C44     		add	r4, r4, r9
 1517              	.LVL320:
 141:..\sha256.c   ****     F(w14,0x06ca6351)
 1518              		.loc 1 141 0
 1519 0c5a 4FEAF622 		ror	r2, r6, #11
 1520 0c5e 1496     		str	r6, [sp, #80]
 1521 0c60 82EAB612 		eor	r2, r2, r6, ror #6
 1522 0c64 82EA7662 		eor	r2, r2, r6, ror #25
 1523 0c68 1344     		add	r3, r3, r2
 1524              	.LVL321:
 1525 0c6a 07EA0609 		and	r9, r7, r6
 1526              	.LVL322:
 1527 0c6e 28EA0602 		bic	r2, r8, r6
 1528 0c72 89EA0202 		eor	r2, r9, r2
 1529 0c76 1344     		add	r3, r3, r2
 1530 0c78 139E     		ldr	r6, [sp, #76]
 1531              	.LVL323:
 1532 0c7a 3344     		add	r3, r3, r6
 1533 0c7c 164A     		ldr	r2, .L13+48
 1534 0c7e 1A44     		add	r2, r2, r3
 1535              	.LVL324:
 1536 0c80 4FEA7439 		ror	r9, r4, #13
 1537 0c84 89EAB409 		eor	r9, r9, r4, ror #2
 1538 0c88 89EAB459 		eor	r9, r9, r4, ror #22
 1539 0c8c 80EA050A 		eor	r10, r0, r5
 1540              	.LVL325:
 1541 0c90 0AEA040A 		and	r10, r10, r4
 1542 0c94 00EA0503 		and	r3, r0, r5
 1543 0c98 8AEA0303 		eor	r3, r10, r3
 1544 0c9c 4B44     		add	r3, r3, r9
 1545              	.LVL326:
 1546 0c9e 01EB0209 		add	r9, r1, r2
 1547              	.LVL327:
 1548 0ca2 1A44     		add	r2, r2, r3
 1549 0ca4 1CE0     		b	.L14
 1550              	.L15:
 1551 0ca6 00BF     		.align	2
 1552              	.L13:
 1553 0ca8 8647BEEF 		.word	-272742522
 1554 0cac C69DC10F 		.word	264347078
 1555 0cb0 CCA10C24 		.word	604807628
 1556 0cb4 6F2CE92D 		.word	770255983
 1557 0cb8 AA84744A 		.word	1249150122
 1558 0cbc DCA9B05C 		.word	1555081692
 1559 0cc0 52513E98 		.word	-1740746414
 1560 0cc4 6DC631A8 		.word	-1473132947
 1561 0cc8 C82703B0 		.word	-1341970488
 1562 0ccc C77F59BF 		.word	-1084653625
 1563 0cd0 F30BE0C6 		.word	-958395405
 1564 0cd4 4791A7D5 		.word	-710438585
 1565 0cd8 5163CA06 		.word	113926993
 1566 0cdc DA88F976 		.word	1996064986
 1567              	.L14:
 1568              	.LVL328:
 142:..\sha256.c   ****     F(w15,0x14292967)
ARM GAS  C:\Users\bogur\AppData\Local\Temp\cc4rWh5U.s 			page 31


 1569              		.loc 1 142 0
 1570 0ce0 4FEAF923 		ror	r3, r9, #11
 1571              	.LVL329:
 1572 0ce4 83EAB913 		eor	r3, r3, r9, ror #6
 1573 0ce8 83EA7963 		eor	r3, r3, r9, ror #25
 1574 0cec 9844     		add	r8, r8, r3
 1575              	.LVL330:
 1576 0cee 149B     		ldr	r3, [sp, #80]
 1577 0cf0 03EA0901 		and	r1, r3, r9
 1578 0cf4 27EA0903 		bic	r3, r7, r9
 1579 0cf8 4B40     		eors	r3, r3, r1
 1580 0cfa 9844     		add	r8, r8, r3
 1581 0cfc 0D9B     		ldr	r3, [sp, #52]
 1582 0cfe 9844     		add	r8, r8, r3
 1583 0d00 DFF82CA7 		ldr	r10, .L16+56
 1584              	.LVL331:
 1585 0d04 C244     		add	r10, r10, r8
 1586              	.LVL332:
 1587 0d06 4FEA7231 		ror	r1, r2, #13
 1588 0d0a 81EAB201 		eor	r1, r1, r2, ror #2
 1589 0d0e 81EAB251 		eor	r1, r1, r2, ror #22
 1590 0d12 85EA0408 		eor	r8, r5, r4
 1591 0d16 08EA0208 		and	r8, r8, r2
 1592 0d1a 05EA0403 		and	r3, r5, r4
 1593 0d1e 88EA0303 		eor	r3, r8, r3
 1594 0d22 0B44     		add	r3, r3, r1
 1595              	.LVL333:
 1596 0d24 5044     		add	r0, r0, r10
 1597              	.LVL334:
 1598 0d26 5344     		add	r3, r3, r10
 1599              	.LVL335:
 143:..\sha256.c   **** 
 144:..\sha256.c   ****     EXPAND
 1600              		.loc 1 144 0
 1601 0d28 4FEAF648 		ror	r8, r6, #19
 1602              	.LVL336:
 1603 0d2c 88EA7648 		eor	r8, r8, r6, ror #17
 1604 0d30 88EA9628 		eor	r8, r8, r6, lsr #10
 1605 0d34 0899     		ldr	r1, [sp, #32]
 1606              	.LVL337:
 1607 0d36 8844     		add	r8, r8, r1
 1608 0d38 4FEABB41 		ror	r1, fp, #18
 1609 0d3c 81EAFB11 		eor	r1, r1, fp, ror #7
 1610 0d40 81EADB01 		eor	r1, r1, fp, lsr #3
 1611 0d44 4144     		add	r1, r1, r8
 1612 0d46 8E44     		add	lr, lr, r1
 1613              	.LVL338:
 1614 0d48 CDF838E0 		str	lr, [sp, #56]
 1615              	.LVL339:
 1616 0d4c 0D9E     		ldr	r6, [sp, #52]
 1617 0d4e 4FEAF64E 		ror	lr, r6, #19
 1618              	.LVL340:
 1619 0d52 8EEA764E 		eor	lr, lr, r6, ror #17
 1620 0d56 8EEA962E 		eor	lr, lr, r6, lsr #10
 1621 0d5a 0999     		ldr	r1, [sp, #36]
 1622 0d5c 8E44     		add	lr, lr, r1
 1623 0d5e 4FEABC41 		ror	r1, ip, #18
ARM GAS  C:\Users\bogur\AppData\Local\Temp\cc4rWh5U.s 			page 32


 1624 0d62 81EAFC11 		eor	r1, r1, ip, ror #7
 1625 0d66 81EADC01 		eor	r1, r1, ip, lsr #3
 1626 0d6a 7144     		add	r1, r1, lr
 1627 0d6c 0BEB010E 		add	lr, fp, r1
 1628 0d70 CDF83CE0 		str	lr, [sp, #60]
 1629              	.LVL341:
 1630 0d74 0E9E     		ldr	r6, [sp, #56]
 1631 0d76 4FEAF648 		ror	r8, r6, #19
 1632 0d7a 88EA7648 		eor	r8, r8, r6, ror #17
 1633 0d7e 88EA9628 		eor	r8, r8, r6, lsr #10
 1634 0d82 0A99     		ldr	r1, [sp, #40]
 1635 0d84 8844     		add	r8, r8, r1
 1636 0d86 029E     		ldr	r6, [sp, #8]
 1637 0d88 4FEAB641 		ror	r1, r6, #18
 1638 0d8c B646     		mov	lr, r6
 1639              	.LVL342:
 1640 0d8e 81EAF611 		eor	r1, r1, r6, ror #7
 1641 0d92 81EADE01 		eor	r1, r1, lr, lsr #3
 1642 0d96 8844     		add	r8, r8, r1
 1643 0d98 0CEB080E 		add	lr, ip, r8
 1644 0d9c CDF840E0 		str	lr, [sp, #64]
 1645              	.LVL343:
 1646 0da0 0F9E     		ldr	r6, [sp, #60]
 1647 0da2 4FEAF64C 		ror	ip, r6, #19
 1648 0da6 8CEA764C 		eor	ip, ip, r6, ror #17
 1649 0daa 8CEA962C 		eor	ip, ip, r6, lsr #10
 1650 0dae 0B99     		ldr	r1, [sp, #44]
 1651 0db0 8C44     		add	ip, ip, r1
 1652 0db2 039E     		ldr	r6, [sp, #12]
 1653 0db4 4FEAB641 		ror	r1, r6, #18
 1654 0db8 B646     		mov	lr, r6
 1655              	.LVL344:
 1656 0dba 81EAF611 		eor	r1, r1, r6, ror #7
 1657 0dbe 81EADE01 		eor	r1, r1, lr, lsr #3
 1658 0dc2 8C44     		add	ip, ip, r1
 1659 0dc4 029E     		ldr	r6, [sp, #8]
 1660 0dc6 B646     		mov	lr, r6
 1661 0dc8 E644     		add	lr, lr, ip
 1662 0dca CDF844E0 		str	lr, [sp, #68]
 1663              	.LVL345:
 1664 0dce 109E     		ldr	r6, [sp, #64]
 1665 0dd0 4FEAF64E 		ror	lr, r6, #19
 1666              	.LVL346:
 1667 0dd4 8EEA764E 		eor	lr, lr, r6, ror #17
 1668 0dd8 8EEA962E 		eor	lr, lr, r6, lsr #10
 1669 0ddc 0C99     		ldr	r1, [sp, #48]
 1670 0dde 8E44     		add	lr, lr, r1
 1671 0de0 049E     		ldr	r6, [sp, #16]
 1672 0de2 4FEAB641 		ror	r1, r6, #18
 1673 0de6 B446     		mov	ip, r6
 1674 0de8 81EAF611 		eor	r1, r1, r6, ror #7
 1675 0dec 81EADC01 		eor	r1, r1, ip, lsr #3
 1676 0df0 7144     		add	r1, r1, lr
 1677 0df2 039E     		ldr	r6, [sp, #12]
 1678 0df4 0E44     		add	r6, r6, r1
 1679 0df6 1296     		str	r6, [sp, #72]
 1680              	.LVL347:
ARM GAS  C:\Users\bogur\AppData\Local\Temp\cc4rWh5U.s 			page 33


 1681 0df8 119E     		ldr	r6, [sp, #68]
 1682              	.LVL348:
 1683 0dfa 4FEAF64B 		ror	fp, r6, #19
 1684 0dfe 8BEA764B 		eor	fp, fp, r6, ror #17
 1685 0e02 8BEA962B 		eor	fp, fp, r6, lsr #10
 1686 0e06 1399     		ldr	r1, [sp, #76]
 1687 0e08 8B44     		add	fp, fp, r1
 1688 0e0a 059E     		ldr	r6, [sp, #20]
 1689 0e0c 4FEAB641 		ror	r1, r6, #18
 1690 0e10 B646     		mov	lr, r6
 1691 0e12 81EAF611 		eor	r1, r1, r6, ror #7
 1692 0e16 81EADE01 		eor	r1, r1, lr, lsr #3
 1693 0e1a 5944     		add	r1, r1, fp
 1694 0e1c 6646     		mov	r6, ip
 1695 0e1e 0E44     		add	r6, r6, r1
 1696 0e20 0496     		str	r6, [sp, #16]
 1697              	.LVL349:
 1698 0e22 1299     		ldr	r1, [sp, #72]
 1699 0e24 4FEAF14A 		ror	r10, r1, #19
 1700              	.LVL350:
 1701 0e28 8AEA714A 		eor	r10, r10, r1, ror #17
 1702 0e2c 8AEA912A 		eor	r10, r10, r1, lsr #10
 1703 0e30 0D99     		ldr	r1, [sp, #52]
 1704 0e32 8A44     		add	r10, r10, r1
 1705 0e34 069E     		ldr	r6, [sp, #24]
 1706              	.LVL351:
 1707 0e36 4FEAB641 		ror	r1, r6, #18
 1708 0e3a B646     		mov	lr, r6
 1709 0e3c 81EAF611 		eor	r1, r1, r6, ror #7
 1710 0e40 81EADE01 		eor	r1, r1, lr, lsr #3
 1711 0e44 8A44     		add	r10, r10, r1
 1712 0e46 059E     		ldr	r6, [sp, #20]
 1713 0e48 B646     		mov	lr, r6
 1714 0e4a D644     		add	lr, lr, r10
 1715 0e4c CDF814E0 		str	lr, [sp, #20]
 1716              	.LVL352:
 1717 0e50 0499     		ldr	r1, [sp, #16]
 1718 0e52 4FEAF14A 		ror	r10, r1, #19
 1719 0e56 8AEA714A 		eor	r10, r10, r1, ror #17
 1720 0e5a 8AEA912A 		eor	r10, r10, r1, lsr #10
 1721 0e5e 0E9E     		ldr	r6, [sp, #56]
 1722 0e60 B244     		add	r10, r10, r6
 1723 0e62 079E     		ldr	r6, [sp, #28]
 1724 0e64 4FEAB641 		ror	r1, r6, #18
 1725 0e68 B646     		mov	lr, r6
 1726              	.LVL353:
 1727 0e6a 81EAF611 		eor	r1, r1, r6, ror #7
 1728 0e6e 81EADE01 		eor	r1, r1, lr, lsr #3
 1729 0e72 8A44     		add	r10, r10, r1
 1730 0e74 069E     		ldr	r6, [sp, #24]
 1731 0e76 B646     		mov	lr, r6
 1732 0e78 D644     		add	lr, lr, r10
 1733 0e7a CDF818E0 		str	lr, [sp, #24]
 1734              	.LVL354:
 1735 0e7e 0599     		ldr	r1, [sp, #20]
 1736 0e80 4FEAF14A 		ror	r10, r1, #19
 1737 0e84 8AEA714A 		eor	r10, r10, r1, ror #17
ARM GAS  C:\Users\bogur\AppData\Local\Temp\cc4rWh5U.s 			page 34


 1738 0e88 8AEA912A 		eor	r10, r10, r1, lsr #10
 1739 0e8c 0F99     		ldr	r1, [sp, #60]
 1740 0e8e 8A44     		add	r10, r10, r1
 1741 0e90 089E     		ldr	r6, [sp, #32]
 1742 0e92 4FEAB641 		ror	r1, r6, #18
 1743 0e96 B646     		mov	lr, r6
 1744              	.LVL355:
 1745 0e98 81EAF611 		eor	r1, r1, r6, ror #7
 1746 0e9c 81EADE01 		eor	r1, r1, lr, lsr #3
 1747 0ea0 8A44     		add	r10, r10, r1
 1748 0ea2 079E     		ldr	r6, [sp, #28]
 1749 0ea4 B646     		mov	lr, r6
 1750 0ea6 D644     		add	lr, lr, r10
 1751 0ea8 CDF81CE0 		str	lr, [sp, #28]
 1752              	.LVL356:
 1753 0eac 0699     		ldr	r1, [sp, #24]
 1754 0eae 4FEAF14B 		ror	fp, r1, #19
 1755 0eb2 8BEA714B 		eor	fp, fp, r1, ror #17
 1756 0eb6 8BEA912B 		eor	fp, fp, r1, lsr #10
 1757 0eba 109E     		ldr	r6, [sp, #64]
 1758 0ebc B344     		add	fp, fp, r6
 1759 0ebe 099E     		ldr	r6, [sp, #36]
 1760 0ec0 4FEAB641 		ror	r1, r6, #18
 1761 0ec4 B646     		mov	lr, r6
 1762              	.LVL357:
 1763 0ec6 81EAF611 		eor	r1, r1, r6, ror #7
 1764 0eca 81EADE01 		eor	r1, r1, lr, lsr #3
 1765 0ece 5944     		add	r1, r1, fp
 1766 0ed0 089E     		ldr	r6, [sp, #32]
 1767 0ed2 7118     		adds	r1, r6, r1
 1768 0ed4 0891     		str	r1, [sp, #32]
 1769              	.LVL358:
 1770 0ed6 079E     		ldr	r6, [sp, #28]
 1771 0ed8 4FEAF64B 		ror	fp, r6, #19
 1772 0edc 8BEA764B 		eor	fp, fp, r6, ror #17
 1773 0ee0 8BEA962B 		eor	fp, fp, r6, lsr #10
 1774 0ee4 119E     		ldr	r6, [sp, #68]
 1775 0ee6 B344     		add	fp, fp, r6
 1776 0ee8 0A9E     		ldr	r6, [sp, #40]
 1777 0eea 4FEAB641 		ror	r1, r6, #18
 1778              	.LVL359:
 1779 0eee B646     		mov	lr, r6
 1780 0ef0 81EAF611 		eor	r1, r1, r6, ror #7
 1781 0ef4 81EADE01 		eor	r1, r1, lr, lsr #3
 1782 0ef8 5944     		add	r1, r1, fp
 1783 0efa 099E     		ldr	r6, [sp, #36]
 1784 0efc 7118     		adds	r1, r6, r1
 1785 0efe 0991     		str	r1, [sp, #36]
 1786              	.LVL360:
 1787 0f00 089E     		ldr	r6, [sp, #32]
 1788 0f02 4FEAF64B 		ror	fp, r6, #19
 1789 0f06 8BEA764B 		eor	fp, fp, r6, ror #17
 1790 0f0a 8BEA962B 		eor	fp, fp, r6, lsr #10
 1791 0f0e 1299     		ldr	r1, [sp, #72]
 1792              	.LVL361:
 1793 0f10 8B44     		add	fp, fp, r1
 1794 0f12 0B9E     		ldr	r6, [sp, #44]
ARM GAS  C:\Users\bogur\AppData\Local\Temp\cc4rWh5U.s 			page 35


 1795 0f14 4FEAB641 		ror	r1, r6, #18
 1796 0f18 B646     		mov	lr, r6
 1797 0f1a 81EAF611 		eor	r1, r1, r6, ror #7
 1798 0f1e 81EADE01 		eor	r1, r1, lr, lsr #3
 1799 0f22 5944     		add	r1, r1, fp
 1800 0f24 0A9E     		ldr	r6, [sp, #40]
 1801 0f26 0E44     		add	r6, r6, r1
 1802 0f28 0A96     		str	r6, [sp, #40]
 1803              	.LVL362:
 1804 0f2a 0999     		ldr	r1, [sp, #36]
 1805 0f2c 4FEAF14B 		ror	fp, r1, #19
 1806 0f30 8BEA714B 		eor	fp, fp, r1, ror #17
 1807 0f34 8BEA912B 		eor	fp, fp, r1, lsr #10
 1808 0f38 0499     		ldr	r1, [sp, #16]
 1809 0f3a 8B44     		add	fp, fp, r1
 1810 0f3c 0C9E     		ldr	r6, [sp, #48]
 1811              	.LVL363:
 1812 0f3e 4FEAB641 		ror	r1, r6, #18
 1813 0f42 B646     		mov	lr, r6
 1814 0f44 81EAF611 		eor	r1, r1, r6, ror #7
 1815 0f48 81EADE01 		eor	r1, r1, lr, lsr #3
 1816 0f4c 5944     		add	r1, r1, fp
 1817 0f4e 0B9E     		ldr	r6, [sp, #44]
 1818 0f50 7118     		adds	r1, r6, r1
 1819 0f52 0B91     		str	r1, [sp, #44]
 1820              	.LVL364:
 1821 0f54 0A9E     		ldr	r6, [sp, #40]
 1822 0f56 4FEAF64B 		ror	fp, r6, #19
 1823 0f5a 8BEA764B 		eor	fp, fp, r6, ror #17
 1824 0f5e 8BEA962B 		eor	fp, fp, r6, lsr #10
 1825 0f62 0599     		ldr	r1, [sp, #20]
 1826              	.LVL365:
 1827 0f64 8B44     		add	fp, fp, r1
 1828 0f66 139E     		ldr	r6, [sp, #76]
 1829 0f68 4FEAB641 		ror	r1, r6, #18
 1830 0f6c B646     		mov	lr, r6
 1831 0f6e 81EAF611 		eor	r1, r1, r6, ror #7
 1832 0f72 81EADE01 		eor	r1, r1, lr, lsr #3
 1833 0f76 5944     		add	r1, r1, fp
 1834 0f78 0C9E     		ldr	r6, [sp, #48]
 1835 0f7a 0E44     		add	r6, r6, r1
 1836 0f7c 0C96     		str	r6, [sp, #48]
 1837              	.LVL366:
 1838 0f7e 0B99     		ldr	r1, [sp, #44]
 1839 0f80 4FEAF14B 		ror	fp, r1, #19
 1840 0f84 8BEA714B 		eor	fp, fp, r1, ror #17
 1841 0f88 8BEA912B 		eor	fp, fp, r1, lsr #10
 1842 0f8c 0699     		ldr	r1, [sp, #24]
 1843 0f8e 8B44     		add	fp, fp, r1
 1844 0f90 0D9E     		ldr	r6, [sp, #52]
 1845              	.LVL367:
 1846 0f92 4FEAB641 		ror	r1, r6, #18
 1847 0f96 B646     		mov	lr, r6
 1848 0f98 81EAF611 		eor	r1, r1, r6, ror #7
 1849 0f9c 81EADE01 		eor	r1, r1, lr, lsr #3
 1850 0fa0 5944     		add	r1, r1, fp
 1851 0fa2 139E     		ldr	r6, [sp, #76]
ARM GAS  C:\Users\bogur\AppData\Local\Temp\cc4rWh5U.s 			page 36


 1852 0fa4 0E44     		add	r6, r6, r1
 1853 0fa6 0296     		str	r6, [sp, #8]
 1854              	.LVL368:
 1855 0fa8 0C99     		ldr	r1, [sp, #48]
 1856 0faa 4FEAF14B 		ror	fp, r1, #19
 1857 0fae 8BEA714B 		eor	fp, fp, r1, ror #17
 1858 0fb2 8BEA912B 		eor	fp, fp, r1, lsr #10
 1859 0fb6 079E     		ldr	r6, [sp, #28]
 1860              	.LVL369:
 1861 0fb8 B344     		add	fp, fp, r6
 1862 0fba 0E9E     		ldr	r6, [sp, #56]
 1863 0fbc 4FEAB641 		ror	r1, r6, #18
 1864 0fc0 B646     		mov	lr, r6
 1865 0fc2 81EAF611 		eor	r1, r1, r6, ror #7
 1866 0fc6 81EADE01 		eor	r1, r1, lr, lsr #3
 1867 0fca 5944     		add	r1, r1, fp
 1868 0fcc 0D9E     		ldr	r6, [sp, #52]
 1869 0fce 0E44     		add	r6, r6, r1
 1870 0fd0 0396     		str	r6, [sp, #12]
 1871              	.LVL370:
 145:..\sha256.c   **** 
 146:..\sha256.c   ****     F(w0 ,0x27b70a85)
 1872              		.loc 1 146 0
 1873 0fd2 4FEAF021 		ror	r1, r0, #11
 1874 0fd6 81EAB011 		eor	r1, r1, r0, ror #6
 1875 0fda 81EA7061 		eor	r1, r1, r0, ror #25
 1876 0fde 0F44     		add	r7, r7, r1
 1877              	.LVL371:
 1878 0fe0 09EA000E 		and	lr, r9, r0
 1879 0fe4 1499     		ldr	r1, [sp, #80]
 1880 0fe6 21EA0001 		bic	r1, r1, r0
 1881 0fea 8EEA0101 		eor	r1, lr, r1
 1882 0fee 0F44     		add	r7, r7, r1
 1883 0ff0 0E9E     		ldr	r6, [sp, #56]
 1884              	.LVL372:
 1885 0ff2 3744     		add	r7, r7, r6
 1886 0ff4 DFF83CE4 		ldr	lr, .L16+60
 1887 0ff8 BE44     		add	lr, lr, r7
 1888              	.LVL373:
 1889 0ffa 4FEA7337 		ror	r7, r3, #13
 1890 0ffe 87EAB307 		eor	r7, r7, r3, ror #2
 1891 1002 87EAB357 		eor	r7, r7, r3, ror #22
 1892 1006 84EA020C 		eor	ip, r4, r2
 1893 100a 0CEA030C 		and	ip, ip, r3
 1894 100e 04EA0201 		and	r1, r4, r2
 1895 1012 8CEA010C 		eor	ip, ip, r1
 1896 1016 BC44     		add	ip, ip, r7
 1897              	.LVL374:
 1898 1018 7544     		add	r5, r5, lr
 1899              	.LVL375:
 1900 101a F444     		add	ip, ip, lr
 1901              	.LVL376:
 147:..\sha256.c   ****     F(w1 ,0x2e1b2138)
 1902              		.loc 1 147 0
 1903 101c 4FEAF521 		ror	r1, r5, #11
 1904              	.LVL377:
 1905 1020 81EAB511 		eor	r1, r1, r5, ror #6
ARM GAS  C:\Users\bogur\AppData\Local\Temp\cc4rWh5U.s 			page 37


 1906 1024 81EA7561 		eor	r1, r1, r5, ror #25
 1907 1028 149E     		ldr	r6, [sp, #80]
 1908 102a 0E44     		add	r6, r6, r1
 1909 102c 00EA0507 		and	r7, r0, r5
 1910              	.LVL378:
 1911 1030 29EA0501 		bic	r1, r9, r5
 1912 1034 7940     		eors	r1, r1, r7
 1913 1036 0E44     		add	r6, r6, r1
 1914 1038 0F9F     		ldr	r7, [sp, #60]
 1915 103a 3E44     		add	r6, r6, r7
 1916 103c EE4F     		ldr	r7, .L16
 1917 103e 3744     		add	r7, r7, r6
 1918              	.LVL379:
 1919 1040 4FEA7C36 		ror	r6, ip, #13
 1920 1044 86EABC06 		eor	r6, r6, ip, ror #2
 1921 1048 86EABC56 		eor	r6, r6, ip, ror #22
 1922 104c 82EA030E 		eor	lr, r2, r3
 1923 1050 0EEA0C0E 		and	lr, lr, ip
 1924 1054 02EA0301 		and	r1, r2, r3
 1925 1058 8EEA010E 		eor	lr, lr, r1
 1926 105c B644     		add	lr, lr, r6
 1927              	.LVL380:
 1928 105e 3C44     		add	r4, r4, r7
 1929              	.LVL381:
 1930 1060 BE44     		add	lr, lr, r7
 1931              	.LVL382:
 148:..\sha256.c   ****     F(w2 ,0x4d2c6dfc)
 1932              		.loc 1 148 0
 1933 1062 4FEAF421 		ror	r1, r4, #11
 1934              	.LVL383:
 1935 1066 81EAB411 		eor	r1, r1, r4, ror #6
 1936 106a 81EA7461 		eor	r1, r1, r4, ror #25
 1937 106e 4944     		add	r1, r1, r9
 1938 1070 05EA0409 		and	r9, r5, r4
 1939              	.LVL384:
 1940 1074 20EA0406 		bic	r6, r0, r4
 1941              	.LVL385:
 1942 1078 89EA0606 		eor	r6, r9, r6
 1943 107c 3144     		add	r1, r1, r6
 1944 107e 109F     		ldr	r7, [sp, #64]
 1945              	.LVL386:
 1946 1080 3944     		add	r1, r1, r7
 1947 1082 DE4F     		ldr	r7, .L16+4
 1948 1084 0F44     		add	r7, r7, r1
 1949              	.LVL387:
 1950 1086 4FEA7E36 		ror	r6, lr, #13
 1951 108a 86EABE06 		eor	r6, r6, lr, ror #2
 1952 108e 86EABE56 		eor	r6, r6, lr, ror #22
 1953 1092 83EA0C08 		eor	r8, r3, ip
 1954 1096 08EA0E08 		and	r8, r8, lr
 1955 109a 03EA0C01 		and	r1, r3, ip
 1956 109e 88EA0101 		eor	r1, r8, r1
 1957 10a2 0E44     		add	r6, r6, r1
 1958              	.LVL388:
 1959 10a4 3A44     		add	r2, r2, r7
 1960              	.LVL389:
 1961 10a6 3744     		add	r7, r7, r6
ARM GAS  C:\Users\bogur\AppData\Local\Temp\cc4rWh5U.s 			page 38


 1962              	.LVL390:
 149:..\sha256.c   ****     F(w3 ,0x53380d13)
 1963              		.loc 1 149 0
 1964 10a8 4FEAF221 		ror	r1, r2, #11
 1965 10ac 81EAB211 		eor	r1, r1, r2, ror #6
 1966 10b0 81EA7261 		eor	r1, r1, r2, ror #25
 1967 10b4 0844     		add	r0, r0, r1
 1968              	.LVL391:
 1969 10b6 04EA0206 		and	r6, r4, r2
 1970              	.LVL392:
 1971 10ba 25EA0201 		bic	r1, r5, r2
 1972 10be 7140     		eors	r1, r1, r6
 1973 10c0 0844     		add	r0, r0, r1
 1974 10c2 119E     		ldr	r6, [sp, #68]
 1975 10c4 3044     		add	r0, r0, r6
 1976 10c6 CE4E     		ldr	r6, .L16+8
 1977 10c8 0644     		add	r6, r6, r0
 1978              	.LVL393:
 1979 10ca 4FEA7730 		ror	r0, r7, #13
 1980 10ce 80EAB700 		eor	r0, r0, r7, ror #2
 1981 10d2 80EAB750 		eor	r0, r0, r7, ror #22
 1982 10d6 8CEA0E08 		eor	r8, ip, lr
 1983              	.LVL394:
 1984 10da 08EA0708 		and	r8, r8, r7
 1985 10de 0CEA0E01 		and	r1, ip, lr
 1986 10e2 88EA0101 		eor	r1, r8, r1
 1987 10e6 0844     		add	r0, r0, r1
 1988              	.LVL395:
 1989 10e8 03EB060A 		add	r10, r3, r6
 1990              	.LVL396:
 1991 10ec 0644     		add	r6, r6, r0
 1992              	.LVL397:
 150:..\sha256.c   ****     F(w4 ,0x650a7354)
 1993              		.loc 1 150 0
 1994 10ee 4FEAFA23 		ror	r3, r10, #11
 1995 10f2 83EABA13 		eor	r3, r3, r10, ror #6
 1996 10f6 83EA7A63 		eor	r3, r3, r10, ror #25
 1997 10fa 1D44     		add	r5, r5, r3
 1998              	.LVL398:
 1999 10fc 02EA0A01 		and	r1, r2, r10
 2000 1100 24EA0A03 		bic	r3, r4, r10
 2001 1104 4B40     		eors	r3, r3, r1
 2002 1106 1D44     		add	r5, r5, r3
 2003 1108 1298     		ldr	r0, [sp, #72]
 2004              	.LVL399:
 2005 110a 0544     		add	r5, r5, r0
 2006 110c BD48     		ldr	r0, .L16+12
 2007 110e 2844     		add	r0, r0, r5
 2008              	.LVL400:
 2009 1110 4FEA7631 		ror	r1, r6, #13
 2010 1114 81EAB601 		eor	r1, r1, r6, ror #2
 2011 1118 81EAB651 		eor	r1, r1, r6, ror #22
 2012 111c 8EEA0705 		eor	r5, lr, r7
 2013 1120 3540     		ands	r5, r5, r6
 2014 1122 0EEA0703 		and	r3, lr, r7
 2015 1126 5D40     		eors	r5, r5, r3
 2016 1128 0D44     		add	r5, r5, r1
ARM GAS  C:\Users\bogur\AppData\Local\Temp\cc4rWh5U.s 			page 39


 2017              	.LVL401:
 2018 112a 8444     		add	ip, ip, r0
 2019              	.LVL402:
 2020 112c 0544     		add	r5, r5, r0
 2021              	.LVL403:
 151:..\sha256.c   ****     F(w5 ,0x766a0abb)
 2022              		.loc 1 151 0
 2023 112e 4FEAFC23 		ror	r3, ip, #11
 2024              	.LVL404:
 2025 1132 83EABC13 		eor	r3, r3, ip, ror #6
 2026 1136 83EA7C63 		eor	r3, r3, ip, ror #25
 2027 113a 1C44     		add	r4, r4, r3
 2028              	.LVL405:
 2029 113c 0AEA0C01 		and	r1, r10, ip
 2030              	.LVL406:
 2031 1140 22EA0C03 		bic	r3, r2, ip
 2032 1144 4B40     		eors	r3, r3, r1
 2033 1146 1C44     		add	r4, r4, r3
 2034 1148 0498     		ldr	r0, [sp, #16]
 2035              	.LVL407:
 2036 114a 0444     		add	r4, r4, r0
 2037 114c AE48     		ldr	r0, .L16+16
 2038 114e 2044     		add	r0, r0, r4
 2039              	.LVL408:
 2040 1150 4FEA7531 		ror	r1, r5, #13
 2041 1154 81EAB501 		eor	r1, r1, r5, ror #2
 2042 1158 81EAB551 		eor	r1, r1, r5, ror #22
 2043 115c 87EA0604 		eor	r4, r7, r6
 2044 1160 2C40     		ands	r4, r4, r5
 2045 1162 07EA0603 		and	r3, r7, r6
 2046 1166 5C40     		eors	r4, r4, r3
 2047 1168 0C44     		add	r4, r4, r1
 2048              	.LVL409:
 2049 116a 8644     		add	lr, lr, r0
 2050              	.LVL410:
 2051 116c 0444     		add	r4, r4, r0
 2052              	.LVL411:
 152:..\sha256.c   ****     F(w6 ,0x81c2c92e)
 2053              		.loc 1 152 0
 2054 116e 4FEAFE23 		ror	r3, lr, #11
 2055              	.LVL412:
 2056 1172 83EABE13 		eor	r3, r3, lr, ror #6
 2057 1176 83EA7E63 		eor	r3, r3, lr, ror #25
 2058 117a 1A44     		add	r2, r2, r3
 2059              	.LVL413:
 2060 117c 0CEA0E01 		and	r1, ip, lr
 2061              	.LVL414:
 2062 1180 2AEA0E03 		bic	r3, r10, lr
 2063 1184 4B40     		eors	r3, r3, r1
 2064 1186 1A44     		add	r2, r2, r3
 2065 1188 059B     		ldr	r3, [sp, #20]
 2066 118a 1A44     		add	r2, r2, r3
 2067 118c 9F49     		ldr	r1, .L16+20
 2068 118e 1144     		add	r1, r1, r2
 2069              	.LVL415:
 2070 1190 4FEA7432 		ror	r2, r4, #13
 2071 1194 82EAB402 		eor	r2, r2, r4, ror #2
ARM GAS  C:\Users\bogur\AppData\Local\Temp\cc4rWh5U.s 			page 40


 2072 1198 82EAB452 		eor	r2, r2, r4, ror #22
 2073 119c 86EA0500 		eor	r0, r6, r5
 2074 11a0 2040     		ands	r0, r0, r4
 2075 11a2 06EA0503 		and	r3, r6, r5
 2076 11a6 5840     		eors	r0, r0, r3
 2077 11a8 1044     		add	r0, r0, r2
 2078              	.LVL416:
 2079 11aa 07EB0109 		add	r9, r7, r1
 2080              	.LVL417:
 2081 11ae 0844     		add	r0, r0, r1
 2082              	.LVL418:
 153:..\sha256.c   ****     F(w7 ,0x92722c85)
 2083              		.loc 1 153 0
 2084 11b0 4FEAF923 		ror	r3, r9, #11
 2085              	.LVL419:
 2086 11b4 83EAB913 		eor	r3, r3, r9, ror #6
 2087 11b8 83EA7963 		eor	r3, r3, r9, ror #25
 2088 11bc 9A44     		add	r10, r10, r3
 2089              	.LVL420:
 2090 11be 0EEA0903 		and	r3, lr, r9
 2091 11c2 2CEA0902 		bic	r2, ip, r9
 2092              	.LVL421:
 2093 11c6 5A40     		eors	r2, r2, r3
 2094 11c8 9244     		add	r10, r10, r2
 2095 11ca 069A     		ldr	r2, [sp, #24]
 2096 11cc 9244     		add	r10, r10, r2
 2097 11ce 904F     		ldr	r7, .L16+24
 2098 11d0 5744     		add	r7, r7, r10
 2099              	.LVL422:
 2100 11d2 4FEA7031 		ror	r1, r0, #13
 2101 11d6 81EAB001 		eor	r1, r1, r0, ror #2
 2102 11da 81EAB051 		eor	r1, r1, r0, ror #22
 2103 11de 85EA0402 		eor	r2, r5, r4
 2104 11e2 0240     		ands	r2, r2, r0
 2105 11e4 05EA0403 		and	r3, r5, r4
 2106 11e8 5A40     		eors	r2, r2, r3
 2107 11ea 0A44     		add	r2, r2, r1
 2108              	.LVL423:
 2109 11ec 06EB0708 		add	r8, r6, r7
 2110              	.LVL424:
 2111 11f0 3A44     		add	r2, r2, r7
 2112              	.LVL425:
 154:..\sha256.c   ****     F(w8 ,0xa2bfe8a1)
 2113              		.loc 1 154 0
 2114 11f2 4FEAF823 		ror	r3, r8, #11
 2115              	.LVL426:
 2116 11f6 83EAB813 		eor	r3, r3, r8, ror #6
 2117 11fa 83EA7863 		eor	r3, r3, r8, ror #25
 2118 11fe 9C44     		add	ip, ip, r3
 2119              	.LVL427:
 2120 1200 09EA0801 		and	r1, r9, r8
 2121              	.LVL428:
 2122 1204 2EEA0803 		bic	r3, lr, r8
 2123 1208 4B40     		eors	r3, r3, r1
 2124 120a 9C44     		add	ip, ip, r3
 2125 120c 079F     		ldr	r7, [sp, #28]
 2126              	.LVL429:
ARM GAS  C:\Users\bogur\AppData\Local\Temp\cc4rWh5U.s 			page 41


 2127 120e BC44     		add	ip, ip, r7
 2128 1210 804F     		ldr	r7, .L16+28
 2129 1212 6744     		add	r7, r7, ip
 2130              	.LVL430:
 2131 1214 4FEA7236 		ror	r6, r2, #13
 2132 1218 86EAB206 		eor	r6, r6, r2, ror #2
 2133 121c 86EAB256 		eor	r6, r6, r2, ror #22
 2134 1220 84EA0003 		eor	r3, r4, r0
 2135 1224 1340     		ands	r3, r3, r2
 2136 1226 04EA0001 		and	r1, r4, r0
 2137 122a 4B40     		eors	r3, r3, r1
 2138 122c 3344     		add	r3, r3, r6
 2139              	.LVL431:
 2140 122e 05EB070C 		add	ip, r5, r7
 2141              	.LVL432:
 2142 1232 3B44     		add	r3, r3, r7
 2143              	.LVL433:
 155:..\sha256.c   ****     F(w9 ,0xa81a664b)
 2144              		.loc 1 155 0
 2145 1234 4FEAFC21 		ror	r1, ip, #11
 2146              	.LVL434:
 2147 1238 81EABC11 		eor	r1, r1, ip, ror #6
 2148 123c 81EA7C61 		eor	r1, r1, ip, ror #25
 2149 1240 8E44     		add	lr, lr, r1
 2150              	.LVL435:
 2151 1242 08EA0C05 		and	r5, r8, ip
 2152 1246 29EA0C01 		bic	r1, r9, ip
 2153 124a 6940     		eors	r1, r1, r5
 2154 124c 8E44     		add	lr, lr, r1
 2155 124e 089D     		ldr	r5, [sp, #32]
 2156 1250 AE44     		add	lr, lr, r5
 2157 1252 714E     		ldr	r6, .L16+32
 2158              	.LVL436:
 2159 1254 7644     		add	r6, r6, lr
 2160              	.LVL437:
 2161 1256 4FEA7335 		ror	r5, r3, #13
 2162 125a 85EAB305 		eor	r5, r5, r3, ror #2
 2163 125e 85EAB355 		eor	r5, r5, r3, ror #22
 2164 1262 80EA0207 		eor	r7, r0, r2
 2165 1266 1F40     		ands	r7, r7, r3
 2166 1268 00EA0201 		and	r1, r0, r2
 2167 126c 4F40     		eors	r7, r7, r1
 2168 126e 2F44     		add	r7, r7, r5
 2169              	.LVL438:
 2170 1270 04EB060E 		add	lr, r4, r6
 2171              	.LVL439:
 2172 1274 06EB070A 		add	r10, r6, r7
 2173              	.LVL440:
 156:..\sha256.c   ****     F(w10,0xc24b8b70)
 2174              		.loc 1 156 0
 2175 1278 4FEAFE27 		ror	r7, lr, #11
 2176              	.LVL441:
 2177 127c 87EABE17 		eor	r7, r7, lr, ror #6
 2178 1280 87EA7E67 		eor	r7, r7, lr, ror #25
 2179 1284 4F44     		add	r7, r7, r9
 2180 1286 0CEA0E09 		and	r9, ip, lr
 2181              	.LVL442:
ARM GAS  C:\Users\bogur\AppData\Local\Temp\cc4rWh5U.s 			page 42


 2182 128a 28EA0E01 		bic	r1, r8, lr
 2183              	.LVL443:
 2184 128e 89EA0101 		eor	r1, r9, r1
 2185 1292 0F44     		add	r7, r7, r1
 2186 1294 099C     		ldr	r4, [sp, #36]
 2187 1296 2744     		add	r7, r7, r4
 2188 1298 604D     		ldr	r5, .L16+36
 2189              	.LVL444:
 2190 129a 3D44     		add	r5, r5, r7
 2191              	.LVL445:
 2192 129c 4FEA7A34 		ror	r4, r10, #13
 2193 12a0 84EABA04 		eor	r4, r4, r10, ror #2
 2194 12a4 84EABA54 		eor	r4, r4, r10, ror #22
 2195 12a8 82EA0306 		eor	r6, r2, r3
 2196 12ac 06EA0A06 		and	r6, r6, r10
 2197 12b0 02EA0301 		and	r1, r2, r3
 2198 12b4 4E40     		eors	r6, r6, r1
 2199 12b6 2644     		add	r6, r6, r4
 2200              	.LVL446:
 2201 12b8 4119     		adds	r1, r0, r5
 2202              	.LVL447:
 2203 12ba 05EB0609 		add	r9, r5, r6
 2204              	.LVL448:
 157:..\sha256.c   ****     F(w11,0xc76c51a3)
 2205              		.loc 1 157 0
 2206 12be 4FEAF126 		ror	r6, r1, #11
 2207              	.LVL449:
 2208 12c2 86EAB116 		eor	r6, r6, r1, ror #6
 2209 12c6 86EA7166 		eor	r6, r6, r1, ror #25
 2210 12ca 4644     		add	r6, r6, r8
 2211 12cc 0EEA0108 		and	r8, lr, r1
 2212              	.LVL450:
 2213 12d0 2CEA0100 		bic	r0, ip, r1
 2214 12d4 88EA0000 		eor	r0, r8, r0
 2215 12d8 0644     		add	r6, r6, r0
 2216 12da 0A9C     		ldr	r4, [sp, #40]
 2217              	.LVL451:
 2218 12dc 2644     		add	r6, r6, r4
 2219 12de 504F     		ldr	r7, .L16+40
 2220 12e0 3744     		add	r7, r7, r6
 2221              	.LVL452:
 2222 12e2 4FEA7934 		ror	r4, r9, #13
 2223 12e6 84EAB904 		eor	r4, r4, r9, ror #2
 2224 12ea 84EAB954 		eor	r4, r4, r9, ror #22
 2225 12ee 83EA0A05 		eor	r5, r3, r10
 2226 12f2 05EA0905 		and	r5, r5, r9
 2227 12f6 03EA0A00 		and	r0, r3, r10
 2228 12fa 4540     		eors	r5, r5, r0
 2229 12fc 2544     		add	r5, r5, r4
 2230              	.LVL453:
 2231 12fe 3A44     		add	r2, r2, r7
 2232              	.LVL454:
 2233 1300 07EB0508 		add	r8, r7, r5
 2234              	.LVL455:
 158:..\sha256.c   ****     F(w12,0xd192e819)
 2235              		.loc 1 158 0
 2236 1304 4FEAF225 		ror	r5, r2, #11
ARM GAS  C:\Users\bogur\AppData\Local\Temp\cc4rWh5U.s 			page 43


 2237              	.LVL456:
 2238 1308 85EAB215 		eor	r5, r5, r2, ror #6
 2239 130c 85EA7265 		eor	r5, r5, r2, ror #25
 2240 1310 6544     		add	r5, r5, ip
 2241 1312 01EA020C 		and	ip, r1, r2
 2242              	.LVL457:
 2243 1316 2EEA0200 		bic	r0, lr, r2
 2244              	.LVL458:
 2245 131a 8CEA0000 		eor	r0, ip, r0
 2246 131e 0544     		add	r5, r5, r0
 2247 1320 0B98     		ldr	r0, [sp, #44]
 2248 1322 0544     		add	r5, r5, r0
 2249 1324 3F4E     		ldr	r6, .L16+44
 2250 1326 2E44     		add	r6, r6, r5
 2251              	.LVL459:
 2252 1328 4FEA7835 		ror	r5, r8, #13
 2253 132c 85EAB805 		eor	r5, r5, r8, ror #2
 2254 1330 85EAB855 		eor	r5, r5, r8, ror #22
 2255 1334 8AEA0904 		eor	r4, r10, r9
 2256              	.LVL460:
 2257 1338 04EA0804 		and	r4, r4, r8
 2258 133c 0AEA0900 		and	r0, r10, r9
 2259 1340 4440     		eors	r4, r4, r0
 2260 1342 2C44     		add	r4, r4, r5
 2261              	.LVL461:
 2262 1344 9D19     		adds	r5, r3, r6
 2263 1346 2B46     		mov	r3, r5
 2264              	.LVL462:
 2265 1348 3444     		add	r4, r4, r6
 2266              	.LVL463:
 159:..\sha256.c   ****     F(w13,0xd6990624)
 2267              		.loc 1 159 0
 2268 134a 4FEAF520 		ror	r0, r5, #11
 2269              	.LVL464:
 2270 134e 80EAB510 		eor	r0, r0, r5, ror #6
 2271 1352 80EA7560 		eor	r0, r0, r5, ror #25
 2272 1356 8644     		add	lr, lr, r0
 2273              	.LVL465:
 2274 1358 1540     		ands	r5, r5, r2
 2275 135a 21EA0300 		bic	r0, r1, r3
 2276 135e 6840     		eors	r0, r0, r5
 2277 1360 8644     		add	lr, lr, r0
 2278 1362 0C9D     		ldr	r5, [sp, #48]
 2279 1364 AE44     		add	lr, lr, r5
 2280 1366 3048     		ldr	r0, .L16+48
 2281 1368 7044     		add	r0, r0, lr
 2282              	.LVL466:
 2283 136a 4FEA7436 		ror	r6, r4, #13
 2284 136e 86EAB406 		eor	r6, r6, r4, ror #2
 2285 1372 86EAB456 		eor	r6, r6, r4, ror #22
 2286 1376 89EA0807 		eor	r7, r9, r8
 2287 137a 2740     		ands	r7, r7, r4
 2288 137c 09EA0805 		and	r5, r9, r8
 2289 1380 7D40     		eors	r5, r5, r7
 2290 1382 2E44     		add	r6, r6, r5
 2291              	.LVL467:
 2292 1384 0AEB0007 		add	r7, r10, r0
ARM GAS  C:\Users\bogur\AppData\Local\Temp\cc4rWh5U.s 			page 44


 2293              	.LVL468:
 2294 1388 3044     		add	r0, r0, r6
 2295              	.LVL469:
 160:..\sha256.c   ****     F(w14,0xf40e3585)
 2296              		.loc 1 160 0
 2297 138a 4FEAF725 		ror	r5, r7, #11
 2298 138e 85EAB715 		eor	r5, r5, r7, ror #6
 2299 1392 85EA7765 		eor	r5, r5, r7, ror #25
 2300 1396 2944     		add	r1, r1, r5
 2301              	.LVL470:
 2302 1398 1393     		str	r3, [sp, #76]
 2303 139a 1E46     		mov	r6, r3
 2304              	.LVL471:
 2305 139c 3E40     		ands	r6, r6, r7
 2306 139e 22EA0705 		bic	r5, r2, r7
 2307 13a2 7540     		eors	r5, r5, r6
 2308 13a4 0D44     		add	r5, r5, r1
 2309 13a6 029B     		ldr	r3, [sp, #8]
 2310              	.LVL472:
 2311 13a8 1D44     		add	r5, r5, r3
 2312 13aa 2049     		ldr	r1, .L16+52
 2313 13ac 2944     		add	r1, r1, r5
 2314              	.LVL473:
 2315 13ae 4FEA7036 		ror	r6, r0, #13
 2316 13b2 86EAB006 		eor	r6, r6, r0, ror #2
 2317 13b6 86EAB056 		eor	r6, r6, r0, ror #22
 2318 13ba 88EA040E 		eor	lr, r8, r4
 2319 13be 0EEA000E 		and	lr, lr, r0
 2320 13c2 08EA0405 		and	r5, r8, r4
 2321 13c6 8EEA0505 		eor	r5, lr, r5
 2322 13ca 3544     		add	r5, r5, r6
 2323              	.LVL474:
 2324 13cc 09EB0106 		add	r6, r9, r1
 2325              	.LVL475:
 2326 13d0 2944     		add	r1, r1, r5
 2327              	.LVL476:
 161:..\sha256.c   ****     F(w15,0x106aa070)
 2328              		.loc 1 161 0
 2329 13d2 4FEAF625 		ror	r5, r6, #11
 2330              	.LVL477:
 2331 13d6 85EAB615 		eor	r5, r5, r6, ror #6
 2332 13da 85EA7665 		eor	r5, r5, r6, ror #25
 2333 13de 2A44     		add	r2, r2, r5
 2334              	.LVL478:
 2335 13e0 07EA060E 		and	lr, r7, r6
 2336              	.LVL479:
 2337 13e4 139D     		ldr	r5, [sp, #76]
 2338 13e6 25EA0605 		bic	r5, r5, r6
 2339 13ea 8EEA0505 		eor	r5, lr, r5
 2340 13ee 1544     		add	r5, r5, r2
 2341 13f0 039A     		ldr	r2, [sp, #12]
 2342 13f2 1544     		add	r5, r5, r2
 2343 13f4 20E0     		b	.L17
 2344              	.L18:
 2345 13f6 00BF     		.align	2
 2346              	.L16:
 2347 13f8 38211B2E 		.word	773529912
ARM GAS  C:\Users\bogur\AppData\Local\Temp\cc4rWh5U.s 			page 45


 2348 13fc FC6D2C4D 		.word	1294757372
 2349 1400 130D3853 		.word	1396182291
 2350 1404 54730A65 		.word	1695183700
 2351 1408 BB0A6A76 		.word	1986661051
 2352 140c 2EC9C281 		.word	-2117940946
 2353 1410 852C7292 		.word	-1838011259
 2354 1414 A1E8BFA2 		.word	-1564481375
 2355 1418 4B661AA8 		.word	-1474664885
 2356 141c 708B4BC2 		.word	-1035236496
 2357 1420 A3516CC7 		.word	-949202525
 2358 1424 19E892D1 		.word	-778901479
 2359 1428 240699D6 		.word	-694614492
 2360 142c 85350EF4 		.word	-200395387
 2361 1430 67292914 		.word	338241895
 2362 1434 850AB727 		.word	666307205
 2363              	.L17:
 2364 1438 DC4A     		ldr	r2, .L19
 2365 143a 2A44     		add	r2, r2, r5
 2366              	.LVL480:
 2367 143c 4FEA713E 		ror	lr, r1, #13
 2368 1440 8EEAB10E 		eor	lr, lr, r1, ror #2
 2369 1444 8EEAB15E 		eor	lr, lr, r1, ror #22
 2370 1448 84EA000C 		eor	ip, r4, r0
 2371 144c 0CEA010C 		and	ip, ip, r1
 2372 1450 04EA0005 		and	r5, r4, r0
 2373 1454 8CEA0505 		eor	r5, ip, r5
 2374 1458 AE44     		add	lr, lr, r5
 2375              	.LVL481:
 2376 145a 08EB0205 		add	r5, r8, r2
 2377              	.LVL482:
 2378 145e 7244     		add	r2, r2, lr
 2379              	.LVL483:
 162:..\sha256.c   **** 
 163:..\sha256.c   ****     EXPAND
 2380              		.loc 1 163 0
 2381 1460 9E46     		mov	lr, r3
 2382              	.LVL484:
 2383 1462 4FEAF34C 		ror	ip, r3, #19
 2384              	.LVL485:
 2385 1466 8CEA7E4C 		eor	ip, ip, lr, ror #17
 2386 146a 8CEA9E2C 		eor	ip, ip, lr, lsr #10
 2387 146e 089B     		ldr	r3, [sp, #32]
 2388 1470 9C44     		add	ip, ip, r3
 2389 1472 0F9B     		ldr	r3, [sp, #60]
 2390 1474 4FEAB34E 		ror	lr, r3, #18
 2391 1478 9846     		mov	r8, r3
 2392 147a 8EEAF31E 		eor	lr, lr, r3, ror #7
 2393 147e 8EEAD80E 		eor	lr, lr, r8, lsr #3
 2394 1482 E644     		add	lr, lr, ip
 2395 1484 0E9B     		ldr	r3, [sp, #56]
 2396 1486 9E44     		add	lr, lr, r3
 2397              	.LVL486:
 2398 1488 039B     		ldr	r3, [sp, #12]
 2399 148a 9C46     		mov	ip, r3
 2400 148c 4FEAF348 		ror	r8, r3, #19
 2401 1490 88EA7C48 		eor	r8, r8, ip, ror #17
 2402 1494 88EA9C28 		eor	r8, r8, ip, lsr #10
ARM GAS  C:\Users\bogur\AppData\Local\Temp\cc4rWh5U.s 			page 46


 2403 1498 099B     		ldr	r3, [sp, #36]
 2404 149a 9844     		add	r8, r8, r3
 2405 149c 109B     		ldr	r3, [sp, #64]
 2406 149e 4FEAB34C 		ror	ip, r3, #18
 2407 14a2 9946     		mov	r9, r3
 2408 14a4 8CEAF31C 		eor	ip, ip, r3, ror #7
 2409 14a8 8CEAD90C 		eor	ip, ip, r9, lsr #3
 2410 14ac 08EB0C09 		add	r9, r8, ip
 2411 14b0 0F9B     		ldr	r3, [sp, #60]
 2412 14b2 9944     		add	r9, r9, r3
 2413              	.LVL487:
 2414 14b4 4FEAFE4A 		ror	r10, lr, #19
 2415 14b8 8AEA7E4A 		eor	r10, r10, lr, ror #17
 2416 14bc 8AEA9E2A 		eor	r10, r10, lr, lsr #10
 2417 14c0 0A9B     		ldr	r3, [sp, #40]
 2418 14c2 9A44     		add	r10, r10, r3
 2419 14c4 119B     		ldr	r3, [sp, #68]
 2420 14c6 4FEAB34C 		ror	ip, r3, #18
 2421 14ca 9846     		mov	r8, r3
 2422 14cc 8CEAF31C 		eor	ip, ip, r3, ror #7
 2423 14d0 8CEAD80C 		eor	ip, ip, r8, lsr #3
 2424 14d4 0AEB0C08 		add	r8, r10, ip
 2425 14d8 109B     		ldr	r3, [sp, #64]
 2426 14da 9844     		add	r8, r8, r3
 2427              	.LVL488:
 2428 14dc 4FEAF94A 		ror	r10, r9, #19
 2429 14e0 8AEA794A 		eor	r10, r10, r9, ror #17
 2430 14e4 8AEA992A 		eor	r10, r10, r9, lsr #10
 2431 14e8 0B9B     		ldr	r3, [sp, #44]
 2432 14ea 9A44     		add	r10, r10, r3
 2433 14ec 129B     		ldr	r3, [sp, #72]
 2434 14ee 4FEAB34C 		ror	ip, r3, #18
 2435 14f2 9B46     		mov	fp, r3
 2436 14f4 8CEAF31C 		eor	ip, ip, r3, ror #7
 2437 14f8 8CEADB0C 		eor	ip, ip, fp, lsr #3
 2438 14fc D444     		add	ip, ip, r10
 2439 14fe 119B     		ldr	r3, [sp, #68]
 2440 1500 9C44     		add	ip, ip, r3
 2441              	.LVL489:
 2442 1502 4FEAF84B 		ror	fp, r8, #19
 2443 1506 8BEA784B 		eor	fp, fp, r8, ror #17
 2444 150a 8BEA982B 		eor	fp, fp, r8, lsr #10
 2445 150e 0C9B     		ldr	r3, [sp, #48]
 2446 1510 9B44     		add	fp, fp, r3
 2447 1512 049B     		ldr	r3, [sp, #16]
 2448 1514 4FEAB34A 		ror	r10, r3, #18
 2449 1518 8AEAF31A 		eor	r10, r10, r3, ror #7
 2450 151c 8AEAD30A 		eor	r10, r10, r3, lsr #3
 2451 1520 DA44     		add	r10, r10, fp
 2452 1522 129B     		ldr	r3, [sp, #72]
 2453 1524 9A44     		add	r10, r3, r10
 2454 1526 CDF834A0 		str	r10, [sp, #52]
 2455              	.LVL490:
 2456 152a 4FEAFC4B 		ror	fp, ip, #19
 2457 152e 8BEA7C4B 		eor	fp, fp, ip, ror #17
 2458 1532 8BEA9C2B 		eor	fp, fp, ip, lsr #10
 2459 1536 029B     		ldr	r3, [sp, #8]
ARM GAS  C:\Users\bogur\AppData\Local\Temp\cc4rWh5U.s 			page 47


 2460 1538 9B44     		add	fp, fp, r3
 2461 153a 059B     		ldr	r3, [sp, #20]
 2462 153c 4FEAB34A 		ror	r10, r3, #18
 2463              	.LVL491:
 2464 1540 8AEAF31A 		eor	r10, r10, r3, ror #7
 2465 1544 8AEAD30A 		eor	r10, r10, r3, lsr #3
 2466 1548 DA44     		add	r10, r10, fp
 2467 154a 049B     		ldr	r3, [sp, #16]
 2468 154c 9A44     		add	r10, r3, r10
 2469 154e CDF810A0 		str	r10, [sp, #16]
 2470              	.LVL492:
 2471 1552 0D9B     		ldr	r3, [sp, #52]
 2472 1554 9A46     		mov	r10, r3
 2473              	.LVL493:
 2474 1556 4FEAF34B 		ror	fp, r3, #19
 2475 155a 8BEA7A4B 		eor	fp, fp, r10, ror #17
 2476 155e 8BEA9A2B 		eor	fp, fp, r10, lsr #10
 2477 1562 039B     		ldr	r3, [sp, #12]
 2478 1564 9B44     		add	fp, fp, r3
 2479 1566 069B     		ldr	r3, [sp, #24]
 2480 1568 4FEAB34A 		ror	r10, r3, #18
 2481 156c 8AEAF31A 		eor	r10, r10, r3, ror #7
 2482 1570 8AEAD30A 		eor	r10, r10, r3, lsr #3
 2483 1574 DA44     		add	r10, r10, fp
 2484 1576 059B     		ldr	r3, [sp, #20]
 2485 1578 9A44     		add	r10, r3, r10
 2486 157a CDF814A0 		str	r10, [sp, #20]
 2487              	.LVL494:
 2488 157e 049B     		ldr	r3, [sp, #16]
 2489 1580 9A46     		mov	r10, r3
 2490              	.LVL495:
 2491 1582 4FEAF34B 		ror	fp, r3, #19
 2492 1586 8BEA7A4B 		eor	fp, fp, r10, ror #17
 2493 158a 8BEA9A2B 		eor	fp, fp, r10, lsr #10
 2494 158e F344     		add	fp, fp, lr
 2495 1590 079B     		ldr	r3, [sp, #28]
 2496 1592 4FEAB34A 		ror	r10, r3, #18
 2497 1596 8AEAF31A 		eor	r10, r10, r3, ror #7
 2498 159a 8AEAD30A 		eor	r10, r10, r3, lsr #3
 2499 159e DA44     		add	r10, r10, fp
 2500 15a0 069B     		ldr	r3, [sp, #24]
 2501 15a2 9A44     		add	r10, r3, r10
 2502 15a4 CDF818A0 		str	r10, [sp, #24]
 2503              	.LVL496:
 2504 15a8 059B     		ldr	r3, [sp, #20]
 2505 15aa 9A46     		mov	r10, r3
 2506              	.LVL497:
 2507 15ac 4FEAF34B 		ror	fp, r3, #19
 2508 15b0 8BEA7A4B 		eor	fp, fp, r10, ror #17
 2509 15b4 8BEA9A2B 		eor	fp, fp, r10, lsr #10
 2510 15b8 CB44     		add	fp, fp, r9
 2511 15ba 089B     		ldr	r3, [sp, #32]
 2512 15bc 4FEAB34A 		ror	r10, r3, #18
 2513 15c0 8AEAF31A 		eor	r10, r10, r3, ror #7
 2514 15c4 8AEAD30A 		eor	r10, r10, r3, lsr #3
 2515 15c8 DA44     		add	r10, r10, fp
 2516 15ca 079B     		ldr	r3, [sp, #28]
ARM GAS  C:\Users\bogur\AppData\Local\Temp\cc4rWh5U.s 			page 48


 2517 15cc 9A44     		add	r10, r3, r10
 2518 15ce CDF81CA0 		str	r10, [sp, #28]
 2519              	.LVL498:
 2520 15d2 069B     		ldr	r3, [sp, #24]
 2521 15d4 9A46     		mov	r10, r3
 2522              	.LVL499:
 2523 15d6 4FEAF34B 		ror	fp, r3, #19
 2524 15da 8BEA7A4B 		eor	fp, fp, r10, ror #17
 2525 15de 8BEA9A2B 		eor	fp, fp, r10, lsr #10
 2526 15e2 C344     		add	fp, fp, r8
 2527 15e4 099B     		ldr	r3, [sp, #36]
 2528 15e6 4FEAB34A 		ror	r10, r3, #18
 2529 15ea 8AEAF31A 		eor	r10, r10, r3, ror #7
 2530 15ee 8AEAD30A 		eor	r10, r10, r3, lsr #3
 2531 15f2 DA44     		add	r10, r10, fp
 2532 15f4 089B     		ldr	r3, [sp, #32]
 2533 15f6 9A44     		add	r10, r3, r10
 2534 15f8 CDF820A0 		str	r10, [sp, #32]
 2535              	.LVL500:
 2536 15fc 079B     		ldr	r3, [sp, #28]
 2537 15fe 9A46     		mov	r10, r3
 2538              	.LVL501:
 2539 1600 4FEAF34B 		ror	fp, r3, #19
 2540 1604 8BEA7A4B 		eor	fp, fp, r10, ror #17
 2541 1608 8BEA9A2B 		eor	fp, fp, r10, lsr #10
 2542 160c E344     		add	fp, fp, ip
 2543 160e 0A9B     		ldr	r3, [sp, #40]
 2544 1610 4FEAB34A 		ror	r10, r3, #18
 2545 1614 8AEAF31A 		eor	r10, r10, r3, ror #7
 2546 1618 8AEAD30A 		eor	r10, r10, r3, lsr #3
 2547 161c DA44     		add	r10, r10, fp
 2548 161e 099B     		ldr	r3, [sp, #36]
 2549 1620 9A44     		add	r10, r3, r10
 2550 1622 CDF824A0 		str	r10, [sp, #36]
 2551              	.LVL502:
 2552 1626 089B     		ldr	r3, [sp, #32]
 2553 1628 9A46     		mov	r10, r3
 2554              	.LVL503:
 2555 162a 4FEAF34B 		ror	fp, r3, #19
 2556 162e 8BEA7A4B 		eor	fp, fp, r10, ror #17
 2557 1632 8BEA9A2B 		eor	fp, fp, r10, lsr #10
 2558 1636 0D9B     		ldr	r3, [sp, #52]
 2559 1638 9B44     		add	fp, fp, r3
 2560 163a 0B9B     		ldr	r3, [sp, #44]
 2561 163c 4FEAB34A 		ror	r10, r3, #18
 2562 1640 8AEAF31A 		eor	r10, r10, r3, ror #7
 2563 1644 8AEAD30A 		eor	r10, r10, r3, lsr #3
 2564 1648 DA44     		add	r10, r10, fp
 2565 164a 0A9B     		ldr	r3, [sp, #40]
 2566 164c 9A44     		add	r10, r3, r10
 2567 164e CDF828A0 		str	r10, [sp, #40]
 2568              	.LVL504:
 2569 1652 099B     		ldr	r3, [sp, #36]
 2570 1654 9A46     		mov	r10, r3
 2571              	.LVL505:
 2572 1656 4FEAF34B 		ror	fp, r3, #19
 2573 165a 8BEA7A4B 		eor	fp, fp, r10, ror #17
ARM GAS  C:\Users\bogur\AppData\Local\Temp\cc4rWh5U.s 			page 49


 2574 165e 8BEA9A2B 		eor	fp, fp, r10, lsr #10
 2575 1662 049B     		ldr	r3, [sp, #16]
 2576 1664 9B44     		add	fp, fp, r3
 2577 1666 0C9B     		ldr	r3, [sp, #48]
 2578 1668 4FEAB34A 		ror	r10, r3, #18
 2579 166c 8AEAF31A 		eor	r10, r10, r3, ror #7
 2580 1670 8AEAD30A 		eor	r10, r10, r3, lsr #3
 2581 1674 DA44     		add	r10, r10, fp
 2582 1676 0B9B     		ldr	r3, [sp, #44]
 2583 1678 9A44     		add	r10, r3, r10
 2584 167a CDF82CA0 		str	r10, [sp, #44]
 2585              	.LVL506:
 2586 167e 0A9B     		ldr	r3, [sp, #40]
 2587 1680 9A46     		mov	r10, r3
 2588              	.LVL507:
 2589 1682 4FEAF34B 		ror	fp, r3, #19
 2590 1686 8BEA7A4B 		eor	fp, fp, r10, ror #17
 2591 168a 8BEA9A2B 		eor	fp, fp, r10, lsr #10
 2592 168e 059B     		ldr	r3, [sp, #20]
 2593 1690 9B44     		add	fp, fp, r3
 2594 1692 029B     		ldr	r3, [sp, #8]
 2595 1694 4FEAB34A 		ror	r10, r3, #18
 2596 1698 8AEAF31A 		eor	r10, r10, r3, ror #7
 2597 169c 8AEAD30A 		eor	r10, r10, r3, lsr #3
 2598 16a0 DA44     		add	r10, r10, fp
 2599 16a2 0C9B     		ldr	r3, [sp, #48]
 2600 16a4 9A44     		add	r10, r3, r10
 2601 16a6 CDF830A0 		str	r10, [sp, #48]
 2602              	.LVL508:
 2603 16aa 0B9B     		ldr	r3, [sp, #44]
 2604 16ac 9A46     		mov	r10, r3
 2605              	.LVL509:
 2606 16ae 4FEAF34B 		ror	fp, r3, #19
 2607 16b2 8BEA7A4B 		eor	fp, fp, r10, ror #17
 2608 16b6 8BEA9A2B 		eor	fp, fp, r10, lsr #10
 2609 16ba 069B     		ldr	r3, [sp, #24]
 2610 16bc 9B44     		add	fp, fp, r3
 2611 16be 039B     		ldr	r3, [sp, #12]
 2612 16c0 4FEAB34A 		ror	r10, r3, #18
 2613 16c4 8AEAF31A 		eor	r10, r10, r3, ror #7
 2614 16c8 8AEAD30A 		eor	r10, r10, r3, lsr #3
 2615 16cc DA44     		add	r10, r10, fp
 2616 16ce 029B     		ldr	r3, [sp, #8]
 2617 16d0 9A44     		add	r10, r3, r10
 2618 16d2 CDF808A0 		str	r10, [sp, #8]
 2619              	.LVL510:
 2620 16d6 0C9B     		ldr	r3, [sp, #48]
 2621 16d8 9A46     		mov	r10, r3
 2622              	.LVL511:
 2623 16da 4FEAF34B 		ror	fp, r3, #19
 2624 16de 8BEA7A4B 		eor	fp, fp, r10, ror #17
 2625 16e2 8BEA9A2B 		eor	fp, fp, r10, lsr #10
 2626 16e6 079B     		ldr	r3, [sp, #28]
 2627 16e8 9B44     		add	fp, fp, r3
 2628 16ea 4FEABE4A 		ror	r10, lr, #18
 2629 16ee 8AEAFE1A 		eor	r10, r10, lr, ror #7
 2630 16f2 8AEADE0A 		eor	r10, r10, lr, lsr #3
ARM GAS  C:\Users\bogur\AppData\Local\Temp\cc4rWh5U.s 			page 50


 2631 16f6 DA44     		add	r10, r10, fp
 2632 16f8 039B     		ldr	r3, [sp, #12]
 2633 16fa 9A44     		add	r10, r3, r10
 2634 16fc CDF80CA0 		str	r10, [sp, #12]
 2635              	.LVL512:
 164:..\sha256.c   **** 
 165:..\sha256.c   ****     F(w0 ,0x19a4c116)
 2636              		.loc 1 165 0
 2637 1700 4FEAF52A 		ror	r10, r5, #11
 2638              	.LVL513:
 2639 1704 8AEAB51A 		eor	r10, r10, r5, ror #6
 2640 1708 8AEA756A 		eor	r10, r10, r5, ror #25
 2641 170c 139B     		ldr	r3, [sp, #76]
 2642 170e 5344     		add	r3, r3, r10
 2643 1710 06EA050B 		and	fp, r6, r5
 2644 1714 27EA050A 		bic	r10, r7, r5
 2645 1718 8BEA0A0A 		eor	r10, fp, r10
 2646 171c 5344     		add	r3, r3, r10
 2647 171e 9E44     		add	lr, lr, r3
 2648              	.LVL514:
 2649 1720 DFF88CB0 		ldr	fp, .L19+4
 2650 1724 F344     		add	fp, fp, lr
 2651              	.LVL515:
 2652 1726 4FEA723E 		ror	lr, r2, #13
 2653 172a 8EEAB20E 		eor	lr, lr, r2, ror #2
 2654 172e 8EEAB25E 		eor	lr, lr, r2, ror #22
 2655 1732 80EA010A 		eor	r10, r0, r1
 2656 1736 0AEA020A 		and	r10, r10, r2
 2657 173a 00EA0103 		and	r3, r0, r1
 2658 173e 8AEA0303 		eor	r3, r10, r3
 2659 1742 9E44     		add	lr, lr, r3
 2660              	.LVL516:
 2661 1744 5C44     		add	r4, r4, fp
 2662              	.LVL517:
 2663 1746 F344     		add	fp, fp, lr
 2664              	.LVL518:
 166:..\sha256.c   ****     F(w1 ,0x1e376c08)
 2665              		.loc 1 166 0
 2666 1748 4FEAF423 		ror	r3, r4, #11
 2667 174c 83EAB413 		eor	r3, r3, r4, ror #6
 2668 1750 83EA7463 		eor	r3, r3, r4, ror #25
 2669 1754 1F44     		add	r7, r7, r3
 2670              	.LVL519:
 2671 1756 05EA040E 		and	lr, r5, r4
 2672              	.LVL520:
 2673 175a 26EA0403 		bic	r3, r6, r4
 2674 175e 8EEA0303 		eor	r3, lr, r3
 2675 1762 1F44     		add	r7, r7, r3
 2676 1764 B944     		add	r9, r9, r7
 2677              	.LVL521:
 2678 1766 DFF84CE0 		ldr	lr, .L19+8
 2679 176a CE44     		add	lr, lr, r9
 2680              	.LVL522:
 2681 176c 4FEA7B33 		ror	r3, fp, #13
 2682 1770 83EABB03 		eor	r3, r3, fp, ror #2
 2683 1774 83EABB53 		eor	r3, r3, fp, ror #22
 2684 1778 81EA0209 		eor	r9, r1, r2
ARM GAS  C:\Users\bogur\AppData\Local\Temp\cc4rWh5U.s 			page 51


 2685 177c 09EA0B09 		and	r9, r9, fp
 2686 1780 01EA0207 		and	r7, r1, r2
 2687 1784 89EA0707 		eor	r7, r9, r7
 2688 1788 3B44     		add	r3, r3, r7
 2689              	.LVL523:
 2690 178a 7044     		add	r0, r0, lr
 2691              	.LVL524:
 2692 178c 9E44     		add	lr, lr, r3
 2693              	.LVL525:
 167:..\sha256.c   ****     F(w2 ,0x2748774c)
 2694              		.loc 1 167 0
 2695 178e 4FEAF023 		ror	r3, r0, #11
 2696              	.LVL526:
 2697 1792 83EAB013 		eor	r3, r3, r0, ror #6
 2698 1796 83EA7063 		eor	r3, r3, r0, ror #25
 2699 179a 1E44     		add	r6, r6, r3
 2700              	.LVL527:
 2701 179c 04EA0007 		and	r7, r4, r0
 2702              	.LVL528:
 2703 17a0 25EA0003 		bic	r3, r5, r0
 2704 17a4 7B40     		eors	r3, r3, r7
 2705 17a6 1E44     		add	r6, r6, r3
 2706 17a8 06E0     		b	.L20
 2707              	.L21:
 2708 17aa 00BF     		.align	2
 2709              	.L19:
 2710 17ac 70A06A10 		.word	275423344
 2711 17b0 16C1A419 		.word	430227734
 2712 17b4 086C371E 		.word	506948616
 2713              	.L20:
 2714 17b8 B044     		add	r8, r8, r6
 2715              	.LVL529:
 2716 17ba F04F     		ldr	r7, .L22
 2717 17bc 4744     		add	r7, r7, r8
 2718              	.LVL530:
 2719 17be 4FEA7E33 		ror	r3, lr, #13
 2720 17c2 83EABE03 		eor	r3, r3, lr, ror #2
 2721 17c6 83EABE53 		eor	r3, r3, lr, ror #22
 2722 17ca 82EA0B08 		eor	r8, r2, fp
 2723 17ce 08EA0E08 		and	r8, r8, lr
 2724 17d2 02EA0B06 		and	r6, r2, fp
 2725 17d6 88EA0606 		eor	r6, r8, r6
 2726 17da 3344     		add	r3, r3, r6
 2727              	.LVL531:
 2728 17dc 3944     		add	r1, r1, r7
 2729              	.LVL532:
 2730 17de 1F44     		add	r7, r7, r3
 2731              	.LVL533:
 168:..\sha256.c   ****     F(w3 ,0x34b0bcb5)
 2732              		.loc 1 168 0
 2733 17e0 4FEAF123 		ror	r3, r1, #11
 2734              	.LVL534:
 2735 17e4 83EAB113 		eor	r3, r3, r1, ror #6
 2736 17e8 83EA7163 		eor	r3, r3, r1, ror #25
 2737 17ec 1D44     		add	r5, r5, r3
 2738              	.LVL535:
 2739 17ee 00EA0106 		and	r6, r0, r1
ARM GAS  C:\Users\bogur\AppData\Local\Temp\cc4rWh5U.s 			page 52


 2740              	.LVL536:
 2741 17f2 24EA0103 		bic	r3, r4, r1
 2742 17f6 7340     		eors	r3, r3, r6
 2743 17f8 1D44     		add	r5, r5, r3
 2744 17fa AC44     		add	ip, ip, r5
 2745              	.LVL537:
 2746 17fc E04E     		ldr	r6, .L22+4
 2747 17fe 6644     		add	r6, r6, ip
 2748              	.LVL538:
 2749 1800 4FEA7733 		ror	r3, r7, #13
 2750 1804 83EAB703 		eor	r3, r3, r7, ror #2
 2751 1808 83EAB753 		eor	r3, r3, r7, ror #22
 2752 180c 8BEA0E0C 		eor	ip, fp, lr
 2753 1810 0CEA070C 		and	ip, ip, r7
 2754 1814 0BEA0E05 		and	r5, fp, lr
 2755 1818 8CEA0505 		eor	r5, ip, r5
 2756 181c 2B44     		add	r3, r3, r5
 2757              	.LVL539:
 2758 181e 3244     		add	r2, r2, r6
 2759              	.LVL540:
 2760 1820 1E44     		add	r6, r6, r3
 2761              	.LVL541:
 169:..\sha256.c   ****     F(w4 ,0x391c0cb3)
 2762              		.loc 1 169 0
 2763 1822 4FEAF223 		ror	r3, r2, #11
 2764              	.LVL542:
 2765 1826 83EAB213 		eor	r3, r3, r2, ror #6
 2766 182a 83EA7263 		eor	r3, r3, r2, ror #25
 2767 182e 1C44     		add	r4, r4, r3
 2768              	.LVL543:
 2769 1830 01EA0205 		and	r5, r1, r2
 2770              	.LVL544:
 2771 1834 20EA0203 		bic	r3, r0, r2
 2772 1838 6B40     		eors	r3, r3, r5
 2773 183a 1C44     		add	r4, r4, r3
 2774 183c 0D9B     		ldr	r3, [sp, #52]
 2775 183e 1C44     		add	r4, r4, r3
 2776 1840 D04D     		ldr	r5, .L22+8
 2777 1842 2544     		add	r5, r5, r4
 2778              	.LVL545:
 2779 1844 4FEA7633 		ror	r3, r6, #13
 2780 1848 83EAB603 		eor	r3, r3, r6, ror #2
 2781 184c 83EAB653 		eor	r3, r3, r6, ror #22
 2782 1850 8EEA070C 		eor	ip, lr, r7
 2783              	.LVL546:
 2784 1854 0CEA060C 		and	ip, ip, r6
 2785 1858 0EEA0704 		and	r4, lr, r7
 2786 185c 8CEA0404 		eor	r4, ip, r4
 2787 1860 2344     		add	r3, r3, r4
 2788              	.LVL547:
 2789 1862 AB44     		add	fp, fp, r5
 2790              	.LVL548:
 2791 1864 1D44     		add	r5, r5, r3
 2792              	.LVL549:
 170:..\sha256.c   ****     F(w5 ,0x4ed8aa4a)
 2793              		.loc 1 170 0
 2794 1866 4FEAFB23 		ror	r3, fp, #11
ARM GAS  C:\Users\bogur\AppData\Local\Temp\cc4rWh5U.s 			page 53


 2795              	.LVL550:
 2796 186a 83EABB13 		eor	r3, r3, fp, ror #6
 2797 186e 83EA7B63 		eor	r3, r3, fp, ror #25
 2798 1872 1844     		add	r0, r0, r3
 2799              	.LVL551:
 2800 1874 02EA0B04 		and	r4, r2, fp
 2801              	.LVL552:
 2802 1878 21EA0B03 		bic	r3, r1, fp
 2803 187c 6340     		eors	r3, r3, r4
 2804 187e 1844     		add	r0, r0, r3
 2805 1880 049B     		ldr	r3, [sp, #16]
 2806 1882 1844     		add	r0, r0, r3
 2807 1884 C04C     		ldr	r4, .L22+12
 2808 1886 0444     		add	r4, r4, r0
 2809              	.LVL553:
 2810 1888 4FEA7533 		ror	r3, r5, #13
 2811 188c 83EAB503 		eor	r3, r3, r5, ror #2
 2812 1890 83EAB553 		eor	r3, r3, r5, ror #22
 2813 1894 87EA060C 		eor	ip, r7, r6
 2814              	.LVL554:
 2815 1898 0CEA050C 		and	ip, ip, r5
 2816 189c 07EA0600 		and	r0, r7, r6
 2817 18a0 8CEA0000 		eor	r0, ip, r0
 2818 18a4 0344     		add	r3, r3, r0
 2819              	.LVL555:
 2820 18a6 A644     		add	lr, lr, r4
 2821              	.LVL556:
 2822 18a8 1C44     		add	r4, r4, r3
 2823              	.LVL557:
 171:..\sha256.c   ****     F(w6 ,0x5b9cca4f)
 2824              		.loc 1 171 0
 2825 18aa 4FEAFE23 		ror	r3, lr, #11
 2826              	.LVL558:
 2827 18ae 83EABE13 		eor	r3, r3, lr, ror #6
 2828 18b2 83EA7E63 		eor	r3, r3, lr, ror #25
 2829 18b6 1944     		add	r1, r1, r3
 2830              	.LVL559:
 2831 18b8 0BEA0E0A 		and	r10, fp, lr
 2832 18bc 22EA0E03 		bic	r3, r2, lr
 2833 18c0 8AEA0303 		eor	r3, r10, r3
 2834 18c4 1944     		add	r1, r1, r3
 2835 18c6 059B     		ldr	r3, [sp, #20]
 2836 18c8 03EB010A 		add	r10, r3, r1
 2837 18cc AF48     		ldr	r0, .L22+16
 2838              	.LVL560:
 2839 18ce 5044     		add	r0, r0, r10
 2840              	.LVL561:
 2841 18d0 4FEA7433 		ror	r3, r4, #13
 2842 18d4 83EAB403 		eor	r3, r3, r4, ror #2
 2843 18d8 83EAB453 		eor	r3, r3, r4, ror #22
 2844 18dc 86EA050C 		eor	ip, r6, r5
 2845              	.LVL562:
 2846 18e0 0CEA040C 		and	ip, ip, r4
 2847 18e4 06EA0501 		and	r1, r6, r5
 2848 18e8 8CEA0101 		eor	r1, ip, r1
 2849 18ec 0B44     		add	r3, r3, r1
 2850              	.LVL563:
ARM GAS  C:\Users\bogur\AppData\Local\Temp\cc4rWh5U.s 			page 54


 2851 18ee 0744     		add	r7, r7, r0
 2852              	.LVL564:
 2853 18f0 1844     		add	r0, r0, r3
 2854              	.LVL565:
 172:..\sha256.c   ****     F(w7 ,0x682e6ff3)
 2855              		.loc 1 172 0
 2856 18f2 4FEAF723 		ror	r3, r7, #11
 2857              	.LVL566:
 2858 18f6 83EAB713 		eor	r3, r3, r7, ror #6
 2859 18fa 83EA7763 		eor	r3, r3, r7, ror #25
 2860 18fe 1A44     		add	r2, r2, r3
 2861              	.LVL567:
 2862 1900 0EEA070A 		and	r10, lr, r7
 2863              	.LVL568:
 2864 1904 2BEA0703 		bic	r3, fp, r7
 2865 1908 8AEA0303 		eor	r3, r10, r3
 2866 190c 1A44     		add	r2, r2, r3
 2867 190e 069B     		ldr	r3, [sp, #24]
 2868 1910 03EB020A 		add	r10, r3, r2
 2869 1914 9E49     		ldr	r1, .L22+20
 2870              	.LVL569:
 2871 1916 5144     		add	r1, r1, r10
 2872              	.LVL570:
 2873 1918 4FEA7033 		ror	r3, r0, #13
 2874 191c 83EAB003 		eor	r3, r3, r0, ror #2
 2875 1920 83EAB053 		eor	r3, r3, r0, ror #22
 2876 1924 85EA040C 		eor	ip, r5, r4
 2877              	.LVL571:
 2878 1928 0CEA000C 		and	ip, ip, r0
 2879 192c 05EA0402 		and	r2, r5, r4
 2880 1930 8CEA0202 		eor	r2, ip, r2
 2881 1934 1A44     		add	r2, r2, r3
 2882              	.LVL572:
 2883 1936 0E44     		add	r6, r6, r1
 2884              	.LVL573:
 2885 1938 0A44     		add	r2, r2, r1
 2886              	.LVL574:
 173:..\sha256.c   ****     F(w8 ,0x748f82ee)
 2887              		.loc 1 173 0
 2888 193a 4FEAF621 		ror	r1, r6, #11
 2889              	.LVL575:
 2890 193e 81EAB611 		eor	r1, r1, r6, ror #6
 2891 1942 81EA7661 		eor	r1, r1, r6, ror #25
 2892 1946 8B44     		add	fp, fp, r1
 2893              	.LVL576:
 2894 1948 07EA060A 		and	r10, r7, r6
 2895              	.LVL577:
 2896 194c 2EEA0601 		bic	r1, lr, r6
 2897 1950 8AEA0101 		eor	r1, r10, r1
 2898 1954 8B44     		add	fp, fp, r1
 2899 1956 079B     		ldr	r3, [sp, #28]
 2900              	.LVL578:
 2901 1958 03EB0B0A 		add	r10, r3, fp
 2902 195c 8D49     		ldr	r1, .L22+24
 2903 195e 5144     		add	r1, r1, r10
 2904              	.LVL579:
 2905 1960 4FEA7233 		ror	r3, r2, #13
ARM GAS  C:\Users\bogur\AppData\Local\Temp\cc4rWh5U.s 			page 55


 2906 1964 83EAB203 		eor	r3, r3, r2, ror #2
 2907 1968 83EAB253 		eor	r3, r3, r2, ror #22
 2908 196c 84EA000C 		eor	ip, r4, r0
 2909              	.LVL580:
 2910 1970 0CEA020C 		and	ip, ip, r2
 2911 1974 04EA0008 		and	r8, r4, r0
 2912 1978 8CEA080C 		eor	ip, ip, r8
 2913 197c 9C44     		add	ip, ip, r3
 2914              	.LVL581:
 2915 197e 0D44     		add	r5, r5, r1
 2916              	.LVL582:
 2917 1980 8C44     		add	ip, ip, r1
 2918              	.LVL583:
 174:..\sha256.c   ****     F(w9 ,0x78a5636f)
 2919              		.loc 1 174 0
 2920 1982 4FEAF528 		ror	r8, r5, #11
 2921              	.LVL584:
 2922 1986 88EAB518 		eor	r8, r8, r5, ror #6
 2923 198a 88EA7568 		eor	r8, r8, r5, ror #25
 2924 198e C644     		add	lr, lr, r8
 2925              	.LVL585:
 2926 1990 06EA0503 		and	r3, r6, r5
 2927              	.LVL586:
 2928 1994 27EA0508 		bic	r8, r7, r5
 2929 1998 83EA0808 		eor	r8, r3, r8
 2930 199c C644     		add	lr, lr, r8
 2931 199e 089B     		ldr	r3, [sp, #32]
 2932 19a0 03EB0E0A 		add	r10, r3, lr
 2933 19a4 DFF80892 		ldr	r9, .L22+52
 2934 19a8 D144     		add	r9, r9, r10
 2935              	.LVL587:
 2936 19aa 4FEA7C33 		ror	r3, ip, #13
 2937 19ae 83EABC03 		eor	r3, r3, ip, ror #2
 2938 19b2 83EABC53 		eor	r3, r3, ip, ror #22
 2939 19b6 80EA020E 		eor	lr, r0, r2
 2940 19ba 0EEA0C0E 		and	lr, lr, ip
 2941 19be 00EA0201 		and	r1, r0, r2
 2942 19c2 8EEA0108 		eor	r8, lr, r1
 2943 19c6 9844     		add	r8, r8, r3
 2944              	.LVL588:
 2945 19c8 4C44     		add	r4, r4, r9
 2946              	.LVL589:
 2947 19ca C844     		add	r8, r8, r9
 2948              	.LVL590:
 175:..\sha256.c   ****     F(w10,0x84c87814)
 2949              		.loc 1 175 0
 2950 19cc 4FEAF42E 		ror	lr, r4, #11
 2951              	.LVL591:
 2952 19d0 8EEAB41E 		eor	lr, lr, r4, ror #6
 2953 19d4 8EEA746E 		eor	lr, lr, r4, ror #25
 2954 19d8 7744     		add	r7, r7, lr
 2955              	.LVL592:
 2956 19da 05EA0403 		and	r3, r5, r4
 2957              	.LVL593:
 2958 19de 26EA040E 		bic	lr, r6, r4
 2959 19e2 83EA0E0E 		eor	lr, r3, lr
 2960 19e6 7744     		add	r7, r7, lr
ARM GAS  C:\Users\bogur\AppData\Local\Temp\cc4rWh5U.s 			page 56


 2961 19e8 099B     		ldr	r3, [sp, #36]
 2962 19ea 03EB070A 		add	r10, r3, r7
 2963 19ee 6A4F     		ldr	r7, .L22+28
 2964 19f0 5744     		add	r7, r7, r10
 2965              	.LVL594:
 2966 19f2 4FEA7831 		ror	r1, r8, #13
 2967              	.LVL595:
 2968 19f6 81EAB801 		eor	r1, r1, r8, ror #2
 2969 19fa 81EAB851 		eor	r1, r1, r8, ror #22
 2970 19fe 82EA0C0E 		eor	lr, r2, ip
 2971 1a02 0EEA080E 		and	lr, lr, r8
 2972 1a06 02EA0C03 		and	r3, r2, ip
 2973 1a0a 8EEA030E 		eor	lr, lr, r3
 2974 1a0e 8E44     		add	lr, lr, r1
 2975              	.LVL596:
 2976 1a10 3844     		add	r0, r0, r7
 2977              	.LVL597:
 2978 1a12 BE44     		add	lr, lr, r7
 2979              	.LVL598:
 176:..\sha256.c   ****     F(w11,0x8cc70208)
 2980              		.loc 1 176 0
 2981 1a14 4FEAF027 		ror	r7, r0, #11
 2982              	.LVL599:
 2983 1a18 87EAB017 		eor	r7, r7, r0, ror #6
 2984 1a1c 87EA7067 		eor	r7, r7, r0, ror #25
 2985 1a20 3E44     		add	r6, r6, r7
 2986              	.LVL600:
 2987 1a22 04EA0003 		and	r3, r4, r0
 2988              	.LVL601:
 2989 1a26 25EA0007 		bic	r7, r5, r0
 2990 1a2a 5F40     		eors	r7, r7, r3
 2991 1a2c 3E44     		add	r6, r6, r7
 2992 1a2e 0A9B     		ldr	r3, [sp, #40]
 2993 1a30 03EB060A 		add	r10, r3, r6
 2994              	.LVL602:
 2995 1a34 594E     		ldr	r6, .L22+32
 2996 1a36 5644     		add	r6, r6, r10
 2997              	.LVL603:
 2998 1a38 4FEA7E31 		ror	r1, lr, #13
 2999              	.LVL604:
 3000 1a3c 81EABE01 		eor	r1, r1, lr, ror #2
 3001 1a40 81EABE51 		eor	r1, r1, lr, ror #22
 3002 1a44 8CEA0807 		eor	r7, ip, r8
 3003 1a48 07EA0E07 		and	r7, r7, lr
 3004 1a4c 0CEA0803 		and	r3, ip, r8
 3005 1a50 5F40     		eors	r7, r7, r3
 3006 1a52 0F44     		add	r7, r7, r1
 3007              	.LVL605:
 3008 1a54 3244     		add	r2, r2, r6
 3009              	.LVL606:
 3010 1a56 3744     		add	r7, r7, r6
 3011              	.LVL607:
 177:..\sha256.c   ****     F(w12,0x90befffa)
 3012              		.loc 1 177 0
 3013 1a58 4FEAF226 		ror	r6, r2, #11
 3014              	.LVL608:
 3015 1a5c 86EAB216 		eor	r6, r6, r2, ror #6
ARM GAS  C:\Users\bogur\AppData\Local\Temp\cc4rWh5U.s 			page 57


 3016 1a60 86EA7266 		eor	r6, r6, r2, ror #25
 3017 1a64 3544     		add	r5, r5, r6
 3018              	.LVL609:
 3019 1a66 00EA0203 		and	r3, r0, r2
 3020              	.LVL610:
 3021 1a6a 24EA0206 		bic	r6, r4, r2
 3022 1a6e 5E40     		eors	r6, r6, r3
 3023 1a70 3544     		add	r5, r5, r6
 3024 1a72 0B9B     		ldr	r3, [sp, #44]
 3025 1a74 03EB050A 		add	r10, r3, r5
 3026              	.LVL611:
 3027 1a78 494E     		ldr	r6, .L22+36
 3028 1a7a 5644     		add	r6, r6, r10
 3029              	.LVL612:
 3030 1a7c 4FEA7731 		ror	r1, r7, #13
 3031              	.LVL613:
 3032 1a80 81EAB701 		eor	r1, r1, r7, ror #2
 3033 1a84 81EAB751 		eor	r1, r1, r7, ror #22
 3034 1a88 88EA0E09 		eor	r9, r8, lr
 3035 1a8c 09EA0709 		and	r9, r9, r7
 3036 1a90 08EA0E03 		and	r3, r8, lr
 3037 1a94 89EA0309 		eor	r9, r9, r3
 3038 1a98 8944     		add	r9, r9, r1
 3039              	.LVL614:
 3040 1a9a B444     		add	ip, ip, r6
 3041              	.LVL615:
 3042 1a9c B144     		add	r9, r9, r6
 3043              	.LVL616:
 178:..\sha256.c   ****     F(w13,0xa4506ceb)
 3044              		.loc 1 178 0
 3045 1a9e 4FEAFC25 		ror	r5, ip, #11
 3046 1aa2 85EABC15 		eor	r5, r5, ip, ror #6
 3047 1aa6 85EA7C65 		eor	r5, r5, ip, ror #25
 3048 1aaa 2C44     		add	r4, r4, r5
 3049              	.LVL617:
 3050 1aac 02EA0C03 		and	r3, r2, ip
 3051              	.LVL618:
 3052 1ab0 20EA0C05 		bic	r5, r0, ip
 3053 1ab4 5D40     		eors	r5, r5, r3
 3054 1ab6 2C44     		add	r4, r4, r5
 3055 1ab8 0C9B     		ldr	r3, [sp, #48]
 3056 1aba 03EB040A 		add	r10, r3, r4
 3057 1abe 394D     		ldr	r5, .L22+40
 3058 1ac0 5544     		add	r5, r5, r10
 3059              	.LVL619:
 3060 1ac2 4FEA7931 		ror	r1, r9, #13
 3061              	.LVL620:
 3062 1ac6 81EAB901 		eor	r1, r1, r9, ror #2
 3063 1aca 81EAB951 		eor	r1, r1, r9, ror #22
 3064 1ace 8EEA0706 		eor	r6, lr, r7
 3065 1ad2 06EA0906 		and	r6, r6, r9
 3066 1ad6 0EEA0703 		and	r3, lr, r7
 3067 1ada 5E40     		eors	r6, r6, r3
 3068 1adc 0E44     		add	r6, r6, r1
 3069              	.LVL621:
 3070 1ade A844     		add	r8, r8, r5
 3071              	.LVL622:
ARM GAS  C:\Users\bogur\AppData\Local\Temp\cc4rWh5U.s 			page 58


 3072 1ae0 2E44     		add	r6, r6, r5
 3073              	.LVL623:
 179:..\sha256.c   ****     F(w14,0xbef9a3f7)
 3074              		.loc 1 179 0
 3075 1ae2 4FEAF82A 		ror	r10, r8, #11
 3076 1ae6 8AEAB81A 		eor	r10, r10, r8, ror #6
 3077 1aea 8AEA786A 		eor	r10, r10, r8, ror #25
 3078 1aee 5044     		add	r0, r0, r10
 3079              	.LVL624:
 3080 1af0 0CEA080A 		and	r10, ip, r8
 3081 1af4 22EA0804 		bic	r4, r2, r8
 3082 1af8 8AEA040A 		eor	r10, r10, r4
 3083 1afc 8244     		add	r10, r10, r0
 3084 1afe 029B     		ldr	r3, [sp, #8]
 3085              	.LVL625:
 3086 1b00 9A44     		add	r10, r10, r3
 3087 1b02 294B     		ldr	r3, .L22+44
 3088 1b04 5344     		add	r3, r3, r10
 3089              	.LVL626:
 3090 1b06 4FEA7635 		ror	r5, r6, #13
 3091 1b0a 85EAB605 		eor	r5, r5, r6, ror #2
 3092 1b0e 85EAB650 		eor	r0, r5, r6, ror #22
 3093 1b12 87EA0905 		eor	r5, r7, r9
 3094 1b16 3540     		ands	r5, r5, r6
 3095 1b18 07EA0901 		and	r1, r7, r9
 3096              	.LVL627:
 3097 1b1c 4D40     		eors	r5, r5, r1
 3098 1b1e 0544     		add	r5, r5, r0
 3099              	.LVL628:
 3100 1b20 9E44     		add	lr, lr, r3
 3101              	.LVL629:
 3102 1b22 1D44     		add	r5, r5, r3
 3103              	.LVL630:
 180:..\sha256.c   ****     F(w15,0xc67178f2)
 3104              		.loc 1 180 0
 3105 1b24 4FEAFE2A 		ror	r10, lr, #11
 3106 1b28 8AEABE1A 		eor	r10, r10, lr, ror #6
 3107 1b2c 8AEA7E6A 		eor	r10, r10, lr, ror #25
 3108 1b30 5244     		add	r2, r2, r10
 3109              	.LVL631:
 3110 1b32 08EA0E0A 		and	r10, r8, lr
 3111 1b36 2CEA0E00 		bic	r0, ip, lr
 3112              	.LVL632:
 3113 1b3a 8AEA000A 		eor	r10, r10, r0
 3114 1b3e 9244     		add	r10, r10, r2
 3115 1b40 039B     		ldr	r3, [sp, #12]
 3116              	.LVL633:
 3117 1b42 9A44     		add	r10, r10, r3
 3118 1b44 194A     		ldr	r2, .L22+48
 3119 1b46 5244     		add	r2, r2, r10
 3120              	.LVL634:
 3121 1b48 4FEA7534 		ror	r4, r5, #13
 3122 1b4c 84EAB504 		eor	r4, r4, r5, ror #2
 3123 1b50 84EAB554 		eor	r4, r4, r5, ror #22
 3124 1b54 89EA0603 		eor	r3, r9, r6
 3125 1b58 03EA0501 		and	r1, r3, r5
 3126              	.LVL635:
ARM GAS  C:\Users\bogur\AppData\Local\Temp\cc4rWh5U.s 			page 59


 3127 1b5c 09EA0603 		and	r3, r9, r6
 3128 1b60 4B40     		eors	r3, r3, r1
 3129 1b62 1C44     		add	r4, r4, r3
 3130              	.LVL636:
 3131 1b64 1744     		add	r7, r7, r2
 3132              	.LVL637:
 3133 1b66 1444     		add	r4, r4, r2
 3134              	.LVL638:
 181:..\sha256.c   **** 
 182:..\sha256.c   ****     a += state[0];
 3135              		.loc 1 182 0
 3136 1b68 1E9B     		ldr	r3, [sp, #120]
 3137              	.LVL639:
 3138 1b6a 1C44     		add	r4, r4, r3
 3139              	.LVL640:
 183:..\sha256.c   ****     b += state[1];
 3140              		.loc 1 183 0
 3141 1b6c 1F9B     		ldr	r3, [sp, #124]
 3142 1b6e 1D44     		add	r5, r5, r3
 3143              	.LVL641:
 184:..\sha256.c   ****     c += state[2];
 3144              		.loc 1 184 0
 3145 1b70 209B     		ldr	r3, [sp, #128]
 3146 1b72 1E44     		add	r6, r6, r3
 3147              	.LVL642:
 185:..\sha256.c   ****     d += state[3];
 3148              		.loc 1 185 0
 3149 1b74 2198     		ldr	r0, [sp, #132]
 3150 1b76 8144     		add	r9, r9, r0
 3151 1b78 1CE0     		b	.L23
 3152              	.L24:
 3153 1b7a 00BF     		.align	2
 3154              	.L22:
 3155 1b7c 4C774827 		.word	659060556
 3156 1b80 B5BCB034 		.word	883997877
 3157 1b84 B30C1C39 		.word	958139571
 3158 1b88 4AAAD84E 		.word	1322822218
 3159 1b8c 4FCA9C5B 		.word	1537002063
 3160 1b90 F36F2E68 		.word	1747873779
 3161 1b94 EE828F74 		.word	1955562222
 3162 1b98 1478C884 		.word	-2067236844
 3163 1b9c 0802C78C 		.word	-1933114872
 3164 1ba0 FAFFBE90 		.word	-1866530822
 3165 1ba4 EB6C50A4 		.word	-1538233109
 3166 1ba8 F7A3F9BE 		.word	-1090935817
 3167 1bac F27871C6 		.word	-965641998
 3168 1bb0 6F63A578 		.word	2024104815
 3169              	.L23:
 3170              	.LVL643:
 186:..\sha256.c   ****     e += state[4];
 3171              		.loc 1 186 0
 3172 1bb4 229B     		ldr	r3, [sp, #136]
 3173 1bb6 1F44     		add	r7, r7, r3
 3174              	.LVL644:
 187:..\sha256.c   ****     f += state[5];
 3175              		.loc 1 187 0
 3176 1bb8 239B     		ldr	r3, [sp, #140]
ARM GAS  C:\Users\bogur\AppData\Local\Temp\cc4rWh5U.s 			page 60


 3177 1bba 0EEB030A 		add	r10, lr, r3
 3178              	.LVL645:
 188:..\sha256.c   ****     g += state[6];
 3179              		.loc 1 188 0
 3180 1bbe 249B     		ldr	r3, [sp, #144]
 3181 1bc0 9844     		add	r8, r8, r3
 3182              	.LVL646:
 189:..\sha256.c   ****     h += state[7];
 3183              		.loc 1 189 0
 3184 1bc2 259B     		ldr	r3, [sp, #148]
 3185 1bc4 0CEB030B 		add	fp, ip, r3
 3186              	.LVL647:
 190:..\sha256.c   **** 
 191:..\sha256.c   ****     state[0] = a;
 3187              		.loc 1 191 0
 3188 1bc8 1E94     		str	r4, [sp, #120]
 192:..\sha256.c   ****     state[1] = b;
 3189              		.loc 1 192 0
 3190 1bca 1F95     		str	r5, [sp, #124]
 193:..\sha256.c   ****     state[2] = c;
 3191              		.loc 1 193 0
 3192 1bcc 2096     		str	r6, [sp, #128]
 194:..\sha256.c   ****     state[3] = d;
 3193              		.loc 1 194 0
 3194 1bce CDF88490 		str	r9, [sp, #132]
 195:..\sha256.c   ****     state[4] = e;
 3195              		.loc 1 195 0
 3196 1bd2 2297     		str	r7, [sp, #136]
 196:..\sha256.c   ****     state[5] = f;
 3197              		.loc 1 196 0
 3198 1bd4 CDF88CA0 		str	r10, [sp, #140]
 197:..\sha256.c   ****     state[6] = g;
 3199              		.loc 1 197 0
 3200 1bd8 CDF89080 		str	r8, [sp, #144]
 198:..\sha256.c   ****     state[7] = h;
 3201              		.loc 1 198 0
 3202 1bdc CDF894B0 		str	fp, [sp, #148]
 199:..\sha256.c   **** 
 200:..\sha256.c   ****     in += 64;
 3203              		.loc 1 200 0
 3204 1be0 0199     		ldr	r1, [sp, #4]
 3205 1be2 01F14003 		add	r3, r1, #64
 3206 1be6 0193     		str	r3, [sp, #4]
 3207              	.LVL648:
 201:..\sha256.c   ****     inlen -= 64;
 3208              		.loc 1 201 0
 3209 1be8 159B     		ldr	r3, [sp, #84]
 3210              	.LVL649:
 3211 1bea 403B     		subs	r3, r3, #64
 3212 1bec 1593     		str	r3, [sp, #84]
 3213              	.LVL650:
 3214              	.L4:
 3215              	.LBE2:
  90:..\sha256.c   ****     uint32_t w0  = load_bigendian(in +  0);
 3216              		.loc 1 90 0
 3217 1bee 159B     		ldr	r3, [sp, #84]
 3218 1bf0 3F2B     		cmp	r3, #63
ARM GAS  C:\Users\bogur\AppData\Local\Temp\cc4rWh5U.s 			page 61


 3219 1bf2 3EF651AA 		bhi	.L5
 202:..\sha256.c   ****   }
 203:..\sha256.c   **** 
 204:..\sha256.c   ****   store_bigendian(statebytes +  0,state[0]);
 3220              		.loc 1 204 0
 3221 1bf6 1E99     		ldr	r1, [sp, #120]
 3222 1bf8 1D98     		ldr	r0, [sp, #116]
 3223 1bfa FFF7FEFF 		bl	store_bigendian
 3224              	.LVL651:
 205:..\sha256.c   ****   store_bigendian(statebytes +  4,state[1]);
 3225              		.loc 1 205 0
 3226 1bfe 1F99     		ldr	r1, [sp, #124]
 3227 1c00 1698     		ldr	r0, [sp, #88]
 3228 1c02 FFF7FEFF 		bl	store_bigendian
 3229              	.LVL652:
 206:..\sha256.c   ****   store_bigendian(statebytes +  8,state[2]);
 3230              		.loc 1 206 0
 3231 1c06 2099     		ldr	r1, [sp, #128]
 3232 1c08 1798     		ldr	r0, [sp, #92]
 3233 1c0a FFF7FEFF 		bl	store_bigendian
 3234              	.LVL653:
 207:..\sha256.c   ****   store_bigendian(statebytes + 12,state[3]);
 3235              		.loc 1 207 0
 3236 1c0e 2199     		ldr	r1, [sp, #132]
 3237 1c10 1898     		ldr	r0, [sp, #96]
 3238 1c12 FFF7FEFF 		bl	store_bigendian
 3239              	.LVL654:
 208:..\sha256.c   ****   store_bigendian(statebytes + 16,state[4]);
 3240              		.loc 1 208 0
 3241 1c16 2299     		ldr	r1, [sp, #136]
 3242 1c18 1998     		ldr	r0, [sp, #100]
 3243 1c1a FFF7FEFF 		bl	store_bigendian
 3244              	.LVL655:
 209:..\sha256.c   ****   store_bigendian(statebytes + 20,state[5]);
 3245              		.loc 1 209 0
 3246 1c1e 2399     		ldr	r1, [sp, #140]
 3247 1c20 1A98     		ldr	r0, [sp, #104]
 3248 1c22 FFF7FEFF 		bl	store_bigendian
 3249              	.LVL656:
 210:..\sha256.c   ****   store_bigendian(statebytes + 24,state[6]);
 3250              		.loc 1 210 0
 3251 1c26 2499     		ldr	r1, [sp, #144]
 3252 1c28 1B98     		ldr	r0, [sp, #108]
 3253 1c2a FFF7FEFF 		bl	store_bigendian
 3254              	.LVL657:
 211:..\sha256.c   ****   store_bigendian(statebytes + 28,state[7]);
 3255              		.loc 1 211 0
 3256 1c2e 2599     		ldr	r1, [sp, #148]
 3257 1c30 1C98     		ldr	r0, [sp, #112]
 3258 1c32 FFF7FEFF 		bl	store_bigendian
 3259              	.LVL658:
 212:..\sha256.c   **** 
 213:..\sha256.c   ****   return inlen;
 214:..\sha256.c   **** }
 3260              		.loc 1 214 0
 3261 1c36 1598     		ldr	r0, [sp, #84]
 3262 1c38 27B0     		add	sp, sp, #156
ARM GAS  C:\Users\bogur\AppData\Local\Temp\cc4rWh5U.s 			page 62


 3263              		.cfi_def_cfa_offset 36
 3264              		@ sp needed
 3265 1c3a BDE8F08F 		pop	{r4, r5, r6, r7, r8, r9, r10, fp, pc}
 3266              		.cfi_endproc
 3267              	.LFE2:
 3268              		.size	crypto_hashblocks_sha256, .-crypto_hashblocks_sha256
 3269 1c3e 00BF     		.section	.text.sha256,"ax",%progbits
 3270              		.align	2
 3271              		.global	sha256
 3272              		.thumb
 3273              		.thumb_func
 3274              		.type	sha256, %function
 3275              	sha256:
 3276              	.LFB3:
 215:..\sha256.c   **** 
 216:..\sha256.c   **** #define blocks crypto_hashblocks_sha256
 217:..\sha256.c   **** 
 218:..\sha256.c   **** static const uint8_t iv[32] = {
 219:..\sha256.c   ****   0x6a,0x09,0xe6,0x67,
 220:..\sha256.c   ****   0xbb,0x67,0xae,0x85,
 221:..\sha256.c   ****   0x3c,0x6e,0xf3,0x72,
 222:..\sha256.c   ****   0xa5,0x4f,0xf5,0x3a,
 223:..\sha256.c   ****   0x51,0x0e,0x52,0x7f,
 224:..\sha256.c   ****   0x9b,0x05,0x68,0x8c,
 225:..\sha256.c   ****   0x1f,0x83,0xd9,0xab,
 226:..\sha256.c   ****   0x5b,0xe0,0xcd,0x19,
 227:..\sha256.c   **** } ;
 228:..\sha256.c   **** 
 229:..\sha256.c   **** void sha256(uint8_t *out,const uint8_t *in,size_t inlen)
 230:..\sha256.c   **** {
 3277              		.loc 1 230 0
 3278              		.cfi_startproc
 3279              		@ args = 0, pretend = 0, frame = 160
 3280              		@ frame_needed = 0, uses_anonymous_args = 0
 3281              	.LVL659:
 3282 0000 F0B5     		push	{r4, r5, r6, r7, lr}
 3283              		.cfi_def_cfa_offset 20
 3284              		.cfi_offset 4, -20
 3285              		.cfi_offset 5, -16
 3286              		.cfi_offset 6, -12
 3287              		.cfi_offset 7, -8
 3288              		.cfi_offset 14, -4
 3289 0002 A9B0     		sub	sp, sp, #164
 3290              		.cfi_def_cfa_offset 184
 3291 0004 0446     		mov	r4, r0
 3292 0006 0E46     		mov	r6, r1
 3293 0008 1746     		mov	r7, r2
 231:..\sha256.c   ****   uint8_t h[32];
 232:..\sha256.c   ****   uint8_t padded[128];
 233:..\sha256.c   ****   unsigned int i;
 234:..\sha256.c   ****   size_t bits = inlen << 3;
 3294              		.loc 1 234 0
 3295 000a D500     		lsls	r5, r2, #3
 3296              	.LVL660:
 235:..\sha256.c   **** 
 236:..\sha256.c   ****   for (i = 0;i < 32;++i) h[i] = iv[i];
 3297              		.loc 1 236 0
ARM GAS  C:\Users\bogur\AppData\Local\Temp\cc4rWh5U.s 			page 63


 3298 000c 0023     		movs	r3, #0
 3299 000e 06E0     		b	.L26
 3300              	.LVL661:
 3301              	.L27:
 3302              		.loc 1 236 0 is_stmt 0 discriminator 3
 3303 0010 3B4A     		ldr	r2, .L39
 3304 0012 D15C     		ldrb	r1, [r2, r3]	@ zero_extendqisi2
 3305 0014 28AA     		add	r2, sp, #160
 3306 0016 1A44     		add	r2, r2, r3
 3307 0018 02F8201C 		strb	r1, [r2, #-32]
 3308 001c 0133     		adds	r3, r3, #1
 3309              	.LVL662:
 3310              	.L26:
 3311              		.loc 1 236 0 discriminator 1
 3312 001e 1F2B     		cmp	r3, #31
 3313 0020 F6D9     		bls	.L27
 237:..\sha256.c   **** 
 238:..\sha256.c   ****   blocks(h,in,inlen);
 3314              		.loc 1 238 0 is_stmt 1
 3315 0022 3A46     		mov	r2, r7
 3316 0024 3146     		mov	r1, r6
 3317 0026 20A8     		add	r0, sp, #128
 3318              	.LVL663:
 3319 0028 FFF7FEFF 		bl	crypto_hashblocks_sha256
 3320              	.LVL664:
 239:..\sha256.c   ****   in += inlen;
 240:..\sha256.c   ****   inlen &= 63;
 3321              		.loc 1 240 0
 3322 002c 07F03F02 		and	r2, r7, #63
 3323              	.LVL665:
 3324 0030 BF1A     		subs	r7, r7, r2
 3325              	.LVL666:
 241:..\sha256.c   ****   in -= inlen;
 242:..\sha256.c   **** 
 243:..\sha256.c   ****   for (i = 0;i < inlen;++i) padded[i] = in[i];
 3326              		.loc 1 243 0
 3327 0032 0023     		movs	r3, #0
 3328 0034 06E0     		b	.L28
 3329              	.LVL667:
 3330              	.L29:
 3331              		.loc 1 243 0 is_stmt 0 discriminator 3
 3332 0036 F118     		adds	r1, r6, r3
 3333 0038 C85D     		ldrb	r0, [r1, r7]	@ zero_extendqisi2
 3334 003a 28A9     		add	r1, sp, #160
 3335 003c 1944     		add	r1, r1, r3
 3336 003e 01F8A00C 		strb	r0, [r1, #-160]
 3337 0042 0133     		adds	r3, r3, #1
 3338              	.LVL668:
 3339              	.L28:
 3340              		.loc 1 243 0 discriminator 1
 3341 0044 9342     		cmp	r3, r2
 3342 0046 F6D3     		bcc	.L29
 244:..\sha256.c   ****   padded[inlen] = 0x80;
 3343              		.loc 1 244 0 is_stmt 1
 3344 0048 8021     		movs	r1, #128
 3345 004a 28AB     		add	r3, sp, #160
 3346              	.LVL669:
ARM GAS  C:\Users\bogur\AppData\Local\Temp\cc4rWh5U.s 			page 64


 3347 004c 1344     		add	r3, r3, r2
 3348 004e 03F8A01C 		strb	r1, [r3, #-160]
 245:..\sha256.c   **** 
 246:..\sha256.c   ****   if (inlen < 56) {
 3349              		.loc 1 246 0
 3350 0052 372A     		cmp	r2, #55
 3351 0054 24D8     		bhi	.L30
 247:..\sha256.c   ****     for (i = inlen + 1;i < 56;++i) padded[i] = 0;
 3352              		.loc 1 247 0
 3353 0056 531C     		adds	r3, r2, #1
 3354              	.LVL670:
 3355 0058 05E0     		b	.L31
 3356              	.LVL671:
 3357              	.L32:
 3358              		.loc 1 247 0 is_stmt 0 discriminator 3
 3359 005a 28AA     		add	r2, sp, #160
 3360 005c 1A44     		add	r2, r2, r3
 3361 005e 0021     		movs	r1, #0
 3362 0060 02F8A01C 		strb	r1, [r2, #-160]
 3363 0064 0133     		adds	r3, r3, #1
 3364              	.LVL672:
 3365              	.L31:
 3366              		.loc 1 247 0 discriminator 1
 3367 0066 372B     		cmp	r3, #55
 3368 0068 F7D9     		bls	.L32
 248:..\sha256.c   ****     padded[56] = bits >> 56;
 3369              		.loc 1 248 0 is_stmt 1
 3370 006a 0023     		movs	r3, #0
 3371              	.LVL673:
 3372 006c 8DF83830 		strb	r3, [sp, #56]
 249:..\sha256.c   ****     padded[57] = bits >> 48;
 3373              		.loc 1 249 0
 3374 0070 8DF83930 		strb	r3, [sp, #57]
 250:..\sha256.c   ****     padded[58] = bits >> 40;
 3375              		.loc 1 250 0
 3376 0074 8DF83A30 		strb	r3, [sp, #58]
 251:..\sha256.c   ****     padded[59] = bits >> 32;
 3377              		.loc 1 251 0
 3378 0078 8DF83B30 		strb	r3, [sp, #59]
 252:..\sha256.c   ****     padded[60] = bits >> 24;
 3379              		.loc 1 252 0
 3380 007c 2B0E     		lsrs	r3, r5, #24
 3381 007e 8DF83C30 		strb	r3, [sp, #60]
 253:..\sha256.c   ****     padded[61] = bits >> 16;
 3382              		.loc 1 253 0
 3383 0082 2B0C     		lsrs	r3, r5, #16
 3384 0084 8DF83D30 		strb	r3, [sp, #61]
 254:..\sha256.c   ****     padded[62] = bits >> 8;
 3385              		.loc 1 254 0
 3386 0088 2B0A     		lsrs	r3, r5, #8
 3387 008a 8DF83E30 		strb	r3, [sp, #62]
 255:..\sha256.c   ****     padded[63] = bits;
 3388              		.loc 1 255 0
 3389 008e 8DF83F50 		strb	r5, [sp, #63]
 256:..\sha256.c   ****     blocks(h,padded,64);
 3390              		.loc 1 256 0
 3391 0092 4022     		movs	r2, #64
ARM GAS  C:\Users\bogur\AppData\Local\Temp\cc4rWh5U.s 			page 65


 3392 0094 6946     		mov	r1, sp
 3393 0096 20A8     		add	r0, sp, #128
 3394 0098 FFF7FEFF 		bl	crypto_hashblocks_sha256
 3395              	.LVL674:
 3396              	.L36:
 243:..\sha256.c   ****   padded[inlen] = 0x80;
 3397              		.loc 1 243 0 discriminator 1
 3398 009c 0023     		movs	r3, #0
 3399 009e 2AE0     		b	.L33
 3400              	.LVL675:
 3401              	.L30:
 257:..\sha256.c   ****   } else {
 258:..\sha256.c   ****     for (i = inlen + 1;i < 120;++i) padded[i] = 0;
 3402              		.loc 1 258 0
 3403 00a0 531C     		adds	r3, r2, #1
 3404              	.LVL676:
 3405 00a2 05E0     		b	.L34
 3406              	.LVL677:
 3407              	.L35:
 3408              		.loc 1 258 0 is_stmt 0 discriminator 3
 3409 00a4 28AA     		add	r2, sp, #160
 3410 00a6 1A44     		add	r2, r2, r3
 3411 00a8 0021     		movs	r1, #0
 3412 00aa 02F8A01C 		strb	r1, [r2, #-160]
 3413 00ae 0133     		adds	r3, r3, #1
 3414              	.LVL678:
 3415              	.L34:
 3416              		.loc 1 258 0 discriminator 1
 3417 00b0 772B     		cmp	r3, #119
 3418 00b2 F7D9     		bls	.L35
 259:..\sha256.c   ****     padded[120] = bits >> 56;
 3419              		.loc 1 259 0 is_stmt 1
 3420 00b4 0023     		movs	r3, #0
 3421              	.LVL679:
 3422 00b6 8DF87830 		strb	r3, [sp, #120]
 260:..\sha256.c   ****     padded[121] = bits >> 48;
 3423              		.loc 1 260 0
 3424 00ba 8DF87930 		strb	r3, [sp, #121]
 261:..\sha256.c   ****     padded[122] = bits >> 40;
 3425              		.loc 1 261 0
 3426 00be 8DF87A30 		strb	r3, [sp, #122]
 262:..\sha256.c   ****     padded[123] = bits >> 32;
 3427              		.loc 1 262 0
 3428 00c2 8DF87B30 		strb	r3, [sp, #123]
 263:..\sha256.c   ****     padded[124] = bits >> 24;
 3429              		.loc 1 263 0
 3430 00c6 2B0E     		lsrs	r3, r5, #24
 3431 00c8 8DF87C30 		strb	r3, [sp, #124]
 264:..\sha256.c   ****     padded[125] = bits >> 16;
 3432              		.loc 1 264 0
 3433 00cc 2B0C     		lsrs	r3, r5, #16
 3434 00ce 8DF87D30 		strb	r3, [sp, #125]
 265:..\sha256.c   ****     padded[126] = bits >> 8;
 3435              		.loc 1 265 0
 3436 00d2 2B0A     		lsrs	r3, r5, #8
 3437 00d4 8DF87E30 		strb	r3, [sp, #126]
 266:..\sha256.c   ****     padded[127] = bits;
ARM GAS  C:\Users\bogur\AppData\Local\Temp\cc4rWh5U.s 			page 66


 3438              		.loc 1 266 0
 3439 00d8 8DF87F50 		strb	r5, [sp, #127]
 267:..\sha256.c   ****     blocks(h,padded,128);
 3440              		.loc 1 267 0
 3441 00dc 8022     		movs	r2, #128
 3442 00de 6946     		mov	r1, sp
 3443 00e0 0DEB0200 		add	r0, sp, r2
 3444 00e4 FFF7FEFF 		bl	crypto_hashblocks_sha256
 3445              	.LVL680:
 3446 00e8 D8E7     		b	.L36
 3447              	.LVL681:
 3448              	.L37:
 268:..\sha256.c   ****   }
 269:..\sha256.c   **** 
 270:..\sha256.c   ****   for (i = 0;i < 32;++i) out[i] = h[i];
 3449              		.loc 1 270 0 discriminator 3
 3450 00ea 28AA     		add	r2, sp, #160
 3451 00ec 1A44     		add	r2, r2, r3
 3452 00ee 12F8202C 		ldrb	r2, [r2, #-32]	@ zero_extendqisi2
 3453 00f2 E254     		strb	r2, [r4, r3]
 3454 00f4 0133     		adds	r3, r3, #1
 3455              	.LVL682:
 3456              	.L33:
 3457              		.loc 1 270 0 is_stmt 0 discriminator 1
 3458 00f6 1F2B     		cmp	r3, #31
 3459 00f8 F7D9     		bls	.L37
 271:..\sha256.c   **** }
 3460              		.loc 1 271 0 is_stmt 1
 3461 00fa 29B0     		add	sp, sp, #164
 3462              		.cfi_def_cfa_offset 20
 3463              		@ sp needed
 3464 00fc F0BD     		pop	{r4, r5, r6, r7, pc}
 3465              	.LVL683:
 3466              	.L40:
 3467 00fe 00BF     		.align	2
 3468              	.L39:
 3469 0100 00000000 		.word	.LANCHOR0
 3470              		.cfi_endproc
 3471              	.LFE3:
 3472              		.size	sha256, .-sha256
 3473              		.section	.rodata
 3474              		.align	2
 3475              		.set	.LANCHOR0,. + 0
 3476              		.type	iv, %object
 3477              		.size	iv, 32
 3478              	iv:
 3479 0000 6A       		.byte	106
 3480 0001 09       		.byte	9
 3481 0002 E6       		.byte	-26
 3482 0003 67       		.byte	103
 3483 0004 BB       		.byte	-69
 3484 0005 67       		.byte	103
 3485 0006 AE       		.byte	-82
 3486 0007 85       		.byte	-123
 3487 0008 3C       		.byte	60
 3488 0009 6E       		.byte	110
 3489 000a F3       		.byte	-13
ARM GAS  C:\Users\bogur\AppData\Local\Temp\cc4rWh5U.s 			page 67


 3490 000b 72       		.byte	114
 3491 000c A5       		.byte	-91
 3492 000d 4F       		.byte	79
 3493 000e F5       		.byte	-11
 3494 000f 3A       		.byte	58
 3495 0010 51       		.byte	81
 3496 0011 0E       		.byte	14
 3497 0012 52       		.byte	82
 3498 0013 7F       		.byte	127
 3499 0014 9B       		.byte	-101
 3500 0015 05       		.byte	5
 3501 0016 68       		.byte	104
 3502 0017 8C       		.byte	-116
 3503 0018 1F       		.byte	31
 3504 0019 83       		.byte	-125
 3505 001a D9       		.byte	-39
 3506 001b AB       		.byte	-85
 3507 001c 5B       		.byte	91
 3508 001d E0       		.byte	-32
 3509 001e CD       		.byte	-51
 3510 001f 19       		.byte	25
 3511              		.text
 3512              	.Letext0:
 3513              		.file 2 "c:\\program files (x86)\\cypress\\psoc creator\\4.4\\psoc creator\\import\\gnu\\arm\\5.4.
 3514              		.file 3 "c:\\program files (x86)\\cypress\\psoc creator\\4.4\\psoc creator\\import\\gnu\\arm\\5.4.
 3515              		.file 4 "c:\\program files (x86)\\cypress\\psoc creator\\4.4\\psoc creator\\import\\gnu\\arm\\5.4.