ARM GAS  C:\Users\bogur\AppData\Local\Temp\ccXFXavo.s 			page 1


   1              		.syntax unified
   2              		.cpu cortex-m4
   3              		.eabi_attribute 27, 1
   4              		.fpu fpv4-sp-d16
   5              		.eabi_attribute 20, 1
   6              		.eabi_attribute 21, 1
   7              		.eabi_attribute 23, 3
   8              		.eabi_attribute 24, 1
   9              		.eabi_attribute 25, 1
  10              		.eabi_attribute 26, 1
  11              		.eabi_attribute 30, 1
  12              		.eabi_attribute 34, 1
  13              		.eabi_attribute 18, 4
  14              		.thumb
  15              		.syntax unified
  16              		.file	"fips202.c"
  17              		.text
  18              	.Ltext0:
  19              		.cfi_sections	.debug_frame
  20              		.section	.text.load64,"ax",%progbits
  21              		.align	2
  22              		.thumb
  23              		.thumb_func
  24              		.type	load64, %function
  25              	load64:
  26              	.LFB0:
  27              		.file 1 "..\\fips202.c"
   1:..\fips202.c  **** /* Based on the public domain implementation in
   2:..\fips202.c  ****  * crypto_hash/keccakc512/simple/ from http://bench.cr.yp.to/supercop.html
   3:..\fips202.c  ****  * by Ronny Van Keer 
   4:..\fips202.c  ****  * and the public domain "TweetFips202" implementation
   5:..\fips202.c  ****  * from https://twitter.com/tweetfips202
   6:..\fips202.c  ****  * by Gilles Van Assche, Daniel J. Bernstein, and Peter Schwabe */
   7:..\fips202.c  **** 
   8:..\fips202.c  **** #include <stdint.h>
   9:..\fips202.c  **** #include <assert.h>
  10:..\fips202.c  **** #include "fips202.h"
  11:..\fips202.c  **** 
  12:..\fips202.c  **** #define NROUNDS 24
  13:..\fips202.c  **** #define ROL(a, offset) ((a << offset) ^ (a >> (64 - offset)))
  14:..\fips202.c  **** 
  15:..\fips202.c  **** static uint64_t load64(const unsigned char *x)
  16:..\fips202.c  **** {
  28              		.loc 1 16 0
  29              		.cfi_startproc
  30              		@ args = 0, pretend = 0, frame = 0
  31              		@ frame_needed = 0, uses_anonymous_args = 0
  32              	.LVL0:
  33 0000 2DE9F043 		push	{r4, r5, r6, r7, r8, r9, lr}
  34              		.cfi_def_cfa_offset 28
  35              		.cfi_offset 4, -28
  36              		.cfi_offset 5, -24
  37              		.cfi_offset 6, -20
  38              		.cfi_offset 7, -16
  39              		.cfi_offset 8, -12
  40              		.cfi_offset 9, -8
  41              		.cfi_offset 14, -4
ARM GAS  C:\Users\bogur\AppData\Local\Temp\ccXFXavo.s 			page 2


  42              	.LVL1:
  17:..\fips202.c  ****   unsigned long long r = 0, i;
  18:..\fips202.c  **** 
  19:..\fips202.c  ****   for (i = 0; i < 8; ++i)
  43              		.loc 1 19 0
  44 0004 0024     		movs	r4, #0
  45 0006 0025     		movs	r5, #0
  17:..\fips202.c  ****   unsigned long long r = 0, i;
  46              		.loc 1 17 0
  47 0008 A046     		mov	r8, r4
  48 000a A946     		mov	r9, r5
  49              		.loc 1 19 0
  50 000c 16E0     		b	.L2
  51              	.LVL2:
  52              	.L3:
  20:..\fips202.c  ****   {
  21:..\fips202.c  ****     r |= (unsigned long long)x[i] << 8 * i;
  53              		.loc 1 21 0 discriminator 3
  54 000e 065D     		ldrb	r6, [r0, r4]	@ zero_extendqisi2
  55 0010 E100     		lsls	r1, r4, #3
  56 0012 A1F1200E 		sub	lr, r1, #32
  57 0016 C1F12007 		rsb	r7, r1, #32
  58 001a 0023     		movs	r3, #0
  59 001c 06FA0EFE 		lsl	lr, r6, lr
  60 0020 43EA0E03 		orr	r3, r3, lr
  61 0024 26FA07F7 		lsr	r7, r6, r7
  62 0028 3B43     		orrs	r3, r3, r7
  63 002a 06FA01F2 		lsl	r2, r6, r1
  64 002e 48EA0208 		orr	r8, r8, r2
  65              	.LVL3:
  66 0032 49EA0309 		orr	r9, r9, r3
  67              	.LVL4:
  19:..\fips202.c  ****   {
  68              		.loc 1 19 0 discriminator 3
  69 0036 0134     		adds	r4, r4, #1
  70              	.LVL5:
  71 0038 45F10005 		adc	r5, r5, #0
  72              	.LVL6:
  73              	.L2:
  19:..\fips202.c  ****   {
  74              		.loc 1 19 0 is_stmt 0 discriminator 1
  75 003c 002D     		cmp	r5, #0
  76 003e 08BF     		it	eq
  77 0040 082C     		cmpeq	r4, #8
  78 0042 E4D3     		bcc	.L3
  22:..\fips202.c  ****   }
  23:..\fips202.c  ****   return r;
  24:..\fips202.c  **** }
  79              		.loc 1 24 0 is_stmt 1
  80 0044 4046     		mov	r0, r8
  81              	.LVL7:
  82 0046 4946     		mov	r1, r9
  83 0048 BDE8F083 		pop	{r4, r5, r6, r7, r8, r9, pc}
  84              		.cfi_endproc
  85              	.LFE0:
  86              		.size	load64, .-load64
  87              		.section	.text.store64,"ax",%progbits
ARM GAS  C:\Users\bogur\AppData\Local\Temp\ccXFXavo.s 			page 3


  88              		.align	2
  89              		.thumb
  90              		.thumb_func
  91              		.type	store64, %function
  92              	store64:
  93              	.LFB1:
  25:..\fips202.c  **** 
  26:..\fips202.c  **** static void store64(uint8_t *x, uint64_t u)
  27:..\fips202.c  **** {
  94              		.loc 1 27 0
  95              		.cfi_startproc
  96              		@ args = 0, pretend = 0, frame = 0
  97              		@ frame_needed = 0, uses_anonymous_args = 0
  98              		@ link register save eliminated.
  99              	.LVL8:
  28:..\fips202.c  ****   unsigned int i;
  29:..\fips202.c  **** 
  30:..\fips202.c  ****   for (i = 0; i < 8; ++i)
 100              		.loc 1 30 0
 101 0000 0021     		movs	r1, #0
 102 0002 05E0     		b	.L6
 103              	.LVL9:
 104              	.L7:
  31:..\fips202.c  ****   {
  32:..\fips202.c  ****     x[i] = u;
 105              		.loc 1 32 0 discriminator 3
 106 0004 4254     		strb	r2, [r0, r1]
  33:..\fips202.c  ****     u >>= 8;
 107              		.loc 1 33 0 discriminator 3
 108 0006 120A     		lsrs	r2, r2, #8
 109              	.LVL10:
 110 0008 42EA0362 		orr	r2, r2, r3, lsl #24
 111 000c 1B0A     		lsrs	r3, r3, #8
 112              	.LVL11:
  30:..\fips202.c  ****   {
 113              		.loc 1 30 0 discriminator 3
 114 000e 0131     		adds	r1, r1, #1
 115              	.LVL12:
 116              	.L6:
  30:..\fips202.c  ****   {
 117              		.loc 1 30 0 is_stmt 0 discriminator 1
 118 0010 0729     		cmp	r1, #7
 119 0012 F7D9     		bls	.L7
  34:..\fips202.c  ****   }
  35:..\fips202.c  **** }
 120              		.loc 1 35 0 is_stmt 1
 121 0014 7047     		bx	lr
 122              		.cfi_endproc
 123              	.LFE1:
 124              		.size	store64, .-store64
 125 0016 00BF     		.section	.text.KeccakF1600_StatePermute,"ax",%progbits
 126              		.align	2
 127              		.thumb
 128              		.thumb_func
 129              		.type	KeccakF1600_StatePermute, %function
 130              	KeccakF1600_StatePermute:
 131              	.LFB2:
ARM GAS  C:\Users\bogur\AppData\Local\Temp\ccXFXavo.s 			page 4


  36:..\fips202.c  **** 
  37:..\fips202.c  **** static const uint64_t KeccakF_RoundConstants[NROUNDS] =
  38:..\fips202.c  ****     {
  39:..\fips202.c  ****         (uint64_t)0x0000000000000001ULL,
  40:..\fips202.c  ****         (uint64_t)0x0000000000008082ULL,
  41:..\fips202.c  ****         (uint64_t)0x800000000000808aULL,
  42:..\fips202.c  ****         (uint64_t)0x8000000080008000ULL,
  43:..\fips202.c  ****         (uint64_t)0x000000000000808bULL,
  44:..\fips202.c  ****         (uint64_t)0x0000000080000001ULL,
  45:..\fips202.c  ****         (uint64_t)0x8000000080008081ULL,
  46:..\fips202.c  ****         (uint64_t)0x8000000000008009ULL,
  47:..\fips202.c  ****         (uint64_t)0x000000000000008aULL,
  48:..\fips202.c  ****         (uint64_t)0x0000000000000088ULL,
  49:..\fips202.c  ****         (uint64_t)0x0000000080008009ULL,
  50:..\fips202.c  ****         (uint64_t)0x000000008000000aULL,
  51:..\fips202.c  ****         (uint64_t)0x000000008000808bULL,
  52:..\fips202.c  ****         (uint64_t)0x800000000000008bULL,
  53:..\fips202.c  ****         (uint64_t)0x8000000000008089ULL,
  54:..\fips202.c  ****         (uint64_t)0x8000000000008003ULL,
  55:..\fips202.c  ****         (uint64_t)0x8000000000008002ULL,
  56:..\fips202.c  ****         (uint64_t)0x8000000000000080ULL,
  57:..\fips202.c  ****         (uint64_t)0x000000000000800aULL,
  58:..\fips202.c  ****         (uint64_t)0x800000008000000aULL,
  59:..\fips202.c  ****         (uint64_t)0x8000000080008081ULL,
  60:..\fips202.c  ****         (uint64_t)0x8000000000008080ULL,
  61:..\fips202.c  ****         (uint64_t)0x0000000080000001ULL,
  62:..\fips202.c  ****         (uint64_t)0x8000000080008008ULL};
  63:..\fips202.c  **** 
  64:..\fips202.c  **** static void KeccakF1600_StatePermute(uint64_t *state)
  65:..\fips202.c  **** {
 132              		.loc 1 65 0
 133              		.cfi_startproc
 134              		@ args = 0, pretend = 0, frame = 712
 135              		@ frame_needed = 0, uses_anonymous_args = 0
 136              	.LVL13:
 137 0000 2DE9F04F 		push	{r4, r5, r6, r7, r8, r9, r10, fp, lr}
 138              		.cfi_def_cfa_offset 36
 139              		.cfi_offset 4, -36
 140              		.cfi_offset 5, -32
 141              		.cfi_offset 6, -28
 142              		.cfi_offset 7, -24
 143              		.cfi_offset 8, -20
 144              		.cfi_offset 9, -16
 145              		.cfi_offset 10, -12
 146              		.cfi_offset 11, -8
 147              		.cfi_offset 14, -4
 148 0004 ADF5337D 		sub	sp, sp, #716
 149              		.cfi_def_cfa_offset 752
 150 0008 B190     		str	r0, [sp, #708]
  66:..\fips202.c  ****   int round;
  67:..\fips202.c  **** 
  68:..\fips202.c  ****   uint64_t Aba, Abe, Abi, Abo, Abu;
  69:..\fips202.c  ****   uint64_t Aga, Age, Agi, Ago, Agu;
  70:..\fips202.c  ****   uint64_t Aka, Ake, Aki, Ako, Aku;
  71:..\fips202.c  ****   uint64_t Ama, Ame, Ami, Amo, Amu;
  72:..\fips202.c  ****   uint64_t Asa, Ase, Asi, Aso, Asu;
  73:..\fips202.c  ****   uint64_t BCa, BCe, BCi, BCo, BCu;
ARM GAS  C:\Users\bogur\AppData\Local\Temp\ccXFXavo.s 			page 5


  74:..\fips202.c  ****   uint64_t Da, De, Di, Do, Du;
  75:..\fips202.c  ****   uint64_t Eba, Ebe, Ebi, Ebo, Ebu;
  76:..\fips202.c  ****   uint64_t Ega, Ege, Egi, Ego, Egu;
  77:..\fips202.c  ****   uint64_t Eka, Eke, Eki, Eko, Eku;
  78:..\fips202.c  ****   uint64_t Ema, Eme, Emi, Emo, Emu;
  79:..\fips202.c  ****   uint64_t Esa, Ese, Esi, Eso, Esu;
  80:..\fips202.c  **** 
  81:..\fips202.c  ****   //copyFromState(A, state)
  82:..\fips202.c  ****   Aba = state[0];
 151              		.loc 1 82 0
 152 000a D0E90034 		ldrd	r3, [r0]
 153 000e CDE92E34 		strd	r3, [sp, #184]
 154              	.LVL14:
  83:..\fips202.c  ****   Abe = state[1];
 155              		.loc 1 83 0
 156 0012 D0E90212 		ldrd	r1, [r0, #8]
 157 0016 CDE93812 		strd	r1, [sp, #224]
 158              	.LVL15:
  84:..\fips202.c  ****   Abi = state[2];
 159              		.loc 1 84 0
 160 001a D0E90434 		ldrd	r3, [r0, #16]
 161              	.LVL16:
 162 001e CDE93A34 		strd	r3, [sp, #232]
 163              	.LVL17:
  85:..\fips202.c  ****   Abo = state[3];
 164              		.loc 1 85 0
 165 0022 D0E90634 		ldrd	r3, [r0, #24]
 166              	.LVL18:
 167 0026 CDE93C34 		strd	r3, [sp, #240]
 168              	.LVL19:
  86:..\fips202.c  ****   Abu = state[4];
 169              		.loc 1 86 0
 170 002a D0E90812 		ldrd	r1, [r0, #32]
 171              	.LVL20:
 172 002e CDE93E12 		strd	r1, [sp, #248]
 173              	.LVL21:
  87:..\fips202.c  ****   Aga = state[5];
 174              		.loc 1 87 0
 175 0032 D0E90A34 		ldrd	r3, [r0, #40]
 176              	.LVL22:
 177 0036 40A9     		add	r1, sp, #256
 178              	.LVL23:
 179 0038 C1E90034 		strd	r3, [r1]
 180              	.LVL24:
  88:..\fips202.c  ****   Age = state[6];
 181              		.loc 1 88 0
 182 003c D0E90C34 		ldrd	r3, [r0, #48]
 183              	.LVL25:
 184 0040 42A9     		add	r1, sp, #264
 185 0042 C1E90034 		strd	r3, [r1]
 186              	.LVL26:
  89:..\fips202.c  ****   Agi = state[7];
 187              		.loc 1 89 0
 188 0046 0346     		mov	r3, r0
 189              	.LVL27:
 190 0048 D0E90E12 		ldrd	r1, [r0, #56]
 191 004c 44A8     		add	r0, sp, #272
ARM GAS  C:\Users\bogur\AppData\Local\Temp\ccXFXavo.s 			page 6


 192              	.LVL28:
 193 004e C0E90012 		strd	r1, [r0]
 194              	.LVL29:
  90:..\fips202.c  ****   Ago = state[8];
 195              		.loc 1 90 0
 196 0052 1A46     		mov	r2, r3
 197 0054 D3E91034 		ldrd	r3, [r3, #64]
 198              	.LVL30:
 199 0058 46A9     		add	r1, sp, #280
 200              	.LVL31:
 201 005a C1E90034 		strd	r3, [r1]
 202              	.LVL32:
  91:..\fips202.c  ****   Agu = state[9];
 203              		.loc 1 91 0
 204 005e D2E91234 		ldrd	r3, [r2, #72]
 205              	.LVL33:
 206 0062 48A9     		add	r1, sp, #288
 207 0064 C1E90034 		strd	r3, [r1]
 208              	.LVL34:
  92:..\fips202.c  ****   Aka = state[10];
 209              		.loc 1 92 0
 210 0068 1346     		mov	r3, r2
 211              	.LVL35:
 212 006a D2E91412 		ldrd	r1, [r2, #80]
 213 006e 4AA8     		add	r0, sp, #296
 214 0070 C0E90012 		strd	r1, [r0]
 215              	.LVL36:
  93:..\fips202.c  ****   Ake = state[11];
 216              		.loc 1 93 0
 217 0074 1A46     		mov	r2, r3
 218 0076 D3E91634 		ldrd	r3, [r3, #88]
 219 007a 4CA9     		add	r1, sp, #304
 220              	.LVL37:
 221 007c C1E90034 		strd	r3, [r1]
 222              	.LVL38:
  94:..\fips202.c  ****   Aki = state[12];
 223              		.loc 1 94 0
 224 0080 D2E91834 		ldrd	r3, [r2, #96]
 225              	.LVL39:
 226 0084 4EA9     		add	r1, sp, #312
 227 0086 C1E90034 		strd	r3, [r1]
 228              	.LVL40:
  95:..\fips202.c  ****   Ako = state[13];
 229              		.loc 1 95 0
 230 008a 1346     		mov	r3, r2
 231              	.LVL41:
 232 008c D2E91A12 		ldrd	r1, [r2, #104]
 233 0090 50A8     		add	r0, sp, #320
 234 0092 C0E90012 		strd	r1, [r0]
 235              	.LVL42:
  96:..\fips202.c  ****   Aku = state[14];
 236              		.loc 1 96 0
 237 0096 1A46     		mov	r2, r3
 238 0098 D3E91C34 		ldrd	r3, [r3, #112]
 239 009c 52A9     		add	r1, sp, #328
 240              	.LVL43:
 241 009e C1E90034 		strd	r3, [r1]
ARM GAS  C:\Users\bogur\AppData\Local\Temp\ccXFXavo.s 			page 7


 242              	.LVL44:
  97:..\fips202.c  ****   Ama = state[15];
 243              		.loc 1 97 0
 244 00a2 D2E91E34 		ldrd	r3, [r2, #120]
 245              	.LVL45:
 246 00a6 54A9     		add	r1, sp, #336
 247 00a8 C1E90034 		strd	r3, [r1]
 248              	.LVL46:
  98:..\fips202.c  ****   Ame = state[16];
 249              		.loc 1 98 0
 250 00ac 1346     		mov	r3, r2
 251              	.LVL47:
 252 00ae D2E92012 		ldrd	r1, [r2, #128]
 253 00b2 56A8     		add	r0, sp, #344
 254 00b4 C0E90012 		strd	r1, [r0]
 255              	.LVL48:
  99:..\fips202.c  ****   Ami = state[17];
 256              		.loc 1 99 0
 257 00b8 1A46     		mov	r2, r3
 258 00ba D3E92234 		ldrd	r3, [r3, #136]
 259 00be 58A9     		add	r1, sp, #352
 260              	.LVL49:
 261 00c0 C1E90034 		strd	r3, [r1]
 262              	.LVL50:
 100:..\fips202.c  ****   Amo = state[18];
 263              		.loc 1 100 0
 264 00c4 D2E92434 		ldrd	r3, [r2, #144]
 265              	.LVL51:
 266 00c8 5AA9     		add	r1, sp, #360
 267 00ca C1E90034 		strd	r3, [r1]
 268              	.LVL52:
 101:..\fips202.c  ****   Amu = state[19];
 269              		.loc 1 101 0
 270 00ce 1346     		mov	r3, r2
 271              	.LVL53:
 272 00d0 D2E92612 		ldrd	r1, [r2, #152]
 273 00d4 5CA8     		add	r0, sp, #368
 274 00d6 C0E90012 		strd	r1, [r0]
 275              	.LVL54:
 102:..\fips202.c  ****   Asa = state[20];
 276              		.loc 1 102 0
 277 00da 1A46     		mov	r2, r3
 278 00dc D3E92834 		ldrd	r3, [r3, #160]
 279 00e0 5EA9     		add	r1, sp, #376
 280              	.LVL55:
 281 00e2 C1E90034 		strd	r3, [r1]
 282              	.LVL56:
 103:..\fips202.c  ****   Ase = state[21];
 283              		.loc 1 103 0
 284 00e6 D2E92A34 		ldrd	r3, [r2, #168]
 285              	.LVL57:
 286 00ea 60A9     		add	r1, sp, #384
 287 00ec C1E90034 		strd	r3, [r1]
 288              	.LVL58:
 104:..\fips202.c  ****   Asi = state[22];
 289              		.loc 1 104 0
 290 00f0 1346     		mov	r3, r2
ARM GAS  C:\Users\bogur\AppData\Local\Temp\ccXFXavo.s 			page 8


 291              	.LVL59:
 292 00f2 D2E92C12 		ldrd	r1, [r2, #176]
 293 00f6 62A8     		add	r0, sp, #392
 294 00f8 C0E90012 		strd	r1, [r0]
 295              	.LVL60:
 105:..\fips202.c  ****   Aso = state[23];
 296              		.loc 1 105 0
 297 00fc 1A46     		mov	r2, r3
 298 00fe D3E92E34 		ldrd	r3, [r3, #184]
 299 0102 64A9     		add	r1, sp, #400
 300              	.LVL61:
 301 0104 C1E90034 		strd	r3, [r1]
 302              	.LVL62:
 106:..\fips202.c  ****   Asu = state[24];
 303              		.loc 1 106 0
 304 0108 D2E93034 		ldrd	r3, [r2, #192]
 305              	.LVL63:
 107:..\fips202.c  **** 
 108:..\fips202.c  ****   for (round = 0; round < NROUNDS; round += 2)
 306              		.loc 1 108 0
 307 010c 4FF0000C 		mov	ip, #0
 308 0110 66AA     		add	r2, sp, #408
 309              	.LVL64:
 310 0112 C2E90034 		strd	r3, [r2]
 311 0116 01F057B8 		b	.L9
 312              	.LVL65:
 313              	.L10:
 109:..\fips202.c  ****   {
 110:..\fips202.c  ****     //    prepareTheta
 111:..\fips202.c  ****     BCa = Aba ^ Aga ^ Aka ^ Ama ^ Asa;
 314              		.loc 1 111 0 discriminator 3
 315 011a DDE92E89 		ldrd	r8, [sp, #184]
 316 011e 40AB     		add	r3, sp, #256
 317              	.LVL66:
 318 0120 D3E90034 		ldrd	r3, [r3]
 319              	.LVL67:
 320 0124 88EA0308 		eor	r8, r8, r3
 321 0128 89EA0409 		eor	r9, r9, r4
 322 012c 4AAB     		add	r3, sp, #296
 323              	.LVL68:
 324 012e D3E90034 		ldrd	r3, [r3]
 325              	.LVL69:
 326 0132 83EA0803 		eor	r3, r3, r8
 327 0136 84EA0904 		eor	r4, r4, r9
 328 013a 9846     		mov	r8, r3
 329 013c 54AB     		add	r3, sp, #336
 330              	.LVL70:
 331 013e D3E90023 		ldrd	r2, [r3]
 332 0142 82EA0802 		eor	r2, r2, r8
 333 0146 6340     		eors	r3, r3, r4
 334              	.LVL71:
 335 0148 9046     		mov	r8, r2
 336 014a 9946     		mov	r9, r3
 337 014c 5EAB     		add	r3, sp, #376
 338              	.LVL72:
 339 014e D3E90012 		ldrd	r1, [r3]
 340 0152 81EA0801 		eor	r1, r1, r8
ARM GAS  C:\Users\bogur\AppData\Local\Temp\ccXFXavo.s 			page 9


 341 0156 82EA0902 		eor	r2, r2, r9
 342 015a 8846     		mov	r8, r1
 343 015c 9146     		mov	r9, r2
 344              	.LVL73:
 112:..\fips202.c  ****     BCe = Abe ^ Age ^ Ake ^ Ame ^ Ase;
 345              		.loc 1 112 0 discriminator 3
 346 015e DDE93867 		ldrd	r6, [sp, #224]
 347 0162 42AB     		add	r3, sp, #264
 348              	.LVL74:
 349 0164 D3E90001 		ldrd	r0, [r3]
 350 0168 4640     		eors	r6, r6, r0
 351 016a 4F40     		eors	r7, r7, r1
 352 016c 4CAB     		add	r3, sp, #304
 353              	.LVL75:
 354 016e D3E90001 		ldrd	r0, [r3]
 355 0172 7040     		eors	r0, r0, r6
 356 0174 7940     		eors	r1, r1, r7
 357 0176 56AB     		add	r3, sp, #344
 358              	.LVL76:
 359 0178 D3E90045 		ldrd	r4, [r3]
 360 017c 4440     		eors	r4, r4, r0
 361 017e 4D40     		eors	r5, r5, r1
 362 0180 2646     		mov	r6, r4
 363 0182 60AB     		add	r3, sp, #384
 364              	.LVL77:
 365 0184 D3E90034 		ldrd	r3, [r3]
 366              	.LVL78:
 367 0188 7340     		eors	r3, r3, r6
 368 018a 6C40     		eors	r4, r4, r5
 369 018c 1E46     		mov	r6, r3
 370 018e 2746     		mov	r7, r4
 371              	.LVL79:
 113:..\fips202.c  ****     BCi = Abi ^ Agi ^ Aki ^ Ami ^ Asi;
 372              		.loc 1 113 0 discriminator 3
 373 0190 DDE93A01 		ldrd	r0, [sp, #232]
 374 0194 44AB     		add	r3, sp, #272
 375              	.LVL80:
 376 0196 D3E90045 		ldrd	r4, [r3]
 377 019a 6040     		eors	r0, r0, r4
 378 019c 6940     		eors	r1, r1, r5
 379 019e 4EAB     		add	r3, sp, #312
 380              	.LVL81:
 381 01a0 D3E90045 		ldrd	r4, [r3]
 382 01a4 4440     		eors	r4, r4, r0
 383 01a6 4D40     		eors	r5, r5, r1
 384 01a8 2046     		mov	r0, r4
 385 01aa 58AB     		add	r3, sp, #352
 386              	.LVL82:
 387 01ac D3E90034 		ldrd	r3, [r3]
 388              	.LVL83:
 389 01b0 4340     		eors	r3, r3, r0
 390 01b2 6C40     		eors	r4, r4, r5
 391 01b4 1846     		mov	r0, r3
 392 01b6 2146     		mov	r1, r4
 393 01b8 62AB     		add	r3, sp, #392
 394              	.LVL84:
 395 01ba D3E90045 		ldrd	r4, [r3]
ARM GAS  C:\Users\bogur\AppData\Local\Temp\ccXFXavo.s 			page 10


 396 01be 4440     		eors	r4, r4, r0
 397 01c0 4D40     		eors	r5, r5, r1
 398 01c2 2046     		mov	r0, r4
 399 01c4 2946     		mov	r1, r5
 400              	.LVL85:
 114:..\fips202.c  ****     BCo = Abo ^ Ago ^ Ako ^ Amo ^ Aso;
 401              		.loc 1 114 0 discriminator 3
 402 01c6 DDE93C23 		ldrd	r2, [sp, #240]
 403 01ca 46AC     		add	r4, sp, #280
 404              	.LVL86:
 405 01cc D4E90045 		ldrd	r4, [r4]
 406              	.LVL87:
 407 01d0 6240     		eors	r2, r2, r4
 408 01d2 6B40     		eors	r3, r3, r5
 409              	.LVL88:
 410 01d4 50AC     		add	r4, sp, #320
 411              	.LVL89:
 412 01d6 D4E90045 		ldrd	r4, [r4]
 413              	.LVL90:
 414 01da 5440     		eors	r4, r4, r2
 415 01dc 5D40     		eors	r5, r5, r3
 416 01de 2246     		mov	r2, r4
 417 01e0 2B46     		mov	r3, r5
 418 01e2 5AAC     		add	r4, sp, #360
 419              	.LVL91:
 420 01e4 D4E90045 		ldrd	r4, [r4]
 421              	.LVL92:
 422 01e8 5440     		eors	r4, r4, r2
 423 01ea 5D40     		eors	r5, r5, r3
 424 01ec 2246     		mov	r2, r4
 425 01ee 2B46     		mov	r3, r5
 426 01f0 64AC     		add	r4, sp, #400
 427              	.LVL93:
 428 01f2 D4E90045 		ldrd	r4, [r4]
 429              	.LVL94:
 430 01f6 5440     		eors	r4, r4, r2
 431 01f8 5D40     		eors	r5, r5, r3
 432 01fa CDE90645 		strd	r4, [sp, #24]
 433              	.LVL95:
 115:..\fips202.c  ****     BCu = Abu ^ Agu ^ Aku ^ Amu ^ Asu;
 434              		.loc 1 115 0 discriminator 3
 435 01fe DDE93E34 		ldrd	r3, [sp, #248]
 436 0202 48AA     		add	r2, sp, #288
 437              	.LVL96:
 438 0204 D2E900AB 		ldrd	r10, [r2]
 439 0208 83EA0A03 		eor	r3, r3, r10
 440 020c 84EA0B04 		eor	r4, r4, fp
 441              	.LVL97:
 442 0210 2546     		mov	r5, r4
 443 0212 1C46     		mov	r4, r3
 444 0214 52AB     		add	r3, sp, #328
 445              	.LVL98:
 446 0216 D3E90023 		ldrd	r2, [r3]
 447              	.LVL99:
 448 021a 6240     		eors	r2, r2, r4
 449 021c 6B40     		eors	r3, r3, r5
 450              	.LVL100:
ARM GAS  C:\Users\bogur\AppData\Local\Temp\ccXFXavo.s 			page 11


 451 021e 1446     		mov	r4, r2
 452 0220 1D46     		mov	r5, r3
 453 0222 5CAB     		add	r3, sp, #368
 454              	.LVL101:
 455 0224 D3E90023 		ldrd	r2, [r3]
 456 0228 6240     		eors	r2, r2, r4
 457 022a 6B40     		eors	r3, r3, r5
 458              	.LVL102:
 459 022c 1446     		mov	r4, r2
 460 022e 1D46     		mov	r5, r3
 461 0230 66AB     		add	r3, sp, #408
 462              	.LVL103:
 463 0232 D3E90023 		ldrd	r2, [r3]
 464 0236 6240     		eors	r2, r2, r4
 465 0238 6B40     		eors	r3, r3, r5
 466              	.LVL104:
 467 023a 1446     		mov	r4, r2
 468 023c 1D46     		mov	r5, r3
 469              	.LVL105:
 116:..\fips202.c  **** 
 117:..\fips202.c  ****     //thetaRhoPiChiIotaPrepareTheta(round  , A, E)
 118:..\fips202.c  ****     Da = BCu ^ ROL(BCe, 1);
 470              		.loc 1 118 0 discriminator 3
 471 023e 4FEA470E 		lsl	lr, r7, #1
 472 0242 4EEAD67E 		orr	lr, lr, r6, lsr #31
 473 0246 CDF8A4E1 		str	lr, [sp, #420]
 474 024a 4FEA460E 		lsl	lr, r6, #1
 475 024e 4EEAD77E 		orr	lr, lr, r7, lsr #31
 476 0252 CDF8A0E1 		str	lr, [sp, #416]
 477 0256 68AB     		add	r3, sp, #416
 478 0258 D3E90023 		ldrd	r2, [r3]
 479 025c 6240     		eors	r2, r2, r4
 480 025e 6B40     		eors	r3, r3, r5
 481 0260 CDE90023 		strd	r2, [sp]
 482              	.LVL106:
 119:..\fips202.c  ****     De = BCa ^ ROL(BCi, 1);
 483              		.loc 1 119 0 discriminator 3
 484 0264 4FEA410E 		lsl	lr, r1, #1
 485 0268 4EEAD07E 		orr	lr, lr, r0, lsr #31
 486 026c CDF8ACE1 		str	lr, [sp, #428]
 487 0270 4FEA400E 		lsl	lr, r0, #1
 488 0274 4EEAD17E 		orr	lr, lr, r1, lsr #31
 489 0278 CDF8A8E1 		str	lr, [sp, #424]
 490 027c 6AAB     		add	r3, sp, #424
 491 027e D3E90023 		ldrd	r2, [r3]
 492              	.LVL107:
 493 0282 82EA0802 		eor	r2, r2, r8
 494 0286 83EA0903 		eor	r3, r3, r9
 495 028a CDE90223 		strd	r2, [sp, #8]
 496              	.LVL108:
 120:..\fips202.c  ****     Di = BCe ^ ROL(BCo, 1);
 497              		.loc 1 120 0 discriminator 3
 498 028e DDE906AB 		ldrd	r10, [sp, #24]
 499 0292 4FEA4B0E 		lsl	lr, fp, #1
 500 0296 4EEADA7E 		orr	lr, lr, r10, lsr #31
 501 029a CDF8B4E1 		str	lr, [sp, #436]
 502 029e 4FEA4A0E 		lsl	lr, r10, #1
ARM GAS  C:\Users\bogur\AppData\Local\Temp\ccXFXavo.s 			page 12


 503 02a2 4EEADB7E 		orr	lr, lr, fp, lsr #31
 504 02a6 CDF8B0E1 		str	lr, [sp, #432]
 505 02aa 6CAB     		add	r3, sp, #432
 506 02ac D3E900AB 		ldrd	r10, [r3]
 507 02b0 8AEA060A 		eor	r10, r10, r6
 508 02b4 8BEA070B 		eor	fp, fp, r7
 509 02b8 CDE904AB 		strd	r10, [sp, #16]
 510              	.LVL109:
 121:..\fips202.c  ****     Do = BCi ^ ROL(BCu, 1);
 511              		.loc 1 121 0 discriminator 3
 512 02bc 4FEA450E 		lsl	lr, r5, #1
 513 02c0 4EEAD47E 		orr	lr, lr, r4, lsr #31
 514 02c4 CDF8BCE1 		str	lr, [sp, #444]
 515 02c8 6400     		lsls	r4, r4, #1
 516              	.LVL110:
 517 02ca 44EAD57E 		orr	lr, r4, r5, lsr #31
 518 02ce CDF8B8E1 		str	lr, [sp, #440]
 519 02d2 6EAB     		add	r3, sp, #440
 520 02d4 D3E90045 		ldrd	r4, [r3]
 521 02d8 4440     		eors	r4, r4, r0
 522 02da 4D40     		eors	r5, r5, r1
 523 02dc 2E46     		mov	r6, r5
 524              	.LVL111:
 525 02de 2546     		mov	r5, r4
 526              	.LVL112:
 122:..\fips202.c  ****     Du = BCo ^ ROL(BCa, 1);
 527              		.loc 1 122 0 discriminator 3
 528 02e0 4FEA4901 		lsl	r1, r9, #1
 529 02e4 41EAD87E 		orr	lr, r1, r8, lsr #31
 530 02e8 CDF8C4E1 		str	lr, [sp, #452]
 531 02ec 4FEA4801 		lsl	r1, r8, #1
 532 02f0 41EAD97E 		orr	lr, r1, r9, lsr #31
 533 02f4 CDF8C0E1 		str	lr, [sp, #448]
 534 02f8 70AB     		add	r3, sp, #448
 535 02fa D3E9009A 		ldrd	r9, [r3]
 536 02fe DDE90623 		ldrd	r2, [sp, #24]
 537              	.LVL113:
 538 0302 82EA0902 		eor	r2, r2, r9
 539 0306 83EA0A03 		eor	r3, r3, r10
 540 030a 9B46     		mov	fp, r3
 541 030c 9246     		mov	r10, r2
 542              	.LVL114:
 123:..\fips202.c  **** 
 124:..\fips202.c  ****     Aba ^= Da;
 543              		.loc 1 124 0 discriminator 3
 544 030e DDE92E89 		ldrd	r8, [sp, #184]
 545              	.LVL115:
 546 0312 DDE90034 		ldrd	r3, [sp]
 547 0316 88EA0308 		eor	r8, r8, r3
 548 031a 89EA0409 		eor	r9, r9, r4
 549 031e 72AB     		add	r3, sp, #456
 550 0320 C3E90089 		strd	r8, [r3]
 551              	.LVL116:
 125:..\fips202.c  ****     BCa = Aba;
 126:..\fips202.c  ****     Age ^= De;
 552              		.loc 1 126 0 discriminator 3
 553 0324 42AB     		add	r3, sp, #264
ARM GAS  C:\Users\bogur\AppData\Local\Temp\ccXFXavo.s 			page 13


 554              	.LVL117:
 555 0326 D3E90089 		ldrd	r8, [r3]
 556              	.LVL118:
 557 032a DDE90223 		ldrd	r2, [sp, #8]
 558 032e 88EA0208 		eor	r8, r8, r2
 559 0332 89EA0309 		eor	r9, r9, r3
 560 0336 4046     		mov	r0, r8
 561              	.LVL119:
 562 0338 4946     		mov	r1, r9
 563              	.LVL120:
 127:..\fips202.c  ****     BCe = ROL(Age, 44);
 564              		.loc 1 127 0 discriminator 3
 565 033a 040D     		lsrs	r4, r0, #20
 566 033c 44EA093E 		orr	lr, r4, r9, lsl #12
 567 0340 CDF8D0E1 		str	lr, [sp, #464]
 568 0344 090D     		lsrs	r1, r1, #20
 569 0346 41EA083E 		orr	lr, r1, r8, lsl #12
 570 034a CDF8D4E1 		str	lr, [sp, #468]
 571              	.LVL121:
 128:..\fips202.c  ****     Aki ^= Di;
 572              		.loc 1 128 0 discriminator 3
 573 034e 4EAB     		add	r3, sp, #312
 574              	.LVL122:
 575 0350 D3E90001 		ldrd	r0, [r3]
 576              	.LVL123:
 577 0354 DDE90434 		ldrd	r3, [sp, #16]
 578              	.LVL124:
 579 0358 4340     		eors	r3, r3, r0
 580 035a 4C40     		eors	r4, r4, r1
 581 035c 2146     		mov	r1, r4
 582              	.LVL125:
 129:..\fips202.c  ****     BCi = ROL(Aki, 43);
 583              		.loc 1 129 0 discriminator 3
 584 035e 5C0D     		lsrs	r4, r3, #21
 585 0360 44EAC12E 		orr	lr, r4, r1, lsl #11
 586 0364 CDF8D8E1 		str	lr, [sp, #472]
 587 0368 490D     		lsrs	r1, r1, #21
 588 036a 41EAC32E 		orr	lr, r1, r3, lsl #11
 589 036e CDF8DCE1 		str	lr, [sp, #476]
 590              	.LVL126:
 130:..\fips202.c  ****     Amo ^= Do;
 591              		.loc 1 130 0 discriminator 3
 592 0372 5AAB     		add	r3, sp, #360
 593              	.LVL127:
 594 0374 D3E90001 		ldrd	r0, [r3]
 595 0378 CDE92E56 		strd	r5, [sp, #184]
 596 037c 6840     		eors	r0, r0, r5
 597 037e 7140     		eors	r1, r1, r6
 598              	.LVL128:
 131:..\fips202.c  ****     BCo = ROL(Amo, 21);
 599              		.loc 1 131 0 discriminator 3
 600 0380 4C05     		lsls	r4, r1, #21
 601 0382 44EAD02E 		orr	lr, r4, r0, lsr #11
 602 0386 CDF8E4E1 		str	lr, [sp, #484]
 603 038a 4005     		lsls	r0, r0, #21
 604              	.LVL129:
 605 038c 40EAD12E 		orr	lr, r0, r1, lsr #11
ARM GAS  C:\Users\bogur\AppData\Local\Temp\ccXFXavo.s 			page 14


 606 0390 CDF8E0E1 		str	lr, [sp, #480]
 607              	.LVL130:
 132:..\fips202.c  ****     Asu ^= Du;
 608              		.loc 1 132 0 discriminator 3
 609 0394 66AB     		add	r3, sp, #408
 610 0396 D3E90045 		ldrd	r4, [r3]
 611 039a CDE906AB 		strd	r10, [sp, #24]
 612 039e 5246     		mov	r2, r10
 613 03a0 5B46     		mov	r3, fp
 614 03a2 5440     		eors	r4, r4, r2
 615 03a4 5D40     		eors	r5, r5, r3
 616              	.LVL131:
 133:..\fips202.c  ****     BCu = ROL(Asu, 14);
 617              		.loc 1 133 0 discriminator 3
 618 03a6 A903     		lsls	r1, r5, #14
 619 03a8 41EA944E 		orr	lr, r1, r4, lsr #18
 620 03ac CDF8ECE1 		str	lr, [sp, #492]
 621 03b0 A103     		lsls	r1, r4, #14
 622 03b2 41EA954E 		orr	lr, r1, r5, lsr #18
 623 03b6 CDF8E8E1 		str	lr, [sp, #488]
 624              	.LVL132:
 134:..\fips202.c  ****     Eba = BCa ^ ((~BCe) & BCi);
 625              		.loc 1 134 0 discriminator 3
 626 03ba 74AB     		add	r3, sp, #464
 627              	.LVL133:
 628 03bc D3E900AB 		ldrd	r10, [r3]
 629              	.LVL134:
 630 03c0 76AB     		add	r3, sp, #472
 631              	.LVL135:
 632 03c2 D3E90023 		ldrd	r2, [r3]
 633 03c6 22EA0A00 		bic	r0, r2, r10
 634 03ca 23EA0B01 		bic	r1, r3, fp
 635 03ce 72AC     		add	r4, sp, #456
 636              	.LVL136:
 637 03d0 D4E90056 		ldrd	r5, [r4]
 638 03d4 4540     		eors	r5, r5, r0
 639 03d6 4E40     		eors	r6, r6, r1
 640 03d8 2846     		mov	r0, r5
 135:..\fips202.c  ****     Eba ^= (uint64_t)KeccakF_RoundConstants[round];
 641              		.loc 1 135 0 discriminator 3
 642 03da DFF894EB 		ldr	lr, .L12
 643 03de 0EEBCC04 		add	r4, lr, ip, lsl #3
 644              	.LVL137:
 645 03e2 D4E90045 		ldrd	r4, [r4]
 646 03e6 80EA0408 		eor	r8, r0, r4
 647 03ea 86EA0509 		eor	r9, r6, r5
 648 03ee 42A9     		add	r1, sp, #264
 649 03f0 C1E90089 		strd	r8, [r1]
 650              	.LVL138:
 136:..\fips202.c  ****     Ebe = BCe ^ ((~BCi) & BCo);
 651              		.loc 1 136 0 discriminator 3
 652 03f4 78A9     		add	r1, sp, #480
 653              	.LVL139:
 654 03f6 D1E90067 		ldrd	r6, [r1]
 655 03fa 26EA0200 		bic	r0, r6, r2
 656 03fe 27EA0301 		bic	r1, r7, r3
 657              	.LVL140:
ARM GAS  C:\Users\bogur\AppData\Local\Temp\ccXFXavo.s 			page 15


 658 0402 5446     		mov	r4, r10
 659 0404 5D46     		mov	r5, fp
 660 0406 4440     		eors	r4, r4, r0
 661 0408 4D40     		eors	r5, r5, r1
 662 040a 4EA9     		add	r1, sp, #312
 663 040c C1E90045 		strd	r4, [r1]
 664              	.LVL141:
 137:..\fips202.c  ****     Ebi = BCi ^ ((~BCo) & BCu);
 665              		.loc 1 137 0 discriminator 3
 666 0410 7AAC     		add	r4, sp, #488
 667              	.LVL142:
 668 0412 D4E90089 		ldrd	r8, [r4]
 669              	.LVL143:
 670 0416 28EA0600 		bic	r0, r8, r6
 671 041a 29EA0701 		bic	r1, r9, r7
 672              	.LVL144:
 673 041e 4240     		eors	r2, r2, r0
 674 0420 4B40     		eors	r3, r3, r1
 675              	.LVL145:
 676 0422 66A9     		add	r1, sp, #408
 677 0424 C1E90023 		strd	r2, [r1]
 678              	.LVL146:
 138:..\fips202.c  ****     Ebo = BCo ^ ((~BCu) & BCa);
 679              		.loc 1 138 0 discriminator 3
 680 0428 72AB     		add	r3, sp, #456
 681              	.LVL147:
 682 042a D3E90023 		ldrd	r2, [r3]
 683              	.LVL148:
 684 042e 22EA0804 		bic	r4, r2, r8
 685              	.LVL149:
 686 0432 23EA0905 		bic	r5, r3, r9
 687 0436 6640     		eors	r6, r6, r4
 688              	.LVL150:
 689 0438 6F40     		eors	r7, r7, r5
 690 043a 5AA9     		add	r1, sp, #360
 691 043c C1E90067 		strd	r6, [r1]
 692              	.LVL151:
 139:..\fips202.c  ****     Ebu = BCu ^ ((~BCa) & BCe);
 693              		.loc 1 139 0 discriminator 3
 694 0440 1146     		mov	r1, r2
 695 0442 2AEA0101 		bic	r1, r10, r1
 696 0446 2BEA0302 		bic	r2, fp, r3
 697 044a 9346     		mov	fp, r2
 698 044c 0A46     		mov	r2, r1
 699 044e 5B46     		mov	r3, fp
 700              	.LVL152:
 701 0450 4046     		mov	r0, r8
 702 0452 4946     		mov	r1, r9
 703 0454 5040     		eors	r0, r0, r2
 704 0456 5940     		eors	r1, r1, r3
 705 0458 72AB     		add	r3, sp, #456
 706 045a C3E90001 		strd	r0, [r3]
 707              	.LVL153:
 140:..\fips202.c  **** 
 141:..\fips202.c  ****     Abo ^= Do;
 708              		.loc 1 141 0 discriminator 3
 709 045e DDE93CAB 		ldrd	r10, [sp, #240]
ARM GAS  C:\Users\bogur\AppData\Local\Temp\ccXFXavo.s 			page 16


 710              	.LVL154:
 711 0462 DDE92E56 		ldrd	r5, [sp, #184]
 712 0466 8AEA050A 		eor	r10, r10, r5
 713 046a 8BEA060B 		eor	fp, fp, r6
 714 046e 5246     		mov	r2, r10
 715 0470 5B46     		mov	r3, fp
 716              	.LVL155:
 142:..\fips202.c  ****     BCa = ROL(Abo, 28);
 717              		.loc 1 142 0 discriminator 3
 718 0472 1907     		lsls	r1, r3, #28
 719 0474 41EA1A1B 		orr	fp, r1, r10, lsr #4
 720 0478 CDF8F4B1 		str	fp, [sp, #500]
 721 047c 1207     		lsls	r2, r2, #28
 722              	.LVL156:
 723 047e 42EA131B 		orr	fp, r2, r3, lsr #4
 724 0482 CDF8F0B1 		str	fp, [sp, #496]
 725              	.LVL157:
 143:..\fips202.c  ****     Agu ^= Du;
 726              		.loc 1 143 0 discriminator 3
 727 0486 48AB     		add	r3, sp, #288
 728              	.LVL158:
 729 0488 D3E900AB 		ldrd	r10, [r3]
 730 048c DDE90623 		ldrd	r2, [sp, #24]
 731 0490 82EA0A02 		eor	r2, r2, r10
 732 0494 83EA0B03 		eor	r3, r3, fp
 733              	.LVL159:
 144:..\fips202.c  ****     BCe = ROL(Agu, 20);
 734              		.loc 1 144 0 discriminator 3
 735 0498 1905     		lsls	r1, r3, #20
 736 049a 41EA123B 		orr	fp, r1, r2, lsr #12
 737 049e CDF824B0 		str	fp, [sp, #36]
 738 04a2 1205     		lsls	r2, r2, #20
 739              	.LVL160:
 740 04a4 42EA133B 		orr	fp, r2, r3, lsr #12
 741 04a8 CDF820B0 		str	fp, [sp, #32]
 742              	.LVL161:
 145:..\fips202.c  ****     Aka ^= Da;
 743              		.loc 1 145 0 discriminator 3
 744 04ac 4AAB     		add	r3, sp, #296
 745              	.LVL162:
 746 04ae D3E90078 		ldrd	r7, [r3]
 747 04b2 DDE90045 		ldrd	r4, [sp]
 748 04b6 6740     		eors	r7, r7, r4
 749 04b8 88EA0508 		eor	r8, r8, r5
 750              	.LVL163:
 751 04bc 4346     		mov	r3, r8
 752              	.LVL164:
 146:..\fips202.c  ****     BCi = ROL(Aka, 3);
 753              		.loc 1 146 0 discriminator 3
 754 04be D900     		lsls	r1, r3, #3
 755 04c0 41EA577B 		orr	fp, r1, r7, lsr #29
 756 04c4 CDF82CB0 		str	fp, [sp, #44]
 757 04c8 FA00     		lsls	r2, r7, #3
 758 04ca 42EA587B 		orr	fp, r2, r8, lsr #29
 759 04ce CDF828B0 		str	fp, [sp, #40]
 760              	.LVL165:
 147:..\fips202.c  ****     Ame ^= De;
ARM GAS  C:\Users\bogur\AppData\Local\Temp\ccXFXavo.s 			page 17


 761              		.loc 1 147 0 discriminator 3
 762 04d2 56AB     		add	r3, sp, #344
 763              	.LVL166:
 764 04d4 D3E90089 		ldrd	r8, [r3]
 765 04d8 DDE90212 		ldrd	r1, [sp, #8]
 766 04dc 88EA0108 		eor	r8, r8, r1
 767 04e0 89EA0209 		eor	r9, r9, r2
 768 04e4 4246     		mov	r2, r8
 769 04e6 4B46     		mov	r3, r9
 770              	.LVL167:
 148:..\fips202.c  ****     BCo = ROL(Ame, 45);
 771              		.loc 1 148 0 discriminator 3
 772 04e8 D10C     		lsrs	r1, r2, #19
 773 04ea 41EA493B 		orr	fp, r1, r9, lsl #13
 774 04ee CDF8F8B1 		str	fp, [sp, #504]
 775 04f2 DB0C     		lsrs	r3, r3, #19
 776 04f4 43EA483B 		orr	fp, r3, r8, lsl #13
 777 04f8 CDF8FCB1 		str	fp, [sp, #508]
 778              	.LVL168:
 149:..\fips202.c  ****     Asi ^= Di;
 779              		.loc 1 149 0 discriminator 3
 780 04fc 62AB     		add	r3, sp, #392
 781 04fe D3E90089 		ldrd	r8, [r3]
 782 0502 DDE90401 		ldrd	r0, [sp, #16]
 783              	.LVL169:
 784 0506 80EA0800 		eor	r0, r0, r8
 785 050a 81EA0901 		eor	r1, r1, r9
 786 050e 8946     		mov	r9, r1
 787 0510 0B46     		mov	r3, r1
 788              	.LVL170:
 150:..\fips202.c  ****     BCu = ROL(Asi, 61);
 789              		.loc 1 150 0 discriminator 3
 790 0512 C108     		lsrs	r1, r0, #3
 791 0514 41EA497B 		orr	fp, r1, r9, lsl #29
 792 0518 CDF830B0 		str	fp, [sp, #48]
 793 051c DB08     		lsrs	r3, r3, #3
 794 051e 43EA407B 		orr	fp, r3, r0, lsl #29
 795 0522 CDF834B0 		str	fp, [sp, #52]
 796              	.LVL171:
 151:..\fips202.c  ****     Ega = BCa ^ ((~BCe) & BCi);
 797              		.loc 1 151 0 discriminator 3
 798 0526 DDE90812 		ldrd	r1, [sp, #32]
 799 052a DDE90A78 		ldrd	r7, [sp, #40]
 800 052e 27EA0101 		bic	r1, r7, r1
 801 0532 28EA0202 		bic	r2, r8, r2
 802              	.LVL172:
 803 0536 1346     		mov	r3, r2
 804 0538 0A46     		mov	r2, r1
 805 053a 7CA9     		add	r1, sp, #496
 806              	.LVL173:
 807 053c D1E9009A 		ldrd	r9, [r1]
 808 0540 4F46     		mov	r7, r9
 809 0542 5740     		eors	r7, r7, r2
 810 0544 8AEA0308 		eor	r8, r10, r3
 811 0548 56AB     		add	r3, sp, #344
 812 054a C3E90078 		strd	r7, [r3]
 813              	.LVL174:
ARM GAS  C:\Users\bogur\AppData\Local\Temp\ccXFXavo.s 			page 18


 152:..\fips202.c  ****     Ege = BCe ^ ((~BCi) & BCo);
 814              		.loc 1 152 0 discriminator 3
 815 054e 7EAB     		add	r3, sp, #504
 816              	.LVL175:
 817 0550 D3E90067 		ldrd	r6, [r3]
 818              	.LVL176:
 819 0554 DDE90A01 		ldrd	r0, [sp, #40]
 820 0558 26EA0002 		bic	r2, r6, r0
 821 055c 27EA0103 		bic	r3, r7, r1
 822              	.LVL177:
 823 0560 DDE90801 		ldrd	r0, [sp, #32]
 824 0564 5040     		eors	r0, r0, r2
 825 0566 5940     		eors	r1, r1, r3
 826              	.LVL178:
 827 0568 CDE93C01 		strd	r0, [sp, #240]
 828              	.LVL179:
 153:..\fips202.c  ****     Egi = BCi ^ ((~BCo) & BCu);
 829              		.loc 1 153 0 discriminator 3
 830 056c DDE90C01 		ldrd	r0, [sp, #48]
 831              	.LVL180:
 832 0570 20EA0602 		bic	r2, r0, r6
 833 0574 21EA0703 		bic	r3, r1, r7
 834 0578 DDE90A01 		ldrd	r0, [sp, #40]
 835 057c 5040     		eors	r0, r0, r2
 836 057e 5940     		eors	r1, r1, r3
 837 0580 4AAB     		add	r3, sp, #296
 838 0582 C3E90001 		strd	r0, [r3]
 839              	.LVL181:
 154:..\fips202.c  ****     Ego = BCo ^ ((~BCu) & BCa);
 840              		.loc 1 154 0 discriminator 3
 841 0586 C846     		mov	r8, r9
 842 0588 D146     		mov	r9, r10
 843              	.LVL182:
 844 058a DDE90CAB 		ldrd	r10, [sp, #48]
 845 058e 28EA0A01 		bic	r1, r8, r10
 846 0592 29EA0B02 		bic	r2, r9, fp
 847 0596 0846     		mov	r0, r1
 848              	.LVL183:
 849 0598 86EA000A 		eor	r10, r6, r0
 850 059c 87EA020B 		eor	fp, r7, r2
 851 05a0 62AB     		add	r3, sp, #392
 852              	.LVL184:
 853 05a2 C3E900AB 		strd	r10, [r3]
 854              	.LVL185:
 155:..\fips202.c  ****     Egu = BCu ^ ((~BCa) & BCe);
 855              		.loc 1 155 0 discriminator 3
 856 05a6 4146     		mov	r1, r8
 857 05a8 4A46     		mov	r2, r9
 858 05aa DDE90889 		ldrd	r8, [sp, #32]
 859 05ae 28EA0101 		bic	r1, r8, r1
 860 05b2 29EA0202 		bic	r2, r9, r2
 861 05b6 1346     		mov	r3, r2
 862 05b8 DDE90C89 		ldrd	r8, [sp, #48]
 863 05bc 88EA0108 		eor	r8, r8, r1
 864 05c0 89EA0309 		eor	r9, r9, r3
 865 05c4 48AB     		add	r3, sp, #288
 866 05c6 C3E90089 		strd	r8, [r3]
ARM GAS  C:\Users\bogur\AppData\Local\Temp\ccXFXavo.s 			page 19


 867              	.LVL186:
 156:..\fips202.c  **** 
 157:..\fips202.c  ****     Abe ^= De;
 868              		.loc 1 157 0 discriminator 3
 869 05ca DDE93867 		ldrd	r6, [sp, #224]
 870              	.LVL187:
 871 05ce DDE90289 		ldrd	r8, [sp, #8]
 872              	.LVL188:
 873 05d2 86EA0806 		eor	r6, r6, r8
 874 05d6 87EA0907 		eor	r7, r7, r9
 875              	.LVL189:
 158:..\fips202.c  ****     BCa = ROL(Abe, 1);
 876              		.loc 1 158 0 discriminator 3
 877 05da 7900     		lsls	r1, r7, #1
 878 05dc 41EAD67B 		orr	fp, r1, r6, lsr #31
 879 05e0 CDF8C4B0 		str	fp, [sp, #196]
 880 05e4 7200     		lsls	r2, r6, #1
 881 05e6 42EAD77B 		orr	fp, r2, r7, lsr #31
 882 05ea CDF8C0B0 		str	fp, [sp, #192]
 883              	.LVL190:
 159:..\fips202.c  ****     Agi ^= Di;
 884              		.loc 1 159 0 discriminator 3
 885 05ee 44AB     		add	r3, sp, #272
 886              	.LVL191:
 887 05f0 D3E9009A 		ldrd	r9, [r3]
 888 05f4 DDE90412 		ldrd	r1, [sp, #16]
 889 05f8 81EA0901 		eor	r1, r1, r9
 890 05fc 82EA0A02 		eor	r2, r2, r10
 891 0600 8946     		mov	r9, r1
 892 0602 9246     		mov	r10, r2
 893              	.LVL192:
 894 0604 0A46     		mov	r2, r1
 895 0606 5346     		mov	r3, r10
 896              	.LVL193:
 160:..\fips202.c  ****     BCe = ROL(Agi, 6);
 897              		.loc 1 160 0 discriminator 3
 898 0608 9901     		lsls	r1, r3, #6
 899 060a 41EA996B 		orr	fp, r1, r9, lsr #26
 900 060e CDF83CB0 		str	fp, [sp, #60]
 901 0612 9201     		lsls	r2, r2, #6
 902              	.LVL194:
 903 0614 42EA9A6B 		orr	fp, r2, r10, lsr #26
 904 0618 CDF838B0 		str	fp, [sp, #56]
 905              	.LVL195:
 161:..\fips202.c  ****     Ako ^= Do;
 906              		.loc 1 161 0 discriminator 3
 907 061c 50AB     		add	r3, sp, #320
 908              	.LVL196:
 909 061e D3E90067 		ldrd	r6, [r3]
 910 0622 DDE92E9A 		ldrd	r9, [sp, #184]
 911 0626 86EA0906 		eor	r6, r6, r9
 912 062a 87EA0A07 		eor	r7, r7, r10
 913              	.LVL197:
 162:..\fips202.c  ****     BCi = ROL(Ako, 25);
 914              		.loc 1 162 0 discriminator 3
 915 062e 7906     		lsls	r1, r7, #25
 916 0630 41EAD61B 		orr	fp, r1, r6, lsr #7
ARM GAS  C:\Users\bogur\AppData\Local\Temp\ccXFXavo.s 			page 20


 917 0634 CDF804B2 		str	fp, [sp, #516]
 918 0638 7206     		lsls	r2, r6, #25
 919 063a 42EAD71B 		orr	fp, r2, r7, lsr #7
 920 063e CDF800B2 		str	fp, [sp, #512]
 921              	.LVL198:
 163:..\fips202.c  ****     Amu ^= Du;
 922              		.loc 1 163 0 discriminator 3
 923 0642 5CAB     		add	r3, sp, #368
 924 0644 D3E900AB 		ldrd	r10, [r3]
 925 0648 DDE90667 		ldrd	r6, [sp, #24]
 926 064c 86EA0A06 		eor	r6, r6, r10
 927 0650 87EA0B07 		eor	r7, r7, fp
 928              	.LVL199:
 164:..\fips202.c  ****     BCo = ROL(Amu, 8);
 929              		.loc 1 164 0 discriminator 3
 930 0654 3902     		lsls	r1, r7, #8
 931 0656 41EA166B 		orr	fp, r1, r6, lsr #24
 932 065a CDF80CB2 		str	fp, [sp, #524]
 933 065e 3202     		lsls	r2, r6, #8
 934 0660 42EA176B 		orr	fp, r2, r7, lsr #24
 935 0664 CDF808B2 		str	fp, [sp, #520]
 936              	.LVL200:
 165:..\fips202.c  ****     Asa ^= Da;
 937              		.loc 1 165 0 discriminator 3
 938 0668 5EAB     		add	r3, sp, #376
 939              	.LVL201:
 940 066a D3E90078 		ldrd	r7, [r3]
 941 066e 2E46     		mov	r6, r5
 942 0670 6740     		eors	r7, r7, r4
 943 0672 88EA0608 		eor	r8, r8, r6
 944 0676 4346     		mov	r3, r8
 945              	.LVL202:
 166:..\fips202.c  ****     BCu = ROL(Asa, 18);
 946              		.loc 1 166 0 discriminator 3
 947 0678 9904     		lsls	r1, r3, #18
 948 067a 41EA973B 		orr	fp, r1, r7, lsr #14
 949 067e CDF814B2 		str	fp, [sp, #532]
 950 0682 BA04     		lsls	r2, r7, #18
 951 0684 42EA983B 		orr	fp, r2, r8, lsr #14
 952 0688 CDF810B2 		str	fp, [sp, #528]
 953              	.LVL203:
 167:..\fips202.c  ****     Eka = BCa ^ ((~BCe) & BCi);
 954              		.loc 1 167 0 discriminator 3
 955 068c DDE90E9A 		ldrd	r9, [sp, #56]
 956 0690 80A9     		add	r1, sp, #512
 957              	.LVL204:
 958 0692 D1E90067 		ldrd	r6, [r1]
 959 0696 26EA0902 		bic	r2, r6, r9
 960 069a 27EA0A03 		bic	r3, r7, r10
 961 069e DDE93001 		ldrd	r0, [sp, #192]
 962 06a2 5040     		eors	r0, r0, r2
 963 06a4 5940     		eors	r1, r1, r3
 964              	.LVL205:
 965 06a6 44AB     		add	r3, sp, #272
 966 06a8 C3E90001 		strd	r0, [r3]
 967              	.LVL206:
 168:..\fips202.c  ****     Eke = BCe ^ ((~BCi) & BCo);
ARM GAS  C:\Users\bogur\AppData\Local\Temp\ccXFXavo.s 			page 21


 968              		.loc 1 168 0 discriminator 3
 969 06ac 82AB     		add	r3, sp, #520
 970              	.LVL207:
 971 06ae D3E90045 		ldrd	r4, [r3]
 972 06b2 24EA0602 		bic	r2, r4, r6
 973 06b6 25EA0703 		bic	r3, r5, r7
 974              	.LVL208:
 975 06ba 89EA0209 		eor	r9, r9, r2
 976 06be 8AEA030A 		eor	r10, r10, r3
 977 06c2 5CAB     		add	r3, sp, #368
 978 06c4 C3E9009A 		strd	r9, [r3]
 979              	.LVL209:
 169:..\fips202.c  ****     Eki = BCi ^ ((~BCo) & BCu);
 980              		.loc 1 169 0 discriminator 3
 981 06c8 84AB     		add	r3, sp, #528
 982              	.LVL210:
 983 06ca D3E900AB 		ldrd	r10, [r3]
 984 06ce 2AEA0401 		bic	r1, r10, r4
 985 06d2 2BEA0502 		bic	r2, fp, r5
 986 06d6 1346     		mov	r3, r2
 987              	.LVL211:
 988 06d8 4E40     		eors	r6, r6, r1
 989              	.LVL212:
 990 06da 5F40     		eors	r7, r7, r3
 991 06dc CDE93867 		strd	r6, [sp, #224]
 992              	.LVL213:
 170:..\fips202.c  ****     Eko = BCo ^ ((~BCu) & BCa);
 993              		.loc 1 170 0 discriminator 3
 994 06e0 DDE93078 		ldrd	r7, [sp, #192]
 995 06e4 27EA0A02 		bic	r2, r7, r10
 996 06e8 28EA0B03 		bic	r3, r8, fp
 997 06ec 2046     		mov	r0, r4
 998              	.LVL214:
 999 06ee 2946     		mov	r1, r5
 1000 06f0 5040     		eors	r0, r0, r2
 1001 06f2 5940     		eors	r1, r1, r3
 1002 06f4 50AB     		add	r3, sp, #320
 1003 06f6 C3E90001 		strd	r0, [r3]
 1004              	.LVL215:
 171:..\fips202.c  ****     Eku = BCu ^ ((~BCa) & BCe);
 1005              		.loc 1 171 0 discriminator 3
 1006 06fa 3A46     		mov	r2, r7
 1007 06fc 4346     		mov	r3, r8
 1008 06fe DDE90E89 		ldrd	r8, [sp, #56]
 1009 0702 28EA0202 		bic	r2, r8, r2
 1010 0706 29EA0303 		bic	r3, r9, r3
 1011 070a 8AEA0208 		eor	r8, r10, r2
 1012 070e 8BEA0309 		eor	r9, fp, r3
 1013              	.LVL216:
 1014 0712 5EAB     		add	r3, sp, #376
 1015 0714 C3E90089 		strd	r8, [r3]
 1016              	.LVL217:
 172:..\fips202.c  **** 
 173:..\fips202.c  ****     Abu ^= Du;
 1017              		.loc 1 173 0 discriminator 3
 1018 0718 DDE93E56 		ldrd	r5, [sp, #248]
 1019 071c DDE90601 		ldrd	r0, [sp, #24]
ARM GAS  C:\Users\bogur\AppData\Local\Temp\ccXFXavo.s 			page 22


 1020              	.LVL218:
 1021 0720 6840     		eors	r0, r0, r5
 1022 0722 7140     		eors	r1, r1, r6
 1023              	.LVL219:
 174:..\fips202.c  ****     BCa = ROL(Abu, 27);
 1024              		.loc 1 174 0 discriminator 3
 1025 0724 CB06     		lsls	r3, r1, #27
 1026 0726 43EA501B 		orr	fp, r3, r0, lsr #5
 1027 072a CDF81CB2 		str	fp, [sp, #540]
 1028 072e C306     		lsls	r3, r0, #27
 1029 0730 43EA511B 		orr	fp, r3, r1, lsr #5
 1030 0734 CDF818B2 		str	fp, [sp, #536]
 1031              	.LVL220:
 175:..\fips202.c  ****     Aga ^= Da;
 1032              		.loc 1 175 0 discriminator 3
 1033 0738 40AB     		add	r3, sp, #256
 1034              	.LVL221:
 1035 073a D3E900AB 		ldrd	r10, [r3]
 1036              	.LVL222:
 1037 073e DDE90056 		ldrd	r5, [sp]
 1038 0742 8AEA050A 		eor	r10, r10, r5
 1039 0746 8BEA060B 		eor	fp, fp, r6
 1040 074a 5246     		mov	r2, r10
 1041 074c 5B46     		mov	r3, fp
 1042              	.LVL223:
 176:..\fips202.c  ****     BCe = ROL(Aga, 36);
 1043              		.loc 1 176 0 discriminator 3
 1044 074e 110F     		lsrs	r1, r2, #28
 1045 0750 41EA0B1B 		orr	fp, r1, fp, lsl #4
 1046 0754 CDF820B2 		str	fp, [sp, #544]
 1047 0758 1B0F     		lsrs	r3, r3, #28
 1048 075a 43EA0A1B 		orr	fp, r3, r10, lsl #4
 1049 075e CDF824B2 		str	fp, [sp, #548]
 1050              	.LVL224:
 177:..\fips202.c  ****     Ake ^= De;
 1051              		.loc 1 177 0 discriminator 3
 1052 0762 4CAB     		add	r3, sp, #304
 1053              	.LVL225:
 1054 0764 D3E90012 		ldrd	r1, [r3]
 1055 0768 DDE90289 		ldrd	r8, [sp, #8]
 1056              	.LVL226:
 1057 076c 81EA0801 		eor	r1, r1, r8
 1058 0770 82EA0902 		eor	r2, r2, r9
 1059              	.LVL227:
 1060 0774 1346     		mov	r3, r2
 1061              	.LVL228:
 1062 0776 0A46     		mov	r2, r1
 1063              	.LVL229:
 178:..\fips202.c  ****     BCi = ROL(Ake, 10);
 1064              		.loc 1 178 0 discriminator 3
 1065 0778 9902     		lsls	r1, r3, #10
 1066 077a 41EA925B 		orr	fp, r1, r2, lsr #22
 1067 077e CDF844B0 		str	fp, [sp, #68]
 1068 0782 9202     		lsls	r2, r2, #10
 1069              	.LVL230:
 1070 0784 42EA935B 		orr	fp, r2, r3, lsr #22
 1071 0788 CDF840B0 		str	fp, [sp, #64]
ARM GAS  C:\Users\bogur\AppData\Local\Temp\ccXFXavo.s 			page 23


 1072              	.LVL231:
 179:..\fips202.c  ****     Ami ^= Di;
 1073              		.loc 1 179 0 discriminator 3
 1074 078c 58AB     		add	r3, sp, #352
 1075              	.LVL232:
 1076 078e D3E90078 		ldrd	r7, [r3]
 1077 0792 DDE90434 		ldrd	r3, [sp, #16]
 1078              	.LVL233:
 1079 0796 7B40     		eors	r3, r3, r7
 1080 0798 84EA0804 		eor	r4, r4, r8
 1081              	.LVL234:
 1082 079c 1F46     		mov	r7, r3
 1083              	.LVL235:
 180:..\fips202.c  ****     BCo = ROL(Ami, 15);
 1084              		.loc 1 180 0 discriminator 3
 1085 079e E103     		lsls	r1, r4, #15
 1086 07a0 41EA574B 		orr	fp, r1, r7, lsr #17
 1087 07a4 CDF82CB2 		str	fp, [sp, #556]
 1088 07a8 FA03     		lsls	r2, r7, #15
 1089 07aa 42EA544B 		orr	fp, r2, r4, lsr #17
 1090 07ae CDF828B2 		str	fp, [sp, #552]
 1091              	.LVL236:
 181:..\fips202.c  ****     Aso ^= Do;
 1092              		.loc 1 181 0 discriminator 3
 1093 07b2 64AB     		add	r3, sp, #400
 1094              	.LVL237:
 1095 07b4 D3E90078 		ldrd	r7, [r3]
 1096 07b8 DDE92E45 		ldrd	r4, [sp, #184]
 1097 07bc 6740     		eors	r7, r7, r4
 1098 07be 88EA0508 		eor	r8, r8, r5
 1099 07c2 4346     		mov	r3, r8
 1100              	.LVL238:
 182:..\fips202.c  ****     BCu = ROL(Aso, 56);
 1101              		.loc 1 182 0 discriminator 3
 1102 07c4 390A     		lsrs	r1, r7, #8
 1103 07c6 41EA086B 		orr	fp, r1, r8, lsl #24
 1104 07ca CDF848B0 		str	fp, [sp, #72]
 1105 07ce 1B0A     		lsrs	r3, r3, #8
 1106 07d0 43EA076B 		orr	fp, r3, r7, lsl #24
 1107 07d4 CDF84CB0 		str	fp, [sp, #76]
 1108              	.LVL239:
 183:..\fips202.c  ****     Ema = BCa ^ ((~BCe) & BCi);
 1109              		.loc 1 183 0 discriminator 3
 1110 07d8 88AB     		add	r3, sp, #544
 1111              	.LVL240:
 1112 07da D3E900AB 		ldrd	r10, [r3]
 1113 07de DDE91078 		ldrd	r7, [sp, #64]
 1114 07e2 27EA0A02 		bic	r2, r7, r10
 1115 07e6 28EA0B03 		bic	r3, r8, fp
 1116              	.LVL241:
 1117 07ea 86A9     		add	r1, sp, #536
 1118              	.LVL242:
 1119 07ec D1E90001 		ldrd	r0, [r1]
 1120              	.LVL243:
 1121 07f0 0746     		mov	r7, r0
 1122 07f2 5740     		eors	r7, r7, r2
 1123 07f4 81EA0308 		eor	r8, r1, r3
ARM GAS  C:\Users\bogur\AppData\Local\Temp\ccXFXavo.s 			page 24


 1124 07f8 64AB     		add	r3, sp, #400
 1125 07fa C3E90078 		strd	r7, [r3]
 1126              	.LVL244:
 184:..\fips202.c  ****     Eme = BCe ^ ((~BCi) & BCo);
 1127              		.loc 1 184 0 discriminator 3
 1128 07fe 8AAB     		add	r3, sp, #552
 1129              	.LVL245:
 1130 0800 D3E90067 		ldrd	r6, [r3]
 1131              	.LVL246:
 1132 0804 DDE91089 		ldrd	r8, [sp, #64]
 1133 0808 26EA0802 		bic	r2, r6, r8
 1134 080c 27EA0903 		bic	r3, r7, r9
 1135              	.LVL247:
 1136 0810 8AEA0208 		eor	r8, r10, r2
 1137 0814 8BEA0309 		eor	r9, fp, r3
 1138 0818 40AB     		add	r3, sp, #256
 1139 081a C3E90089 		strd	r8, [r3]
 1140              	.LVL248:
 185:..\fips202.c  ****     Emi = BCi ^ ((~BCo) & BCu);
 1141              		.loc 1 185 0 discriminator 3
 1142 081e DDE91223 		ldrd	r2, [sp, #72]
 1143 0822 22EA0608 		bic	r8, r2, r6
 1144              	.LVL249:
 1145 0826 23EA0709 		bic	r9, r3, r7
 1146 082a 4246     		mov	r2, r8
 1147 082c 4B46     		mov	r3, r9
 1148              	.LVL250:
 1149 082e DDE91089 		ldrd	r8, [sp, #64]
 1150 0832 88EA0208 		eor	r8, r8, r2
 1151 0836 89EA0309 		eor	r9, r9, r3
 1152 083a 58AB     		add	r3, sp, #352
 1153 083c C3E90089 		strd	r8, [r3]
 1154              	.LVL251:
 186:..\fips202.c  ****     Emo = BCo ^ ((~BCu) & BCa);
 1155              		.loc 1 186 0 discriminator 3
 1156 0840 8046     		mov	r8, r0
 1157              	.LVL252:
 1158 0842 8946     		mov	r9, r1
 1159 0844 DDE91201 		ldrd	r0, [sp, #72]
 1160 0848 28EA0002 		bic	r2, r8, r0
 1161 084c 29EA0103 		bic	r3, r9, r1
 1162              	.LVL253:
 1163 0850 3046     		mov	r0, r6
 1164 0852 3946     		mov	r1, r7
 1165              	.LVL254:
 1166 0854 5040     		eors	r0, r0, r2
 1167 0856 5940     		eors	r1, r1, r3
 1168 0858 CDE92E01 		strd	r0, [sp, #184]
 1169              	.LVL255:
 187:..\fips202.c  ****     Emu = BCu ^ ((~BCa) & BCe);
 1170              		.loc 1 187 0 discriminator 3
 1171 085c 4246     		mov	r2, r8
 1172 085e 4B46     		mov	r3, r9
 1173 0860 2AEA0202 		bic	r2, r10, r2
 1174 0864 2BEA0303 		bic	r3, fp, r3
 1175 0868 DDE9129A 		ldrd	r9, [sp, #72]
 1176              	.LVL256:
ARM GAS  C:\Users\bogur\AppData\Local\Temp\ccXFXavo.s 			page 25


 1177 086c 89EA0209 		eor	r9, r9, r2
 1178 0870 8AEA030A 		eor	r10, r10, r3
 1179              	.LVL257:
 1180 0874 4CAB     		add	r3, sp, #304
 1181 0876 C3E9009A 		strd	r9, [r3]
 1182              	.LVL258:
 188:..\fips202.c  **** 
 189:..\fips202.c  ****     Abi ^= Di;
 1183              		.loc 1 189 0 discriminator 3
 1184 087a DDE93A67 		ldrd	r6, [sp, #232]
 1185              	.LVL259:
 1186 087e DDE90423 		ldrd	r2, [sp, #16]
 1187 0882 7240     		eors	r2, r2, r6
 1188 0884 7B40     		eors	r3, r3, r7
 1189 0886 1F46     		mov	r7, r3
 1190              	.LVL260:
 190:..\fips202.c  ****     BCa = ROL(Abi, 62);
 1191              		.loc 1 190 0 discriminator 3
 1192 0888 9308     		lsrs	r3, r2, #2
 1193 088a 43EA877B 		orr	fp, r3, r7, lsl #30
 1194 088e CDF830B2 		str	fp, [sp, #560]
 1195 0892 BB08     		lsrs	r3, r7, #2
 1196 0894 43EA827B 		orr	fp, r3, r2, lsl #30
 1197 0898 CDF834B2 		str	fp, [sp, #564]
 1198              	.LVL261:
 191:..\fips202.c  ****     Ago ^= Do;
 1199              		.loc 1 191 0 discriminator 3
 1200 089c 46AB     		add	r3, sp, #280
 1201              	.LVL262:
 1202 089e D3E90078 		ldrd	r7, [r3]
 1203 08a2 6740     		eors	r7, r7, r4
 1204 08a4 88EA0508 		eor	r8, r8, r5
 1205 08a8 4146     		mov	r1, r8
 1206              	.LVL263:
 192:..\fips202.c  ****     BCe = ROL(Ago, 55);
 1207              		.loc 1 192 0 discriminator 3
 1208 08aa 7B0A     		lsrs	r3, r7, #9
 1209 08ac 43EAC85B 		orr	fp, r3, r8, lsl #23
 1210 08b0 CDF850B0 		str	fp, [sp, #80]
 1211 08b4 4B0A     		lsrs	r3, r1, #9
 1212 08b6 43EAC75B 		orr	fp, r3, r7, lsl #23
 1213 08ba CDF854B0 		str	fp, [sp, #84]
 1214              	.LVL264:
 193:..\fips202.c  ****     Aku ^= Du;
 1215              		.loc 1 193 0 discriminator 3
 1216 08be 52AB     		add	r3, sp, #328
 1217 08c0 D3E90012 		ldrd	r1, [r3]
 1218 08c4 DDE90634 		ldrd	r3, [sp, #24]
 1219 08c8 4B40     		eors	r3, r3, r1
 1220 08ca 5440     		eors	r4, r4, r2
 1221              	.LVL265:
 1222 08cc 1946     		mov	r1, r3
 1223 08ce 0A46     		mov	r2, r1
 1224              	.LVL266:
 194:..\fips202.c  ****     BCi = ROL(Aku, 39);
 1225              		.loc 1 194 0 discriminator 3
 1226 08d0 490E     		lsrs	r1, r1, #25
ARM GAS  C:\Users\bogur\AppData\Local\Temp\ccXFXavo.s 			page 26


 1227 08d2 41EAC41B 		orr	fp, r1, r4, lsl #7
 1228 08d6 CDF838B2 		str	fp, [sp, #568]
 1229 08da 630E     		lsrs	r3, r4, #25
 1230 08dc 43EAC21B 		orr	fp, r3, r2, lsl #7
 1231 08e0 CDF83CB2 		str	fp, [sp, #572]
 1232              	.LVL267:
 195:..\fips202.c  ****     Ama ^= Da;
 1233              		.loc 1 195 0 discriminator 3
 1234 08e4 54AB     		add	r3, sp, #336
 1235 08e6 D3E90023 		ldrd	r2, [r3]
 1236 08ea DDE90056 		ldrd	r5, [sp]
 1237 08ee 6A40     		eors	r2, r2, r5
 1238 08f0 7340     		eors	r3, r3, r6
 1239              	.LVL268:
 196:..\fips202.c  ****     BCo = ROL(Ama, 41);
 1240              		.loc 1 196 0 discriminator 3
 1241 08f2 D10D     		lsrs	r1, r2, #23
 1242 08f4 41EA432B 		orr	fp, r1, r3, lsl #9
 1243 08f8 CDF858B0 		str	fp, [sp, #88]
 1244 08fc DB0D     		lsrs	r3, r3, #23
 1245 08fe 43EA422B 		orr	fp, r3, r2, lsl #9
 1246 0902 CDF85CB0 		str	fp, [sp, #92]
 1247              	.LVL269:
 197:..\fips202.c  ****     Ase ^= De;
 1248              		.loc 1 197 0 discriminator 3
 1249 0906 60AB     		add	r3, sp, #384
 1250              	.LVL270:
 1251 0908 D3E90023 		ldrd	r2, [r3]
 1252              	.LVL271:
 1253 090c DDE90256 		ldrd	r5, [sp, #8]
 1254 0910 6A40     		eors	r2, r2, r5
 1255 0912 7340     		eors	r3, r3, r6
 1256              	.LVL272:
 198:..\fips202.c  ****     BCu = ROL(Ase, 2);
 1257              		.loc 1 198 0 discriminator 3
 1258 0914 9900     		lsls	r1, r3, #2
 1259 0916 41EA9275 		orr	r5, r1, r2, lsr #30
 1260 091a 9195     		str	r5, [sp, #580]
 1261 091c 9200     		lsls	r2, r2, #2
 1262              	.LVL273:
 1263 091e 42EA9375 		orr	r5, r2, r3, lsr #30
 1264 0922 9095     		str	r5, [sp, #576]
 1265              	.LVL274:
 199:..\fips202.c  ****     Esa = BCa ^ ((~BCe) & BCi);
 1266              		.loc 1 199 0 discriminator 3
 1267 0924 DDE914AB 		ldrd	r10, [sp, #80]
 1268 0928 8EA9     		add	r1, sp, #568
 1269              	.LVL275:
 1270 092a D1E90056 		ldrd	r5, [r1]
 1271 092e 25EA0A02 		bic	r2, r5, r10
 1272 0932 26EA0B03 		bic	r3, r6, fp
 1273 0936 8CA9     		add	r1, sp, #560
 1274              	.LVL276:
 1275 0938 D1E90001 		ldrd	r0, [r1]
 1276              	.LVL277:
 1277 093c 80EA0208 		eor	r8, r0, r2
 1278 0940 81EA0309 		eor	r9, r1, r3
ARM GAS  C:\Users\bogur\AppData\Local\Temp\ccXFXavo.s 			page 27


 1279              	.LVL278:
 1280 0944 52AB     		add	r3, sp, #328
 1281 0946 C3E90089 		strd	r8, [r3]
 1282              	.LVL279:
 200:..\fips202.c  ****     Ese = BCe ^ ((~BCi) & BCo);
 1283              		.loc 1 200 0 discriminator 3
 1284 094a DDE91689 		ldrd	r8, [sp, #88]
 1285              	.LVL280:
 1286 094e 28EA0502 		bic	r2, r8, r5
 1287 0952 29EA0603 		bic	r3, r9, r6
 1288 0956 8AEA020A 		eor	r10, r10, r2
 1289 095a 8BEA030B 		eor	fp, fp, r3
 1290 095e 60AB     		add	r3, sp, #384
 1291 0960 C3E900AB 		strd	r10, [r3]
 1292              	.LVL281:
 201:..\fips202.c  ****     Esi = BCi ^ ((~BCo) & BCu);
 1293              		.loc 1 201 0 discriminator 3
 1294 0964 90AB     		add	r3, sp, #576
 1295              	.LVL282:
 1296 0966 D3E900AB 		ldrd	r10, [r3]
 1297              	.LVL283:
 1298 096a 2AEA0808 		bic	r8, r10, r8
 1299 096e 2BEA0909 		bic	r9, fp, r9
 1300 0972 4246     		mov	r2, r8
 1301 0974 4B46     		mov	r3, r9
 1302              	.LVL284:
 1303 0976 5540     		eors	r5, r5, r2
 1304              	.LVL285:
 1305 0978 5E40     		eors	r6, r6, r3
 1306 097a 46AB     		add	r3, sp, #280
 1307 097c C3E90056 		strd	r5, [r3]
 1308              	.LVL286:
 202:..\fips202.c  ****     Eso = BCo ^ ((~BCu) & BCa);
 1309              		.loc 1 202 0 discriminator 3
 1310 0980 8046     		mov	r8, r0
 1311 0982 8946     		mov	r9, r1
 1312 0984 5546     		mov	r5, r10
 1313              	.LVL287:
 1314 0986 5E46     		mov	r6, fp
 1315 0988 20EA0A02 		bic	r2, r0, r10
 1316 098c 21EA0B03 		bic	r3, r1, fp
 1317              	.LVL288:
 1318 0990 DDE91601 		ldrd	r0, [sp, #88]
 1319 0994 5040     		eors	r0, r0, r2
 1320 0996 5940     		eors	r1, r1, r3
 1321              	.LVL289:
 1322 0998 54AB     		add	r3, sp, #336
 1323 099a C3E90001 		strd	r0, [r3]
 1324              	.LVL290:
 203:..\fips202.c  ****     Esu = BCu ^ ((~BCa) & BCe);
 1325              		.loc 1 203 0 discriminator 3
 1326 099e 4246     		mov	r2, r8
 1327 09a0 4B46     		mov	r3, r9
 1328 09a2 DDE91489 		ldrd	r8, [sp, #80]
 1329 09a6 28EA0202 		bic	r2, r8, r2
 1330 09aa 29EA0303 		bic	r3, r9, r3
 1331 09ae 5540     		eors	r5, r5, r2
ARM GAS  C:\Users\bogur\AppData\Local\Temp\ccXFXavo.s 			page 28


 1332 09b0 5E40     		eors	r6, r6, r3
 1333 09b2 CDE93A56 		strd	r5, [sp, #232]
 1334              	.LVL291:
 204:..\fips202.c  **** 
 205:..\fips202.c  ****     //    prepareTheta
 206:..\fips202.c  ****     BCa = Eba ^ Ega ^ Eka ^ Ema ^ Esa;
 1335              		.loc 1 206 0 discriminator 3
 1336 09b6 42AB     		add	r3, sp, #264
 1337 09b8 D3E9009A 		ldrd	r9, [r3]
 1338              	.LVL292:
 1339 09bc 56AB     		add	r3, sp, #344
 1340              	.LVL293:
 1341 09be D3E90012 		ldrd	r1, [r3]
 1342 09c2 89EA0109 		eor	r9, r9, r1
 1343 09c6 8AEA020A 		eor	r10, r10, r2
 1344              	.LVL294:
 1345 09ca C846     		mov	r8, r9
 1346 09cc 44AB     		add	r3, sp, #272
 1347              	.LVL295:
 1348 09ce D3E90012 		ldrd	r1, [r3]
 1349              	.LVL296:
 1350 09d2 81EA0801 		eor	r1, r1, r8
 1351 09d6 82EA0A02 		eor	r2, r2, r10
 1352 09da 64AB     		add	r3, sp, #400
 1353              	.LVL297:
 1354 09dc D3E900AB 		ldrd	r10, [r3]
 1355 09e0 8AEA010A 		eor	r10, r10, r1
 1356 09e4 8BEA020B 		eor	fp, fp, r2
 1357 09e8 52AB     		add	r3, sp, #328
 1358              	.LVL298:
 1359 09ea D3E90012 		ldrd	r1, [r3]
 1360 09ee 81EA0A01 		eor	r1, r1, r10
 1361 09f2 82EA0B02 		eor	r2, r2, fp
 1362 09f6 8846     		mov	r8, r1
 1363 09f8 9146     		mov	r9, r2
 1364              	.LVL299:
 207:..\fips202.c  ****     BCe = Ebe ^ Ege ^ Eke ^ Eme ^ Ese;
 1365              		.loc 1 207 0 discriminator 3
 1366 09fa 4EAB     		add	r3, sp, #312
 1367              	.LVL300:
 1368 09fc D3E90067 		ldrd	r6, [r3]
 1369 0a00 DDE93C45 		ldrd	r4, [sp, #240]
 1370 0a04 6640     		eors	r6, r6, r4
 1371 0a06 6F40     		eors	r7, r7, r5
 1372 0a08 5CAB     		add	r3, sp, #368
 1373              	.LVL301:
 1374 0a0a D3E90034 		ldrd	r3, [r3]
 1375 0a0e 7340     		eors	r3, r3, r6
 1376 0a10 7C40     		eors	r4, r4, r7
 1377 0a12 1E46     		mov	r6, r3
 1378 0a14 2746     		mov	r7, r4
 1379 0a16 40AB     		add	r3, sp, #256
 1380 0a18 D3E90045 		ldrd	r4, [r3]
 1381 0a1c 7440     		eors	r4, r4, r6
 1382 0a1e 7D40     		eors	r5, r5, r7
 1383              	.LVL302:
 1384 0a20 60AB     		add	r3, sp, #384
ARM GAS  C:\Users\bogur\AppData\Local\Temp\ccXFXavo.s 			page 29


 1385 0a22 D3E900AB 		ldrd	r10, [r3]
 1386 0a26 8AEA040A 		eor	r10, r10, r4
 1387 0a2a 8BEA050B 		eor	fp, fp, r5
 1388 0a2e 5646     		mov	r6, r10
 1389 0a30 5F46     		mov	r7, fp
 1390              	.LVL303:
 208:..\fips202.c  ****     BCi = Ebi ^ Egi ^ Eki ^ Emi ^ Esi;
 1391              		.loc 1 208 0 discriminator 3
 1392 0a32 66AB     		add	r3, sp, #408
 1393 0a34 D3E90034 		ldrd	r3, [r3]
 1394 0a38 4AAA     		add	r2, sp, #296
 1395              	.LVL304:
 1396 0a3a D2E90012 		ldrd	r1, [r2]
 1397 0a3e 4B40     		eors	r3, r3, r1
 1398 0a40 5440     		eors	r4, r4, r2
 1399 0a42 DDE938AB 		ldrd	r10, [sp, #224]
 1400 0a46 8AEA030A 		eor	r10, r10, r3
 1401 0a4a 8BEA040B 		eor	fp, fp, r4
 1402 0a4e 5046     		mov	r0, r10
 1403              	.LVL305:
 1404 0a50 5946     		mov	r1, fp
 1405 0a52 58AB     		add	r3, sp, #352
 1406              	.LVL306:
 1407 0a54 D3E90023 		ldrd	r2, [r3]
 1408              	.LVL307:
 1409 0a58 4240     		eors	r2, r2, r0
 1410 0a5a 4B40     		eors	r3, r3, r1
 1411              	.LVL308:
 1412 0a5c 1946     		mov	r1, r3
 1413 0a5e 46AB     		add	r3, sp, #280
 1414              	.LVL309:
 1415 0a60 D3E90034 		ldrd	r3, [r3]
 1416              	.LVL310:
 1417 0a64 5340     		eors	r3, r3, r2
 1418              	.LVL311:
 1419 0a66 4C40     		eors	r4, r4, r1
 1420 0a68 1846     		mov	r0, r3
 1421 0a6a 2146     		mov	r1, r4
 1422              	.LVL312:
 209:..\fips202.c  ****     BCo = Ebo ^ Ego ^ Eko ^ Emo ^ Eso;
 1423              		.loc 1 209 0 discriminator 3
 1424 0a6c 5AAB     		add	r3, sp, #360
 1425              	.LVL313:
 1426 0a6e D3E90023 		ldrd	r2, [r3]
 1427 0a72 62AC     		add	r4, sp, #392
 1428 0a74 D4E90045 		ldrd	r4, [r4]
 1429 0a78 6240     		eors	r2, r2, r4
 1430 0a7a 6B40     		eors	r3, r3, r5
 1431              	.LVL314:
 1432 0a7c 50AC     		add	r4, sp, #320
 1433              	.LVL315:
 1434 0a7e D4E90045 		ldrd	r4, [r4]
 1435              	.LVL316:
 1436 0a82 5440     		eors	r4, r4, r2
 1437              	.LVL317:
 1438 0a84 5D40     		eors	r5, r5, r3
 1439 0a86 2246     		mov	r2, r4
ARM GAS  C:\Users\bogur\AppData\Local\Temp\ccXFXavo.s 			page 30


 1440 0a88 2B46     		mov	r3, r5
 1441 0a8a DDE92E45 		ldrd	r4, [sp, #184]
 1442 0a8e 5440     		eors	r4, r4, r2
 1443 0a90 5D40     		eors	r5, r5, r3
 1444 0a92 2246     		mov	r2, r4
 1445 0a94 54AC     		add	r4, sp, #336
 1446 0a96 D4E900AB 		ldrd	r10, [r4]
 1447 0a9a 8AEA020A 		eor	r10, r10, r2
 1448 0a9e 8BEA050B 		eor	fp, fp, r5
 1449 0aa2 CDE900AB 		strd	r10, [sp]
 1450              	.LVL318:
 210:..\fips202.c  ****     BCu = Ebu ^ Egu ^ Eku ^ Emu ^ Esu;
 1451              		.loc 1 210 0 discriminator 3
 1452 0aa6 72AB     		add	r3, sp, #456
 1453 0aa8 D3E90034 		ldrd	r3, [r3]
 1454 0aac 48AA     		add	r2, sp, #288
 1455 0aae D2E900AB 		ldrd	r10, [r2]
 1456              	.LVL319:
 1457 0ab2 83EA0A03 		eor	r3, r3, r10
 1458 0ab6 84EA0B04 		eor	r4, r4, fp
 1459 0aba 2546     		mov	r5, r4
 1460 0abc 1C46     		mov	r4, r3
 1461 0abe 5EAB     		add	r3, sp, #376
 1462              	.LVL320:
 1463 0ac0 D3E900AB 		ldrd	r10, [r3]
 1464 0ac4 8AEA040A 		eor	r10, r10, r4
 1465 0ac8 8BEA050B 		eor	fp, fp, r5
 1466 0acc 5446     		mov	r4, r10
 1467 0ace 5D46     		mov	r5, fp
 1468 0ad0 4CAB     		add	r3, sp, #304
 1469              	.LVL321:
 1470 0ad2 D3E900AB 		ldrd	r10, [r3]
 1471 0ad6 8AEA040A 		eor	r10, r10, r4
 1472 0ada 8BEA050B 		eor	fp, fp, r5
 1473 0ade 5446     		mov	r4, r10
 1474 0ae0 5D46     		mov	r5, fp
 1475 0ae2 DDE93AAB 		ldrd	r10, [sp, #232]
 1476 0ae6 8AEA040A 		eor	r10, r10, r4
 1477 0aea 8BEA050B 		eor	fp, fp, r5
 1478 0aee 5446     		mov	r4, r10
 1479 0af0 5D46     		mov	r5, fp
 1480              	.LVL322:
 211:..\fips202.c  **** 
 212:..\fips202.c  ****     //thetaRhoPiChiIotaPrepareTheta(round+1, E, A)
 213:..\fips202.c  ****     Da = BCu ^ ROL(BCe, 1);
 1481              		.loc 1 213 0 discriminator 3
 1482 0af2 4FEA470A 		lsl	r10, r7, #1
 1483 0af6 4AEAD67B 		orr	fp, r10, r6, lsr #31
 1484 0afa CDF84CB2 		str	fp, [sp, #588]
 1485 0afe 4FEA460A 		lsl	r10, r6, #1
 1486 0b02 4AEAD77B 		orr	fp, r10, r7, lsr #31
 1487 0b06 CDF848B2 		str	fp, [sp, #584]
 1488 0b0a 92AB     		add	r3, sp, #584
 1489 0b0c D3E90023 		ldrd	r2, [r3]
 1490 0b10 6240     		eors	r2, r2, r4
 1491 0b12 6B40     		eors	r3, r3, r5
 1492 0b14 CDE90223 		strd	r2, [sp, #8]
ARM GAS  C:\Users\bogur\AppData\Local\Temp\ccXFXavo.s 			page 31


 1493              	.LVL323:
 214:..\fips202.c  ****     De = BCa ^ ROL(BCi, 1);
 1494              		.loc 1 214 0 discriminator 3
 1495 0b18 4FEA410A 		lsl	r10, r1, #1
 1496 0b1c 4AEAD07B 		orr	fp, r10, r0, lsr #31
 1497 0b20 CDF854B2 		str	fp, [sp, #596]
 1498 0b24 4FEA400A 		lsl	r10, r0, #1
 1499 0b28 4AEAD17B 		orr	fp, r10, r1, lsr #31
 1500 0b2c CDF850B2 		str	fp, [sp, #592]
 1501 0b30 94AB     		add	r3, sp, #592
 1502 0b32 D3E900AB 		ldrd	r10, [r3]
 1503 0b36 8AEA080A 		eor	r10, r10, r8
 1504 0b3a 8BEA090B 		eor	fp, fp, r9
 1505 0b3e CDE904AB 		strd	r10, [sp, #16]
 1506              	.LVL324:
 215:..\fips202.c  ****     Di = BCe ^ ROL(BCo, 1);
 1507              		.loc 1 215 0 discriminator 3
 1508 0b42 019B     		ldr	r3, [sp, #4]
 1509 0b44 4FEA430A 		lsl	r10, r3, #1
 1510              	.LVL325:
 1511 0b48 009B     		ldr	r3, [sp]
 1512 0b4a 4AEAD37B 		orr	fp, r10, r3, lsr #31
 1513 0b4e CDF85CB2 		str	fp, [sp, #604]
 1514 0b52 009B     		ldr	r3, [sp]
 1515 0b54 4FEA430A 		lsl	r10, r3, #1
 1516 0b58 019B     		ldr	r3, [sp, #4]
 1517 0b5a 4AEAD37B 		orr	fp, r10, r3, lsr #31
 1518 0b5e CDF858B2 		str	fp, [sp, #600]
 1519 0b62 96AB     		add	r3, sp, #600
 1520 0b64 D3E900AB 		ldrd	r10, [r3]
 1521 0b68 8AEA060A 		eor	r10, r10, r6
 1522 0b6c 8BEA070B 		eor	fp, fp, r7
 1523              	.LVL326:
 216:..\fips202.c  ****     Do = BCi ^ ROL(BCu, 1);
 1524              		.loc 1 216 0 discriminator 3
 1525 0b70 6E00     		lsls	r6, r5, #1
 1526              	.LVL327:
 1527 0b72 46EAD477 		orr	r7, r6, r4, lsr #31
 1528 0b76 9997     		str	r7, [sp, #612]
 1529 0b78 6400     		lsls	r4, r4, #1
 1530              	.LVL328:
 1531 0b7a 44EAD577 		orr	r7, r4, r5, lsr #31
 1532 0b7e 9897     		str	r7, [sp, #608]
 1533 0b80 98AB     		add	r3, sp, #608
 1534 0b82 D3E90056 		ldrd	r5, [r3]
 1535 0b86 4540     		eors	r5, r5, r0
 1536 0b88 4E40     		eors	r6, r6, r1
 1537 0b8a CDE90656 		strd	r5, [sp, #24]
 1538              	.LVL329:
 217:..\fips202.c  ****     Du = BCo ^ ROL(BCa, 1);
 1539              		.loc 1 217 0 discriminator 3
 1540 0b8e 4FEA4901 		lsl	r1, r9, #1
 1541 0b92 41EAD877 		orr	r7, r1, r8, lsr #31
 1542 0b96 9B97     		str	r7, [sp, #620]
 1543 0b98 4FEA4801 		lsl	r1, r8, #1
 1544 0b9c 41EAD977 		orr	r7, r1, r9, lsr #31
 1545 0ba0 9A97     		str	r7, [sp, #616]
ARM GAS  C:\Users\bogur\AppData\Local\Temp\ccXFXavo.s 			page 32


 1546 0ba2 9AAB     		add	r3, sp, #616
 1547 0ba4 D3E90089 		ldrd	r8, [r3]
 1548              	.LVL330:
 1549 0ba8 DDE90034 		ldrd	r3, [sp]
 1550 0bac 83EA0803 		eor	r3, r3, r8
 1551 0bb0 84EA0904 		eor	r4, r4, r9
 1552 0bb4 A146     		mov	r9, r4
 1553 0bb6 1F46     		mov	r7, r3
 1554 0bb8 A046     		mov	r8, r4
 1555              	.LVL331:
 218:..\fips202.c  **** 
 219:..\fips202.c  ****     Eba ^= Da;
 1556              		.loc 1 219 0 discriminator 3
 1557 0bba 42AB     		add	r3, sp, #264
 1558 0bbc D3E90056 		ldrd	r5, [r3]
 1559              	.LVL332:
 1560 0bc0 DDE90201 		ldrd	r0, [sp, #8]
 1561              	.LVL333:
 1562 0bc4 4540     		eors	r5, r5, r0
 1563 0bc6 4E40     		eors	r6, r6, r1
 1564 0bc8 2846     		mov	r0, r5
 1565 0bca 3146     		mov	r1, r6
 1566              	.LVL334:
 220:..\fips202.c  ****     BCa = Eba;
 221:..\fips202.c  ****     Ege ^= De;
 1567              		.loc 1 221 0 discriminator 3
 1568 0bcc DDE93C45 		ldrd	r4, [sp, #240]
 1569 0bd0 DDE90423 		ldrd	r2, [sp, #16]
 1570              	.LVL335:
 1571 0bd4 5440     		eors	r4, r4, r2
 1572 0bd6 5D40     		eors	r5, r5, r3
 1573 0bd8 2246     		mov	r2, r4
 1574 0bda 2B46     		mov	r3, r5
 1575              	.LVL336:
 222:..\fips202.c  ****     BCe = ROL(Ege, 44);
 1576              		.loc 1 222 0 discriminator 3
 1577 0bdc 240D     		lsrs	r4, r4, #20
 1578 0bde 44EA0535 		orr	r5, r4, r5, lsl #12
 1579 0be2 1895     		str	r5, [sp, #96]
 1580 0be4 1B0D     		lsrs	r3, r3, #20
 1581 0be6 43EA0235 		orr	r5, r3, r2, lsl #12
 1582 0bea 1995     		str	r5, [sp, #100]
 1583              	.LVL337:
 223:..\fips202.c  ****     Eki ^= Di;
 1584              		.loc 1 223 0 discriminator 3
 1585 0bec DDE93845 		ldrd	r4, [sp, #224]
 1586 0bf0 84EA0A04 		eor	r4, r4, r10
 1587 0bf4 85EA0B05 		eor	r5, r5, fp
 1588 0bf8 2246     		mov	r2, r4
 1589              	.LVL338:
 1590 0bfa 2B46     		mov	r3, r5
 1591              	.LVL339:
 224:..\fips202.c  ****     BCi = ROL(Eki, 43);
 1592              		.loc 1 224 0 discriminator 3
 1593 0bfc 640D     		lsrs	r4, r4, #21
 1594 0bfe 44EAC525 		orr	r5, r4, r5, lsl #11
 1595 0c02 3295     		str	r5, [sp, #200]
ARM GAS  C:\Users\bogur\AppData\Local\Temp\ccXFXavo.s 			page 33


 1596 0c04 5B0D     		lsrs	r3, r3, #21
 1597 0c06 43EAC225 		orr	r5, r3, r2, lsl #11
 1598 0c0a 3395     		str	r5, [sp, #204]
 1599              	.LVL340:
 225:..\fips202.c  ****     Emo ^= Do;
 1600              		.loc 1 225 0 discriminator 3
 1601 0c0c DDE92E34 		ldrd	r3, [sp, #184]
 1602 0c10 DDE90656 		ldrd	r5, [sp, #24]
 1603 0c14 5D40     		eors	r5, r5, r3
 1604 0c16 6640     		eors	r6, r6, r4
 1605 0c18 2A46     		mov	r2, r5
 1606              	.LVL341:
 226:..\fips202.c  ****     BCo = ROL(Emo, 21);
 1607              		.loc 1 226 0 discriminator 3
 1608 0c1a 7405     		lsls	r4, r6, #21
 1609 0c1c 44EAD525 		orr	r5, r4, r5, lsr #11
 1610 0c20 1B95     		str	r5, [sp, #108]
 1611 0c22 5205     		lsls	r2, r2, #21
 1612 0c24 42EAD625 		orr	r5, r2, r6, lsr #11
 1613 0c28 1A95     		str	r5, [sp, #104]
 1614              	.LVL342:
 227:..\fips202.c  ****     Esu ^= Du;
 1615              		.loc 1 227 0 discriminator 3
 1616 0c2a DDE93A45 		ldrd	r4, [sp, #232]
 1617 0c2e CDE90078 		strd	r7, [sp]
 1618 0c32 3E46     		mov	r6, r7
 1619 0c34 4F46     		mov	r7, r9
 1620              	.LVL343:
 1621 0c36 6640     		eors	r6, r6, r4
 1622 0c38 6F40     		eors	r7, r7, r5
 1623              	.LVL344:
 228:..\fips202.c  ****     BCu = ROL(Esu, 14);
 1624              		.loc 1 228 0 discriminator 3
 1625 0c3a BC03     		lsls	r4, r7, #14
 1626 0c3c 44EA9645 		orr	r5, r4, r6, lsr #18
 1627 0c40 9D95     		str	r5, [sp, #628]
 1628 0c42 B203     		lsls	r2, r6, #14
 1629 0c44 42EA9745 		orr	r5, r2, r7, lsr #18
 1630 0c48 9C95     		str	r5, [sp, #624]
 1631              	.LVL345:
 229:..\fips202.c  ****     Aba = BCa ^ ((~BCe) & BCi);
 1632              		.loc 1 229 0 discriminator 3
 1633 0c4a DDE91845 		ldrd	r4, [sp, #96]
 1634 0c4e DDE93278 		ldrd	r7, [sp, #200]
 1635 0c52 27EA0404 		bic	r4, r7, r4
 1636 0c56 28EA0505 		bic	r5, r8, r5
 1637 0c5a 2246     		mov	r2, r4
 1638 0c5c 2B46     		mov	r3, r5
 1639 0c5e 4240     		eors	r2, r2, r0
 1640 0c60 4B40     		eors	r3, r3, r1
 1641              	.LVL346:
 230:..\fips202.c  ****     Aba ^= (uint64_t)KeccakF_RoundConstants[round + 1];
 1642              		.loc 1 230 0 discriminator 3
 1643 0c62 0CF10104 		add	r4, ip, #1
 1644 0c66 0EEBC40E 		add	lr, lr, r4, lsl #3
 1645 0c6a DEE90045 		ldrd	r4, [lr]
 1646 0c6e 82EA0408 		eor	r8, r2, r4
ARM GAS  C:\Users\bogur\AppData\Local\Temp\ccXFXavo.s 			page 34


 1647 0c72 83EA0509 		eor	r9, r3, r5
 1648 0c76 CDE92E89 		strd	r8, [sp, #184]
 1649              	.LVL347:
 231:..\fips202.c  ****     Abe = BCe ^ ((~BCi) & BCo);
 1650              		.loc 1 231 0 discriminator 3
 1651 0c7a DDE91A45 		ldrd	r4, [sp, #104]
 1652 0c7e DDE93278 		ldrd	r7, [sp, #200]
 1653 0c82 24EA0704 		bic	r4, r4, r7
 1654 0c86 25EA0805 		bic	r5, r5, r8
 1655 0c8a 2246     		mov	r2, r4
 1656 0c8c 2B46     		mov	r3, r5
 1657 0c8e DDE91845 		ldrd	r4, [sp, #96]
 1658 0c92 5440     		eors	r4, r4, r2
 1659 0c94 5D40     		eors	r5, r5, r3
 1660 0c96 CDE93845 		strd	r4, [sp, #224]
 1661              	.LVL348:
 232:..\fips202.c  ****     Abi = BCi ^ ((~BCo) & BCu);
 1662              		.loc 1 232 0 discriminator 3
 1663 0c9a DDE91A34 		ldrd	r3, [sp, #104]
 1664 0c9e 9CAA     		add	r2, sp, #624
 1665              	.LVL349:
 1666 0ca0 D2E90056 		ldrd	r5, [r2]
 1667 0ca4 25EA0303 		bic	r3, r5, r3
 1668 0ca8 26EA0404 		bic	r4, r6, r4
 1669              	.LVL350:
 1670 0cac 1A46     		mov	r2, r3
 1671              	.LVL351:
 1672 0cae 5740     		eors	r7, r7, r2
 1673 0cb0 88EA0408 		eor	r8, r8, r4
 1674              	.LVL352:
 1675 0cb4 CDE93A78 		strd	r7, [sp, #232]
 1676              	.LVL353:
 233:..\fips202.c  ****     Abo = BCo ^ ((~BCu) & BCa);
 1677              		.loc 1 233 0 discriminator 3
 1678 0cb8 2F46     		mov	r7, r5
 1679              	.LVL354:
 1680 0cba B046     		mov	r8, r6
 1681 0cbc 20EA0505 		bic	r5, r0, r5
 1682              	.LVL355:
 1683 0cc0 21EA0606 		bic	r6, r1, r6
 1684 0cc4 2A46     		mov	r2, r5
 1685 0cc6 DDE91A45 		ldrd	r4, [sp, #104]
 1686 0cca 5440     		eors	r4, r4, r2
 1687 0ccc 7540     		eors	r5, r5, r6
 1688 0cce CDE93C45 		strd	r4, [sp, #240]
 1689              	.LVL356:
 234:..\fips202.c  ****     Abu = BCu ^ ((~BCa) & BCe);
 1690              		.loc 1 234 0 discriminator 3
 1691 0cd2 DDE91845 		ldrd	r4, [sp, #96]
 1692              	.LVL357:
 1693 0cd6 24EA0004 		bic	r4, r4, r0
 1694 0cda 25EA0105 		bic	r5, r5, r1
 1695 0cde 2946     		mov	r1, r5
 1696 0ce0 3D46     		mov	r5, r7
 1697 0ce2 4646     		mov	r6, r8
 1698 0ce4 6540     		eors	r5, r5, r4
 1699 0ce6 4E40     		eors	r6, r6, r1
ARM GAS  C:\Users\bogur\AppData\Local\Temp\ccXFXavo.s 			page 35


 1700 0ce8 CDE93E56 		strd	r5, [sp, #248]
 1701              	.LVL358:
 235:..\fips202.c  **** 
 236:..\fips202.c  ****     Ebo ^= Do;
 1702              		.loc 1 236 0 discriminator 3
 1703 0cec 5AAB     		add	r3, sp, #360
 1704 0cee D3E90023 		ldrd	r2, [r3]
 1705 0cf2 DDE90601 		ldrd	r0, [sp, #24]
 1706              	.LVL359:
 1707 0cf6 5040     		eors	r0, r0, r2
 1708 0cf8 5940     		eors	r1, r1, r3
 1709              	.LVL360:
 237:..\fips202.c  ****     BCa = ROL(Ebo, 28);
 1710              		.loc 1 237 0 discriminator 3
 1711 0cfa 0B07     		lsls	r3, r1, #28
 1712 0cfc 43EA1015 		orr	r5, r3, r0, lsr #4
 1713              	.LVL361:
 1714 0d00 3595     		str	r5, [sp, #212]
 1715 0d02 0307     		lsls	r3, r0, #28
 1716 0d04 43EA1115 		orr	r5, r3, r1, lsr #4
 1717 0d08 3495     		str	r5, [sp, #208]
 1718              	.LVL362:
 238:..\fips202.c  ****     Egu ^= Du;
 1719              		.loc 1 238 0 discriminator 3
 1720 0d0a 48AB     		add	r3, sp, #288
 1721 0d0c D3E90045 		ldrd	r4, [r3]
 1722 0d10 DDE90001 		ldrd	r0, [sp]
 1723              	.LVL363:
 1724 0d14 6040     		eors	r0, r0, r4
 1725 0d16 6940     		eors	r1, r1, r5
 1726 0d18 0B46     		mov	r3, r1
 1727              	.LVL364:
 239:..\fips202.c  ****     BCe = ROL(Egu, 20);
 1728              		.loc 1 239 0 discriminator 3
 1729 0d1a 0905     		lsls	r1, r1, #20
 1730 0d1c 41EA1035 		orr	r5, r1, r0, lsr #12
 1731 0d20 9F95     		str	r5, [sp, #636]
 1732 0d22 0205     		lsls	r2, r0, #20
 1733 0d24 42EA1335 		orr	r5, r2, r3, lsr #12
 1734 0d28 9E95     		str	r5, [sp, #632]
 1735              	.LVL365:
 240:..\fips202.c  ****     Eka ^= Da;
 1736              		.loc 1 240 0 discriminator 3
 1737 0d2a 44AB     		add	r3, sp, #272
 1738              	.LVL366:
 1739 0d2c D3E90023 		ldrd	r2, [r3]
 1740 0d30 DDE90201 		ldrd	r0, [sp, #8]
 1741 0d34 4240     		eors	r2, r2, r0
 1742 0d36 4B40     		eors	r3, r3, r1
 1743              	.LVL367:
 241:..\fips202.c  ****     BCi = ROL(Eka, 3);
 1744              		.loc 1 241 0 discriminator 3
 1745 0d38 D900     		lsls	r1, r3, #3
 1746 0d3a 41EA5275 		orr	r5, r1, r2, lsr #29
 1747 0d3e 1D95     		str	r5, [sp, #116]
 1748 0d40 D200     		lsls	r2, r2, #3
 1749              	.LVL368:
ARM GAS  C:\Users\bogur\AppData\Local\Temp\ccXFXavo.s 			page 36


 1750 0d42 42EA5375 		orr	r5, r2, r3, lsr #29
 1751 0d46 1C95     		str	r5, [sp, #112]
 1752              	.LVL369:
 242:..\fips202.c  ****     Eme ^= De;
 1753              		.loc 1 242 0 discriminator 3
 1754 0d48 40AB     		add	r3, sp, #256
 1755 0d4a D3E90045 		ldrd	r4, [r3]
 1756 0d4e DDE90423 		ldrd	r2, [sp, #16]
 1757 0d52 5440     		eors	r4, r4, r2
 1758 0d54 5D40     		eors	r5, r5, r3
 1759 0d56 2B46     		mov	r3, r5
 1760              	.LVL370:
 243:..\fips202.c  ****     BCo = ROL(Eme, 45);
 1761              		.loc 1 243 0 discriminator 3
 1762 0d58 E10C     		lsrs	r1, r4, #19
 1763 0d5a 41EA4535 		orr	r5, r1, r5, lsl #13
 1764 0d5e 1E95     		str	r5, [sp, #120]
 1765 0d60 DB0C     		lsrs	r3, r3, #19
 1766 0d62 43EA4435 		orr	r5, r3, r4, lsl #13
 1767 0d66 1F95     		str	r5, [sp, #124]
 1768              	.LVL371:
 244:..\fips202.c  ****     Esi ^= Di;
 1769              		.loc 1 244 0 discriminator 3
 1770 0d68 46AB     		add	r3, sp, #280
 1771              	.LVL372:
 1772 0d6a D3E90001 		ldrd	r0, [r3]
 1773 0d6e 80EA0A00 		eor	r0, r0, r10
 1774 0d72 81EA0B01 		eor	r1, r1, fp
 1775 0d76 0B46     		mov	r3, r1
 1776              	.LVL373:
 245:..\fips202.c  ****     BCu = ROL(Esi, 61);
 1777              		.loc 1 245 0 discriminator 3
 1778 0d78 C108     		lsrs	r1, r0, #3
 1779 0d7a 41EA4375 		orr	r5, r1, r3, lsl #29
 1780 0d7e 2095     		str	r5, [sp, #128]
 1781 0d80 DB08     		lsrs	r3, r3, #3
 1782 0d82 43EA4075 		orr	r5, r3, r0, lsl #29
 1783 0d86 2195     		str	r5, [sp, #132]
 1784              	.LVL374:
 246:..\fips202.c  ****     Aga = BCa ^ ((~BCe) & BCi);
 1785              		.loc 1 246 0 discriminator 3
 1786 0d88 9EAB     		add	r3, sp, #632
 1787              	.LVL375:
 1788 0d8a D3E90089 		ldrd	r8, [r3]
 1789 0d8e DDE91C01 		ldrd	r0, [sp, #112]
 1790 0d92 20EA0805 		bic	r5, r0, r8
 1791 0d96 21EA0906 		bic	r6, r1, r9
 1792 0d9a 2A46     		mov	r2, r5
 1793 0d9c DDE93445 		ldrd	r4, [sp, #208]
 1794 0da0 5440     		eors	r4, r4, r2
 1795 0da2 7540     		eors	r5, r5, r6
 1796 0da4 40AB     		add	r3, sp, #256
 1797              	.LVL376:
 1798 0da6 C3E90045 		strd	r4, [r3]
 1799              	.LVL377:
 247:..\fips202.c  ****     Age = BCe ^ ((~BCi) & BCo);
 1800              		.loc 1 247 0 discriminator 3
ARM GAS  C:\Users\bogur\AppData\Local\Temp\ccXFXavo.s 			page 37


 1801 0daa DDE91E34 		ldrd	r3, [sp, #120]
 1802 0dae DDE91C56 		ldrd	r5, [sp, #112]
 1803 0db2 23EA0500 		bic	r0, r3, r5
 1804 0db6 24EA0601 		bic	r1, r4, r6
 1805 0dba 4646     		mov	r6, r8
 1806 0dbc 4F46     		mov	r7, r9
 1807 0dbe 88EA0008 		eor	r8, r8, r0
 1808              	.LVL378:
 1809 0dc2 89EA0109 		eor	r9, r9, r1
 1810 0dc6 42AA     		add	r2, sp, #264
 1811 0dc8 C2E90089 		strd	r8, [r2]
 1812              	.LVL379:
 248:..\fips202.c  ****     Agi = BCi ^ ((~BCo) & BCu);
 1813              		.loc 1 248 0 discriminator 3
 1814 0dcc DDE92089 		ldrd	r8, [sp, #128]
 1815              	.LVL380:
 1816 0dd0 28EA0301 		bic	r1, r8, r3
 1817 0dd4 29EA0402 		bic	r2, r9, r4
 1818 0dd8 1346     		mov	r3, r2
 1819 0dda DDE91C89 		ldrd	r8, [sp, #112]
 1820 0dde 88EA0108 		eor	r8, r8, r1
 1821 0de2 89EA0309 		eor	r9, r9, r3
 1822 0de6 44AB     		add	r3, sp, #272
 1823 0de8 C3E90089 		strd	r8, [r3]
 1824              	.LVL381:
 249:..\fips202.c  ****     Ago = BCo ^ ((~BCu) & BCa);
 1825              		.loc 1 249 0 discriminator 3
 1826 0dec DDE93445 		ldrd	r4, [sp, #208]
 1827              	.LVL382:
 1828 0df0 DDE92089 		ldrd	r8, [sp, #128]
 1829              	.LVL383:
 1830 0df4 24EA0800 		bic	r0, r4, r8
 1831 0df8 25EA0901 		bic	r1, r5, r9
 1832 0dfc DDE91E23 		ldrd	r2, [sp, #120]
 1833 0e00 4240     		eors	r2, r2, r0
 1834 0e02 4B40     		eors	r3, r3, r1
 1835 0e04 46A9     		add	r1, sp, #280
 1836 0e06 C1E90023 		strd	r2, [r1]
 1837              	.LVL384:
 250:..\fips202.c  ****     Agu = BCu ^ ((~BCa) & BCe);
 1838              		.loc 1 250 0 discriminator 3
 1839 0e0a 26EA0404 		bic	r4, r6, r4
 1840 0e0e 27EA0505 		bic	r5, r7, r5
 1841 0e12 DDE92089 		ldrd	r8, [sp, #128]
 1842 0e16 88EA0408 		eor	r8, r8, r4
 1843 0e1a 89EA0509 		eor	r9, r9, r5
 1844 0e1e 48AB     		add	r3, sp, #288
 1845 0e20 C3E90089 		strd	r8, [r3]
 1846              	.LVL385:
 251:..\fips202.c  **** 
 252:..\fips202.c  ****     Ebe ^= De;
 1847              		.loc 1 252 0 discriminator 3
 1848 0e24 4EAB     		add	r3, sp, #312
 1849              	.LVL386:
 1850 0e26 D3E90001 		ldrd	r0, [r3]
 1851 0e2a DDE90445 		ldrd	r4, [sp, #16]
 1852 0e2e 6040     		eors	r0, r0, r4
ARM GAS  C:\Users\bogur\AppData\Local\Temp\ccXFXavo.s 			page 38


 1853 0e30 6940     		eors	r1, r1, r5
 1854              	.LVL387:
 253:..\fips202.c  ****     BCa = ROL(Ebe, 1);
 1855              		.loc 1 253 0 discriminator 3
 1856 0e32 4B00     		lsls	r3, r1, #1
 1857 0e34 43EAD075 		orr	r5, r3, r0, lsr #31
 1858 0e38 A195     		str	r5, [sp, #644]
 1859 0e3a 4300     		lsls	r3, r0, #1
 1860 0e3c 43EAD175 		orr	r5, r3, r1, lsr #31
 1861 0e40 A095     		str	r5, [sp, #640]
 1862              	.LVL388:
 254:..\fips202.c  ****     Egi ^= Di;
 1863              		.loc 1 254 0 discriminator 3
 1864 0e42 4AAB     		add	r3, sp, #296
 1865 0e44 D3E90001 		ldrd	r0, [r3]
 1866              	.LVL389:
 1867 0e48 80EA0A00 		eor	r0, r0, r10
 1868 0e4c 81EA0B01 		eor	r1, r1, fp
 1869 0e50 0B46     		mov	r3, r1
 1870              	.LVL390:
 255:..\fips202.c  ****     BCe = ROL(Egi, 6);
 1871              		.loc 1 255 0 discriminator 3
 1872 0e52 8901     		lsls	r1, r1, #6
 1873 0e54 41EA9065 		orr	r5, r1, r0, lsr #26
 1874 0e58 A395     		str	r5, [sp, #652]
 1875 0e5a 8201     		lsls	r2, r0, #6
 1876              	.LVL391:
 1877 0e5c 42EA9365 		orr	r5, r2, r3, lsr #26
 1878 0e60 A295     		str	r5, [sp, #648]
 1879              	.LVL392:
 256:..\fips202.c  ****     Eko ^= Do;
 1880              		.loc 1 256 0 discriminator 3
 1881 0e62 50AB     		add	r3, sp, #320
 1882              	.LVL393:
 1883 0e64 D3E90023 		ldrd	r2, [r3]
 1884 0e68 DDE90656 		ldrd	r5, [sp, #24]
 1885 0e6c 5540     		eors	r5, r5, r2
 1886 0e6e 5E40     		eors	r6, r6, r3
 1887 0e70 2A46     		mov	r2, r5
 1888              	.LVL394:
 257:..\fips202.c  ****     BCi = ROL(Eko, 25);
 1889              		.loc 1 257 0 discriminator 3
 1890 0e72 7106     		lsls	r1, r6, #25
 1891 0e74 41EAD515 		orr	r5, r1, r5, lsr #7
 1892 0e78 2395     		str	r5, [sp, #140]
 1893 0e7a 5206     		lsls	r2, r2, #25
 1894 0e7c 42EAD615 		orr	r5, r2, r6, lsr #7
 1895 0e80 2295     		str	r5, [sp, #136]
 1896              	.LVL395:
 258:..\fips202.c  ****     Emu ^= Du;
 1897              		.loc 1 258 0 discriminator 3
 1898 0e82 4CAB     		add	r3, sp, #304
 1899 0e84 D3E90045 		ldrd	r4, [r3]
 1900 0e88 DDE90023 		ldrd	r2, [sp]
 1901 0e8c 6240     		eors	r2, r2, r4
 1902 0e8e 6B40     		eors	r3, r3, r5
 1903              	.LVL396:
ARM GAS  C:\Users\bogur\AppData\Local\Temp\ccXFXavo.s 			page 39


 259:..\fips202.c  ****     BCo = ROL(Emu, 8);
 1904              		.loc 1 259 0 discriminator 3
 1905 0e90 1902     		lsls	r1, r3, #8
 1906 0e92 41EA1265 		orr	r5, r1, r2, lsr #24
 1907 0e96 2595     		str	r5, [sp, #148]
 1908 0e98 1202     		lsls	r2, r2, #8
 1909              	.LVL397:
 1910 0e9a 42EA1365 		orr	r5, r2, r3, lsr #24
 1911 0e9e 2495     		str	r5, [sp, #144]
 1912              	.LVL398:
 260:..\fips202.c  ****     Esa ^= Da;
 1913              		.loc 1 260 0 discriminator 3
 1914 0ea0 52AB     		add	r3, sp, #328
 1915 0ea2 D3E90012 		ldrd	r1, [r3]
 1916 0ea6 DDE90245 		ldrd	r4, [sp, #8]
 1917 0eaa 6140     		eors	r1, r1, r4
 1918 0eac 6A40     		eors	r2, r2, r5
 1919 0eae 1346     		mov	r3, r2
 1920 0eb0 0A46     		mov	r2, r1
 1921              	.LVL399:
 261:..\fips202.c  ****     BCu = ROL(Esa, 18);
 1922              		.loc 1 261 0 discriminator 3
 1923 0eb2 9904     		lsls	r1, r3, #18
 1924 0eb4 41EA9235 		orr	r5, r1, r2, lsr #14
 1925 0eb8 2795     		str	r5, [sp, #156]
 1926 0eba 9204     		lsls	r2, r2, #18
 1927              	.LVL400:
 1928 0ebc 42EA9335 		orr	r5, r2, r3, lsr #14
 1929 0ec0 2695     		str	r5, [sp, #152]
 1930              	.LVL401:
 262:..\fips202.c  ****     Aka = BCa ^ ((~BCe) & BCi);
 1931              		.loc 1 262 0 discriminator 3
 1932 0ec2 A2AB     		add	r3, sp, #648
 1933              	.LVL402:
 1934 0ec4 D3E90089 		ldrd	r8, [r3]
 1935              	.LVL403:
 1936 0ec8 DDE92201 		ldrd	r0, [sp, #136]
 1937 0ecc 20EA0805 		bic	r5, r0, r8
 1938 0ed0 21EA0906 		bic	r6, r1, r9
 1939 0ed4 2A46     		mov	r2, r5
 1940 0ed6 A0A9     		add	r1, sp, #640
 1941              	.LVL404:
 1942 0ed8 D1E90045 		ldrd	r4, [r1]
 1943 0edc 2046     		mov	r0, r4
 1944 0ede 2946     		mov	r1, r5
 1945              	.LVL405:
 1946 0ee0 5040     		eors	r0, r0, r2
 1947 0ee2 7140     		eors	r1, r1, r6
 1948 0ee4 4AAB     		add	r3, sp, #296
 1949              	.LVL406:
 1950 0ee6 C3E90001 		strd	r0, [r3]
 1951              	.LVL407:
 263:..\fips202.c  ****     Ake = BCe ^ ((~BCi) & BCo);
 1952              		.loc 1 263 0 discriminator 3
 1953 0eea DDE92401 		ldrd	r0, [sp, #144]
 1954              	.LVL408:
 1955 0eee DDE92267 		ldrd	r6, [sp, #136]
ARM GAS  C:\Users\bogur\AppData\Local\Temp\ccXFXavo.s 			page 40


 1956 0ef2 20EA0600 		bic	r0, r0, r6
 1957 0ef6 21EA0701 		bic	r1, r1, r7
 1958 0efa 4646     		mov	r6, r8
 1959 0efc 4F46     		mov	r7, r9
 1960 0efe 4640     		eors	r6, r6, r0
 1961 0f00 4F40     		eors	r7, r7, r1
 1962 0f02 4CAB     		add	r3, sp, #304
 1963 0f04 C3E90067 		strd	r6, [r3]
 1964              	.LVL409:
 264:..\fips202.c  ****     Aki = BCi ^ ((~BCo) & BCu);
 1965              		.loc 1 264 0 discriminator 3
 1966 0f08 DDE92401 		ldrd	r0, [sp, #144]
 1967 0f0c DDE92623 		ldrd	r2, [sp, #152]
 1968 0f10 22EA0000 		bic	r0, r2, r0
 1969 0f14 23EA0101 		bic	r1, r3, r1
 1970 0f18 DDE92267 		ldrd	r6, [sp, #136]
 1971              	.LVL410:
 1972 0f1c 4640     		eors	r6, r6, r0
 1973 0f1e 4F40     		eors	r7, r7, r1
 1974 0f20 4EA9     		add	r1, sp, #312
 1975 0f22 C1E90067 		strd	r6, [r1]
 1976              	.LVL411:
 265:..\fips202.c  ****     Ako = BCo ^ ((~BCu) & BCa);
 1977              		.loc 1 265 0 discriminator 3
 1978 0f26 24EA0200 		bic	r0, r4, r2
 1979 0f2a 25EA0301 		bic	r1, r5, r3
 1980 0f2e 0246     		mov	r2, r0
 1981 0f30 0B46     		mov	r3, r1
 1982 0f32 DDE92401 		ldrd	r0, [sp, #144]
 1983 0f36 5040     		eors	r0, r0, r2
 1984 0f38 5940     		eors	r1, r1, r3
 1985 0f3a 50AB     		add	r3, sp, #320
 1986 0f3c C3E90001 		strd	r0, [r3]
 1987              	.LVL412:
 266:..\fips202.c  ****     Aku = BCu ^ ((~BCa) & BCe);
 1988              		.loc 1 266 0 discriminator 3
 1989 0f40 28EA0400 		bic	r0, r8, r4
 1990              	.LVL413:
 1991 0f44 29EA0501 		bic	r1, r9, r5
 1992 0f48 DDE92667 		ldrd	r6, [sp, #152]
 1993              	.LVL414:
 1994 0f4c 4640     		eors	r6, r6, r0
 1995 0f4e 4F40     		eors	r7, r7, r1
 1996 0f50 52AB     		add	r3, sp, #328
 1997              	.LVL415:
 1998 0f52 C3E90067 		strd	r6, [r3]
 1999              	.LVL416:
 267:..\fips202.c  **** 
 268:..\fips202.c  ****     Ebu ^= Du;
 2000              		.loc 1 268 0 discriminator 3
 2001 0f56 72AB     		add	r3, sp, #456
 2002 0f58 D3E90034 		ldrd	r3, [r3]
 2003 0f5c DDE90001 		ldrd	r0, [sp]
 2004 0f60 5840     		eors	r0, r0, r3
 2005 0f62 6140     		eors	r1, r1, r4
 2006 0f64 0C46     		mov	r4, r1
 2007              	.LVL417:
ARM GAS  C:\Users\bogur\AppData\Local\Temp\ccXFXavo.s 			page 41


 269:..\fips202.c  ****     BCa = ROL(Ebu, 27);
 2008              		.loc 1 269 0 discriminator 3
 2009 0f66 C906     		lsls	r1, r1, #27
 2010 0f68 41EA5015 		orr	r5, r1, r0, lsr #5
 2011 0f6c A595     		str	r5, [sp, #660]
 2012 0f6e 01E0     		b	.L13
 2013              	.L14:
 2014              		.align	2
 2015              	.L12:
 2016 0f70 00000000 		.word	.LANCHOR0
 2017              	.L13:
 2018 0f74 C206     		lsls	r2, r0, #27
 2019 0f76 42EA5415 		orr	r5, r2, r4, lsr #5
 2020 0f7a A495     		str	r5, [sp, #656]
 2021              	.LVL418:
 270:..\fips202.c  ****     Ega ^= Da;
 2022              		.loc 1 270 0 discriminator 3
 2023 0f7c 56AB     		add	r3, sp, #344
 2024              	.LVL419:
 2025 0f7e D3E90012 		ldrd	r1, [r3]
 2026 0f82 DDE90245 		ldrd	r4, [sp, #8]
 2027 0f86 6140     		eors	r1, r1, r4
 2028 0f88 6A40     		eors	r2, r2, r5
 2029 0f8a 1346     		mov	r3, r2
 2030              	.LVL420:
 2031 0f8c 0A46     		mov	r2, r1
 2032              	.LVL421:
 271:..\fips202.c  ****     BCe = ROL(Ega, 36);
 2033              		.loc 1 271 0 discriminator 3
 2034 0f8e 090F     		lsrs	r1, r1, #28
 2035 0f90 41EA0311 		orr	r1, r1, r3, lsl #4
 2036 0f94 A691     		str	r1, [sp, #664]
 2037 0f96 1B0F     		lsrs	r3, r3, #28
 2038 0f98 43EA0215 		orr	r5, r3, r2, lsl #4
 2039 0f9c A795     		str	r5, [sp, #668]
 2040              	.LVL422:
 272:..\fips202.c  ****     Eke ^= De;
 2041              		.loc 1 272 0 discriminator 3
 2042 0f9e 5CAB     		add	r3, sp, #368
 2043 0fa0 D3E90034 		ldrd	r3, [r3]
 2044 0fa4 DDE90412 		ldrd	r1, [sp, #16]
 2045 0fa8 4B40     		eors	r3, r3, r1
 2046 0faa 5440     		eors	r4, r4, r2
 2047 0fac 1A46     		mov	r2, r3
 2048              	.LVL423:
 273:..\fips202.c  ****     BCi = ROL(Eke, 10);
 2049              		.loc 1 273 0 discriminator 3
 2050 0fae A102     		lsls	r1, r4, #10
 2051 0fb0 41EA9255 		orr	r5, r1, r2, lsr #22
 2052 0fb4 2995     		str	r5, [sp, #164]
 2053 0fb6 9202     		lsls	r2, r2, #10
 2054 0fb8 42EA9455 		orr	r5, r2, r4, lsr #22
 2055 0fbc 2895     		str	r5, [sp, #160]
 2056              	.LVL424:
 274:..\fips202.c  ****     Emi ^= Di;
 2057              		.loc 1 274 0 discriminator 3
 2058 0fbe 58AB     		add	r3, sp, #352
ARM GAS  C:\Users\bogur\AppData\Local\Temp\ccXFXavo.s 			page 42


 2059 0fc0 D3E90012 		ldrd	r1, [r3]
 2060 0fc4 81EA0A01 		eor	r1, r1, r10
 2061 0fc8 82EA0B02 		eor	r2, r2, fp
 2062 0fcc 1346     		mov	r3, r2
 2063 0fce 0A46     		mov	r2, r1
 2064              	.LVL425:
 275:..\fips202.c  ****     BCo = ROL(Emi, 15);
 2065              		.loc 1 275 0 discriminator 3
 2066 0fd0 D903     		lsls	r1, r3, #15
 2067 0fd2 41EA5241 		orr	r1, r1, r2, lsr #17
 2068 0fd6 2B91     		str	r1, [sp, #172]
 2069 0fd8 D203     		lsls	r2, r2, #15
 2070              	.LVL426:
 2071 0fda 42EA5345 		orr	r5, r2, r3, lsr #17
 2072 0fde 2A95     		str	r5, [sp, #168]
 2073              	.LVL427:
 276:..\fips202.c  ****     Eso ^= Do;
 2074              		.loc 1 276 0 discriminator 3
 2075 0fe0 54AB     		add	r3, sp, #336
 2076 0fe2 D3E90023 		ldrd	r2, [r3]
 2077 0fe6 DDE90645 		ldrd	r4, [sp, #24]
 2078 0fea 5440     		eors	r4, r4, r2
 2079 0fec 5D40     		eors	r5, r5, r3
 2080              	.LVL428:
 277:..\fips202.c  ****     BCu = ROL(Eso, 56);
 2081              		.loc 1 277 0 discriminator 3
 2082 0fee 210A     		lsrs	r1, r4, #8
 2083 0ff0 41EA0561 		orr	r1, r1, r5, lsl #24
 2084 0ff4 2C91     		str	r1, [sp, #176]
 2085 0ff6 2B0A     		lsrs	r3, r5, #8
 2086 0ff8 43EA0465 		orr	r5, r3, r4, lsl #24
 2087 0ffc 2D95     		str	r5, [sp, #180]
 2088              	.LVL429:
 278:..\fips202.c  ****     Ama = BCa ^ ((~BCe) & BCi);
 2089              		.loc 1 278 0 discriminator 3
 2090 0ffe A6AB     		add	r3, sp, #664
 2091              	.LVL430:
 2092 1000 D3E90089 		ldrd	r8, [r3]
 2093 1004 DDE92812 		ldrd	r1, [sp, #160]
 2094 1008 21EA0805 		bic	r5, r1, r8
 2095 100c 22EA0906 		bic	r6, r2, r9
 2096              	.LVL431:
 2097 1010 2A46     		mov	r2, r5
 2098 1012 A4A9     		add	r1, sp, #656
 2099              	.LVL432:
 2100 1014 D1E90045 		ldrd	r4, [r1]
 2101 1018 2046     		mov	r0, r4
 2102 101a 2946     		mov	r1, r5
 2103              	.LVL433:
 2104 101c 5040     		eors	r0, r0, r2
 2105 101e 7140     		eors	r1, r1, r6
 2106 1020 54AB     		add	r3, sp, #336
 2107              	.LVL434:
 2108 1022 C3E90001 		strd	r0, [r3]
 2109              	.LVL435:
 279:..\fips202.c  ****     Ame = BCe ^ ((~BCi) & BCo);
 2110              		.loc 1 279 0 discriminator 3
ARM GAS  C:\Users\bogur\AppData\Local\Temp\ccXFXavo.s 			page 43


 2111 1026 DDE92A12 		ldrd	r1, [sp, #168]
 2112 102a DDE92867 		ldrd	r6, [sp, #160]
 2113 102e 21EA0601 		bic	r1, r1, r6
 2114 1032 22EA0702 		bic	r2, r2, r7
 2115 1036 1346     		mov	r3, r2
 2116 1038 4646     		mov	r6, r8
 2117 103a 4F46     		mov	r7, r9
 2118 103c 4E40     		eors	r6, r6, r1
 2119 103e 5F40     		eors	r7, r7, r3
 2120 1040 56AB     		add	r3, sp, #344
 2121 1042 C3E90067 		strd	r6, [r3]
 2122              	.LVL436:
 280:..\fips202.c  ****     Ami = BCi ^ ((~BCo) & BCu);
 2123              		.loc 1 280 0 discriminator 3
 2124 1046 DDE92A12 		ldrd	r1, [sp, #168]
 2125 104a DDE92C67 		ldrd	r6, [sp, #176]
 2126              	.LVL437:
 2127 104e 26EA0101 		bic	r1, r6, r1
 2128 1052 27EA0202 		bic	r2, r7, r2
 2129 1056 1346     		mov	r3, r2
 2130              	.LVL438:
 2131 1058 DDE92867 		ldrd	r6, [sp, #160]
 2132 105c 4E40     		eors	r6, r6, r1
 2133 105e 5F40     		eors	r7, r7, r3
 2134 1060 58AB     		add	r3, sp, #352
 2135 1062 C3E90067 		strd	r6, [r3]
 2136              	.LVL439:
 281:..\fips202.c  ****     Amo = BCo ^ ((~BCu) & BCa);
 2137              		.loc 1 281 0 discriminator 3
 2138 1066 DDE92C67 		ldrd	r6, [sp, #176]
 2139              	.LVL440:
 2140 106a 24EA0601 		bic	r1, r4, r6
 2141 106e 25EA0702 		bic	r2, r5, r7
 2142 1072 1346     		mov	r3, r2
 2143 1074 0A46     		mov	r2, r1
 2144 1076 DDE92A01 		ldrd	r0, [sp, #168]
 2145              	.LVL441:
 2146 107a 5040     		eors	r0, r0, r2
 2147 107c 5940     		eors	r1, r1, r3
 2148 107e 5AAB     		add	r3, sp, #360
 2149 1080 C3E90001 		strd	r0, [r3]
 2150              	.LVL442:
 282:..\fips202.c  ****     Amu = BCu ^ ((~BCa) & BCe);
 2151              		.loc 1 282 0 discriminator 3
 2152 1084 28EA0401 		bic	r1, r8, r4
 2153 1088 29EA0502 		bic	r2, r9, r5
 2154 108c 1346     		mov	r3, r2
 2155 108e DDE92C67 		ldrd	r6, [sp, #176]
 2156 1092 4E40     		eors	r6, r6, r1
 2157 1094 5F40     		eors	r7, r7, r3
 2158 1096 5CAB     		add	r3, sp, #368
 2159 1098 C3E90067 		strd	r6, [r3]
 2160              	.LVL443:
 283:..\fips202.c  **** 
 284:..\fips202.c  ****     Ebi ^= Di;
 2161              		.loc 1 284 0 discriminator 3
 2162 109c 66AB     		add	r3, sp, #408
ARM GAS  C:\Users\bogur\AppData\Local\Temp\ccXFXavo.s 			page 44


 2163 109e D3E90034 		ldrd	r3, [r3]
 2164 10a2 83EA0A03 		eor	r3, r3, r10
 2165 10a6 84EA0B04 		eor	r4, r4, fp
 2166              	.LVL444:
 2167 10aa 9A46     		mov	r10, r3
 2168              	.LVL445:
 285:..\fips202.c  ****     BCa = ROL(Ebi, 62);
 2169              		.loc 1 285 0 discriminator 3
 2170 10ac 9B08     		lsrs	r3, r3, #2
 2171 10ae 43EA8473 		orr	r3, r3, r4, lsl #30
 2172 10b2 A893     		str	r3, [sp, #672]
 2173 10b4 A308     		lsrs	r3, r4, #2
 2174 10b6 43EA8A73 		orr	r3, r3, r10, lsl #30
 2175 10ba A993     		str	r3, [sp, #676]
 2176              	.LVL446:
 286:..\fips202.c  ****     Ego ^= Do;
 2177              		.loc 1 286 0 discriminator 3
 2178 10bc 62AB     		add	r3, sp, #392
 2179 10be D3E90001 		ldrd	r0, [r3]
 2180              	.LVL447:
 2181 10c2 DDE90634 		ldrd	r3, [sp, #24]
 2182 10c6 4340     		eors	r3, r3, r0
 2183 10c8 4C40     		eors	r4, r4, r1
 2184 10ca 1846     		mov	r0, r3
 2185              	.LVL448:
 287:..\fips202.c  ****     BCe = ROL(Ego, 55);
 2186              		.loc 1 287 0 discriminator 3
 2187 10cc 5B0A     		lsrs	r3, r3, #9
 2188 10ce 43EAC453 		orr	r3, r3, r4, lsl #23
 2189 10d2 AA93     		str	r3, [sp, #680]
 2190 10d4 630A     		lsrs	r3, r4, #9
 2191 10d6 43EAC053 		orr	r3, r3, r0, lsl #23
 2192 10da AB93     		str	r3, [sp, #684]
 2193              	.LVL449:
 288:..\fips202.c  ****     Eku ^= Du;
 2194              		.loc 1 288 0 discriminator 3
 2195 10dc 5EAB     		add	r3, sp, #376
 2196              	.LVL450:
 2197 10de D3E90034 		ldrd	r3, [r3]
 2198              	.LVL451:
 2199 10e2 DDE90012 		ldrd	r1, [sp]
 2200 10e6 5940     		eors	r1, r1, r3
 2201 10e8 6240     		eors	r2, r2, r4
 2202 10ea 1446     		mov	r4, r2
 2203 10ec 0A46     		mov	r2, r1
 2204              	.LVL452:
 289:..\fips202.c  ****     BCi = ROL(Eku, 39);
 2205              		.loc 1 289 0 discriminator 3
 2206 10ee 490E     		lsrs	r1, r1, #25
 2207 10f0 41EAC411 		orr	r1, r1, r4, lsl #7
 2208 10f4 AC91     		str	r1, [sp, #688]
 2209 10f6 630E     		lsrs	r3, r4, #25
 2210 10f8 43EAC213 		orr	r3, r3, r2, lsl #7
 2211 10fc AD93     		str	r3, [sp, #692]
 2212              	.LVL453:
 290:..\fips202.c  ****     Ema ^= Da;
 2213              		.loc 1 290 0 discriminator 3
ARM GAS  C:\Users\bogur\AppData\Local\Temp\ccXFXavo.s 			page 45


 2214 10fe 64AB     		add	r3, sp, #400
 2215              	.LVL454:
 2216 1100 D3E90023 		ldrd	r2, [r3]
 2217 1104 DDE90245 		ldrd	r4, [sp, #8]
 2218 1108 6240     		eors	r2, r2, r4
 2219 110a 6B40     		eors	r3, r3, r5
 2220              	.LVL455:
 291:..\fips202.c  ****     BCo = ROL(Ema, 41);
 2221              		.loc 1 291 0 discriminator 3
 2222 110c D10D     		lsrs	r1, r2, #23
 2223 110e 41EA4321 		orr	r1, r1, r3, lsl #9
 2224 1112 AE91     		str	r1, [sp, #696]
 2225 1114 DB0D     		lsrs	r3, r3, #23
 2226 1116 43EA4223 		orr	r3, r3, r2, lsl #9
 2227 111a AF93     		str	r3, [sp, #700]
 2228              	.LVL456:
 292:..\fips202.c  ****     Ese ^= De;
 2229              		.loc 1 292 0 discriminator 3
 2230 111c 60AB     		add	r3, sp, #384
 2231 111e D3E90023 		ldrd	r2, [r3]
 2232              	.LVL457:
 2233 1122 DDE90445 		ldrd	r4, [sp, #16]
 2234 1126 6240     		eors	r2, r2, r4
 2235 1128 6B40     		eors	r3, r3, r5
 2236              	.LVL458:
 293:..\fips202.c  ****     BCu = ROL(Ese, 2);
 2237              		.loc 1 293 0 discriminator 3
 2238 112a 9900     		lsls	r1, r3, #2
 2239 112c 41EA9271 		orr	r1, r1, r2, lsr #30
 2240 1130 3791     		str	r1, [sp, #220]
 2241 1132 9200     		lsls	r2, r2, #2
 2242              	.LVL459:
 2243 1134 42EA9373 		orr	r3, r2, r3, lsr #30
 2244 1138 3693     		str	r3, [sp, #216]
 2245              	.LVL460:
 294:..\fips202.c  ****     Asa = BCa ^ ((~BCe) & BCi);
 2246              		.loc 1 294 0 discriminator 3
 2247 113a AAAB     		add	r3, sp, #680
 2248              	.LVL461:
 2249 113c D3E90067 		ldrd	r6, [r3]
 2250              	.LVL462:
 2251 1140 ACA9     		add	r1, sp, #688
 2252              	.LVL463:
 2253 1142 D1E90089 		ldrd	r8, [r1]
 2254 1146 28EA0602 		bic	r2, r8, r6
 2255 114a 29EA0703 		bic	r3, r9, r7
 2256              	.LVL464:
 2257 114e A8A9     		add	r1, sp, #672
 2258              	.LVL465:
 2259 1150 D1E900AB 		ldrd	r10, [r1]
 2260 1154 5046     		mov	r0, r10
 2261 1156 5946     		mov	r1, fp
 2262              	.LVL466:
 2263 1158 5040     		eors	r0, r0, r2
 2264 115a 5940     		eors	r1, r1, r3
 2265 115c 5EAB     		add	r3, sp, #376
 2266 115e C3E90001 		strd	r0, [r3]
ARM GAS  C:\Users\bogur\AppData\Local\Temp\ccXFXavo.s 			page 46


 2267              	.LVL467:
 295:..\fips202.c  ****     Ase = BCe ^ ((~BCi) & BCo);
 2268              		.loc 1 295 0 discriminator 3
 2269 1162 AEAB     		add	r3, sp, #696
 2270              	.LVL468:
 2271 1164 D3E90001 		ldrd	r0, [r3]
 2272              	.LVL469:
 2273 1168 20EA0802 		bic	r2, r0, r8
 2274 116c 21EA0903 		bic	r3, r1, r9
 2275              	.LVL470:
 2276 1170 3446     		mov	r4, r6
 2277 1172 3D46     		mov	r5, r7
 2278 1174 5440     		eors	r4, r4, r2
 2279 1176 5D40     		eors	r5, r5, r3
 2280 1178 60AB     		add	r3, sp, #384
 2281 117a C3E90045 		strd	r4, [r3]
 2282              	.LVL471:
 296:..\fips202.c  ****     Asi = BCi ^ ((~BCo) & BCu);
 2283              		.loc 1 296 0 discriminator 3
 2284 117e DDE93645 		ldrd	r4, [sp, #216]
 2285              	.LVL472:
 2286 1182 24EA0002 		bic	r2, r4, r0
 2287 1186 25EA0103 		bic	r3, r5, r1
 2288 118a 4446     		mov	r4, r8
 2289 118c 4D46     		mov	r5, r9
 2290 118e 5440     		eors	r4, r4, r2
 2291 1190 5D40     		eors	r5, r5, r3
 2292 1192 62AB     		add	r3, sp, #392
 2293 1194 C3E90045 		strd	r4, [r3]
 2294              	.LVL473:
 297:..\fips202.c  ****     Aso = BCo ^ ((~BCu) & BCa);
 2295              		.loc 1 297 0 discriminator 3
 2296 1198 DDE93689 		ldrd	r8, [sp, #216]
 2297              	.LVL474:
 2298 119c 2AEA0802 		bic	r2, r10, r8
 2299 11a0 2BEA0903 		bic	r3, fp, r9
 2300 11a4 5040     		eors	r0, r0, r2
 2301              	.LVL475:
 2302 11a6 5940     		eors	r1, r1, r3
 2303 11a8 64AB     		add	r3, sp, #400
 2304 11aa C3E90001 		strd	r0, [r3]
 2305              	.LVL476:
 298:..\fips202.c  ****     Asu = BCu ^ ((~BCa) & BCe);
 2306              		.loc 1 298 0 discriminator 3
 2307 11ae 26EA0A0A 		bic	r10, r6, r10
 2308              	.LVL477:
 2309 11b2 27EA0B0B 		bic	fp, r7, fp
 2310 11b6 88EA0A04 		eor	r4, r8, r10
 2311              	.LVL478:
 2312 11ba 89EA0B05 		eor	r5, r9, fp
 2313 11be 66AB     		add	r3, sp, #408
 2314 11c0 C3E90045 		strd	r4, [r3]
 2315              	.LVL479:
 108:..\fips202.c  ****   {
 2316              		.loc 1 108 0 discriminator 3
 2317 11c4 0CF1020C 		add	ip, ip, #2
 2318              	.LVL480:
ARM GAS  C:\Users\bogur\AppData\Local\Temp\ccXFXavo.s 			page 47


 2319              	.L9:
 108:..\fips202.c  ****   {
 2320              		.loc 1 108 0 is_stmt 0 discriminator 1
 2321 11c8 BCF1170F 		cmp	ip, #23
 2322 11cc 7EF7A5AF 		ble	.L10
 2323 11d0 66AB     		add	r3, sp, #408
 2324              	.LVL481:
 2325 11d2 D3E900AB 		ldrd	r10, [r3]
 299:..\fips202.c  ****   }
 300:..\fips202.c  **** 
 301:..\fips202.c  ****   //copyToState(state, A)
 302:..\fips202.c  ****   state[0] = Aba;
 2326              		.loc 1 302 0 is_stmt 1
 2327 11d6 B19A     		ldr	r2, [sp, #708]
 2328 11d8 1346     		mov	r3, r2
 2329              	.LVL482:
 2330 11da DDE92E01 		ldrd	r0, [sp, #184]
 2331 11de C2E90001 		strd	r0, [r2]
 303:..\fips202.c  ****   state[1] = Abe;
 2332              		.loc 1 303 0
 2333 11e2 DDE93812 		ldrd	r1, [sp, #224]
 2334 11e6 C3E90212 		strd	r1, [r3, #8]
 304:..\fips202.c  ****   state[2] = Abi;
 2335              		.loc 1 304 0
 2336 11ea 1A46     		mov	r2, r3
 2337 11ec 1946     		mov	r1, r3
 2338 11ee DDE93A34 		ldrd	r3, [sp, #232]
 2339 11f2 C2E90434 		strd	r3, [r2, #16]
 305:..\fips202.c  ****   state[3] = Abo;
 2340              		.loc 1 305 0
 2341 11f6 DDE93C23 		ldrd	r2, [sp, #240]
 2342 11fa C1E90623 		strd	r2, [r1, #24]
 306:..\fips202.c  ****   state[4] = Abu;
 2343              		.loc 1 306 0
 2344 11fe 0B46     		mov	r3, r1
 2345 1200 DDE93E12 		ldrd	r1, [sp, #248]
 2346 1204 C3E90812 		strd	r1, [r3, #32]
 307:..\fips202.c  ****   state[5] = Aga;
 2347              		.loc 1 307 0
 2348 1208 1A46     		mov	r2, r3
 2349 120a 1946     		mov	r1, r3
 2350 120c 40AB     		add	r3, sp, #256
 2351              	.LVL483:
 2352 120e D3E90034 		ldrd	r3, [r3]
 2353              	.LVL484:
 2354 1212 C2E90A34 		strd	r3, [r2, #40]
 308:..\fips202.c  ****   state[6] = Age;
 2355              		.loc 1 308 0
 2356 1216 42AB     		add	r3, sp, #264
 2357              	.LVL485:
 2358 1218 D3E90023 		ldrd	r2, [r3]
 2359 121c C1E90C23 		strd	r2, [r1, #48]
 309:..\fips202.c  ****   state[7] = Agi;
 2360              		.loc 1 309 0
 2361 1220 0B46     		mov	r3, r1
 2362              	.LVL486:
 2363 1222 44AA     		add	r2, sp, #272
ARM GAS  C:\Users\bogur\AppData\Local\Temp\ccXFXavo.s 			page 48


 2364              	.LVL487:
 2365 1224 D2E90012 		ldrd	r1, [r2]
 2366 1228 C3E90E12 		strd	r1, [r3, #56]
 310:..\fips202.c  ****   state[8] = Ago;
 2367              		.loc 1 310 0
 2368 122c 1A46     		mov	r2, r3
 2369              	.LVL488:
 2370 122e 1946     		mov	r1, r3
 2371              	.LVL489:
 2372 1230 46AB     		add	r3, sp, #280
 2373              	.LVL490:
 2374 1232 D3E90034 		ldrd	r3, [r3]
 2375              	.LVL491:
 2376 1236 C2E91034 		strd	r3, [r2, #64]
 311:..\fips202.c  ****   state[9] = Agu;
 2377              		.loc 1 311 0
 2378 123a 48AB     		add	r3, sp, #288
 2379              	.LVL492:
 2380 123c D3E90023 		ldrd	r2, [r3]
 2381 1240 C1E91223 		strd	r2, [r1, #72]
 312:..\fips202.c  ****   state[10] = Aka;
 2382              		.loc 1 312 0
 2383 1244 0B46     		mov	r3, r1
 2384              	.LVL493:
 2385 1246 4AAA     		add	r2, sp, #296
 2386              	.LVL494:
 2387 1248 D2E90012 		ldrd	r1, [r2]
 2388 124c C3E91412 		strd	r1, [r3, #80]
 313:..\fips202.c  ****   state[11] = Ake;
 2389              		.loc 1 313 0
 2390 1250 1A46     		mov	r2, r3
 2391              	.LVL495:
 2392 1252 1946     		mov	r1, r3
 2393              	.LVL496:
 2394 1254 4CAB     		add	r3, sp, #304
 2395              	.LVL497:
 2396 1256 D3E90034 		ldrd	r3, [r3]
 2397              	.LVL498:
 2398 125a C2E91634 		strd	r3, [r2, #88]
 314:..\fips202.c  ****   state[12] = Aki;
 2399              		.loc 1 314 0
 2400 125e 4EAB     		add	r3, sp, #312
 2401              	.LVL499:
 2402 1260 D3E90023 		ldrd	r2, [r3]
 2403 1264 C1E91823 		strd	r2, [r1, #96]
 315:..\fips202.c  ****   state[13] = Ako;
 2404              		.loc 1 315 0
 2405 1268 0B46     		mov	r3, r1
 2406              	.LVL500:
 2407 126a 50AA     		add	r2, sp, #320
 2408              	.LVL501:
 2409 126c D2E90012 		ldrd	r1, [r2]
 2410 1270 C3E91A12 		strd	r1, [r3, #104]
 316:..\fips202.c  ****   state[14] = Aku;
 2411              		.loc 1 316 0
 2412 1274 1A46     		mov	r2, r3
 2413              	.LVL502:
ARM GAS  C:\Users\bogur\AppData\Local\Temp\ccXFXavo.s 			page 49


 2414 1276 1946     		mov	r1, r3
 2415              	.LVL503:
 2416 1278 52AB     		add	r3, sp, #328
 2417              	.LVL504:
 2418 127a D3E90034 		ldrd	r3, [r3]
 2419              	.LVL505:
 2420 127e C2E91C34 		strd	r3, [r2, #112]
 317:..\fips202.c  ****   state[15] = Ama;
 2421              		.loc 1 317 0
 2422 1282 54AB     		add	r3, sp, #336
 2423              	.LVL506:
 2424 1284 D3E90023 		ldrd	r2, [r3]
 2425 1288 C1E91E23 		strd	r2, [r1, #120]
 318:..\fips202.c  ****   state[16] = Ame;
 2426              		.loc 1 318 0
 2427 128c 0B46     		mov	r3, r1
 2428              	.LVL507:
 2429 128e 56AA     		add	r2, sp, #344
 2430              	.LVL508:
 2431 1290 D2E90012 		ldrd	r1, [r2]
 2432 1294 C3E92012 		strd	r1, [r3, #128]
 319:..\fips202.c  ****   state[17] = Ami;
 2433              		.loc 1 319 0
 2434 1298 1A46     		mov	r2, r3
 2435              	.LVL509:
 2436 129a 1946     		mov	r1, r3
 2437              	.LVL510:
 2438 129c 58AB     		add	r3, sp, #352
 2439              	.LVL511:
 2440 129e D3E90034 		ldrd	r3, [r3]
 2441              	.LVL512:
 2442 12a2 C2E92234 		strd	r3, [r2, #136]
 320:..\fips202.c  ****   state[18] = Amo;
 2443              		.loc 1 320 0
 2444 12a6 5AAB     		add	r3, sp, #360
 2445              	.LVL513:
 2446 12a8 D3E90023 		ldrd	r2, [r3]
 2447 12ac C1E92423 		strd	r2, [r1, #144]
 321:..\fips202.c  ****   state[19] = Amu;
 2448              		.loc 1 321 0
 2449 12b0 0B46     		mov	r3, r1
 2450              	.LVL514:
 2451 12b2 5CAA     		add	r2, sp, #368
 2452              	.LVL515:
 2453 12b4 D2E90012 		ldrd	r1, [r2]
 2454 12b8 C3E92612 		strd	r1, [r3, #152]
 322:..\fips202.c  ****   state[20] = Asa;
 2455              		.loc 1 322 0
 2456 12bc 1A46     		mov	r2, r3
 2457              	.LVL516:
 2458 12be 1946     		mov	r1, r3
 2459              	.LVL517:
 2460 12c0 5EAB     		add	r3, sp, #376
 2461              	.LVL518:
 2462 12c2 D3E90034 		ldrd	r3, [r3]
 2463              	.LVL519:
 2464 12c6 C2E92834 		strd	r3, [r2, #160]
ARM GAS  C:\Users\bogur\AppData\Local\Temp\ccXFXavo.s 			page 50


 323:..\fips202.c  ****   state[21] = Ase;
 2465              		.loc 1 323 0
 2466 12ca 60AB     		add	r3, sp, #384
 2467              	.LVL520:
 2468 12cc D3E90023 		ldrd	r2, [r3]
 2469 12d0 C1E92A23 		strd	r2, [r1, #168]
 324:..\fips202.c  ****   state[22] = Asi;
 2470              		.loc 1 324 0
 2471 12d4 0B46     		mov	r3, r1
 2472              	.LVL521:
 2473 12d6 62AA     		add	r2, sp, #392
 2474              	.LVL522:
 2475 12d8 D2E90012 		ldrd	r1, [r2]
 2476 12dc C3E92C12 		strd	r1, [r3, #176]
 325:..\fips202.c  ****   state[23] = Aso;
 2477              		.loc 1 325 0
 2478 12e0 1A46     		mov	r2, r3
 2479              	.LVL523:
 2480 12e2 64AB     		add	r3, sp, #400
 2481              	.LVL524:
 2482 12e4 D3E90034 		ldrd	r3, [r3]
 2483              	.LVL525:
 2484 12e8 C2E92E34 		strd	r3, [r2, #184]
 326:..\fips202.c  ****   state[24] = Asu;
 2485              		.loc 1 326 0
 2486 12ec 5346     		mov	r3, r10
 2487              	.LVL526:
 2488 12ee 5C46     		mov	r4, fp
 2489 12f0 C2E93034 		strd	r3, [r2, #192]
 327:..\fips202.c  **** 
 328:..\fips202.c  **** #undef round
 329:..\fips202.c  **** }
 2490              		.loc 1 329 0
 2491 12f4 0DF5337D 		add	sp, sp, #716
 2492              		.cfi_def_cfa_offset 36
 2493              		@ sp needed
 2494 12f8 BDE8F08F 		pop	{r4, r5, r6, r7, r8, r9, r10, fp, pc}
 2495              		.cfi_endproc
 2496              	.LFE2:
 2497              		.size	KeccakF1600_StatePermute, .-KeccakF1600_StatePermute
 2498              		.section	.text.keccak_absorb,"ax",%progbits
 2499              		.align	2
 2500              		.thumb
 2501              		.thumb_func
 2502              		.type	keccak_absorb, %function
 2503              	keccak_absorb:
 2504              	.LFB3:
 330:..\fips202.c  **** 
 331:..\fips202.c  **** #include <string.h>
 332:..\fips202.c  **** #define MIN(a, b) ((a) < (b) ? (a) : (b))
 333:..\fips202.c  **** 
 334:..\fips202.c  **** static void keccak_absorb(uint64_t *s,
 335:..\fips202.c  ****                           unsigned int r,
 336:..\fips202.c  ****                           const unsigned char *m, unsigned long long int mlen,
 337:..\fips202.c  ****                           unsigned char p)
 338:..\fips202.c  **** {
 2505              		.loc 1 338 0
ARM GAS  C:\Users\bogur\AppData\Local\Temp\ccXFXavo.s 			page 51


 2506              		.cfi_startproc
 2507              		@ args = 12, pretend = 0, frame = 200
 2508              		@ frame_needed = 0, uses_anonymous_args = 0
 2509              	.LVL527:
 2510 0000 2DE9F04F 		push	{r4, r5, r6, r7, r8, r9, r10, fp, lr}
 2511              		.cfi_def_cfa_offset 36
 2512              		.cfi_offset 4, -36
 2513              		.cfi_offset 5, -32
 2514              		.cfi_offset 6, -28
 2515              		.cfi_offset 7, -24
 2516              		.cfi_offset 8, -20
 2517              		.cfi_offset 9, -16
 2518              		.cfi_offset 10, -12
 2519              		.cfi_offset 11, -8
 2520              		.cfi_offset 14, -4
 2521 0004 B3B0     		sub	sp, sp, #204
 2522              		.cfi_def_cfa_offset 240
 2523 0006 8346     		mov	fp, r0
 2524 0008 8A46     		mov	r10, r1
 2525 000a 1546     		mov	r5, r2
 339:..\fips202.c  ****   unsigned long long i;
 340:..\fips202.c  ****   unsigned char t[200];
 341:..\fips202.c  **** 
 342:..\fips202.c  ****   while (mlen >= r)
 2526              		.loc 1 342 0
 2527 000c 23E0     		b	.L16
 2528              	.LVL528:
 2529              	.L17:
 343:..\fips202.c  ****   {
 344:..\fips202.c  ****     for (i = 0; i < r / 8; ++i)
 345:..\fips202.c  ****       s[i] ^= load64(m + 8 * i);
 2530              		.loc 1 345 0 discriminator 3
 2531 000e F400     		lsls	r4, r6, #3
 2532 0010 2819     		adds	r0, r5, r4
 2533 0012 FFF7FEFF 		bl	load64
 2534              	.LVL529:
 2535 0016 5C44     		add	r4, r4, fp
 2536 0018 D4E90023 		ldrd	r2, [r4]
 2537 001c 5040     		eors	r0, r0, r2
 2538 001e 5940     		eors	r1, r1, r3
 2539 0020 C4E90001 		strd	r0, [r4]
 344:..\fips202.c  ****       s[i] ^= load64(m + 8 * i);
 2540              		.loc 1 344 0 discriminator 3
 2541 0024 0136     		adds	r6, r6, #1
 2542              	.LVL530:
 2543 0026 47F10007 		adc	r7, r7, #0
 2544              	.LVL531:
 2545 002a 01E0     		b	.L18
 2546              	.LVL532:
 2547              	.L25:
 2548 002c 0026     		movs	r6, #0
 2549 002e 0027     		movs	r7, #0
 2550              	.LVL533:
 2551              	.L18:
 344:..\fips202.c  ****       s[i] ^= load64(m + 8 * i);
 2552              		.loc 1 344 0 is_stmt 0 discriminator 1
 2553 0030 4FEADA02 		lsr	r2, r10, #3
ARM GAS  C:\Users\bogur\AppData\Local\Temp\ccXFXavo.s 			page 52


 2554 0034 0023     		movs	r3, #0
 2555 0036 9F42     		cmp	r7, r3
 2556 0038 08BF     		it	eq
 2557 003a 9642     		cmpeq	r6, r2
 2558 003c E7D3     		bcc	.L17
 346:..\fips202.c  **** 
 347:..\fips202.c  ****     KeccakF1600_StatePermute(s);
 2559              		.loc 1 347 0 is_stmt 1
 2560 003e 5846     		mov	r0, fp
 2561 0040 FFF7FEFF 		bl	KeccakF1600_StatePermute
 2562              	.LVL534:
 348:..\fips202.c  ****     mlen -= r;
 2563              		.loc 1 348 0
 2564 0044 DDE93C34 		ldrd	r3, [sp, #240]
 2565 0048 B3EB0803 		subs	r3, r3, r8
 2566 004c 64EB0904 		sbc	r4, r4, r9
 2567 0050 CDE93C34 		strd	r3, [sp, #240]
 2568              	.LVL535:
 349:..\fips202.c  ****     m += r;
 2569              		.loc 1 349 0
 2570 0054 5544     		add	r5, r5, r10
 2571              	.LVL536:
 2572              	.L16:
 342:..\fips202.c  ****   {
 2573              		.loc 1 342 0
 2574 0056 D046     		mov	r8, r10
 2575 0058 4FF00009 		mov	r9, #0
 2576 005c DDE93C34 		ldrd	r3, [sp, #240]
 2577 0060 4C45     		cmp	r4, r9
 2578 0062 08BF     		it	eq
 2579 0064 5345     		cmpeq	r3, r10
 2580 0066 E1D2     		bcs	.L25
 2581              	.LVL537:
 2582 0068 0022     		movs	r2, #0
 2583 006a 0023     		movs	r3, #0
 2584 006c 06E0     		b	.L19
 2585              	.LVL538:
 2586              	.L20:
 350:..\fips202.c  ****   }
 351:..\fips202.c  **** 
 352:..\fips202.c  ****   for (i = 0; i < r; ++i)
 353:..\fips202.c  ****     t[i] = 0;
 2587              		.loc 1 353 0 discriminator 3
 2588 006e 0DEB0201 		add	r1, sp, r2
 2589 0072 0020     		movs	r0, #0
 2590 0074 0870     		strb	r0, [r1]
 352:..\fips202.c  ****     t[i] = 0;
 2591              		.loc 1 352 0 discriminator 3
 2592 0076 0132     		adds	r2, r2, #1
 2593              	.LVL539:
 2594 0078 43F10003 		adc	r3, r3, #0
 2595              	.LVL540:
 2596              	.L19:
 352:..\fips202.c  ****     t[i] = 0;
 2597              		.loc 1 352 0 is_stmt 0 discriminator 1
 2598 007c 4B45     		cmp	r3, r9
 2599 007e 08BF     		it	eq
ARM GAS  C:\Users\bogur\AppData\Local\Temp\ccXFXavo.s 			page 53


 2600 0080 4245     		cmpeq	r2, r8
 2601 0082 F4D3     		bcc	.L20
 2602 0084 0022     		movs	r2, #0
 2603              	.LVL541:
 2604 0086 0023     		movs	r3, #0
 2605 0088 07E0     		b	.L21
 2606              	.LVL542:
 2607              	.L22:
 354:..\fips202.c  ****   for (i = 0; i < mlen; ++i)
 355:..\fips202.c  ****     t[i] = m[i];
 2608              		.loc 1 355 0 is_stmt 1 discriminator 3
 2609 008a A918     		adds	r1, r5, r2
 2610 008c 0878     		ldrb	r0, [r1]	@ zero_extendqisi2
 2611 008e 0DEB0201 		add	r1, sp, r2
 2612 0092 0870     		strb	r0, [r1]
 354:..\fips202.c  ****   for (i = 0; i < mlen; ++i)
 2613              		.loc 1 354 0 discriminator 3
 2614 0094 0132     		adds	r2, r2, #1
 2615              	.LVL543:
 2616 0096 43F10003 		adc	r3, r3, #0
 2617              	.LVL544:
 2618              	.L21:
 354:..\fips202.c  ****   for (i = 0; i < mlen; ++i)
 2619              		.loc 1 354 0 is_stmt 0 discriminator 1
 2620 009a DDE93C01 		ldrd	r0, [sp, #240]
 2621 009e 8B42     		cmp	r3, r1
 2622 00a0 08BF     		it	eq
 2623 00a2 8242     		cmpeq	r2, r0
 2624 00a4 F1D3     		bcc	.L22
 356:..\fips202.c  ****   t[i] = p;
 2625              		.loc 1 356 0 is_stmt 1
 2626 00a6 6A44     		add	r2, r2, sp
 2627              	.LVL545:
 2628 00a8 9DF8F830 		ldrb	r3, [sp, #248]	@ zero_extendqisi2
 2629 00ac 1370     		strb	r3, [r2]
 357:..\fips202.c  ****   t[r - 1] |= 128;
 2630              		.loc 1 357 0
 2631 00ae 0AF1FF33 		add	r3, r10, #-1
 2632 00b2 32AA     		add	r2, sp, #200
 2633 00b4 1344     		add	r3, r3, r2
 2634 00b6 13F8C82C 		ldrb	r2, [r3, #-200]	@ zero_extendqisi2
 2635 00ba 62F07F02 		orn	r2, r2, #127
 2636 00be 03F8C82C 		strb	r2, [r3, #-200]
 2637              	.LVL546:
 358:..\fips202.c  ****   for (i = 0; i < r / 8; ++i)
 2638              		.loc 1 358 0
 2639 00c2 0026     		movs	r6, #0
 2640 00c4 0027     		movs	r7, #0
 2641 00c6 0EE0     		b	.L23
 2642              	.LVL547:
 2643              	.L24:
 359:..\fips202.c  ****     s[i] ^= load64(t + 8 * i);
 2644              		.loc 1 359 0 discriminator 3
 2645 00c8 F400     		lsls	r4, r6, #3
 2646 00ca 0DEB0400 		add	r0, sp, r4
 2647 00ce FFF7FEFF 		bl	load64
 2648              	.LVL548:
ARM GAS  C:\Users\bogur\AppData\Local\Temp\ccXFXavo.s 			page 54


 2649 00d2 5C44     		add	r4, r4, fp
 2650 00d4 D4E90023 		ldrd	r2, [r4]
 2651 00d8 5040     		eors	r0, r0, r2
 2652 00da 5940     		eors	r1, r1, r3
 2653 00dc C4E90001 		strd	r0, [r4]
 358:..\fips202.c  ****   for (i = 0; i < r / 8; ++i)
 2654              		.loc 1 358 0 discriminator 3
 2655 00e0 0136     		adds	r6, r6, #1
 2656              	.LVL549:
 2657 00e2 47F10007 		adc	r7, r7, #0
 2658              	.LVL550:
 2659              	.L23:
 358:..\fips202.c  ****   for (i = 0; i < r / 8; ++i)
 2660              		.loc 1 358 0 is_stmt 0 discriminator 1
 2661 00e6 4FEADA02 		lsr	r2, r10, #3
 2662 00ea 0023     		movs	r3, #0
 2663 00ec 9F42     		cmp	r7, r3
 2664 00ee 08BF     		it	eq
 2665 00f0 9642     		cmpeq	r6, r2
 2666 00f2 E9D3     		bcc	.L24
 360:..\fips202.c  **** }
 2667              		.loc 1 360 0 is_stmt 1
 2668 00f4 33B0     		add	sp, sp, #204
 2669              		.cfi_def_cfa_offset 36
 2670              		@ sp needed
 2671 00f6 BDE8F08F 		pop	{r4, r5, r6, r7, r8, r9, r10, fp, pc}
 2672              		.cfi_endproc
 2673              	.LFE3:
 2674              		.size	keccak_absorb, .-keccak_absorb
 2675 00fa 00BF     		.section	.text.keccak_squeezeblocks,"ax",%progbits
 2676              		.align	2
 2677              		.thumb
 2678              		.thumb_func
 2679              		.type	keccak_squeezeblocks, %function
 2680              	keccak_squeezeblocks:
 2681              	.LFB4:
 361:..\fips202.c  **** 
 362:..\fips202.c  **** static void keccak_squeezeblocks(unsigned char *h, unsigned long long int nblocks,
 363:..\fips202.c  ****                                  uint64_t *s,
 364:..\fips202.c  ****                                  unsigned int r)
 365:..\fips202.c  **** {
 2682              		.loc 1 365 0
 2683              		.cfi_startproc
 2684              		@ args = 8, pretend = 0, frame = 0
 2685              		@ frame_needed = 0, uses_anonymous_args = 0
 2686              	.LVL551:
 2687 0000 2DE9F843 		push	{r3, r4, r5, r6, r7, r8, r9, lr}
 2688              		.cfi_def_cfa_offset 32
 2689              		.cfi_offset 3, -32
 2690              		.cfi_offset 4, -28
 2691              		.cfi_offset 5, -24
 2692              		.cfi_offset 6, -20
 2693              		.cfi_offset 7, -16
 2694              		.cfi_offset 8, -12
 2695              		.cfi_offset 9, -8
 2696              		.cfi_offset 14, -4
 2697 0004 8046     		mov	r8, r0
ARM GAS  C:\Users\bogur\AppData\Local\Temp\ccXFXavo.s 			page 55


 2698 0006 1646     		mov	r6, r2
 2699 0008 1F46     		mov	r7, r3
 2700 000a DDF82090 		ldr	r9, [sp, #32]
 2701 000e 099D     		ldr	r5, [sp, #36]
 366:..\fips202.c  ****   unsigned int i;
 367:..\fips202.c  ****   while (nblocks > 0)
 2702              		.loc 1 367 0
 2703 0010 15E0     		b	.L28
 2704              	.LVL552:
 2705              	.L31:
 368:..\fips202.c  ****   {
 369:..\fips202.c  ****     KeccakF1600_StatePermute(s);
 2706              		.loc 1 369 0
 2707 0012 4846     		mov	r0, r9
 2708 0014 FFF7FEFF 		bl	KeccakF1600_StatePermute
 2709              	.LVL553:
 370:..\fips202.c  ****     for (i = 0; i < (r >> 3); i++)
 2710              		.loc 1 370 0
 2711 0018 0024     		movs	r4, #0
 2712 001a 08E0     		b	.L29
 2713              	.LVL554:
 2714              	.L30:
 371:..\fips202.c  ****     {
 372:..\fips202.c  ****       store64(h + 8 * i, s[i]);
 2715              		.loc 1 372 0 discriminator 3
 2716 001c E000     		lsls	r0, r4, #3
 2717 001e 09EB0003 		add	r3, r9, r0
 2718 0022 D3E90023 		ldrd	r2, [r3]
 2719 0026 4044     		add	r0, r0, r8
 2720 0028 FFF7FEFF 		bl	store64
 2721              	.LVL555:
 370:..\fips202.c  ****     for (i = 0; i < (r >> 3); i++)
 2722              		.loc 1 370 0 discriminator 3
 2723 002c 0134     		adds	r4, r4, #1
 2724              	.LVL556:
 2725              	.L29:
 370:..\fips202.c  ****     for (i = 0; i < (r >> 3); i++)
 2726              		.loc 1 370 0 is_stmt 0 discriminator 1
 2727 002e B4EBD50F 		cmp	r4, r5, lsr #3
 2728 0032 F3D3     		bcc	.L30
 373:..\fips202.c  ****     }
 374:..\fips202.c  ****     h += r;
 2729              		.loc 1 374 0 is_stmt 1
 2730 0034 A844     		add	r8, r8, r5
 2731              	.LVL557:
 375:..\fips202.c  ****     nblocks--;
 2732              		.loc 1 375 0
 2733 0036 16F1FF36 		adds	r6, r6, #-1
 2734              	.LVL558:
 2735 003a 47F1FF37 		adc	r7, r7, #-1
 2736              	.LVL559:
 2737              	.L28:
 367:..\fips202.c  ****   {
 2738              		.loc 1 367 0
 2739 003e 56EA0703 		orrs	r3, r6, r7
 2740 0042 E6D1     		bne	.L31
 376:..\fips202.c  ****   }
ARM GAS  C:\Users\bogur\AppData\Local\Temp\ccXFXavo.s 			page 56


 377:..\fips202.c  **** }
 2741              		.loc 1 377 0
 2742 0044 BDE8F883 		pop	{r3, r4, r5, r6, r7, r8, r9, pc}
 2743              		.cfi_endproc
 2744              	.LFE4:
 2745              		.size	keccak_squeezeblocks, .-keccak_squeezeblocks
 2746              		.global	__aeabi_uldivmod
 2747              		.section	.text.shake128,"ax",%progbits
 2748              		.align	2
 2749              		.global	shake128
 2750              		.thumb
 2751              		.thumb_func
 2752              		.type	shake128, %function
 2753              	shake128:
 2754              	.LFB5:
 378:..\fips202.c  **** 
 379:..\fips202.c  **** /*
 380:..\fips202.c  **** static void shake128_absorb(uint64_t *s, const unsigned char *input, unsigned int inputByteLen)
 381:..\fips202.c  **** {
 382:..\fips202.c  ****   keccak_absorb(s, SHAKE128_RATE, input, inputByteLen, 0x1F);
 383:..\fips202.c  **** }
 384:..\fips202.c  **** */
 385:..\fips202.c  **** 
 386:..\fips202.c  **** void shake128(unsigned char *output, unsigned long long outlen,
 387:..\fips202.c  ****               const unsigned char *input, unsigned long long inlen)
 388:..\fips202.c  **** {
 2755              		.loc 1 388 0
 2756              		.cfi_startproc
 2757              		@ args = 16, pretend = 0, frame = 368
 2758              		@ frame_needed = 0, uses_anonymous_args = 0
 2759              	.LVL560:
 2760 0000 2DE9F047 		push	{r4, r5, r6, r7, r8, r9, r10, lr}
 2761              		.cfi_def_cfa_offset 32
 2762              		.cfi_offset 4, -32
 2763              		.cfi_offset 5, -28
 2764              		.cfi_offset 6, -24
 2765              		.cfi_offset 7, -20
 2766              		.cfi_offset 8, -16
 2767              		.cfi_offset 9, -12
 2768              		.cfi_offset 10, -8
 2769              		.cfi_offset 14, -4
 2770 0004 E0B0     		sub	sp, sp, #384
 2771              		.cfi_def_cfa_offset 416
 2772 0006 8146     		mov	r9, r0
 2773 0008 1646     		mov	r6, r2
 2774 000a 1F46     		mov	r7, r3
 389:..\fips202.c  ****   uint64_t s[25];
 390:..\fips202.c  ****   unsigned char t[SHAKE128_RATE];
 391:..\fips202.c  ****   unsigned long long nblocks = outlen / SHAKE128_RATE;
 2775              		.loc 1 391 0
 2776 000c A822     		movs	r2, #168
 2777              	.LVL561:
 2778 000e 0023     		movs	r3, #0
 2779 0010 3046     		mov	r0, r6
 2780              	.LVL562:
 2781 0012 3946     		mov	r1, r7
 2782 0014 FFF7FEFF 		bl	__aeabi_uldivmod
ARM GAS  C:\Users\bogur\AppData\Local\Temp\ccXFXavo.s 			page 57


 2783              	.LVL563:
 2784 0018 0446     		mov	r4, r0
 2785 001a 0D46     		mov	r5, r1
 2786              	.LVL564:
 392:..\fips202.c  ****   size_t i;
 393:..\fips202.c  **** 
 394:..\fips202.c  ****   for (i = 0; i < 25; ++i)
 2787              		.loc 1 394 0
 2788 001c 0023     		movs	r3, #0
 2789 001e 07E0     		b	.L34
 2790              	.LVL565:
 2791              	.L35:
 395:..\fips202.c  ****     s[i] = 0;
 2792              		.loc 1 395 0 discriminator 3
 2793 0020 60AA     		add	r2, sp, #384
 2794 0022 02EBC302 		add	r2, r2, r3, lsl #3
 2795 0026 0020     		movs	r0, #0
 2796 0028 0021     		movs	r1, #0
 2797 002a 42E93201 		strd	r0, [r2, #-200]
 394:..\fips202.c  ****     s[i] = 0;
 2798              		.loc 1 394 0 discriminator 3
 2799 002e 0133     		adds	r3, r3, #1
 2800              	.LVL566:
 2801              	.L34:
 394:..\fips202.c  ****     s[i] = 0;
 2802              		.loc 1 394 0 is_stmt 0 discriminator 1
 2803 0030 182B     		cmp	r3, #24
 2804 0032 F5D9     		bls	.L35
 396:..\fips202.c  **** 
 397:..\fips202.c  ****   /* Absorb input */
 398:..\fips202.c  ****   keccak_absorb(s, SHAKE128_RATE, input, inlen, 0x1F);
 2805              		.loc 1 398 0 is_stmt 1
 2806 0034 0DF1B80A 		add	r10, sp, #184
 2807 0038 1F23     		movs	r3, #31
 2808              	.LVL567:
 2809 003a 0293     		str	r3, [sp, #8]
 2810 003c 6AAB     		add	r3, sp, #424
 2811              	.LVL568:
 2812 003e D3E90023 		ldrd	r2, [r3]
 2813 0042 CDE90023 		strd	r2, [sp]
 2814 0046 689A     		ldr	r2, [sp, #416]
 2815 0048 A821     		movs	r1, #168
 2816 004a 5046     		mov	r0, r10
 2817 004c FFF7FEFF 		bl	keccak_absorb
 2818              	.LVL569:
 399:..\fips202.c  **** 
 400:..\fips202.c  ****   /* Squeeze output */
 401:..\fips202.c  ****   keccak_squeezeblocks(output, nblocks, s, SHAKE128_RATE);
 2819              		.loc 1 401 0
 2820 0050 4FF0A808 		mov	r8, #168
 2821 0054 CDF80480 		str	r8, [sp, #4]
 2822 0058 CDF800A0 		str	r10, [sp]
 2823 005c 2246     		mov	r2, r4
 2824 005e 2B46     		mov	r3, r5
 2825 0060 4846     		mov	r0, r9
 2826 0062 FFF7FEFF 		bl	keccak_squeezeblocks
 2827              	.LVL570:
ARM GAS  C:\Users\bogur\AppData\Local\Temp\ccXFXavo.s 			page 58


 402:..\fips202.c  **** 
 403:..\fips202.c  ****   output += nblocks * SHAKE128_RATE;
 2828              		.loc 1 403 0
 2829 0066 08FB04F8 		mul	r8, r8, r4
 2830              	.LVL571:
 404:..\fips202.c  ****   outlen -= nblocks * SHAKE128_RATE;
 2831              		.loc 1 404 0
 2832 006a 2219     		adds	r2, r4, r4
 2833 006c 45EB0503 		adc	r3, r5, r5
 2834 0070 A418     		adds	r4, r4, r2
 2835              	.LVL572:
 2836 0072 5D41     		adcs	r5, r5, r3
 2837 0074 EB00     		lsls	r3, r5, #3
 2838 0076 43EA5473 		orr	r3, r3, r4, lsr #29
 2839 007a E200     		lsls	r2, r4, #3
 2840 007c 141B     		subs	r4, r2, r4
 2841 007e 63EB0505 		sbc	r5, r3, r5
 2842 0082 EB00     		lsls	r3, r5, #3
 2843 0084 43EA5473 		orr	r3, r3, r4, lsr #29
 2844 0088 E200     		lsls	r2, r4, #3
 2845 008a B61A     		subs	r6, r6, r2
 2846 008c 67EB0307 		sbc	r7, r7, r3
 2847              	.LVL573:
 405:..\fips202.c  **** 
 406:..\fips202.c  ****   if (outlen)
 2848              		.loc 1 406 0
 2849 0090 56EA0703 		orrs	r3, r6, r7
 2850 0094 16D0     		beq	.L33
 407:..\fips202.c  ****   {
 408:..\fips202.c  ****     keccak_squeezeblocks(t, 1, s, SHAKE128_RATE);
 2851              		.loc 1 408 0
 2852 0096 A823     		movs	r3, #168
 2853 0098 0193     		str	r3, [sp, #4]
 2854 009a 2EAB     		add	r3, sp, #184
 2855 009c 0093     		str	r3, [sp]
 2856 009e 0122     		movs	r2, #1
 2857 00a0 0023     		movs	r3, #0
 2858 00a2 04A8     		add	r0, sp, #16
 2859 00a4 FFF7FEFF 		bl	keccak_squeezeblocks
 2860              	.LVL574:
 409:..\fips202.c  ****     for (i = 0; i < outlen; i++)
 2861              		.loc 1 409 0
 2862 00a8 0023     		movs	r3, #0
 2863 00aa 06E0     		b	.L37
 2864              	.LVL575:
 2865              	.L38:
 410:..\fips202.c  ****       output[i] = t[i];
 2866              		.loc 1 410 0 discriminator 3
 2867 00ac 03EB0802 		add	r2, r3, r8
 2868 00b0 04A9     		add	r1, sp, #16
 2869 00b2 C95C     		ldrb	r1, [r1, r3]	@ zero_extendqisi2
 2870 00b4 09F80210 		strb	r1, [r9, r2]
 409:..\fips202.c  ****     for (i = 0; i < outlen; i++)
 2871              		.loc 1 409 0 discriminator 3
 2872 00b8 0133     		adds	r3, r3, #1
 2873              	.LVL576:
 2874              	.L37:
ARM GAS  C:\Users\bogur\AppData\Local\Temp\ccXFXavo.s 			page 59


 409:..\fips202.c  ****     for (i = 0; i < outlen; i++)
 2875              		.loc 1 409 0 is_stmt 0 discriminator 1
 2876 00ba 0021     		movs	r1, #0
 2877 00bc B942     		cmp	r1, r7
 2878 00be 08BF     		it	eq
 2879 00c0 B342     		cmpeq	r3, r6
 2880 00c2 F3D3     		bcc	.L38
 2881              	.LVL577:
 2882              	.L33:
 411:..\fips202.c  ****   }
 412:..\fips202.c  **** }
 2883              		.loc 1 412 0 is_stmt 1
 2884 00c4 60B0     		add	sp, sp, #384
 2885              		.cfi_def_cfa_offset 32
 2886              		@ sp needed
 2887 00c6 BDE8F087 		pop	{r4, r5, r6, r7, r8, r9, r10, pc}
 2888              		.cfi_endproc
 2889              	.LFE5:
 2890              		.size	shake128, .-shake128
 2891 00ca 00BF     		.section	.text.sha3_256,"ax",%progbits
 2892              		.align	2
 2893              		.global	sha3_256
 2894              		.thumb
 2895              		.thumb_func
 2896              		.type	sha3_256, %function
 2897              	sha3_256:
 2898              	.LFB6:
 413:..\fips202.c  **** 
 414:..\fips202.c  **** // void cshake128_simple_absorb(uint64_t s[25],
 415:..\fips202.c  **** //                              uint16_t cstm, // 2-byte domain separator
 416:..\fips202.c  **** //                              const unsigned char *in, unsigned long long inlen)
 417:..\fips202.c  **** // {
 418:..\fips202.c  **** //   unsigned char *sep = (unsigned char *)s;
 419:..\fips202.c  **** //   unsigned int i;
 420:..\fips202.c  **** 
 421:..\fips202.c  **** //   for(i=0;i<25;i++)
 422:..\fips202.c  **** //     s[i] = 0;
 423:..\fips202.c  **** 
 424:..\fips202.c  **** //   /* Absorb customization (domain-separation) string */
 425:..\fips202.c  **** //   sep[0] = 0x01;
 426:..\fips202.c  **** //   sep[1] = 0xa8;
 427:..\fips202.c  **** //   sep[2] = 0x01;
 428:..\fips202.c  **** //   sep[3] = 0x00;
 429:..\fips202.c  **** //   sep[4] = 0x01;
 430:..\fips202.c  **** //   sep[5] = 16; // fixed bitlen of cstm
 431:..\fips202.c  **** //   sep[6] = cstm & 0xff;
 432:..\fips202.c  **** //   sep[7] = cstm >> 8;
 433:..\fips202.c  **** 
 434:..\fips202.c  **** //   KeccakF1600_StatePermute(s);
 435:..\fips202.c  **** 
 436:..\fips202.c  **** //   /* Absorb input */
 437:..\fips202.c  **** //   keccak_absorb(s, SHAKE128_RATE, in, inlen, 0x04);
 438:..\fips202.c  **** // }
 439:..\fips202.c  **** 
 440:..\fips202.c  **** // void cshake128_simple_squeezeblocks(unsigned char *output, unsigned long long nblocks, uint64_t 
 441:..\fips202.c  **** // {
 442:..\fips202.c  **** //   keccak_squeezeblocks(output, nblocks, s, SHAKE128_RATE);
ARM GAS  C:\Users\bogur\AppData\Local\Temp\ccXFXavo.s 			page 60


 443:..\fips202.c  **** // }
 444:..\fips202.c  **** 
 445:..\fips202.c  **** // void cshake128_simple(unsigned char *output, unsigned long long outlen,
 446:..\fips202.c  **** //                       uint16_t cstm, // 2-byte domain separator
 447:..\fips202.c  **** //                       const unsigned char *in, unsigned long long inlen)
 448:..\fips202.c  **** // {
 449:..\fips202.c  **** //   uint64_t s[25];
 450:..\fips202.c  **** //   unsigned char t[SHAKE128_RATE];
 451:..\fips202.c  **** //   unsigned int i;
 452:..\fips202.c  **** 
 453:..\fips202.c  **** //   cshake128_simple_absorb(s,cstm,in,inlen);
 454:..\fips202.c  **** 
 455:..\fips202.c  **** //   /* Squeeze output */
 456:..\fips202.c  **** //   keccak_squeezeblocks(output, outlen/SHAKE128_RATE, s, SHAKE128_RATE);
 457:..\fips202.c  **** //   output+=(outlen/SHAKE128_RATE)*SHAKE128_RATE;
 458:..\fips202.c  **** 
 459:..\fips202.c  **** //   if(outlen%SHAKE128_RATE)
 460:..\fips202.c  **** //   {
 461:..\fips202.c  **** //     keccak_squeezeblocks(t, 1, s, SHAKE128_RATE);
 462:..\fips202.c  **** //     for(i=0;i<outlen%SHAKE128_RATE;i++)
 463:..\fips202.c  **** //       output[i] = t[i];
 464:..\fips202.c  **** //   }
 465:..\fips202.c  **** // }
 466:..\fips202.c  **** 
 467:..\fips202.c  **** void sha3_256(unsigned char *output, const unsigned char *input, unsigned long long inlen)
 468:..\fips202.c  **** {
 2899              		.loc 1 468 0
 2900              		.cfi_startproc
 2901              		@ args = 0, pretend = 0, frame = 336
 2902              		@ frame_needed = 0, uses_anonymous_args = 0
 2903              	.LVL578:
 2904 0000 2DE97043 		push	{r4, r5, r6, r8, r9, lr}
 2905              		.cfi_def_cfa_offset 24
 2906              		.cfi_offset 4, -24
 2907              		.cfi_offset 5, -20
 2908              		.cfi_offset 6, -16
 2909              		.cfi_offset 8, -12
 2910              		.cfi_offset 9, -8
 2911              		.cfi_offset 14, -4
 2912 0004 D8B0     		sub	sp, sp, #352
 2913              		.cfi_def_cfa_offset 376
 2914 0006 0646     		mov	r6, r0
 2915 0008 9046     		mov	r8, r2
 2916 000a 9946     		mov	r9, r3
 2917              	.LVL579:
 469:..\fips202.c  ****   uint64_t s[25];
 470:..\fips202.c  ****   unsigned char t[SHA3_256_RATE];
 471:..\fips202.c  ****   size_t i;
 472:..\fips202.c  **** 
 473:..\fips202.c  ****   for (i = 0; i < 25; ++i)
 2918              		.loc 1 473 0
 2919 000c 0023     		movs	r3, #0
 2920 000e 07E0     		b	.L41
 2921              	.LVL580:
 2922              	.L42:
 474:..\fips202.c  ****     s[i] = 0;
 2923              		.loc 1 474 0 discriminator 3
ARM GAS  C:\Users\bogur\AppData\Local\Temp\ccXFXavo.s 			page 61


 2924 0010 58AA     		add	r2, sp, #352
 2925 0012 02EBC300 		add	r0, r2, r3, lsl #3
 2926 0016 0024     		movs	r4, #0
 2927 0018 0025     		movs	r5, #0
 2928 001a 40E93245 		strd	r4, [r0, #-200]
 473:..\fips202.c  ****     s[i] = 0;
 2929              		.loc 1 473 0 discriminator 3
 2930 001e 0133     		adds	r3, r3, #1
 2931              	.LVL581:
 2932              	.L41:
 473:..\fips202.c  ****     s[i] = 0;
 2933              		.loc 1 473 0 is_stmt 0 discriminator 1
 2934 0020 182B     		cmp	r3, #24
 2935 0022 F5D9     		bls	.L42
 475:..\fips202.c  **** 
 476:..\fips202.c  ****   /* Absorb input */
 477:..\fips202.c  ****   keccak_absorb(s, SHA3_256_RATE, input, inlen, 0x06);
 2936              		.loc 1 477 0 is_stmt 1
 2937 0024 26AC     		add	r4, sp, #152
 2938 0026 0623     		movs	r3, #6
 2939              	.LVL582:
 2940 0028 0293     		str	r3, [sp, #8]
 2941 002a CDE90089 		strd	r8, [sp]
 2942 002e 0A46     		mov	r2, r1
 2943 0030 8821     		movs	r1, #136
 2944              	.LVL583:
 2945 0032 2046     		mov	r0, r4
 2946 0034 FFF7FEFF 		bl	keccak_absorb
 2947              	.LVL584:
 478:..\fips202.c  **** 
 479:..\fips202.c  ****   /* Squeeze output */
 480:..\fips202.c  ****   keccak_squeezeblocks(t, 1, s, SHA3_256_RATE);
 2948              		.loc 1 480 0
 2949 0038 8823     		movs	r3, #136
 2950 003a 0193     		str	r3, [sp, #4]
 2951 003c 0094     		str	r4, [sp]
 2952 003e 0122     		movs	r2, #1
 2953 0040 0023     		movs	r3, #0
 2954 0042 04A8     		add	r0, sp, #16
 2955 0044 FFF7FEFF 		bl	keccak_squeezeblocks
 2956              	.LVL585:
 481:..\fips202.c  **** 
 482:..\fips202.c  ****   for (i = 0; i < 32; i++)
 2957              		.loc 1 482 0
 2958 0048 0023     		movs	r3, #0
 2959 004a 03E0     		b	.L43
 2960              	.LVL586:
 2961              	.L44:
 483:..\fips202.c  ****     output[i] = t[i];
 2962              		.loc 1 483 0 discriminator 3
 2963 004c 04AA     		add	r2, sp, #16
 2964 004e D25C     		ldrb	r2, [r2, r3]	@ zero_extendqisi2
 2965 0050 F254     		strb	r2, [r6, r3]
 482:..\fips202.c  ****     output[i] = t[i];
 2966              		.loc 1 482 0 discriminator 3
 2967 0052 0133     		adds	r3, r3, #1
 2968              	.LVL587:
ARM GAS  C:\Users\bogur\AppData\Local\Temp\ccXFXavo.s 			page 62


 2969              	.L43:
 482:..\fips202.c  ****     output[i] = t[i];
 2970              		.loc 1 482 0 is_stmt 0 discriminator 1
 2971 0054 1F2B     		cmp	r3, #31
 2972 0056 F9D9     		bls	.L44
 484:..\fips202.c  **** }
 2973              		.loc 1 484 0 is_stmt 1
 2974 0058 58B0     		add	sp, sp, #352
 2975              		.cfi_def_cfa_offset 24
 2976              		@ sp needed
 2977 005a BDE87083 		pop	{r4, r5, r6, r8, r9, pc}
 2978              		.cfi_endproc
 2979              	.LFE6:
 2980              		.size	sha3_256, .-sha3_256
 2981 005e 00BF     		.section	.text.sha3_512,"ax",%progbits
 2982              		.align	2
 2983              		.global	sha3_512
 2984              		.thumb
 2985              		.thumb_func
 2986              		.type	sha3_512, %function
 2987              	sha3_512:
 2988              	.LFB7:
 485:..\fips202.c  **** 
 486:..\fips202.c  **** void sha3_512(unsigned char *output, const unsigned char *input, unsigned long long inlen)
 487:..\fips202.c  **** {
 2989              		.loc 1 487 0
 2990              		.cfi_startproc
 2991              		@ args = 0, pretend = 0, frame = 272
 2992              		@ frame_needed = 0, uses_anonymous_args = 0
 2993              	.LVL588:
 2994 0000 2DE9F043 		push	{r4, r5, r6, r7, r8, r9, lr}
 2995              		.cfi_def_cfa_offset 28
 2996              		.cfi_offset 4, -28
 2997              		.cfi_offset 5, -24
 2998              		.cfi_offset 6, -20
 2999              		.cfi_offset 7, -16
 3000              		.cfi_offset 8, -12
 3001              		.cfi_offset 9, -8
 3002              		.cfi_offset 14, -4
 3003 0004 C9B0     		sub	sp, sp, #292
 3004              		.cfi_def_cfa_offset 320
 3005 0006 0446     		mov	r4, r0
 3006 0008 9046     		mov	r8, r2
 3007 000a 9946     		mov	r9, r3
 3008              	.LVL589:
 488:..\fips202.c  ****   uint64_t s[25];
 489:..\fips202.c  ****   unsigned char t[SHA3_512_RATE];
 490:..\fips202.c  ****   size_t i;
 491:..\fips202.c  **** 
 492:..\fips202.c  ****   for (i = 0; i < 25; ++i)
 3009              		.loc 1 492 0
 3010 000c 0023     		movs	r3, #0
 3011 000e 07E0     		b	.L47
 3012              	.LVL590:
 3013              	.L48:
 493:..\fips202.c  ****     s[i] = 0;
 3014              		.loc 1 493 0 discriminator 3
ARM GAS  C:\Users\bogur\AppData\Local\Temp\ccXFXavo.s 			page 63


 3015 0010 48AA     		add	r2, sp, #288
 3016 0012 02EBC300 		add	r0, r2, r3, lsl #3
 3017 0016 0026     		movs	r6, #0
 3018 0018 0027     		movs	r7, #0
 3019 001a 40E93267 		strd	r6, [r0, #-200]
 492:..\fips202.c  ****     s[i] = 0;
 3020              		.loc 1 492 0 discriminator 3
 3021 001e 0133     		adds	r3, r3, #1
 3022              	.LVL591:
 3023              	.L47:
 492:..\fips202.c  ****     s[i] = 0;
 3024              		.loc 1 492 0 is_stmt 0 discriminator 1
 3025 0020 182B     		cmp	r3, #24
 3026 0022 F5D9     		bls	.L48
 494:..\fips202.c  **** 
 495:..\fips202.c  ****   /* Absorb input */
 496:..\fips202.c  ****   keccak_absorb(s, SHA3_512_RATE, input, inlen, 0x06);
 3027              		.loc 1 496 0 is_stmt 1
 3028 0024 16AD     		add	r5, sp, #88
 3029 0026 0623     		movs	r3, #6
 3030              	.LVL592:
 3031 0028 0293     		str	r3, [sp, #8]
 3032 002a CDE90089 		strd	r8, [sp]
 3033 002e 0A46     		mov	r2, r1
 3034 0030 4821     		movs	r1, #72
 3035              	.LVL593:
 3036 0032 2846     		mov	r0, r5
 3037 0034 FFF7FEFF 		bl	keccak_absorb
 3038              	.LVL594:
 497:..\fips202.c  **** 
 498:..\fips202.c  ****   /* Squeeze output */
 499:..\fips202.c  ****   keccak_squeezeblocks(t, 1, s, SHA3_512_RATE);
 3039              		.loc 1 499 0
 3040 0038 4823     		movs	r3, #72
 3041 003a 0193     		str	r3, [sp, #4]
 3042 003c 0095     		str	r5, [sp]
 3043 003e 0122     		movs	r2, #1
 3044 0040 0023     		movs	r3, #0
 3045 0042 04A8     		add	r0, sp, #16
 3046 0044 FFF7FEFF 		bl	keccak_squeezeblocks
 3047              	.LVL595:
 500:..\fips202.c  **** 
 501:..\fips202.c  ****   for (i = 0; i < 64; i++)
 3048              		.loc 1 501 0
 3049 0048 0023     		movs	r3, #0
 3050 004a 03E0     		b	.L49
 3051              	.LVL596:
 3052              	.L50:
 502:..\fips202.c  ****     output[i] = t[i];
 3053              		.loc 1 502 0 discriminator 3
 3054 004c 04AA     		add	r2, sp, #16
 3055 004e D25C     		ldrb	r2, [r2, r3]	@ zero_extendqisi2
 3056 0050 E254     		strb	r2, [r4, r3]
 501:..\fips202.c  ****     output[i] = t[i];
 3057              		.loc 1 501 0 discriminator 3
 3058 0052 0133     		adds	r3, r3, #1
 3059              	.LVL597:
ARM GAS  C:\Users\bogur\AppData\Local\Temp\ccXFXavo.s 			page 64


 3060              	.L49:
 501:..\fips202.c  ****     output[i] = t[i];
 3061              		.loc 1 501 0 is_stmt 0 discriminator 1
 3062 0054 3F2B     		cmp	r3, #63
 3063 0056 F9D9     		bls	.L50
 503:..\fips202.c  **** }
 3064              		.loc 1 503 0 is_stmt 1
 3065 0058 49B0     		add	sp, sp, #292
 3066              		.cfi_def_cfa_offset 28
 3067              		@ sp needed
 3068 005a BDE8F083 		pop	{r4, r5, r6, r7, r8, r9, pc}
 3069              		.cfi_endproc
 3070              	.LFE7:
 3071              		.size	sha3_512, .-sha3_512
 3072              		.section	.rodata
 3073              		.align	3
 3074              		.set	.LANCHOR0,. + 0
 3075              		.type	KeccakF_RoundConstants, %object
 3076              		.size	KeccakF_RoundConstants, 192
 3077              	KeccakF_RoundConstants:
 3078 0000 01000000 		.word	1
 3079 0004 00000000 		.word	0
 3080 0008 82800000 		.word	32898
 3081 000c 00000000 		.word	0
 3082 0010 8A800000 		.word	32906
 3083 0014 00000080 		.word	-2147483648
 3084 0018 00800080 		.word	-2147450880
 3085 001c 00000080 		.word	-2147483648
 3086 0020 8B800000 		.word	32907
 3087 0024 00000000 		.word	0
 3088 0028 01000080 		.word	-2147483647
 3089 002c 00000000 		.word	0
 3090 0030 81800080 		.word	-2147450751
 3091 0034 00000080 		.word	-2147483648
 3092 0038 09800000 		.word	32777
 3093 003c 00000080 		.word	-2147483648
 3094 0040 8A000000 		.word	138
 3095 0044 00000000 		.word	0
 3096 0048 88000000 		.word	136
 3097 004c 00000000 		.word	0
 3098 0050 09800080 		.word	-2147450871
 3099 0054 00000000 		.word	0
 3100 0058 0A000080 		.word	-2147483638
 3101 005c 00000000 		.word	0
 3102 0060 8B800080 		.word	-2147450741
 3103 0064 00000000 		.word	0
 3104 0068 8B000000 		.word	139
 3105 006c 00000080 		.word	-2147483648
 3106 0070 89800000 		.word	32905
 3107 0074 00000080 		.word	-2147483648
 3108 0078 03800000 		.word	32771
 3109 007c 00000080 		.word	-2147483648
 3110 0080 02800000 		.word	32770
 3111 0084 00000080 		.word	-2147483648
 3112 0088 80000000 		.word	128
 3113 008c 00000080 		.word	-2147483648
 3114 0090 0A800000 		.word	32778
ARM GAS  C:\Users\bogur\AppData\Local\Temp\ccXFXavo.s 			page 65


 3115 0094 00000000 		.word	0
 3116 0098 0A000080 		.word	-2147483638
 3117 009c 00000080 		.word	-2147483648
 3118 00a0 81800080 		.word	-2147450751
 3119 00a4 00000080 		.word	-2147483648
 3120 00a8 80800000 		.word	32896
 3121 00ac 00000080 		.word	-2147483648
 3122 00b0 01000080 		.word	-2147483647
 3123 00b4 00000000 		.word	0
 3124 00b8 08800080 		.word	-2147450872
 3125 00bc 00000080 		.word	-2147483648
 3126              		.text
 3127              	.Letext0:
 3128              		.file 2 "c:\\program files (x86)\\cypress\\psoc creator\\4.4\\psoc creator\\import\\gnu\\arm\\5.4.
 3129              		.file 3 "c:\\program files (x86)\\cypress\\psoc creator\\4.4\\psoc creator\\import\\gnu\\arm\\5.4.
 3130              		.file 4 "c:\\program files (x86)\\cypress\\psoc creator\\4.4\\psoc creator\\import\\gnu\\arm\\5.4.