ARM GAS  C:\Users\bogur\AppData\Local\Temp\ccXFXavo.s 			page 1


   1              		.syntax unified
   2              		.cpu cortex-m4
   3              		.eabi_attribute 27, 1
   4              		.fpu fpv4-sp-d16
   5              		.eabi_attribute 20, 1
   6              		.eabi_attribute 21, 1
   7              		.eabi_attribute 23, 3
   8              		.eabi_attribute 24, 1
   9              		.eabi_attribute 25, 1
  10              		.eabi_attribute 26, 1
  11              		.eabi_attribute 30, 1
  12              		.eabi_attribute 34, 1
  13              		.eabi_attribute 18, 4
  14              		.thumb
  15              		.syntax unified
  16              		.file	"fips202.c"
  17              		.text
  18              	.Ltext0:
  19              		.cfi_sections	.debug_frame
  20              		.section	.text.load64,"ax",%progbits
  21              		.align	2
  22              		.thumb
  23              		.thumb_func
  24              		.type	load64, %function
  25              	load64:
  26              	.LFB0:
  27              		.file 1 "..\\fips202.c"
   1:..\fips202.c  **** /* Based on the public domain implementation in
   2:..\fips202.c  ****  * crypto_hash/keccakc512/simple/ from http://bench.cr.yp.to/supercop.html
   3:..\fips202.c  ****  * by Ronny Van Keer 
   4:..\fips202.c  ****  * and the public domain "TweetFips202" implementation
   5:..\fips202.c  ****  * from https://twitter.com/tweetfips202
   6:..\fips202.c  ****  * by Gilles Van Assche, Daniel J. Bernstein, and Peter Schwabe */
   7:..\fips202.c  **** 
   8:..\fips202.c  **** #include <stdint.h>
   9:..\fips202.c  **** #include <assert.h>
  10:..\fips202.c  **** #include "fips202.h"
  11:..\fips202.c  **** 
  12:..\fips202.c  **** #define NROUNDS 24
  13:..\fips202.c  **** #define ROL(a, offset) ((a << offset) ^ (a >> (64 - offset)))
  14:..\fips202.c  **** 
  15:..\fips202.c  **** static uint64_t load64(const unsigned char *x)
  16:..\fips202.c  **** {
  28              		.loc 1 16 0
  29              		.cfi_startproc
  30              		@ args = 0, pretend = 0, frame = 0
  31              		@ frame_needed = 0, uses_anonymous_args = 0
  32              	.LVL0:
  33 0000 2DE9F043 		push	{r4, r5, r6, r7, r8, r9, lr}
  34              		.cfi_def_cfa_offset 28
  35              		.cfi_offset 4, -28
  36              		.cfi_offset 5, -24
  37              		.cfi_offset 6, -20
  38              		.cfi_offset 7, -16
  39              		.cfi_offset 8, -12
  40              		.cfi_offset 9, -8
  41              		.cfi_offset 14, -4
ARM GAS  C:\Users\bogur\AppData\Local\Temp\ccXFXavo.s 			page 2


  42              	.LVL1:
  17:..\fips202.c  ****   unsigned long long r = 0, i;
  18:..\fips202.c  **** 
  19:..\fips202.c  ****   for (i = 0; i < 8; ++i)
  43              		.loc 1 19 0
  44 0004 0024     		movs	r4, #0
  45 0006 0025     		movs	r5, #0
  17:..\fips202.c  ****   unsigned long long r = 0, i;
  46              		.loc 1 17 0
  47 0008 A046     		mov	r8, r4
  48 000a A946     		mov	r9, r5
  49              		.loc 1 19 0
  50 000c 16E0     		b	.L2
  51              	.LVL2:
  52              	.L3:
  20:..\fips202.c  ****   {
  21:..\fips202.c  ****     r |= (unsigned long long)x[i] << 8 * i;
  53              		.loc 1 21 0 discriminator 3
  54 000e 065D     		ldrb	r6, [r0, r4]	@ zero_extendqisi2
  55 0010 E100     		lsls	r1, r4, #3
  56 0012 A1F1200E 		sub	lr, r1, #32
  57 0016 C1F12007 		rsb	r7, r1, #32
  58 001a 0023     		movs	r3, #0
  59 001c 06FA0EFE 		lsl	lr, r6, lr
  60 0020 43EA0E03 		orr	r3, r3, lr
  61 0024 26FA07F7 		lsr	r7, r6, r7
  62 0028 3B43     		orrs	r3, r3, r7
  63 002a 06FA01F2 		lsl	r2, r6, r1
  64 002e 48EA0208 		orr	r8, r8, r2
  65              	.LVL3:
  66 0032 49EA0309 		orr	r9, r9, r3
  67              	.LVL4:
  19:..\fips202.c  ****   {
  68              		.loc 1 19 0 discriminator 3
  69 0036 0134     		adds	r4, r4, #1
  70              	.LVL5:
  71 0038 45F10005 		adc	r5, r5, #0
  72              	.LVL6:
  73              	.L2:
  19:..\fips202.c  ****   {
  74              		.loc 1 19 0 is_stmt 0 discriminator 1
  75 003c 002D     		cmp	r5, #0
  76 003e 08BF     		it	eq
  77 0040 082C     		cmpeq	r4, #8
  78 0042 E4D3     		bcc	.L3
  22:..\fips202.c  ****   }
  23:..\fips202.c  ****   return r;
  24:..\fips202.c  **** }
  79              		.loc 1 24 0 is_stmt 1
  80 0044 4046     		mov	r0, r8
  81              	.LVL7:
  82 0046 4946     		mov	r1, r9
  83 0048 BDE8F083 		pop	{r4, r5, r6, r7, r8, r9, pc}
  84              		.cfi_endproc
  85              	.LFE0:
  86              		.size	load64, .-load64
  87              		.section	.text.store64,"ax",%progbits
ARM GAS  C:\Users\bogur\AppData\Local\Temp\ccXFXavo.s 			page 3


  88              		.align	2
  89              		.thumb
  90              		.thumb_func
  91              		.type	store64, %function
  92              	store64:
  93              	.LFB1:
  25:..\fips202.c  **** 
  26:..\fips202.c  **** static void store64(uint8_t *x, uint64_t u)
  27:..\fips202.c  **** {
  94              		.loc 1 27 0
  95              		.cfi_startproc
  96              		@ args = 0, pretend = 0, frame = 0
  97              		@ frame_needed = 0, uses_anonymous_args = 0
  98              		@ link register save eliminated.
  99              	.LVL8:
  28:..\fips202.c  ****   unsigned int i;
  29:..\fips202.c  **** 
  30:..\fips202.c  ****   for (i = 0; i < 8; ++i)
 100              		.loc 1 30 0
 101 0000 0021     		movs	r1, #0
 102 0002 05E0     		b	.L6
 103              	.LVL9:
 104              	.L7:
  31:..\fips202.c  ****   {
  32:..\fips202.c  ****     x[i] = u;
 105              		.loc 1 32 0 discriminator 3
 106 0004 4254     		strb	r2, [r0, r1]
  33:..\fips202.c  ****     u >>= 8;
 107              		.loc 1 33 0 discriminator 3
 108 0006 120A     		lsrs	r2, r2, #8
 109              	.LVL10:
 110 0008 42EA0362 		orr	r2, r2, r3, lsl #24
 111 000c 1B0A     		lsrs	r3, r3, #8
 112              	.LVL11:
  30:..\fips202.c  ****   {
 113              		.loc 1 30 0 discriminator 3
 114 000e 0131     		adds	r1, r1, #1
 115              	.LVL12:
 116              	.L6:
  30:..\fips202.c  ****   {
 117              		.loc 1 30 0 is_stmt 0 discriminator 1
 118 0010 0729     		cmp	r1, #7
 119 0012 F7D9     		bls	.L7
  34:..\fips202.c  ****   }
  35:..\fips202.c  **** }
 120              		.loc 1 35 0 is_stmt 1
 121 0014 7047     		bx	lr
 122              		.cfi_endproc
 123              	.LFE1:
 124              		.size	store64, .-store64
 125 0016 00BF     		.section	.text.KeccakF1600_StatePermute,"ax",%progbits
 126              		.align	2
 127              		.thumb
 128              		.thumb_func
 129              		.type	KeccakF1600_StatePermute, %function
 130              	KeccakF1600_StatePermute:
 131              	.LFB2:
ARM GAS  C:\Users\bogur\AppData\Local\Temp\ccXFXavo.s 			page 4


  36:..\fips202.c  **** 
  37:..\fips202.c  **** static const uint64_t KeccakF_RoundConstants[NROUNDS] =
  38:..\fips202.c  ****     {
  39:..\fips202.c  ****         (uint64_t)0x0000000000000001ULL,
  40:..\fips202.c  ****         (uint64_t)0x0000000000008082ULL,
  41:..\fips202.c  ****         (uint64_t)0x800000000000808aULL,
  42:..\fips202.c  ****         (uint64_t)0x8000000080008000ULL,
  43:..\fips202.c  ****         (uint64_t)0x000000000000808bULL,
  44:..\fips202.c  ****         (uint64_t)0x0000000080000001ULL,
  45:..\fips202.c  ****         (uint64_t)0x8000000080008081ULL,
  46:..\fips202.c  ****         (uint64_t)0x8000000000008009ULL,
  47:..\fips202.c  ****         (uint64_t)0x000000000000008aULL,
  48:..\fips202.c  ****         (uint64_t)0x0000000000000088ULL,
  49:..\fips202.c  ****         (uint64_t)0x0000000080008009ULL,
  50:..\fips202.c  ****         (uint64_t)0x000000008000000aULL,
  51:..\fips202.c  ****         (uint64_t)0x000000008000808bULL,
  52:..\fips202.c  ****         (uint64_t)0x800000000000008bULL,
  53:..\fips202.c  ****         (uint64_t)0x8000000000008089ULL,
  54:..\fips202.c  ****         (uint64_t)0x8000000000008003ULL,
  55:..\fips202.c  ****         (uint64_t)0x8000000000008002ULL,
  56:..\fips202.c  ****         (uint64_t)0x8000000000000080ULL,
  57:..\fips202.c  ****         (uint64_t)0x000000000000800aULL,
  58:..\fips202.c  ****         (uint64_t)0x800000008000000aULL,
  59:..\fips202.c  ****         (uint64_t)0x8000000080008081ULL,
  60:..\fips202.c  ****         (uint64_t)0x8000000000008080ULL,
  61:..\fips202.c  ****         (uint64_t)0x0000000080000001ULL,
  62:..\fips202.c  ****         (uint64_t)0x8000000080008008ULL};
  63:..\fips202.c  **** 
  64:..\fips202.c  **** static void KeccakF1600_StatePermute(uint64_t *state)
  65:..\fips202.c  **** {
 132              		.loc 1 65 0
 133              		.cfi_startproc
 134              		@ args = 0, pretend = 0, frame = 712
 135              		@ frame_needed = 0, uses_anonymous_args = 0
 136              	.LVL13:
 137 0000 2DE9F04F 		push	{r4, r5, r6, r7, r8, r9, r10, fp, lr}
 138              		.cfi_def_cfa_offset 36
 139              		.cfi_offset 4, -36
 140              		.cfi_offset 5, -32
 141              		.cfi_offset 6, -28
 142              		.cfi_offset 7, -24
 143              		.cfi_offset 8, -20
 144              		.cfi_offset 9, -16
 145              		.cfi_offset 10, -12
 146              		.cfi_offset 11, -8
 147              		.cfi_offset 14, -4
 148 0004 ADF5337D 		sub	sp, sp, #716
 149              		.cfi_def_cfa_offset 752
 150 0008 B190     		str	r0, [sp, #708]
  66:..\fips202.c  ****   int round;
  67:..\fips202.c  **** 
  68:..\fips202.c  ****   uint64_t Aba, Abe, Abi, Abo, Abu;
  69:..\fips202.c  ****   uint64_t Aga, Age, Agi, Ago, Agu;
  70:..\fips202.c  ****   uint64_t Aka, Ake, Aki, Ako, Aku;
  71:..\fips202.c  ****   uint64_t Ama, Ame, Ami, Amo, Amu;
  72:..\fips202.c  ****   uint64_t Asa, Ase, Asi, Aso, Asu;
  73:..\fips202.c  ****   uint64_t BCa, BCe, BCi, BCo, BCu;
ARM GAS  C:\Users\bogur\AppData\Local\Temp\ccXFXavo.s 			page 5


  74:..\fips202.c  ****   uint64_t Da, De, Di, Do, Du;
  75:..\fips202.c  ****   uint64_t Eba, Ebe, Ebi, Ebo, Ebu;
  76:..\fips202.c  ****   uint64_t Ega, Ege, Egi, Ego, Egu;
  77:..\fips202.c  ****   uint64_t Eka, Eke, Eki, Eko, Eku;
  78:..\fips202.c  ****   uint64_t Ema, Eme, Emi, Emo, Emu;
  79:..\fips202.c  ****   uint64_t Esa, Ese, Esi, Eso, Esu;
  80:..\fips202.c  **** 
  81:..\fips202.c  ****   //copyFromState(A, state)
  82:..\fips202.c  ****   Aba = state[0];
 151              		.loc 1 82 0
 152 000a D0E90034 		ldrd	r3, [r0]
 153 000e CDE92E34 		strd	r3, [sp, #184]
 154              	.LVL14:
  83:..\fips202.c  ****   Abe = state[1];
 155              		.loc 1 83 0
 156 0012 D0E90212 		ldrd	r1, [r0, #8]
 157 0016 CDE93812 		strd	r1, [sp, #224]
 158              	.LVL15:
  84:..\fips202.c  ****   Abi = state[2];
 159              		.loc 1 84 0
 160 001a D0E90434 		ldrd	r3, [r0, #16]
 161              	.LVL16:
 162 001e CDE93A34 		strd	r3, [sp, #232]
 163              	.LVL17:
  85:..\fips202.c  ****   Abo = state[3];
 164              		.loc 1 85 0
 165 0022 D0E90634 		ldrd	r3, [r0, #24]
 166              	.LVL18:
 167 0026 CDE93C34 		strd	r3, [sp, #240]
 168              	.LVL19:
  86:..\fips202.c  ****   Abu = state[4];
 169              		.loc 1 86 0
 170 002a D0E90812 		ldrd	r1, [r0, #32]
 171              	.LVL20:
 172 002e CDE93E12 		strd	r1, [sp, #248]
 173              	.LVL21:
  87:..\fips202.c  ****   Aga = state[5];
 174              		.loc 1 87 0
 175 0032 D0E90A34 		ldrd	r3, [r0, #40]
 176              	.LVL22:
 177 0036 40A9     		add	r1, sp, #256
 178              	.LVL23:
 179 0038 C1E90034 		strd	r3, [r1]
 180              	.LVL24:
  88:..\fips202.c  ****   Age = state[6];
 181              		.loc 1 88 0
 182 003c D0E90C34 		ldrd	r3, [r0, #48]
 183              	.LVL25:
 184 0040 42A9     		add	r1, sp, #264
 185 0042 C1E90034 		strd	r3, [r1]
 186              	.LVL26:
  89:..\fips202.c  ****   Agi = state[7];
 187              		.loc 1 89 0
 188 0046 0346     		mov	r3, r0
 189              	.LVL27:
 190 0048 D0E90E12 		ldrd	r1, [r0, #56]
 191 004c 44A8     		add	r0, sp, #272
ARM GAS  C:\Users\bogur\AppData\Local\Temp\ccXFXavo.s 			page 6


 192              	.LVL28:
 193 004e C0E90012 		strd	r1, [r0]
 194              	.LVL29:
  90:..\fips202.c  ****   Ago = state[8];
 195              		.loc 1 90 0
 196 0052 1A46     		mov	r2, r3
 197 0054 D3E91034 		ldrd	r3, [r3, #64]
 198              	.LVL30:
 199 0058 46A9     		add	r1, sp, #280
 200              	.LVL31:
 201 005a C1E90034 		strd	r3, [r1]
 202              	.LVL32:
  91:..\fips202.c  ****   Agu = state[9];
 203              		.loc 1 91 0
 204 005e D2E91234 		ldrd	r3, [r2, #72]
 205              	.LVL33:
 206 0062 48A9     		add	r1, sp, #288
 207 0064 C1E90034 		strd	r3, [r1]
 208              	.LVL34:
  92:..\fips202.c  ****   Aka = state[10];
 209              		.loc 1 92 0
 210 0068 1346     		mov	r3, r2
 211              	.LVL35:
 212 006a D2E91412 		ldrd	r1, [r2, #80]
 213 006e 4AA8     		add	r0, sp, #296
 214 0070 C0E90012 		strd	r1, [r0]
 215              	.LVL36:
  93:..\fips202.c  ****   Ake = state[11];
 216              		.loc 1 93 0
 217 0074 1A46     		mov	r2, r3
 218 0076 D3E91634 		ldrd	r3, [r3, #88]
 219 007a 4CA9     		add	r1, sp, #304
 220              	.LVL37:
 221 007c C1E90034 		strd	r3, [r1]
 222              	.LVL38:
  94:..\fips202.c  ****   Aki = state[12];
 223              		.loc 1 94 0
 224 0080 D2E91834 		ldrd	r3, [r2, #96]
 225              	.LVL39:
 226 0084 4EA9     		add	r1, sp, #312
 227 0086 C1E90034 		strd	r3, [r1]
 228              	.LVL40:
  95:..\fips202.c  ****   Ako = state[13];
 229              		.loc 1 95 0
 230 008a 1346     		mov	r3, r2
 231              	.LVL41:
 232 008c D2E91A12 		ldrd	r1, [r2, #104]
 233 0090 50A8     		add	r0, sp, #320
 234 0092 C0E90012 		strd	r1, [r0]
 235              	.LVL42:
  96:..\fips202.c  ****   Aku = state[14];
 236              		.loc 1 96 0
 237 0096 1A46     		mov	r2, r3
 238 0098 D3E91C34 		ldrd	r3, [r3, #112]
 239 009c 52A9     		add	r1, sp, #328
 240              	.LVL43:
 241 009e C1E90034 		strd	r3, [r1]
ARM GAS  C:\Users\bogur\AppData\Local\Temp\ccXFXavo.s 			page 7


 242              	.LVL44:
  97:..\fips202.c  ****   Ama = state[15];
 243              		.loc 1 97 0
 244 00a2 D2E91E34 		ldrd	r3, [r2, #120]
 245              	.LVL45:
 246 00a6 54A9     		add	r1, sp, #336
 247 00a8 C1E90034 		strd	r3, [r1]
 248              	.LVL46:
  98:..\fips202.c  ****   Ame = state[16];
 249              		.loc 1 98 0
 250 00ac 1346     		mov	r3, r2
 251              	.LVL47:
 252 00ae D2E92012 		ldrd	r1, [r2, #128]
 253 00b2 56A8     		add	r0, sp, #344
 254 00b4 C0E90012 		strd	r1, [r0]
 255              	.LVL48:
  99:..\fips202.c  ****   Ami = state[17];
 256              		.loc 1 99 0
 257 00b8 1A46     		mov	r2, r3
 258 00ba D3E92234 		ldrd	r3, [r3, #136]
 259 00be 58A9     		add	r1, sp, #352
 260              	.LVL49:
 261 00c0 C1E90034 		strd	r3, [r1]
 262              	.LVL50:
 100:..\fips202.c  ****   Amo = state[18];
 263              		.loc 1 100 0
 264 00c4 D2E92434 		ldrd	r3, [r2, #144]
 265              	.LVL51:
 266 00c8 5AA9     		add	r1, sp, #360
 267 00ca C1E90034 		strd	r3, [r1]
 268              	.LVL52:
 101:..\fips202.c  ****   Amu = state[19];
 269              		.loc 1 101 0
 270 00ce 1346     		mov	r3, r2
 271              	.LVL53:
 272 00d0 D2E92612 		ldrd	r1, [r2, #152]
 273 00d4 5CA8     		add	r0, sp, #368
 274 00d6 C0E90012 		strd	r1, [r0]
 275              	.LVL54:
 102:..\fips202.c  ****   Asa = state[20];
 276              		.loc 1 102 0
 277 00da 1A46     		mov	r2, r3
 278 00dc D3E92834 		ldrd	r3, [r3, #160]
 279 00e0 5EA9     		add	r1, sp, #376
 280              	.LVL55:
 281 00e2 C1E90034 		strd	r3, [r1]
 282              	.LVL56:
 103:..\fips202.c  ****   Ase = state[21];
 283              		.loc 1 103 0
 284 00e6 D2E92A34 		ldrd	r3, [r2, #168]
 285              	.LVL57:
 286 00ea 60A9     		add	r1, sp, #384
 287 00ec C1E90034 		strd	r3, [r1]
 288              	.LVL58:
 104:..\fips202.c  ****   Asi = state[22];
 289              		.loc 1 104 0
 290 00f0 1346     		mov	r3, r2
ARM GAS  C:\Users\bogur\AppData\Local\Temp\ccXFXavo.s 			page 8


 291              	.LVL59:
 292 00f2 D2E92C12 		ldrd	r1, [r2, #176]
 293 00f6 62A8     		add	r0, sp, #392
 294 00f8 C0E90012 		strd	r1, [r0]
 295              	.LVL60:
 105:..\fips202.c  ****   Aso = state[23];
 296              		.loc 1 105 0
 297 00fc 1A46     		mov	r2, r3
 298 00fe D3E92E34 		ldrd	r3, [r3, #184]
 299 0102 64A9     		add	r1, sp, #400
 300              	.LVL61:
 301 0104 C1E90034 		strd	r3, [r1]
 302              	.LVL62:
 106:..\fips202.c  ****   Asu = state[24];
 303              		.loc 1 106 0
 304 0108 D2E93034 		ldrd	r3, [r2, #192]
 305              	.LVL63:
 107:..\fips202.c  **** 
 108:..\fips202.c  ****   for (round = 0; round < NROUNDS; round += 2)
 306              		.loc 1 108 0
 307 010c 4FF0000C 		mov	ip, #0
 308 0110 66AA     		add	r2, sp, #408
 309              	.LVL64:
 310 0112 C2E90034 		strd	r3, [r2]
 311 0116 01F057B8 		b	.L9
 312              	.LVL65:
 313              	.L10:
 109:..\fips202.c  ****   {
 110:..\fips202.c  ****     //    prepareTheta
 111:..\fips202.c  ****     BCa = Aba ^ Aga ^ Aka ^ Ama ^ Asa;
 314              		.loc 1 111 0 discriminator 3
 315 011a DDE92E89 		ldrd	r8, [sp, #184]
 316 011e 40AB     		add	r3, sp, #256
 317              	.LVL66:
 318 0120 D3E90034 		ldrd	r3, [r3]
 319              	.LVL67:
 320 0124 88EA0308 		eor	r8, r8, r3
 321 0128 89EA0409 		eor	r9, r9, r4
 322 012c 4AAB     		add	r3, sp, #296
 323              	.LVL68:
 324 012e D3E90034 		ldrd	r3, [r3]
 325              	.LVL69:
 326 0132 83EA0803 		eor	r3, r3, r8
 327 0136 84EA0904 		eor	r4, r4, r9
 328 013a 9846     		mov	r8, r3
 329 013c 54AB     		add	r3, sp, #336
 330              	.LVL70:
 331 013e D3E90023 		ldrd	r2, [r3]
 332 0142 82EA0802 		eor	r2, r2, r8
 333 0146 6340     		eors	r3, r3, r4
 334              	.LVL71:
 335 0148 9046     		mov	r8, r2
 336 014a 9946     		mov	r9, r3
 337 014c 5EAB     		add	r3, sp, #376
 338              	.LVL72:
 339 014e D3E90012 		ldrd	r1, [r3]
 340 0152 81EA0801 		eor	r1, r1, r8
ARM GAS  C:\Users\bogur\AppData\Local\Temp\ccXFXavo.s 			page 9


 341 0156 82EA0902 		eor	r2, r2, r9
 342 015a 8846     		mov	r8, r1
 343 015c 9146     		mov	r9, r2
 344              	.LVL73:
 112:..\fips202.c  ****     BCe = Abe ^ Age ^ Ake ^ Ame ^ Ase;
 345              		.loc 1 112 0 discriminator 3
 346 015e DDE93867 		ldrd	r6, [sp, #224]
 347 0162 42AB     		add	r3, sp, #264
 348              	.LVL74:
 349 0164 D3E90001 		ldrd	r0, [r3]
 350 0168 4640     		eors	r6, r6, r0
 351 016a 4F40     		eors	r7, r7, r1
 352 016c 4CAB     		add	r3, sp, #304
 353              	.LVL75:
 354 016e D3E90001 		ldrd	r0, [r3]
 355 0172 7040     		eors	r0, r0, r6
 356 0174 7940     		eors	r1, r1, r7
 357 0176 56AB     		add	r3, sp, #344
 358              	.LVL76:
 359 0178 D3E90045 		ldrd	r4, [r3]
 360 017c 4440     		eors	r4, r4, r0
 361 017e 4D40     		eors	r5, r5, r1
 362 0180 2646     		mov	r6, r4
 363 0182 60AB     		add	r3, sp, #384
 364              	.LVL77:
 365 0184 D3E90034 		ldrd	r3, [r3]
 366              	.LVL78:
 367 0188 7340     		eors	r3, r3, r6
 368 018a 6C40     		eors	r4, r4, r5
 369 018c 1E46     		mov	r6, r3
 370 018e 2746     		mov	r7, r4
 371              	.LVL79:
 113:..\fips202.c  ****     BCi = Abi ^ Agi ^ Aki ^ Ami ^ Asi;
 372              		.loc 1 113 0 discriminator 3
 373 0190 DDE93A01 		ldrd	r0, [sp, #232]
 374 0194 44AB     		add	r3, sp, #272
 375              	.LVL80:
 376 0196 D3E90045 		ldrd	r4, [r3]
 377 019a 6040     		eors	r0, r0, r4
 378 019c 6940     		eors	r1, r1, r5
 379 019e 4EAB     		add	r3, sp, #312
 380              	.LVL81:
 381 01a0 D3E90045 		ldrd	r4, [r3]
 382 01a4 4440     		eors	r4, r4, r0
 383 01a6 4D40     		eors	r5, r5, r1
 384 01a8 2046     		mov	r0, r4
 385 01aa 58AB     		add	r3, sp, #352
 386              	.LVL82:
 387 01ac D3E90034 		ldrd	r3, [r3]
 388              	.LVL83:
 389 01b0 4340     		eors	r3, r3, r0
 390 01b2 6C40     		eors	r4, r4, r5
 391 01b4 1846     		mov	r0, r3
 392 01b6 2146     		mov	r1, r4
 393 01b8 62AB     		add	r3, sp, #392
 394              	.LVL84:
 395 01ba D3E90045 		ldrd	r4, [r3]
ARM GAS  C:\Users\bogur\AppData\Local\Temp\ccXFXavo.s 			page 10


 396 01be 4440     		eors	r4, r4, r0
 397 01c0 4D40     		eors	r5, r5, r1
 398 01c2 2046     		mov	r0, r4
 399 01c4 2946     		mov	r1, r5
 400              	.LVL85:
 114:..\fips202.c  ****     BCo = Abo ^ Ago ^ Ako ^ Amo ^ Aso;
 401              		.loc 1 114 0 discriminator 3
 402 01c6 DDE93C23 		ldrd	r2, [sp, #240]
 403 01ca 46AC     		add	r4, sp, #280
 404              	.LVL86:
 405 01cc D4E90045 		ldrd	r4, [r4]
 406              	.LVL87:
 407 01d0 6240     		eors	r2, r2, r4
 408 01d2 6B40     		eors	r3, r3, r5
 409              	.LVL88:
 410 01d4 50AC     		add	r4, sp, #320
 411              	.LVL89:
 412 01d6 D4E90045 		ldrd	r4, [r4]
 413              	.LVL90:
 414 01da 5440     		eors	r4, r4, r2
 415 01dc 5D40     		eors	r5, r5, r3
 416 01de 2246     		mov	r2, r4
 417 01e0 2B46     		mov	r3, r5
 418 01e2 5AAC     		add	r4, sp, #360
 419              	.LVL91:
 420 01e4 D4E90045 		ldrd	r4, [r4]
 421              	.LVL92:
 422 01e8 5440     		eors	r4, r4, r2
 423 01ea 5D40     		eors	r5, r5, r3
 424 01ec 2246     		mov	r2, r4
 425 01ee 2B46     		mov	r3, r5
 426 01f0 64AC     		add	r4, sp, #400
 427              	.LVL93:
 428 01f2 D4E90045 		ldrd	r4, [r4]
 429              	.LVL94:
 430 01f6 5440     		eors	r4, r4, r2
 431 01f8 5D40     		eors	r5, r5, r3
 432 01fa CDE90645 		strd	r4, [sp, #24]
 433              	.LVL95:
 115:..\fips202.c  ****     BCu = Abu ^ Agu ^ Aku ^ Amu ^ Asu;
 434              		.loc 1 115 0 discriminator 3
 435 01fe DDE93E34 		ldrd	r3, [sp, #248]
 436 0202 48AA     		add	r2, sp, #288
 437              	.LVL96:
 438 0204 D2E900AB 		ldrd	r10, [r2]
 439 0208 83EA0A03 		eor	r3, r3, r10
 440 020c 84EA0B04 		eor	r4, r4, fp
 441              	.LVL97:
 442 0210 2546     		mov	r5, r4
 443 0212 1C46     		mov	r4, r3
 444 0214 52AB     		add	r3, sp, #328
 445              	.LVL98:
 446 0216 D3E90023 		ldrd	r2, [r3]
 447              	.LVL99:
 448 021a 6240     		eors	r2, r2, r4
 449 021c 6B40     		eors	r3, r3, r5
 450              	.LVL100:
ARM GAS  C:\Users\bogur\AppData\Local\Temp\ccXFXavo.s 			page 11


 451 021e 1446     		mov	r4, r2
 452 0220 1D46     		mov	r5, r3
 453 0222 5CAB     		add	r3, sp, #368
 454              	.LVL101:
 455 0224 D3E90023 		ldrd	r2, [r3]
 456 0228 6240     		eors	r2, r2, r4
 457 022a 6B40     		eors	r3, r3, r5
 458              	.LVL102:
 459 022c 1446     		mov	r4, r2
 460 022e 1D46     		mov	r5, r3
 461 0230 66AB     		add	r3, sp, #408
 462              	.LVL103:
 463 0232 D3E90023 		ldrd	r2, [r3]
 464 0236 6240     		eors	r2, r2, r4
 465 0238 6B40     		eors	r3, r3, r5
 466              	.LVL104:
 467 023a 1446     		mov	r4, r2
 468 023c 1D46     		mov	r5, r3
 469              	.LVL105:
 116:..\fips202.c  **** 
 117:..\fips202.c  ****     //thetaRhoPiChiIotaPrepareTheta(round  , A, E)
 118:..\fips202.c  ****     Da = BCu ^ ROL(BCe, 1);
 470              		.loc 1 118 0 discriminator 3
 471 023e 4FEA470E 		lsl	lr, r7, #1
 472 0242 4EEAD67E 		orr	lr, lr, r6, lsr #31
 473 0246 CDF8A4E1 		str	lr, [sp, #420]
 474 024a 4FEA460E 		lsl	lr, r6, #1
 475 024e 4EEAD77E 		orr	lr, lr, r7, lsr #31
 476 0252 CDF8A0E1 		str	lr, [sp, #416]
 477 0256 68AB     		add	r3, sp, #416
 478 0258 D3E90023 		ldrd	r2, [r3]
 479 025c 6240     		eors	r2, r2, r4
 480 025e 6B40     		eors	r3, r3, r5
 481 0260 CDE90023 		strd	r2, [sp]
 482              	.LVL106:
 119:..\fips202.c  ****     De = BCa ^ ROL(BCi, 1);
 483              		.loc 1 119 0 discriminator 3
 484 0264 4FEA410E 		lsl	lr, r1, #1
 485 0268 4EEAD07E 		orr	lr, lr, r0, lsr #31
 486 026c CDF8ACE1 		str	lr, [sp, #428]
 487 0270 4FEA400E 		lsl	lr, r0, #1
 488 0274 4EEAD17E 		orr	lr, lr, r1, lsr #31
 489 0278 CDF8A8E1 		str	lr, [sp, #424]
 490 027c 6AAB     		add	r3, sp, #424
 491 027e D3E90023 		ldrd	r2, [r3]
 492              	.LVL107:
 493 0282 82EA0802 		eor	r2, r2, r8
 494 0286 83EA0903 		eor	r3, r3, r9
 495 028a CDE90223 		strd	r2, [sp, #8]
 496              	.LVL108:
 120:..\fips202.c  ****     Di = BCe ^ ROL(BCo, 1);
 497              		.loc 1 120 0 discriminator 3
 498 028e DDE906AB 		ldrd	r10, [sp, #24]
 499 0292 4FEA4B0E 		lsl	lr, fp, #1
 500 0296 4EEADA7E 		orr	lr, lr, r10, lsr #31
 501 029a CDF8B4E1 		str	lr, [sp, #436]
 502 029e 4FEA4A0E 		lsl	lr, r10, #1
ARM GAS  C:\Users\bogur\AppData\Local\Temp\ccXFXavo.s 			page 12


 503 02a2 4EEADB7E 		orr	lr, lr, fp, lsr #31
 504 02a6 CDF8B0E1 		str	lr, [sp, #432]
 505 02aa 6CAB     		add	r3, sp, #432
 506 02ac D3E900AB 		ldrd	r10, [r3]
 507 02b0 8AEA060A 		eor	r10, r10, r6
 508 02b4 8BEA070B 		eor	fp, fp, r7
 509 02b8 CDE904AB 		strd	r10, [sp, #16]
 510              	.LVL109:
 121:..\fips202.c  ****     Do = BCi ^ ROL(BCu, 1);
 511              		.loc 1 121 0 discriminator 3
 512 02bc 4FEA450E 		lsl	lr, r5, #1
 513 02c0 4EEAD47E 		orr	lr, lr, r4, lsr #31
 514 02c4 CDF8BCE1 		str	lr, [sp, #444]
 515 02c8 6400     		lsls	r4, r4, #1
 516              	.LVL110:
 517 02ca 44EAD57E 		orr	lr, r4, r5, lsr #31
 518 02ce CDF8B8E1 		str	lr, [sp, #440]
 519 02d2 6EAB     		add	r3, sp, #440
 520 02d4 D3E90045 		ldrd	r4, [r3]
 521 02d8 4440     		eors	r4, r4, r0
 522 02da 4D40     		eors	r5, r5, r1
 523 02dc 2E46     		mov	r6, r5
 524              	.LVL111:
 525 02de 2546     		mov	r5, r4
 526              	.LVL112:
 122:..\fips202.c  ****     Du = BCo ^ ROL(BCa, 1);
 527              		.loc 1 122 0 discriminator 3
 528 02e0 4FEA4901 		lsl	r1, r9, #1
 529 02e4 41EAD87E 		orr	lr, r1, r8, lsr #31
 530 02e8 CDF8C4E1 		str	lr, [sp, #452]
 531 02ec 4FEA4801 		lsl	r1, r8, #1
 532 02f0 41EAD97E 		orr	lr, r1, r9, lsr #31
 533 02f4 CDF8C0E1 		str	lr, [sp, #448]
 534 02f8 70AB     		add	r3, sp, #448
 535 02fa D3E9009A 		ldrd	r9, [r3]
 536 02fe DDE90623 		ldrd	r2, [sp, #24]
 537              	.LVL113:
 538 0302 82EA0902 		eor	r2, r2, r9
 539 0306 83EA0A03 		eor	r3, r3, r10
 540 030a 9B46     		mov	fp, r3
 541 030c 9246     		mov	r10, r2
 542              	.LVL114:
 123:..\fips202.c  **** 
 124:..\fips202.c  ****     Aba ^= Da;
 543              		.loc 1 124 0 discriminator 3
 544 030e DDE92E89 		ldrd	r8, [sp, #184]
 545              	.LVL115:
 546 0312 DDE90034 		ldrd	r3, [sp]
 547 0316 88EA0308 		eor	r8, r8, r3
 548 031a 89EA0409 		eor	r9, r9, r4
 549 031e 72AB     		add	r3, sp, #456
 550 0320 C3E90089 		strd	r8, [r3]
 551              	.LVL116:
 125:..\fips202.c  ****     BCa = Aba;
 126:..\fips202.c  ****     Age ^= De;
 552              		.loc 1 126 0 discriminator 3
 553 0324 42AB     		add	r3, sp, #264
ARM GAS  C:\Users\bogur\AppData\Local\Temp\ccXFXavo.s 			page 13


 554              	.LVL117:
 555 0326 D3E90089 		ldrd	r8, [r3]
 556              	.LVL118:
 557 032a DDE90223 		ldrd	r2, [sp, #8]
 558 032e 88EA0208 		eor	r8, r8, r2
 559 0332 89EA0309 		eor	r9, r9, r3
 560 0336 4046     		mov	r0, r8
 561              	.LVL119:
 562 0338 4946     		mov	r1, r9
 563              	.LVL120:
 127:..\fips202.c  ****     BCe = ROL(Age, 44);
 564              		.loc 1 127 0 discriminator 3
 565 033a 040D     		lsrs	r4, r0, #20
 566 033c 44EA093E 		orr	lr, r4, r9, lsl #12
 567 0340 CDF8D0E1 		str	lr, [sp, #464]
 568 0344 090D     		lsrs	r1, r1, #20
 569 0346 41EA083E 		orr	lr, r1, r8, lsl #12
 570 034a CDF8D4E1 		str	lr, [sp, #468]
 571              	.LVL121:
 128:..\fips202.c  ****     Aki ^= Di;
 572              		.loc 1 128 0 discriminator 3
 573 034e 4EAB     		add	r3, sp, #312
 574              	.LVL122:
 575 0350 D3E90001 		ldrd	r0, [r3]
 576              	.LVL123:
 577 0354 DDE90434 		ldrd	r3, [sp, #16]
 578              	.LVL124:
 579 0358 4340     		eors	r3, r3, r0
 580 035a 4C40     		eors	r4, r4, r1
 581 035c 2146     		mov	r1, r4
 582              	.LVL125:
 129:..\fips202.c  ****     BCi = ROL(Aki, 43);
 583              		.loc 1 129 0 discriminator 3
 584 035e 5C0D     		lsrs	r4, r3, #21
 585 0360 44EAC12E 		orr	lr, r4, r1, lsl #11
 586 0364 CDF8D8E1 		str	lr, [sp, #472]
 587 0368 490D     		lsrs	r1, r1, #21
 588 036a 41EAC32E 		orr	lr, r1, r3, lsl #11
 589 036e CDF8DCE1 		str	lr, [sp, #476]
 590              	.LVL126:
 130:..\fips202.c  ****     Amo ^= Do;
 591              		.loc 1 130 0 discriminator 3
 592 0372 5AAB     		add	r3, sp, #360
 593              	.LVL127:
 594 0374 D3E90001 		ldrd	r0, [r3]
 595 0378 CDE92E56 		strd	r5, [sp, #184]
 596 037c 6840     		eors	r0, r0, r5
 597 037e 7140     		eors	r1, r1, r6
 598              	.LVL128:
 131:..\fips202.c  ****     BCo = ROL(Amo, 21);
 599              		.loc 1 131 0 discriminator 3
 600 0380 4C05     		lsls	r4, r1, #21
 601 0382 44EAD02E 		orr	lr, r4, r0, lsr #11
 602 0386 CDF8E4E1 		str	lr, [sp, #484]
 603 038a 4005     		lsls	r0, r0, #21
 604              	.LVL129:
 605 038c 40EAD12E 		orr	lr, r0, r1, lsr #11
ARM GAS  C:\Users\bogur\AppData\Local\Temp\ccXFXavo.s 			page 14


 606 0390 CDF8E0E1 		str	lr, [sp, #480]
 607              	.LVL130:
 132:..\fips202.c  ****     Asu ^= Du;
 608              		.loc 1 132 0 discriminator 3
 609 0394 66AB     		add	r3, sp, #408
 610 0396 D3E90045 		ldrd	r4, [r3]
 611 039a CDE906AB 		strd	r10, [sp, #24]
 612 039e 5246     		mov	r2, r10
 613 03a0 5B46     		mov	r3, fp
 614 03a2 5440     		eors	r4, r4, r2
 615 03a4 5D40     		eors	r5, r5, r3
 616              	.LVL131:
 133:..\fips202.c  ****     BCu = ROL(Asu, 14);
 617              		.loc 1 133 0 discriminator 3
 618 03a6 A903     		lsls	r1, r5, #14
 619 03a8 41EA944E 		orr	lr, r1, r4, lsr #18
 620 03ac CDF8ECE1 		str	lr, [sp, #492]
 621 03b0 A103     		lsls	r1, r4, #14
 622 03b2 41EA954E 		orr	lr, r1, r5, lsr #18
 623 03b6 CDF8E8E1 		str	lr, [sp, #488]
 624              	.LVL132:
 134:..\fips202.c  ****     Eba = BCa ^ ((~BCe) & BCi);
 625              		.loc 1 134 0 discriminator 3
 626 03ba 74AB     		add	r3, sp, #464
 627              	.LVL133:
 628 03bc D3E900AB 		ldrd	r10, [r3]
 629              	.LVL134:
 630 03c0 76AB     		add	r3, sp, #472
 631              	.LVL135:
 632 03c2 D3E90023 		ldrd	r2, [r3]
 633 03c6 22EA0A00 		bic	r0, r2, r10
 634 03ca 23EA0B01 		bic	r1, r3, fp
 635 03ce 72AC     		add	r4, sp, #456
 636              	.LVL136:
 637 03d0 D4E90056 		ldrd	r5, [r4]
 638 03d4 4540     		eors	r5, r5, r0
 639 03d6 4E40     		eors	r6, r6, r1
 640 03d8 2846     		mov	r0, r5
 135:..\fips202.c  ****     Eba ^= (uint64_t)KeccakF_RoundConstants[round];
 641              		.loc 1 135 0 discriminator 3
 642 03da DFF894EB 		ldr	lr, .L12
 643 03de 0EEBCC04 		add	r4, lr, ip, lsl #3
 644              	.LVL137:
 645 03e2 D4E90045 		ldrd	r4, [r4]
 646 03e6 80EA0408 		eor	r8, r0, r4
 647 03ea 86EA0509 		eor	r9, r6, r5
 648 03ee 42A9     		add	r1, sp, #264
 649 03f0 C1E90089 		strd	r8, [r1]
 650              	.LVL138:
 136:..\fips202.c  ****     Ebe = BCe ^ ((~BCi) & BCo);
 651              		.loc 1 136 0 discriminator 3
 652 03f4 78A9     		add	r1, sp, #480
 653              	.LVL139:
 654 03f6 D1E90067 		ldrd	r6, [r1]
 655 03fa 26EA0200 		bic	r0, r6, r2
 656 03fe 27EA0301 		bic	r1, r7, r3
 657              	.LVL140:
ARM GAS  C:\Users\bogur\AppData\Local\Temp\ccXFXavo.s 			page 15


 658 0402 5446     		mov	r4, r10
 659 0404 5D46     		mov	r5, fp
 660 0406 4440     		eors	r4, r4, r0
 661 0408 4D40     		eors	r5, r5, r1
 662 040a 4EA9     		add	r1, sp, #312
 663 040c C1E90045 		strd	r4, [r1]
 664              	.LVL141:
 137:..\fips202.c  ****     Ebi = BCi ^ ((~BCo) & BCu);
 665              		.loc 1 137 0 discriminator 3
 666 0410 7AAC     		add	r4, sp, #488
 667              	.LVL142:
 668 0412 D4E90089 		ldrd	r8, [r4]
 669              	.LVL143:
 670 0416 28EA0600 		bic	r0, r8, r6
 671 041a 29EA0701 		bic	r1, r9, r7
 672              	.LVL144:
 673 041e 4240     		eors	r2, r2, r0
 674 0420 4B40     		eors	r3, r3, r1
 675              	.LVL145:
 676 0422 66A9     		add	r1, sp, #408
 677 0424 C1E90023 		strd	r2, [r1]
 678              	.LVL146:
 138:..\fips202.c  ****     Ebo = BCo ^ ((~BCu) & BCa);
 679              		.loc 1 138 0 discriminator 3
 680 0428 72AB     		add	r3, sp, #456
 681              	.LVL147:
 682 042a D3E90023 		ldrd	r2, [r3]
 683              	.LVL148:
 684 042e 22EA0804 		bic	r4, r2, r8
 685              	.LVL149:
 686 0432 23EA0905 		bic	r5, r3, r9
 687 0436 6640     		eors	r6, r6, r4
 688              	.LVL150:
 689 0438 6F40     		eors	r7, r7, r5
 690 043a 5AA9     		add	r1, sp, #360
 691 043c C1E90067 		strd	r6, [r1]
 692              	.LVL151:
 139:..\fips202.c  ****     Ebu = BCu ^ ((~BCa) & BCe);
 693              		.loc 1 139 0 discriminator 3
 694 0440 1146     		mov	r1, r2
 695 0442 2AEA0101 		bic	r1, r10, r1
 696 0446 2BEA0302 		bic	r2, fp, r3
 697 044a 9346     		mov	fp, r2
 698 044c 0A46     		mov	r2, r1
 699 044e 5B46     		mov	r3, fp
 700              	.LVL152:
 701 0450 4046     		mov	r0, r8
 702 0452 4946     		mov	r1, r9
 703 0454 5040     		eors	r0, r0, r2
 704 0456 5940     		eors	r1, r1, r3
 705 0458 72AB     		add	r3, sp, #456
 706 045a C3E90001 		strd	r0, [r3]
 707              	.LVL153:
 140:..\fips202.c  **** 
 141:..\fips202.c  ****     Abo ^= Do;
 708              		.loc 1 141 0 discriminator 3
 709 045e DDE93CAB 		ldrd	r10, [sp, #240]
ARM GAS  C:\Users\bogur\AppData\Local\Temp\ccXFXavo.s 			page 16


 710              	.LVL154:
 711 0462 DDE92E56 		ldrd	r5, [sp, #184]
 712 0466 8AEA050A 		eor	r10, r10, r5
 713 046a 8BEA060B 		eor	fp, fp, r6
 714 046e 5246     		mov	r2, r10
 715 0470 5B46     		mov	r3, fp
 716              	.LVL155:
 142:..\fips202.c  ****     BCa = ROL(Abo, 28);
 717              		.loc 1 142 0 discriminator 3
 718 0472 1907     		lsls	r1, r3, #28
 719 0474 41EA1A1B 		orr	fp, r1, r10, lsr #4
 720 0478 CDF8F4B1 		str	fp, [sp, #500]
 721 047c 1207     		lsls	r2, r2, #28
 722              	.LVL156:
 723 047e 42EA131B 		orr	fp, r2, r3, lsr #4
 724 0482 CDF8F0B1 		str	fp, [sp, #496]
 725              	.LVL157:
 143:..\fips202.c  ****     Agu ^= Du;
 726              		.loc 1 143 0 discriminator 3
 727 0486 48AB     		add	r3, sp, #288
 728              	.LVL158:
 729 0488 D3E900AB 		ldrd	r10, [r3]
 730 048c DDE90623 		ldrd	r2, [sp, #24]
 731 0490 82EA0A02 		eor	r2, r2, r10
 732 0494 83EA0B03 		eor	r3, r3, fp
 733              	.LVL159:
 144:..\fips202.c  ****     BCe = ROL(Agu, 20);
 734              		.loc 1 144 0 discriminator 3
 735 0498 1905     		lsls	r1, r3, #20
 736 049a 41EA123B 		orr	fp, r1, r2, lsr #12
 737 049e CDF824B0 		str	fp, [sp, #36]
 738 04a2 1205     		lsls	r2, r2, #20
 739              	.LVL160:
 740 04a4 42EA133B 		orr	fp, r2, r3, lsr #12
 741 04a8 CDF820B0 		str	fp, [sp, #32]
 742              	.LVL161:
 145:..\fips202.c  ****     Aka ^= Da;
 743              		.loc 1 145 0 discriminator 3
 744 04ac 4AAB     		add	r3, sp, #296
 745              	.LVL162:
 746 04ae D3E90078 		ldrd	r7, [r3]
 747 04b2 DDE90045 		ldrd	r4, [sp]
 748 04b6 6740     		eors	r7, r7, r4
 749 04b8 88EA0508 		eor	r8, r8, r5
 750              	.LVL163:
 751 04bc 4346     		mov	r3, r8
 752              	.LVL164:
 146:..\fips202.c  ****     BCi = ROL(Aka, 3);
 753              		.loc 1 146 0 discriminator 3
 754 04be D900     		lsls	r1, r3, #3
 755 04c0 41EA577B 		orr	fp, r1, r7, lsr #29
 756 04c4 CDF82CB0 		str	fp, [sp, #44]
 757 04c8 FA00     		lsls	r2, r7, #3
 758 04ca 42EA587B 		orr	fp, r2, r8, lsr #29
 759 04ce CDF828B0 		str	fp, [sp, #40]
 760              	.LVL165:
 147:..\fips202.c  ****     Ame ^= De;
ARM GAS  C:\Users\bogur\AppData\Local\Temp\ccXFXavo.s 			page 17


 761              		.loc 1 147 0 discriminator 3
 762 04d2 56AB     		add	r3, sp, #344
 763              	.LVL166:
 764 04d4 D3E90089 		ldrd	r8, [r3]
 765 04d8 DDE90212 		ldrd	r1, [sp, #8]
 766 04dc 88EA0108 		eor	r8, r8, r1
 767 04e0 89EA0209 		eor	r9, r9, r2
 768 04e4 4246     		mov	r2, r8
 769 04e6 4B46     		mov	r3, r9
 770              	.LVL167:
 148:..\fips202.c  ****     BCo = ROL(Ame, 45);
 771              		.loc 1 148 0 discriminator 3
 772 04e8 D10C     		lsrs	r1, r2, #19
 773 04ea 41EA493B 		orr	fp, r1, r9, lsl #13
 774 04ee CDF8F8B1 		str	fp, [sp, #504]
 775 04f2 DB0C     		lsrs	r3, r3, #19
 776 04f4 43EA483B 		orr	fp, r3, r8, lsl #13
 777 04f8 CDF8FCB1 		str	fp, [sp, #508]
 778              	.LVL168:
 149:..\fips202.c  ****     Asi ^= Di;
 779              		.loc 1 149 0 discriminator 3
 780 04fc 62AB     		add	r3, sp, #392
 781 04fe D3E90089 		ldrd	r8, [r3]
 782 0502 DDE90401 		ldrd	r0, [sp, #16]
 783              	.LVL169:
 784 0506 80EA0800 		eor	r0, r0, r8
 785 050a 81EA0901 		eor	r1, r1, r9
 786 050e 8946     		mov	r9, r1
 787 0510 0B46     		mov	r3, r1
 788              	.LVL170:
 150:..\fips202.c  ****     BCu = ROL(Asi, 61);
 789              		.loc 1 150 0 discriminator 3
 790 0512 C108     		lsrs	r1, r0, #3
 791 0514 41EA497B 		orr	fp, r1, r9, lsl #29
 792 0518 CDF830B0 		str	fp, [sp, #48]
 793 051c DB08     		lsrs	r3, r3, #3
 794 051e 43EA407B 		orr	fp, r3, r0, lsl #29
 795 0522 CDF834B0 		str	fp, [sp, #52]
 796              	.LVL171:
 151:..\fips202.c  ****     Ega = BCa ^ ((~BCe) & BCi);
 797              		.loc 1 151 0 discriminator 3
 798 0526 DDE90812 		ldrd	r1, [sp, #32]
 799 052a DDE90A78 		ldrd	r7, [sp, #40]
 800 052e 27EA0101 		bic	r1, r7, r1
 801 0532 28EA0202 		bic	r2, r8, r2
 802              	.LVL172:
 803 0536 1346     		mov	r3, r2
 804 0538 0A46     		mov	r2, r1
 805 053a 7CA9     		add	r1, sp, #496
 806              	.LVL173:
 807 053c D1E9009A 		ldrd	r9, [r1]
 808 0540 4F46     		mov	r7, r9
 809 0542 5740     		eors	r7, r7, r2
 810 0544 8AEA0308 		eor	r8, r10, r3
 811 0548 56AB     		add	r3, sp, #344
 812 054a C3E90078 		strd	r7, [r3]
 813              	.LVL174:
ARM GAS  C:\Users\bogur\AppData\Local\Temp\ccXFXavo.s 			page 18


 152:..\fips202.c  ****     Ege = BCe ^ ((~BCi) & BCo);
 814              		.loc 1 152 0 discriminator 3
 815 054e 7EAB     		add	r3, sp, #504
 816              	.LVL175:
 817 0550 D3E90067 		ldrd	r6, [r3]
 818              	.LVL176:
 819 0554 DDE90A01 		ldrd	r0, [sp, #40]
 820 0558 26EA0002 		bic	r2, r6, r0
 821 055c 27EA0103 		bic	r3, r7, r1
 822              	.LVL177:
 823 0560 DDE90801 		ldrd	r0, [sp, #32]
 824 0564 5040     		eors	r0, r0, r2
 825 0566 5940     		eors	r1, r1, r3
 826              	.LVL178:
 827 0568 CDE93C01 		strd	r0, [sp, #240]
 828              	.LVL179:
 153:..\fips202.c  ****     Egi = BCi ^ ((~BCo) & BCu);
 829              		.loc 1 153 0 discriminator 3
 830 056c DDE90C01 		ldrd	r0, [sp, #48]
 831              	.LVL180:
 832 0570 20EA0602 		bic	r2, r0, r6
 833 0574 21EA0703 		bic	r3, r1, r7
 834 0578 DDE90A01 		ldrd	r0, [sp, #40]
 835 057c 5040     		eors	r0, r0, r2
 836 057e 5940     		eors	r1, r1, r3
 837 0580 4AAB     		add	r3, sp, #296
 838 0582 C3E90001 		strd	r0, [r3]
 839              	.LVL181:
 154:..\fips202.c  ****     Ego = BCo ^ ((~BCu) & BCa);
 840              		.loc 1 154 0 discriminator 3
 841 0586 C846     		mov	r8, r9
 842 0588 D146     		mov	r9, r10
 843              	.LVL182:
 844 058a DDE90CAB 		ldrd	r10, [sp, #48]
 845 058e 28EA0A01 		bic	r1, r8, r10
 846 0592 29EA0B02 		bic	r2, r9, fp
 847 0596 0846     		mov	r0, r1
 848              	.LVL183:
 849 0598 86EA000A 		eor	r10, r6, r0
 850 059c 87EA020B 		eor	fp, r7, r2
 851 05a0 62AB     		add	r3, sp, #392
 852              	.LVL184:
 853 05a2 C3E900AB 		strd	r10, [r3]
 854              	.LVL185:
 155:..\fips202.c  ****     Egu = BCu ^ ((~BCa) & BCe);
 855              		.loc 1 155 0 discriminator 3
 856 05a6 4146     		mov	r1, r8
 857 05a8 4A46     		mov	r2, r9
 858 05aa DDE90889 		ldrd	r8, [sp, #32]
 859 05ae 28EA0101 		bic	r1, r8, r1
 860 05b2 29EA0202 		bic	r2, r9, r2
 861 05b6 1346     		mov	r3, r2
 862 05b8 DDE90C89 		ldrd	r8, [sp, #48]
 863 05bc 88EA0108 		eor	r8, r8, r1
 864 05c0 89EA0309 		eor	r9, r9, r3
 865 05c4 48AB     		add	r3, sp, #288
 866 05c6 C3E90089 		strd	r8, [r3]
ARM GAS  C:\Users\bogur\AppData\Local\Temp\ccXFXavo.s 			page 19


 867              	.LVL186:
 156:..\fips202.c  **** 
 157:..\fips202.c  ****     Abe ^= De;
 868              		.loc 1 157 0 discriminator 3
 869 05ca DDE93867 		ldrd	r6, [sp, #224]
 870              	.LVL187:
 871 05ce DDE90289 		ldrd	r8, [sp, #8]
 872              	.LVL188:
 873 05d2 86EA0806 		eor	r6, r6, r8
 874 05d6 87EA0907 		eor	r7, r7, r9
 875              	.LVL189:
 158:..\fips202.c  ****     BCa = ROL(Abe, 1);
 876              		.loc 1 158 0 discriminator 3
 877 05da 7900     		lsls	r1, r7, #1
 878 05dc 41EAD67B 		orr	fp, r1, r6, lsr #31
 879 05e0 CDF8C4B0 		str	fp, [sp, #196]
 880 05e4 7200     		lsls	r2, r6, #1
 881 05e6 42EAD77B 		orr	fp, r2, r7, lsr #31
 882 05ea CDF8C0B0 		str	fp, [sp, #192]
 883              	.LVL190:
 159:..\fips202.c  ****     Agi ^= Di;
 884              		.loc 1 159 0 discriminator 3
 885 05ee 44AB     		add	r3, sp, #272
 886              	.LVL191:
 887 05f0 D3E9009A 		ldrd	r9, [r3]
 888 05f4 DDE90412 		ldrd	r1, [sp, #16]
 889 05f8 81EA0901 		eor	r1, r1, r9
 890 05fc 82EA0A02 		eor	r2, r2, r10
 891 0600 8946     		mov	r9, r1
 892 0602 9246     		mov	r10, r2
 893              	.LVL192:
 894 0604 0A46     		mov	r2, r1
 895 0606 5346     		mov	r3, r10
 896              	.LVL193:
 160:..\fips202.c  ****     BCe = ROL(Agi, 6);
 897              		.loc 1 160 0 discriminator 3
 898 0608 9901     		lsls	r1, r3, #6
 899 060a 41EA996B 		orr	fp, r1, r9, lsr #26
 900 060e CDF83CB0 		str	fp, [sp, #60]
 901 0612 9201     		lsls	r2, r2, #6
 902              	.LVL194:
 903 0614 42EA9A6B 		orr	fp, r2, r10, lsr #26
 904 0618 CDF838B0 		str	fp, [sp, #56]
 905              	.LVL195:
 161:..\fips202.c  ****     Ako ^= Do;
 906              		.loc 1 161 0 discriminator 3
 907 061c 50AB     		add	r3, sp, #320
 908              	.LVL196:
 909 061e D3E90067 		ldrd	r6, [r3]
 910 0622 DDE92E9A 		ldrd	r9, [sp, #184]
 911 0626 86EA0906 		eor	r6, r6, r9
 912 062a 87EA0A07 		eor	r7, r7, r10
 913              	.LVL197:
 162:..\fips202.c  ****     BCi = ROL(Ako, 25);
 914              		.loc 1 162 0 discriminator 3
 915 062e 7906     		lsls	r1, r7, #25
 916 0630 41EAD61B 		orr	fp, r1, r6, lsr #7
ARM GAS  C:\Users\bogur\AppData\Local\Temp\ccXFXavo.s 			page 20


 917 0634 CDF804B2 		str	fp, [sp, #516]
 918 0638 7206     		lsls	r2, r6, #25
 919 063a 42EAD71B 		orr	fp, r2, r7, lsr #7
 920 063e CDF800B2 		str	fp, [sp, #512]
 921              	.LVL198:
 163:..\fips202.c  ****     Amu ^= Du;
 922              		.loc 1 163 0 discriminator 3
 923 0642 5CAB     		add	r3, sp, #368
 924 0644 D3E900AB 		ldrd	r10, [r3]
 925 0648 DDE90667 		ldrd	r6, [sp, #24]
 926 064c 86EA0A06 		eor	r6, r6, r10
 927 0650 87EA0B07 		eor	r7, r7, fp
 928              	.LVL199:
 164:..\fips202.c  ****     BCo = ROL(Amu, 8);
 929              		.loc 1 164 0 discriminator 3
 930 0654 3902     		lsls	r1, r7, #8
 931 0656 41EA166B 		orr	fp, r1, r6, lsr #24
 932 065a CDF80CB2 		str	fp, [sp, #524]
 933 065e 3202     		lsls	r2, r6, #8
 934 0660 42EA176B 		orr	fp, r2, r7, lsr #24
 935 0664 CDF808B2 		str	fp, [sp, #520]
 936              	.LVL200:
 165:..\fips202.c  ****     Asa ^= Da;
 937              		.loc 1 165 0 discriminator 3
 938 0668 5EAB     		add	r3, sp, #376
 939              	.LVL201:
 940 066a D3E90078 		ldrd	r7, [r3]
 941 066e 2E46     		mov	r6, r5
 942 0670 6740     		eors	r7, r7, r4
 943 0672 88EA0608 		eor	r8, r8, r6
 944 0676 4346     		mov	r3, r8
 945              	.LVL202:
 166:..\fips202.c  ****     BCu = ROL(Asa, 18);
 946              		.loc 1 166 0 discriminator 3
 947 0678 9904     		lsls	r1, r3, #18
 948 067a 41EA973B 		orr	fp, r1, r7, lsr #14
 949 067e CDF814B2 		str	fp, [sp, #532]
 950 0682 BA04     		lsls	r2, r7, #18
 951 0684 42EA983B 		orr	fp, r2, r8, lsr #14
 952 0688 CDF810B2 		str	fp, [sp, #528]
 953              	.LVL203:
 167:..\fips202.c  ****     Eka = BCa ^ ((~BCe) & BCi);
 954              		.loc 1 167 0 discriminator 3
 955 068c DDE90E9A 		ldrd	r9, [sp, #56]
 956 0690 80A9     		add	r1, sp, #512
 957              	.LVL204:
 958 0692 D1E90067 		ldrd	r6, [r1]
 959 0696 26EA0902 		bic	r2, r6, r9
 960 069a 27EA0A03 		bic	r3, r7, r10
 961 069e DDE93001 		ldrd	r0, [sp, #192]
 962 06a2 5040     		eors	r0, r0, r2
 963 06a4 5940     		eors	r1, r1, r3
 964              	.LVL205:
 965 06a6 44AB     		add	r3, sp, #272
 966 06a8 C3E90001 		strd	r0, [r3]
 967              	.LVL206:
 168:..\fips202.c  ****     Eke = BCe ^ ((~BCi) & BCo);
ARM GAS  C:\Users\bogur\AppData\Local\Temp\ccXFXavo.s 			page 21


 968              		.loc 1 168 0 discriminator 3
 969 06ac 82AB     		add	r3, sp, #520
 970              	.LVL207:
 971 06ae D3E90045 		ldrd	r4, [r3]
 972 06b2 24EA0602 		bic	r2, r4, r6
 973 06b6 25EA0703 		bic	r3, r5, r7
 974              	.LVL208:
 975 06ba 89EA0209 		eor	r9, r9, r2
 976 06be 8AEA030A 		eor	r10, r10, r3
 977 06c2 5CAB     		add	r3, sp, #368
 978 06c4 C3E9009A 		strd	r9, [r3]
 979              	.LVL209:
 169:..\fips202.c  ****     Eki = BCi ^ ((~BCo) & BCu);
 980              		.loc 1 169 0 discriminator 3
 981 06c8 84AB     		add	r3, sp, #528
 982              	.LVL210:
 983 06ca D3E900AB 		ldrd	r10, [r3]
 984 06ce 2AEA0401 		bic	r1, r10, r4
 985 06d2 2BEA0502 		bic	r2, fp, r5
 986 06d6 1346     		mov	r3, r2
 987              	.LVL211:
 988 06d8 4E40     		eors	r6, r6, r1
 989              	.LVL212:
 990 06da 5F40     		eors	r7, r7, r3
 991 06dc CDE93867 		strd	r6, [sp, #224]
 992              	.LVL213:
 170:..\fips202.c  ****     Eko = BCo ^ ((~BCu) & BCa);
 993              		.loc 1 170 0 discriminator 3
 994 06e0 DDE93078 		ldrd	r7, [sp, #192]
 995 06e4 27EA0A02 		bic	r2, r7, r10
 996 06e8 28EA0B03 		bic	r3, r8, fp
 997 06ec 2046     		mov	r0, r4
 998              	.LVL214:
 999 06ee 2946     		mov	r1, r5
 1000 06f0 5040     		eors	r0, r0, r2
 1001 06f2 5940     		eors	r1, r1, r3
 1002 06f4 50AB     		add	r3, sp, #320
 1003 06f6 C3E90001 		strd	r0, [r3]
 1004              	.LVL215:
 171:..\fips202.c  ****     Eku = BCu ^ ((~BCa) & BCe);
 1005              		.loc 1 171 0 discriminator 3
 1006 06fa 3A46     		mov	r2, r7
 1007 06fc 4346     		mov	r3, r8
 1008 06fe DDE90E89 		ldrd	r8, [sp, #56]
 1009 0702 28EA0202 		bic	r2, r8, r2
 1010 0706 29EA0303 		bic	r3, r9, r3
 1011 070a 8AEA0208 		eor	r8, r10, r2
 1012 070e 8BEA0309 		eor	r9, fp, r3
 1013              	.LVL216:
 1014 0712 5EAB     		add	r3, sp, #376
 1015 0714 C3E90089 		strd	r8, [r3]
 1016              	.LVL217:
 172:..\fips202.c  **** 
 173:..\fips202.c  ****     Abu ^= Du;
 1017              		.loc 1 173 0 discriminator 3
 1018 0718 DDE93E56 		ldrd	r5, [sp, #248]
 1019 071c DDE90601 		ldrd	r0, [sp, #24]
ARM GAS  C:\Users\bogur\AppData\Local\Temp\ccXFXavo.s 			page 22


 1020              	.LVL218:
 1021 0720 6840     		eors	r0, r0, r5
 1022 0722 7140     		eors	r1, r1, r6
 1023              	.LVL219:
 174:..\fips202.c  ****     BCa = ROL(Abu, 27);
 1024              		.loc 1 174 0 discriminator 3
 1025 0724 CB06     		lsls	r3, r1, #27
 1026 0726 43EA501B 		orr	fp, r3, r0, lsr #5
 1027 072a CDF81CB2 		str	fp, [sp, #540]
 1028 072e C306     		lsls	r3, r0, #27
 1029 0730 43EA511B 		orr	fp, r3, r1, lsr #5
 1030 0734 CDF818B2 		str	fp, [sp, #536]
 1031              	.LVL220:
 175:..\fips202.c  ****     Aga ^= Da;
 1032              		.loc 1 175 0 discriminator 3
 1033 0738 40AB     		add	r3, sp, #256
 1034              	.LVL221:
 1035 073a D3E900AB 		ldrd	r10, [r3]
 1036              	.LVL222:
 1037 073e DDE90056 		ldrd	r5, [sp]
 1038 0742 8AEA050A 		eor	r10, r10, r5
 1039 0746 8BEA060B 		eor	fp, fp, r6
 1040 074a 5246     		mov	r2, r10
 1041 074c 5B46     		mov	r3, fp
 1042              	.LVL223:
 176:..\fips202.c  ****     BCe = ROL(Aga, 36);
 1043              		.loc 1 176 0 discriminator 3
 1044 074e 110F     		lsrs	r1, r2, #28
 1045 0750 41EA0B1B 		orr	fp, r1, fp, lsl #4
 1046 0754 CDF820B2 		str	fp, [sp, #544]
 1047 0758 1B0F     		lsrs	r3, r3, #28
 1048 075a 43EA0A1B 		orr	fp, r3, r10, lsl #4
 1049 075e CDF824B2 		str	fp, [sp, #548]
 1050              	.LVL224:
 177:..\fips202.c  ****     Ake ^= De;
 1051              		.loc 1 177 0 discriminator 3
 1052 0762 4CAB     		add	r3, sp, #304
 1053              	.LVL225:
 1054 0764 D3E90012 		ldrd	r1, [r3]
 1055 0768 DDE90289 		ldrd	r8, [sp, #8]
 1056              	.LVL226:
 1057 076c 81EA0801 		eor	r1, r1, r8
 1058 0770 82EA0902 		eor	r2, r2, r9
 1059              	.LVL227:
 1060 0774 1346     		mov	r3, r2
 1061              	.LVL228:
 1062 0776 0A46     		mov	r2, r1
 1063              	.LVL229:
 178:..\fips202.c  ****     BCi = ROL(Ake, 10);
 1064              		.loc 1 178 0 discriminator 3
 1065 0778 9902     		lsls	r1, r3, #10
 1066 077a 41EA925B 		orr	fp, r1, r2, lsr #22
 1067 077e CDF844B0 		str	fp, [sp, #68]
 1068 0782 9202     		lsls	r2, r2, #10
 1069              	.LVL230:
 1070 0784 42EA935B 		orr	fp, r2, r3, lsr #22
 1071 0788 CDF840B0 		str	fp, [sp, #64]
ARM GAS  C:\Users\bogur\AppData\Local\Temp\ccXFXavo.s 			page 23


 1072              	.LVL231:
 179:..\fips202.c  ****     Ami ^= Di;
 1073              		.loc 1 179 0 discriminator 3
 1074 078c 58AB     		add	r3, sp, #352
 1075              	.LVL232:
 1076 078e D3E90078 		ldrd	r7, [r3]
 1077 0792 DDE90434 		ldrd	r3, [sp, #16]
 1078              	.LVL233:
 1079 0796 7B40     		eors	r3, r3, r7
 1080 0798 84EA0804 		eor	r4, r4, r8
 1081              	.LVL234:
 1082 079c 1F46     		mov	r7, r3
 1083              	.LVL235:
 180:..\fips202.c  ****     BCo = ROL(Ami, 15);
 1084              		.loc 1 180 0 discriminator 3
 1085 079e E103     		lsls	r1, r4, #15
 1086 07a0 41EA574B 		orr	fp, r1, r7, lsr #17
 1087 07a4 CDF82CB2 		str	fp, [sp, #556]
 1088 07a8 FA03     		lsls	r2, r7, #15
 1089 07aa 42EA544B 		orr	fp, r2, r4, lsr #17
 1090 07ae CDF828B2 		str	fp, [sp, #552]
 1091              	.LVL236:
 181:..\fips202.c  ****     Aso ^= Do;
 1092              		.loc 1 181 0 discriminator 3
 1093 07b2 64AB     		add	r3, sp, #400
 1094              	.LVL237:
 1095 07b4 D3E90078 		ldrd	r7, [r3]
 1096 07b8 DDE92E45 		ldrd	r4, [sp, #184]
 1097 07bc 6740     		eors	r7, r7, r4
 1098 07be 88EA0508 		eor	r8, r8, r5
 1099 07c2 4346     		mov	r3, r8
 1100              	.LVL238:
 182:..\fips202.c  ****     BCu = ROL(Aso, 56);
 1101              		.loc 1 182 0 discriminator 3
 1102 07c4 390A     		lsrs	r1, r7, #8
 1103 07c6 41EA086B 		orr	fp, r1, r8, lsl #24
 1104 07ca CDF848B0 		str	fp, [sp, #72]
 1105 07ce 1B0A     		lsrs	r3, r3, #8
 1106 07d0 43EA076B 		orr	fp, r3, r7, lsl #24
 1107 07d4 CDF84CB0 		str	fp, [sp, #76]
 1108              	.LVL239:
 183:..\fips202.c  ****     Ema = BCa ^ ((~BCe) & BCi);
 1109              		.loc 1 183 0 discriminator 3
 1110 07d8 88AB     		add	r3, sp, #544
 1111              	.LVL240:
 1112 07da D3E900AB 		ldrd	r10, [r3]
 1113 07de DDE91078 		ldrd	r7, [sp, #64]
 1114 07e2 27EA0A02 		bic	r2, r7, r10
 1115 07e6 28EA0B03 		bic	r3, r8, fp
 1116              	.LVL241:
 1117 07ea 86A9     		add	r1, sp, #536
 1118              	.LVL242:
 1119 07ec D1E90001 		ldrd	r0, [r1]
 1120              	.LVL243:
 1121 07f0 0746     		mov	r7, r0
 1122 07f2 5740     		eors	r7, r7, r2
 1123 07f4 81EA0308 		eor	r8, r1, r3
ARM GAS  C:\Users\bogur\AppData\Local\Temp\ccXFXavo.s 			page 24


 1124 07f8 64AB     		add	r3, sp, #400
 1125 07fa C3E90078 		strd	r7, [r3]
 1126              	.LVL244:
 184:..\fips202.c  ****     Eme = BCe ^ ((~BCi) & BCo);
 1127              		.loc 1 184 0 discriminator 3
 1128 07fe 8AAB     		add	r3, sp, #552
 1129              	.LVL245:
 1130 0800 D3E90067 		ldrd	r6, [r3]
 1131              	.LVL246:
 1132 0804 DDE91089 		ldrd	r8, [sp, #64]
 1133 0808 26EA0802 		bic	r2, r6, r8
 1134 080c 27EA0903 		bic	r3, r7, r9
 1135              	.LVL247:
 1136 0810 8AEA0208 		eor	r8, r10, r2
 1137 0814 8BEA0309 		eor	r9, fp, r3
 1138 0818 40AB     		add	r3, sp, #256
 1139 081a C3E90089 		strd	r8, [r3]
 1140              	.LVL248:
 185:..\fips202.c  ****     Emi = BCi ^ ((~BCo) & BCu);
 1141              		.loc 1 185 0 discriminator 3
 1142 081e DDE91223 		ldrd	r2, [sp, #72]
 1143 0822 22EA0608 		bic	r8, r2, r6
 1144              	.LVL249:
 1145 0826 23EA0709 		bic	r9, r3, r7
 1146 082a 4246     		mov	r2, r8
 1147 082c 4B46     		mov	r3, r9
 1148              	.LVL250:
 1149 082e DDE91089 		ldrd	r8, [sp, #64]
 1150 0832 88EA0208 		eor	r8, r8, r2
 1151 0836 89EA0309 		eor	r9, r9, r3
 1152 083a 58AB     		add	r3, sp, #352
 1153 083c C3E90089 		strd	r8, [r3]
 1154              	.LVL251:
 186:..\fips202.c  ****     Emo = BCo ^ ((~BCu) & BCa);
 1155              		.loc 1 186 0 discriminator 3
 1156 0840 8046     		mov	r8, r0
 1157              	.LVL252:
 1158 0842 8946     		mov	r9, r1
 1159 0844 DDE91201 		ldrd	r0, [sp, #72]
 1160 0848 28EA0002 		bic	r2, r8, r0
 1161 084c 29EA0103 		bic	r3, r9, r1
 1162              	.LVL253:
 1163 0850 3046     		mov	r0, r6
 1164 0852 3946     		mov	r1, r7
 1165              	.LVL254:
 1166 0854 5040     		eors	r0, r0, r2
 1167 0856 5940     		eors	r1, r1, r3
 1168 0858 CDE92E01 		strd	r0, [sp, #184]
 1169              	.LVL255:
 187:..\fips202.c  ****     Emu = BCu ^ ((~BCa) & BCe);
 1170              		.loc 1 187 0 discriminator 3
 1171 085c 4246     		mov	r2, r8
 1172 085e 4B46     		mov	r3, r9
 1173 0860 2AEA0202 		bic	r2, r10, r2
 1174 0864 2BEA0303 		bic	r3, fp, r3
 1175 0868 DDE9129A 		ldrd	r9, [sp, #72]
 1176              	.LVL256:
ARM GAS  C:\Users\bogur\AppData\Local\Temp\ccXFXavo.s 			page 25


 1177 086c 89EA0209 		eor	r9, r9, r2
 1178 0870 8AEA030A 		eor	r10, r10, r3
 1179              	.LVL257:
 1180 0874 4CAB     		add	r3, sp, #304
 1181 0876 C3E9009A 		strd	r9, [r3]
 1182              	.LVL258:
 188:..\fips202.c  **** 
 189:..\fips202.c  ****     Abi ^= Di;
 1183              		.loc 1 189 0 discriminator 3
 1184 087a DDE93A67 		ldrd	r6, [sp, #232]
 1185              	.LVL259:
 1186 087e DDE90423 		ldrd	r2, [sp, #16]
 1187 0882 7240     		eors	r2, r2, r6
 1188 0884 7B40     		eors	r3, r3, r7
 1189 0886 1F46     		mov	r7, r3
 1190              	.LVL260:
 190:..\fips202.c  ****     BCa = ROL(Abi, 62);
 1191              		.loc 1 190 0 discriminator 3
 1192 0888 9308     		lsrs	r3, r2, #2
 1193 088a 43EA877B 		orr	fp, r3, r7, lsl #30
 1194 088e CDF830B2 		str	fp, [sp, #560]
 1195 0892 BB08     		lsrs	r3, r7, #2
 1196 0894 43EA827B 		orr	fp, r3, r2, lsl #30
 1197 0898 CDF834B2 		str	fp, [sp, #564]
 1198              	.LVL261:
 191:..\fips202.c  ****     Ago ^= Do;
 1199              		.loc 1 191 0 discriminator 3
 1200 089c 46AB     		add	r3, sp, #280
 1201              	.LVL262:
 1202 089e D3E90078 		ldrd	r7, [r3]
 1203 08a2 6740     		eors	r7, r7, r4
 1204 08a4 88EA0508 		eor	r8, r8, r5
 1205 08a8 4146     		mov	r1, r8
 1206              	.LVL263:
 192:..\fips202.c  ****     BCe = ROL(Ago, 55);
 1207              		.loc 1 192 0 discriminator 3
 1208 08aa 7B0A     		lsrs	r3, r7, #9
 1209 08ac 43EAC85B 		orr	fp, r3, r8, lsl #23
 1210 08b0 CDF850B0 		str	fp, [sp, #80]
 1211 08b4 4B0A     		lsrs	r3, r1, #9
 1212 08b6 43EAC75B 		orr	fp, r3, r7, lsl #23
 1213 08ba CDF854B0 		str	fp, [sp, #84]
 1214              	.LVL264:
 193:..\fips202.c  ****     Aku ^= Du;
 1215              		.loc 1 193 0 discriminator 3
 1216 08be 52AB     		add	r3, sp, #328
 1217 08c0 D3E90012 		ldrd	r1, [r3]
 1218 08c4 DDE90634 		ldrd	r3, [sp, #24]
 1219 08c8 4B40     		eors	r3, r3, r1
 1220 08ca 5440     		eors	r4, r4, r2
 1221              	.LVL265:
 1222 08cc 1946     		mov	r1, r3
 1223 08ce 0A46     		mov	r2, r1
 1224              	.LVL266:
 194:..\fips202.c  ****     BCi = ROL(Aku, 39);
 1225              		.loc 1 194 0 discriminator 3
 1226 08d0 490E     		lsrs	r1, r1, #25
ARM GAS  C:\Users\bogur\AppData\Local\Temp\ccXFXavo.s 			page 26


 1227 08d2 41EAC41B 		orr	fp, r1, r4, lsl #7
 1228 08d6 CDF838B2 		str	fp, [sp, #568]
 1229 08da 630E     		lsrs	r3, r4, #25
 1230 08dc 43EAC21B 		orr	fp, r3, r2, lsl #7
 1231 08e0 CDF83CB2 		str	fp, [sp, #572]
 1232              	.LVL267:
 195:..\fips202.c  ****     Ama ^= Da;
 1233              		.loc 1 195 0 discriminator 3
 1234 08e4 54AB     		add	r3, sp, #336
 1235 08e6 D3E90023 		ldrd	r2, [r3]
 1236 08ea DDE90056 		ldrd	r5, [sp]
 1237 08ee 6A40     		eors	r2, r2, r5
 1238 08f0 7340     		eors	r3, r3, r6
 1239              	.LVL268:
 196:..\fips202.c  ****     BCo = ROL(Ama, 41);
 1240              		.loc 1 196 0 discriminator 3
 1241 08f2 D10D     		lsrs	r1, r2, #23
 1242 08f4 41EA432B 		orr	fp, r1, r3, lsl #9
 1243 08f8 CDF858B0 		str	fp, [sp, #88]
 1244 08fc DB0D     		lsrs	r3, r3, #23
 1245 08fe 43EA422B 		orr	fp, r3, r2, lsl #9
 1246 0902 CDF85CB0 		str	fp, [sp, #92]
 1247              	.LVL269:
 197:..\fips202.c  ****     Ase ^= De;
 1248              		.loc 1 197 0 discriminator 3
 1249 0906 60AB     		add	r3, sp, #384
 1250              	.LVL270:
 1251 0908 D3E90023 		ldrd	r2, [r3]
 1252              	.LVL271:
 1253 090c DDE90256 		ldrd	r5, [sp, #8]
 1254 0910 6A40     		eors	r2, r2, r5
 1255 0912 7340     		eors	r3, r3, r6
 1256              	.LVL272:
 198:..\fips202.c  ****     BCu = ROL(Ase, 2);
 1257              		.loc 1 198 0 discriminator 3
 1258 0914 9900     		lsls	r1, r3, #2
 1259 0916 41EA9275 		orr	r5, r1, r2, lsr #30
 1260 091a 9195     		str	r5, [sp, #580]
 1261 091c 9200     		lsls	r2, r2, #2
 1262              	.LVL273:
 1263 091e 42EA9375 		orr	r5, r2, r3, lsr #30
 1264 0922 9095     		str	r5, [sp, #576]
 1265              	.LVL274:
 199:..\fips202.c  ****     Esa = BCa ^ ((~BCe) & BCi);
 1266              		.loc 1 199 0 discriminator 3
 1267 0924 DDE914AB 		ldrd	r10, [sp, #80]
 1268 0928 8EA9     		add	r1, sp, #568
 1269              	.LVL275:
 1270 092a D1E90056 		ldrd	r5, [r1]
 1271 092e 25EA0A02 		bic	r2, r5, r10
 1272 0932 26EA0B03 		bic	r3, r6, fp
 1273 0936 8CA9     		add	r1, sp, #560
 1274              	.LVL276:
 1275 0938 D1E90001 		ldrd	r0, [r1]
 1276              	.LVL277:
 1277 093c 80EA0208 		eor	r8, r0, r2
 1278 0940 81EA0309 		eor	r9, r1, r3
ARM GAS  C:\Users\bogur\AppData\Local\Temp\ccXFXavo.s 			page 27


 1279              	.LVL278:
 1280 0944 52AB     		add	r3, sp, #328
 1281 0946 C3E90089 		strd	r8, [r3]
 1282              	.LVL279:
 200:..\fips202.c  ****     Ese = BCe ^ ((~BCi) & BCo);
 1283              		.loc 1 200 0 discriminator 3
 1284 094a DDE91689 		ldrd	r8, [sp, #88]
 1285              	.LVL280:
 1286 094e 28EA0502 		bic	r2, r8, r5
 1287 0952 29EA0603 		bic	r3, r9, r6
 1288 0956 8AEA020A 		eor	r10, r10, r2
 1289 095a 8BEA030B 		eor	fp, fp, r3
 1290 095e 60AB     		add	r3, sp, #384
 1291 0960 C3E900AB 		strd	r10, [r3]
 1292              	.LVL281:
 201:..\fips202.c  ****     Esi = BCi ^ ((~BCo) & BCu);
 1293              		.loc 1 201 0 discriminator 3
 1294 0964 90AB     		add	r3, sp, #576
 1295              	.LVL282:
 1296 0966 D3E900AB 		ldrd	r10, [r3]
 1297              	.LVL283:
 1298 096a 2AEA0808 		bic	r8, r10, r8
 1299 096e 2BEA0909 		bic	r9, fp, r9
 1300 0972 4246     		mov	r2, r8
 1301 0974 4B46     		mov	r3, r9
 1302              	.LVL284:
 1303 0976 5540     		eors	r5, r5, r2
 1304              	.LVL285:
 1305 0978 5E40     		eors	r6, r6, r3
 1306 097a 46AB     		add	r3, sp, #280
 1307 097c C3E90056 		strd	r5, [r3]
 1308              	.LVL286:
 202:..\fips202.c  ****     Eso = BCo ^ ((~BCu) & BCa);
 1309              		.loc 1 202 0 discriminator 3
 1310 0980 8046     		mov	r8, r0
 1311 0982 8946     		mov	r9, r1
 1312 0984 5546     		mov	r5, r10
 1313              	.LVL287:
 1314 0986 5E46     		mov	r6, fp
 1315 0988 20EA0A02 		bic	r2, r0, r10
 1316 098c 21EA0B03 		bic	r3, r1, fp
 1317              	.LVL288:
 1318 0990 DDE91601 		ldrd	r0, [sp, #88]
 1319 0994 5040     		eors	r0, r0, r2
 1320 0996 5940     		eors	r1, r1, r3
 1321              	.LVL289:
 1322 0998 54AB     		add	r3, sp, #336
 1323 099a C3E90001 		strd	r0, [r3]
 1324              	.LVL290:
 203:..\fips202.c  ****     Esu = BCu ^ ((~BCa) & BCe);
 1325              		.loc 1 203 0 discriminator 3
 1326 099e 4246     		mov	r2, r8
 1327 09a0 4B46     		mov	r3, r9
 1328 09a2 DDE91489 		ldrd	r8, [sp, #80]
 1329 09a6 28EA0202 		bic	r2, r8, r2
 1330 09aa 29EA0303 		bic	r3, r9, r3
 1331 09ae 5540     		eors	r5, r5, r2
ARM GAS  C:\Users\bogur\AppData\Local\Temp\ccXFXavo.s 			page 28


 1332 09b0 5E40     		eors	r6, r6, r3
 1333 09b2 CDE93A56 		strd	r5, [sp, #232]
 1334              	.LVL291:
 204:..\fips202.c  **** 
 205:..\fips202.c  ****     //    prepareTheta
 206:..\fips202.c  ****     BCa = Eba ^ Ega ^ Eka ^ Ema ^ Esa;
 1335              		.loc 1 206 0 discriminator 3
 1336 09b6 42AB     		add	r3, sp, #264
 1337 09b8 D3E9009A 		ldrd	r9, [r3]
 1338              	.LVL292:
 1339 09bc 56AB     		add	r3, sp, #344
 1340              	.LVL293:
 1341 09be D3E90012 		ldrd	r1, [r3]
 1342 09c2 89EA0109 		eor	r9, r9, r1
 1343 09c6 8AEA020A 		eor	r10, r10, r2
 1344              	.LVL294:
 1345 09ca C846     		mov	r8, r9
 1346 09cc 44AB     		add	r3, sp, #272
 1347              	.LVL295:
 1348 09ce D3E90012 		ldrd	r1, [r3]
 1349              	.LVL296:
 1350 09d2 81EA0801 		eor	r1, r1, r8
 1351 09d6 82EA0A02 		eor	r2, r2, r10
 1352 09da 64AB     		add	r3, sp, #400
 1353              	.LVL297:
 1354 09dc D3E900AB 		ldrd	r10, [r3]
 1355 09e0 8AEA010A 		eor	r10, r10, r1
 1356 09e4 8BEA020B 		eor	fp, fp, r2
 1357 09e8 52AB     		add	r3, sp, #328
 1358              	.LVL298:
 1359 09ea D3E90012 		ldrd	r1, [r3]
 1360 09ee 81EA0A01 		eor	r1, r1, r10
 1361 09f2 82EA0B02 		eor	r2, r2, fp
 1362 09f6 8846     		mov	r8, r1
 1363 09f8 9146     		mov	r9, r2
 1364              	.LVL299:
 207:..\fips202.c  ****     BCe = Ebe ^ Ege ^ Eke ^ Eme ^ Ese;
 1365              		.loc 1 207 0 discriminator 3
 1366 09fa 4EAB     		add	r3, sp, #312
 1367              	.LVL300:
 1368 09fc D3E90067 		ldrd	r6, [r3]
 1369 0a00 DDE93C45 		ldrd	r4, [sp, #240]
 1370 0a04 6640     		eors	r6, r6, r4
 1371 0a06 6F40     		eors	r7, r7, r5
 1372 0a08 5CAB     		add	r3, sp, #368
 1373              	.LVL301:
 1374 0a0a D3E90034 		ldrd	r3, [r3]
 1375 0a0e 7340     		eors	r3, r3, r6
 1376 0a10 7C40     		eors	r4, r4, r7
 1377 0a12 1E46     		mov	r6, r3
 1378 0a14 2746     		mov	r7, r4
 1379 0a16 40AB     		add	r3, sp, #256
 1380 0a18 D3E90045 		ldrd	r4, [r3]
 1381 0a1c 7440     		eors	r4, r4, r6
 1382 0a1e 7D40     		eors	r5, r5, r7
 1383              	.LVL302:
 1384 0a20 60AB     		add	r3, sp, #384
ARM GAS  C:\Users\bogur\AppData\Local\Temp\ccXFXavo.s 			page 29


 1385 0a22 D3E900AB 		ldrd	r10, [r3]
 1386 0a26 8AEA040A 		eor	r10, r10, r4
 1387 0a2a 8BEA050B 		eor	fp, fp, r5
 1388 0a2e 5646     		mov	r6, r10
 1389 0a30 5F46     		mov	r7, fp
 1390              	.LVL303:
 208:..\fips202.c  ****     BCi = Ebi ^ Egi ^ Eki ^ Emi ^ Esi;
 1391              		.loc 1 208 0 discriminator 3
 1392 0a32 66AB     		add	r3, sp, #408
 1393 0a34 D3E90034 		ldrd	r3, [r3]
 1394 0a38 4AAA     		add	r2, sp, #296
 1395              	.LVL304:
 1396 0a3a D2E90012 		ldrd	r1, [r2]
 1397 0a3e 4B40     		eors	r3, r3, r1
 1398 0a40 5440     		eors	r4, r4, r2
 1399 0a42 DDE938AB 		ldrd	r10, [sp, #224]
 1400 0a46 8AEA030A 		eor	r10, r10, r3
 1401 0a4a 8BEA040B 		eor	fp, fp, r4
 1402 0a4e 5046     		mov	r0, r10
 1403              	.LVL305:
 1404 0a50 5946     		mov	r1, fp
 1405 0a52 58AB     		add	r3, sp, #352
 1406              	.LVL306:
 1407 0a54 D3E90023 		ldrd	r2, [r3]
 1408              	.LVL307:
 1409 0a58 4240     		eors	r2, r2, r0
 1410 0a5a 4B40     		eors	r3, r3, r1
 1411              	.LVL308:
 1412 0a5c 1946     		mov	r1, r3
 1413 0a5e 46AB     		add	r3, sp, #280
 1414              	.LVL309:
 1415 0a60 D3E90034 		ldrd	r3, [r3]
 1416              	.LVL310:
 1417 0a64 5340     		eors	r3, r3, r2
 1418              	.LVL311:
 1419 0a66 4C40     		eors	r4, r4, r1
 1420 0a68 1846     		mov	r0, r3
 1421 0a6a 2146     		mov	r1, r4
 1422              	.LVL312:
 209:..\fips202.c  ****     BCo = Ebo ^ Ego ^ Eko ^ Emo ^ Eso;
 1423              		.loc 1 209 0 discriminator 3
 1424 0a6c 5AAB     		add	r3, sp, #360
 1425              	.LVL313:
 1426 0a6e D3E90023 		ldrd	r2, [r3]
 1427 0a72 62AC     		add	r4, sp, #392
 1428 0a74 D4E90045 		ldrd	r4, [r4]
 1429 0a78 6240     		eors	r2, r2, r4
 1430 0a7a 6B40     		eors	r3, r3, r5
 1431              	.LVL314:
 1432 0a7c 50AC     		add	r4, sp, #320
 1433              	.LVL315:
 1434 0a7e D4E90045 		ldrd	r4, [r4]
 1435              	.LVL316:
 1436 0a82 5440     		eors	r4, r4, r2
 1437              	.LVL317:
 1438 0a84 5D40     		eors	r5, r5, r3
 1439 0a86 2246     		mov	r2, r4
ARM GAS  C:\Users\bogur\AppData\Local\Temp\ccXFXavo.s 			page 30


 1440 0a88 2B46     		mov	r3, r5
 1441 0a8a DDE92E45 		ldrd	r4, [sp, #184]
 1442 0a8e 5440     		eors	r4, r4, r2
 1443 0a90 5D40     		eors	r5, r5, r3
 1444 0a92 2246     		mov	r2, r4
 1445 0a94 54AC     		add	r4, sp, #336
 1446 0a96 D4E900AB 		ldrd	r10, [r4]
 1447 0a9a 8AEA020A 		eor	r10, r10, r2
 1448 0a9e 8BEA050B 		eor	fp, fp, r5
 1449 0aa2 CDE900AB 		strd	r10, [sp]
 1450              	.LVL318:
 210:..\fips202.c  ****     BCu = Ebu ^ Egu ^ Eku ^ Emu ^ Esu;
 1451              		.loc 1 210 0 discriminator 3
 1452 0aa6 72AB     		add	r3, sp, #456
 1453 0aa8 D3E90034 		ldrd	r3, [r3]
 1454 0aac 48AA     		add	r2, sp, #288
 1455 0aae D2E900AB 		ldrd	r10, [r2]
 1456              	.LVL319:
 1457 0ab2 83EA0A03 		eor	r3, r3, r10
 1458 0ab6 84EA0B04 		eor	r4, r4, fp
 1459 0aba 2546     		mov	r5, r4
 1460 0abc 1C46     		mov	r4, r3
 1461 0abe 5EAB     		add	r3, sp, #376
 1462              	.LVL320:
 1463 0ac0 D3E900AB 		ldrd	r10, [r3]
 1464 0ac4 8AEA040A 		eor	r10, r10, r4
 1465 0ac8 8BEA050B 		eor	fp, fp, r5
 1466 0acc 5446     		mov	r4, r10
 1467 0ace 5D46     		mov	r5, fp
 1468 0ad0 4CAB     		add	r3, sp, #304
 1469              	.LVL321:
 1470 0ad2 D3E900AB 		ldrd	r10, [r3]
 1471 0ad6 8AEA040A 		eor	r10, r10, r4
 1472 0ada 8BEA050B 		eor	fp, fp, r5
 1473 0ade 5446     		mov	r4, r10
 1474 0ae0 5D46     		mov	r5, fp
 1475 0ae2 DDE93AAB 		ldrd	r10, [sp, #232]
 1476 0ae6 8AEA040A 		eor	r10, r10, r4
 1477 0aea 8BEA050B 		eor	fp, fp, r5
 1478 0aee 5446     		mov	r4, r10
 1479 0af0 5D46     		mov	r5, fp
 1480              	.LVL322:
 211:..\fips202.c  **** 
 212:..\fips202.c  ****     //thetaRhoPiChiIotaPrepareTheta(round+1, E, A)
 213:..\fips202.c  ****     Da = BCu ^ ROL(BCe, 1);
 1481              		.loc 1 213 0 discriminator 3
 1482 0af2 4FEA470A 		lsl	r10, r7, #1
 1483 0af6 4AEAD67B 		orr	fp, r10, r6, lsr #31
 1484 0afa CDF84CB2 		str	fp, [sp, #588]
 1485 0afe 4FEA460A 		lsl	r10, r6, #1
 1486 0b02 4AEAD77B 		orr	fp, r10, r7, lsr #31
 1487 0b06 CDF848B2 		str	fp, [sp, #584]
 1488 0b0a 92AB     		add	r3, sp, #584
 1489 0b0c D3E90023 		ldrd	r2, [r3]
 1490 0b10 6240     		eors	r2, r2, r4
 1491 0b12 6B40     		eors	r3, r3, r5
 1492 0b14 CDE90223 		strd	r2, [sp, #8]
ARM GAS  C:\Users\bogur\AppData\Local\Temp\ccXFXavo.s 			page 31


 1493              	.LVL323:
 214:..\fips202.c  ****     De = BCa ^ ROL(BCi, 1);
 1494              		.loc 1 214 0 discriminator 3
 1495 0b18 4FEA410A 		lsl	r10, r1, #1
 1496 0b1c 4AEAD07B 		orr	fp, r10, r0, lsr #31
 1497 0b20 CDF854B2 		str	fp, [sp, #596]
 1498 0b24 4FEA400A 		lsl	r10, r0, #1
 1499 0b28 4AEAD17B 		orr	fp, r10, r1, lsr #31
 1500 0b2c CDF850B2 		str	fp, [sp, #592]
 1501 0b30 94AB     		add	r3, sp, #592
 1502 0b32 D3E900AB 		ldrd	r10, [r3]
 1503 0b36 8AEA080A 		eor	r10, r10, r8
 1504 0b3a 8BEA090B 		eor	fp, fp, r9
 1505 0b3e CDE904AB 		strd	r10, [sp, #16]
 1506              	.LVL324:
 215:..\fips202.c  ****     Di = BCe ^ ROL(BCo, 1);
 1507              		.loc 1 215 0 discriminator 3
 1508 0b42 019B     		ldr	r3, [sp, #4]
 1509 0b44 4FEA430A 		lsl	r10, r3, #1
 1510              	.LVL325:
 1511 0b48 009B     		ldr	r3, [sp]
 1512 0b4a 4AEAD37B 		orr	fp, r10, r3, lsr #31
 1513 0b4e CDF85CB2 		str	fp, [sp, #604]
 1514 0b52 009B     		ldr	r3, [sp]
 1515 0b54 4FEA430A 		lsl	r10, r3, #1
 1516 0b58 019B     		ldr	r3, [sp, #4]
 1517 0b5a 4AEAD37B 		orr	fp, r10, r3, lsr #31
 1518 0b5e CDF858B2 		str	fp, [sp, #600]
 1519 0b62 96AB     		add	r3, sp, #600
 1520 0b64 D3E900AB 		ldrd	r10, [r3]
 1521 0b68 8AEA060A 		eor	r10, r10, r6
 1522 0b6c 8BEA070B 		eor	fp, fp, r7
 1523              	.LVL326:
 216:..\fips202.c  ****     Do = BCi ^ ROL(BCu, 1);
 1524              		.loc 1 216 0 discriminator 3
 1525 0b70 6E00     		lsls	r6, r5, #1
 1526              	.LVL327:
 1527 0b72 46EAD477 		orr	r7, r6, r4, lsr #31
 1528 0b76 9997     		str	r7, [sp, #612]
 1529 0b78 6400     		lsls	r4, r4, #1
 1530              	.LVL328:
 1531 0b7a 44EAD577 		orr	r7, r4, r5, lsr #31
 1532 0b7e 9897     		str	r7, [sp, #608]
 1533 0b80 98AB     		add	r3, sp, #608
 1534 0b82 D3E90056 		ldrd	r5, [r3]
 1535 0b86 4540     		eors	r5, r5, r0
 1536 0b88 4E40     		eors	r6, r6, r1
 1537 0b8a CDE90656 		strd	r5, [sp, #24]
 1538              	.LVL329:
 217:..\fips202.c  ****     Du = BCo ^ ROL(BCa, 1);
 1539              		.loc 1 217 0 discriminator 3
 1540 0b8e 4FEA4901 		lsl	r1, r9, #1
 1541 0b92 41EAD877 		orr	r7, r1, r8, lsr #31
 1542 0b96 9B97     		str	r7, [sp, #620]
 1543 0b98 4FEA4801 		lsl	r1, r8, #1
 1544 0b9c 41EAD977 		orr	r7, r1, r9, lsr #31
 1545 0ba0 9A97     		str	r7, [sp, #616]
ARM GAS  C:\Users\bogur\AppData\Local\Temp\ccXFXavo.s 			page 32


 1546 0ba2 9AAB     		add	r3, sp, #616
 1547 0ba4 D3E90089 		ldrd	r8, [r3]
 1548              	.LVL330:
 1549 0ba8 DDE90034 		ldrd	r3, [sp]
 1550 0bac 83EA0803 		eor	r3, r3, r8
 1551 0bb0 84EA0904 		eor	r4, r4, r9
 1552 0bb4 A146     		mov	r9, r4
 1553 0bb6 1F46     		mov	r7, r3
 1554 0bb8 A046     		mov	r8, r4
 1555              	.LVL331:
 218:..\fips202.c  **** 
 219:..\fips202.c  ****     Eba ^= Da;
 1556              		.loc 1 219 0 discriminator 3
 1557 0bba 42AB     		add	r3, sp, #264
 1558 0bbc D3E90056 		ldrd	r5, [r3]
 1559              	.LVL332:
 1560 0bc0 DDE90201 		ldrd	r0, [sp, #8]
 1561              	.LVL333:
 1562 0bc4 4540     		eors	r5, r5, r0
 1563 0bc6 4E40     		eors	r6, r6, r1
 1564 0bc8 2846     		mov	r0, r5
 1565 0bca 3146     		mov	r1, r6
 1566              	.LVL334:
 220:..\fips202.c  ****     BCa = Eba;
 221:..\fips202.c  ****     Ege ^= De;
 1567              		.loc 1 221 0 discriminator 3
 1568 0bcc DDE93C45 		ldrd	r4, [sp, #240]
 1569 0bd0 DDE90423 		ldrd	r2, [sp, #16]
 1570              	.LVL335:
 1571 0bd4 5440     		eors	r4, r4, r2
 1572 0bd6 5D40     		eors	r5, r5, r3
 1573 0bd8 2246     		mov	r2, r4
 1574 0bda 2B46     		mov	r3, r5
 1575              	.LVL336:
 222:..\fips202.c  ****     BCe = ROL(Ege, 44);
 1576              		.loc 1 222 0 discriminator 3
 1577 0bdc 240D     		lsrs	r4, r4, #20
 1578 0bde 44EA0535 		orr	r5, r4, r5, lsl #12
 1579 0be2 1895     		str	r5, [sp, #96]
 1580 0be4 1B0D     		lsrs	r3, r3, #20
 1581 0be6 43EA0235 		orr	r5, r3, r2, lsl #12
 1582 0bea 1995     		str	r5, [sp, #100]
 1583              	.LVL337:
 223:..\fips202.c  ****     Eki ^= Di;
 1584              		.loc 1 223 0 discriminator 3
 1585 0bec DDE93845 		ldrd	r4, [sp, #224]
 1586 0bf0 84EA0A04 		eor	r4, r4, r10
 1587 0bf4 85EA0B05 		eor	r5, r5, fp
 1588 0bf8 2246     		mov	r2, r4
 1589              	.LVL338:
 1590 0bfa 2B46     		mov	r3, r5
 1591              	.LVL339:
 224:..\fips202.c  ****     BCi = ROL(Eki, 43);
 1592              		.loc 1 224 0 discriminator 3
 1593 0bfc 640D     		lsrs	r4, r4, #21
 1594 0bfe 44EAC525 		orr	r5, r4, r5, lsl #11
 1595 0c02 3295     		str	r5, [sp, #200]
ARM GAS  C:\Users\bogur\AppData\Local\Temp\ccXFXavo.s 			page 33


 1596 0c04 5B0D     		lsrs	r3, r3, #21
 1597 0c06 43EAC225 		orr	r5, r3, r2, lsl #11
 1598 0c0a 3395     		str	r5, [sp, #204]
 1599              	.LVL340:
 225:..\fips202.c  ****     Emo ^= Do;
 1600              		.loc 1 225 0 discriminator 3
 1601 0c0c DDE92E34 		ldrd	r3, [sp, #184]
 1602 0c10 DDE90656 		ldrd	r5, [sp, #24]
 1603 0c14 5D40     		eors	r5, r5, r3
 1604 0c16 6640     		eors	r6, r6, r4
 1605 0c18 2A46     		mov	r2, r5
 1606              	.LVL341:
 226:..\fips202.c  ****     BCo = ROL(Emo, 21);
 1607              		.loc 1 226 0 discriminator 3
 1608 0c1a 7405     		lsls	r4, r6, #21
 1609 0c1c 44EAD525 		orr	r5, r4, r5, lsr #11
 1610 0c20 1B95     		str	r5, [sp, #108]
 1611 0c22 5205     		lsls	r2, r2, #21
 1612 0c24 42EAD625 		orr	r5, r2, r6, lsr #11
 1613 0c28 1A95     		str	r5, [sp, #104]
 1614              	.LVL342:
 227:..\fips202.c  ****     Esu ^= Du;
 1615              		.loc 1 227 0 discriminator 3
 1616 0c2a DDE93A45 		ldrd	r4, [sp, #232]
 1617 0c2e CDE90078 		strd	r7, [sp]
 1618 0c32 3E46     		mov	r6, r7
 1619 0c34 4F46     		mov	r7, r9
 1620              	.LVL343:
 1621 0c36 6640     		eors	r6, r6, r4
 1622 0c38 6F40     		eors	r7, r7, r5
 1623              	.LVL344:
 228:..\fips202.c  ****     BCu = ROL(Esu, 14);
 1624              		.loc 1 228 0 discriminator 3
 1625 0c3a BC03     		lsls	r4, r7, #14
 1626 0c3c 44EA9645 		orr	r5, r4, r6, lsr #18
 1627 0c40 9D95     		str	r5, [sp, #628]
 1628 0c42 B203     		lsls	r2, r6, #14
 1629 0c44 42EA9745 		orr	r5, r2, r7, lsr #18
 1630 0c48 9C95     		str	r5, [sp, #624]
 1631              	.LVL345:
 229:..\fips202.c  ****     Aba = BCa ^ ((~BCe) & BCi);
 1632              		.loc 1 229 0 discriminator 3
 1633 0c4a DDE91845 		ldrd	r4, [sp, #96]
 1634 0c4e DDE93278 		ldrd	r7, [sp, #200]
 1635 0c52 27EA0404 		bic	r4, r7, r4
 1636 0c56 28EA0505 		bic	r5, r8, r5
 1637 0c5a 2246     		mov	r2, r4
 1638 0c5c 2B46     		mov	r3, r5
 1639 0c5e 4240     		eors	r2, r2, r0
 1640 0c60 4B40     		eors	r3, r3, r1
 1641              	.LVL346:
 230:..\fips202.c  ****     Aba ^= (uint64_t)KeccakF_RoundConstants[round + 1];
 1642              		.loc 1 230 0 discriminator 3
 1643 0c62 0CF10104 		add	r4, ip, #1
 1644 0c66 0EEBC40E 		add	lr, lr, r4, lsl #3
 1645 0c6a DEE90045 		ldrd	r4, [lr]
 1646 0c6e 82EA0408 		eor	r8, r2, r4
ARM GAS  C:\Users\bogur\AppData\Local\Temp\ccXFXavo.s 			page 34


 1647 0c72 83EA0509 		eor	r9, r3, r5
 1648 0c76 CDE92E89 		strd	r8, [sp, #184]
 1649              	.LVL347:
 231:..\fips202.c  ****     Abe = BCe ^ ((~BCi) & BCo);
 1650              		.loc 1 231 0 discriminator 3
 1651 0c7a DDE91A45 		ldrd	r4, [sp, #104]
 1652 0c7e DDE93278 		ldrd	r7, [sp, #200]
 1653 0c82 24EA0704 		bic	r4, r4, r7
 1654 0c86 25EA0805 		bic	r5, r5, r8
 1655 0c8a 2246     		mov	r2, r4
 1656 0c8c 2B46     		mov	r3, r5
 1657 0c8e DDE91845 		ldrd	r4, [sp, #96]
 1658 0c92 5440     		eors	r4, r4, r2
 1659 0c94 5D40     		eors	r5, r5, r3
 1660 0c96 CDE93845 		strd	r4, [sp, #224]
 1661              	.LVL348:
 232:..\fips202.c  ****     Abi = BCi ^ ((~BCo) & BCu);
 1662              		.loc 1 232 0 discriminator 3
 1663 0c9a DDE91A34 		ldrd	r3, [sp, #104]
 1664 0c9e 9CAA     		add	r2, sp, #624
 1665              	.LVL349:
 1666 0ca0 D2E90056 		ldrd	r5, [r2]
 1667 0ca4 25EA0303 		bic	r3, r5, r3
 1668 0ca8 26EA0404 		bic	r4, r6, r4
 1669              	.LVL350:
 1670 0cac 1A46     		mov	r2, r3
 1671              	.LVL351:
 1672 0cae 5740     		eors	r7, r7, r2
 1673 0cb0 88EA0408 		eor	r8, r8, r4
 1674              	.LVL352:
 1675 0cb4 CDE93A78 		strd	r7, [sp, #232]
 1676              	.LVL353:
 233:..\fips202.c  ****     Abo = BCo ^ ((~BCu) & BCa);
 1677              		.loc 1 233 0 discriminator 3
 1678 0cb8 2F46     		mov	r7, r5
 1679              	.LVL354:
 1680 0cba B046     		mov	r8, r6
 1681 0cbc 20EA0505 		bic	r5, r0, r5
 1682              	.LVL355:
 1683 0cc0 21EA0606 		bic	r6, r1, r6
 1684 0cc4 2A46     		mov	r2, r5
 1685 0cc6 DDE91A45 		ldrd	r4, [sp, #104]
 1686 0cca 5440     		eors	r4, r4, r2
 1687 0ccc 7540     		eors	r5, r5, r6
 1688 0cce CDE93C45 		strd	r4, [sp, #240]
 1689              	.LVL356:
 234:..\fips202.c  ****     Abu = BCu ^ ((~BCa) & BCe);
 1690              		.loc 1 234 0 discriminator 3
 1691 0cd2 DDE91845 		ldrd	r4, [sp, #96]
 1692              	.LVL357:
 1693 0cd6 24EA0004 		bic	r4, r4, r0
 1694 0cda 25EA0105 		bic	r5, r5, r1
 1695 0cde 2946     		mov	r1, r5
 1696 0ce0 3D46     		mov	r5, r7
 1697 0ce2 4646     		mov	r6, r8
 1698 0ce4 6540     		eors	r5, r5, r4
 1699 0ce6 4E40     		eors	r6, r6, r1
ARM GAS  C:\Users\bogur\AppData\Local\Temp\ccXFXavo.s 			page 35


 1700 0ce8 CDE93E56 		strd	r5, [sp, #248]
 1701              	.LVL358:
 235:..\fips202.c  **** 
 236:..\fips202.c  ****     Ebo ^= Do;
 1702              		.loc 1 236 0 discriminator 3
 1703 0cec 5AAB     		add	r3, sp, #360
 1704 0cee D3E90023 		ldrd	r2, [r3]
 1705 0cf2 DDE90601 		ldrd	r0, [sp, #24]
 1706              	.LVL359:
 1707 0cf6 5040     		eors	r0, r0, r2
 1708 0cf8 5940     		eors	r1, r1, r3
 1709              	.LVL360:
 237:..\fips202.c  ****     BCa = ROL(Ebo, 28);
 1710              		.loc 1 237 0 discriminator 3
 1711 0cfa 0B07     		lsls	r3, r1, #28
 1712 0cfc 43EA1015 		orr	r5, r3, r0, lsr #4
 1713              	.LVL361:
 1714 0d00 3595     		str	r5, [sp, #212]
 1715 0d02 0307     		lsls	r3, r0, #28
 1716 0d04 43EA1115 		orr	r5, r3, r1, lsr #4
 1717 0d08 3495     		str	r5, [sp, #208]
 1718              	.LVL362:
 238:..\fips202.c  ****     Egu ^= Du;
 1719              		.loc 1 238 0 discriminator 3
 1720 0d0a 48AB     		add	r3, sp, #288
 1721 0d0c D3E90045 		ldrd	r4, [r3]
 1722 0d10 DDE90001 		ldrd	r0, [sp]
 1723              	.LVL363:
 1724 0d14 6040     		eors	r0, r0, r4
 1725 0d16 6940     		eors	r1, r1, r5
 1726 0d18 0B46     		mov	r3, r1
 1727              	.LVL364:
 239:..\fips202.c  ****     BCe = ROL(Egu, 20);
 1728              		.loc 1 239 0 discriminator 3
 1729 0d1a 0905     		lsls	r1, r1, #20
 1730 0d1c 41EA1035 		orr	r5, r1, r0, lsr #12
 1731 0d20 9F95     		str	r5, [sp, #636]
 1732 0d22 0205     		lsls	r2, r0, #20
 1733 0d24 42EA1335 		orr	r5, r2, r3, lsr #12
 1734 0d28 9E95     		str	r5, [sp, #632]
 1735              	.LVL365:
 240:..\fips202.c  ****     Eka ^= Da;
 1736              		.loc 1 240 0 discriminator 3
 1737 0d2a 44AB     		add	r3, sp, #272
 1738              	.LVL366:
 1739 0d2c D3E90023 		ldrd	r2, [r3]
 1740 0d30 DDE90201 		ldrd	r0, [sp, #8]
 1741 0d34 4240     		eors	r2, r2, r0
 1742 0d36 4B40     		eors	r3, r3, r1
 1743              	.LVL367:
 241:..\fips202.c  ****     BCi = ROL(Eka, 3);
 1744              		.loc 1 241 0 discriminator 3
 1745 0d38 D900     		lsls	r1, r3, #3
 1746 0d3a 41EA5275 		orr	r5, r1, r2, lsr #29
 1747 0d3e 1D95     		str	r5, [sp, #116]
 1748 0d40 D200     		lsls	r2, r2, #3
 1749              	.LVL368:
ARM GAS  C:\Users\bogur\AppData\Local\Temp\ccXFXavo.s 			page 36


 1750 0d42 42EA5375 		orr	r5, r2, r3, lsr #29
 1751 0d46 1C95     		str	r5, [sp, #112]
 1752              	.LVL369:
 242:..\fips202.c  ****     Eme ^= De;
 1753              		.loc 1 242 0 discriminator 3
 1754 0d48 40AB     		add	r3, sp, #256
 1755 0d4a D3E90045 		ldrd	r4, [r3]
 1756 0d4e DDE90423 		ldrd	r2, [sp, #16]
 1757 0d52 5440     		eors	r4, r4, r2
 1758 0d54 5D40     		eors	r5, r5, r3
 1759 0d56 2B46     		mov	r3, r5
 1760              	.LVL370:
 243:..\fips202.c  ****     BCo = ROL(Eme, 45);
 1761              		.loc 1 243 0 discriminator 3
 1762 0d58 E10C     		lsrs	r1, r4, #19
 1763 0d5a 41EA4535 		orr	r5, r1, r5, lsl #13
 1764 0d5e 1E95     		str	r5, [sp, #120]
 1765 0d60 DB0C     		lsrs	r3, r3, #19
 1766 0d62 43EA4435 		orr	r5, r3, r4, lsl #13
 1767 0d66 1F95     		str	r5, [sp, #124]
 1768              	.LVL371:
 244:..\fips202.c  ****     Esi ^= Di;
 1769              		.loc 1 244 0 discriminator 3
 1770 0d68 46AB     		add	r3, sp, #280
 1771              	.LVL372:
 1772 0d6a D3E90001 		ldrd	r0, [r3]
 1773 0d6e 80EA0A00 		eor	r0, r0, r10
 1774 0d72 81EA0B01 		eor	r1, r1, fp
 1775 0d76 0B46     		mov	r3, r1
 1776              	.LVL373:
 245:..\fips202.c  ****     BCu = ROL(Esi, 61);
 1777              		.loc 1 245 0 discriminator 3
 1778 0d78 C108     		lsrs	r1, r0, #3
 1779 0d7a 41EA4375 		orr	r5, r1, r3, lsl #29
 1780 0d7e 2095     		str	r5, [sp, #128]
 1781 0d80 DB08     		lsrs	r3, r3, #3
 1782 0d82 43EA4075 		orr	r5, r3, r0, lsl #29
 1783 0d86 2195     		str	r5, [sp, #132]
 1784              	.LVL374:
 246:..\fips202.c  ****     Aga = BCa ^ ((~BCe) & BCi);
 1785              		.loc 1 246 0 discriminator 3
 1786 0d88 9EAB     		add	r3, sp, #632
 1787              	.LVL375:
 1788 0d8a D3E90089 		ldrd	r8, [r3]
 1789 0d8e DDE91C01 		ldrd	r0, [sp, #112]
 1790 0d92 20EA0805 		bic	r5, r0, r8
 1791 0d96 21EA0906 		bic	r6, r1, r9
 1792 0d9a 2A46     		mov	r2, r5
 1793 0d9c DDE93445 		ldrd	r4, [sp, #208]
 1794 0da0 5440     		eors	r4, r4, r2
 1795 0da2 7540     		eors	r5, r5, r6
 1796 0da4 40AB     		add	r3, sp, #256
 1797              	.LVL376:
 1798 0da6 C3E90045 		strd	r4, [r3]
 1799              	.LVL377:
 247:..\fips202.c  ****     Age = BCe ^ ((~BCi) & BCo);
 1800              		.loc 1 247 0 discriminator 3
ARM GAS  C:\Users\bogur\AppData\Local\Temp\ccXFXavo.s 			page 37


 1801 0daa DDE91E34 		ldrd	r3, [sp, #120]
 1802 0dae DDE91C56 		ldrd	r5, [sp, #112]
 1803 0db2 23EA0500 		bic	r0, r3, r5
 1804 0db6 24EA0601 		bic	r1, r4, r6
 1805 0dba 4646     		mov	r6, r8
 1806 0dbc 4F46     		mov	r7, r9
 1807 0dbe 88EA0008 		eor	r8, r8, r0
 1808              	.LVL378:
 1809 0dc2 89EA0109 		eor	r9, r9, r1
 1810 0dc6 42AA     		add	r2, sp, #264
 1811 0dc8 C2E90089 		strd	r8, [r2]
 1812              	.LVL379:
 248:..\fips202.c  ****     Agi = BCi ^ ((~BCo) & BCu);
 1813              		.loc 1 248 0 discriminator 3
 1814 0dcc DDE92089 		ldrd	r8, [sp, #128]
 1815              	.LVL380:
 1816 0dd0 28EA0301 		bic	r1, r8, r3
 1817 0dd4 29EA0402 		bic	r2, r9, r4
 1818 0dd8 1346     		mov	r3, r2
 1819 0dda DDE91C89 		ldrd	r8, [sp, #112]
 1820 0dde 88EA0108 		eor	r8, r8, r1
 1821 0de2 89EA0309 		eor	r9, r9, r3
 1822 0de6 44AB     		add	r3, sp, #272
 1823 0de8 C3E90089 		strd	r8, [r3]
 1824              	.LVL381:
 249:..\fips202.c  ****     Ago = BCo ^ ((~BCu) & BCa);
 1825              		.loc 1 249 0 discriminator 3
 1826 0dec DDE93445 		ldrd	r4, [sp, #208]
 1827              	.LVL382:
 1828 0df0 DDE92089 		ldrd	r8, [sp, #128]
 1829              	.LVL383:
 1830 0df4 24EA0800 		bic	r0, r4, r8
 1831 0df8 25EA0901 		bic	r1, r5, r9
 1832 0dfc DDE91E23 		ldrd	r2, [sp, #120]
 1833 0e00 4240     		eors	r2, r2, r0
 1834 0e02 4B40     		eors	r3, r3, r1
 1835 0e04 46A9     		add	r1, sp, #280
 1836 0e06 C1E90023 		strd	r2, [r1]
 1837              	.LVL384:
 250:..\fips202.c  ****     Agu = BCu ^ ((~BCa) & BCe);
 1838              		.loc 1 250 0 discriminator 3
 1839 0e0a 26EA0404 		bic	r4, r6, r4
 1840 0e0e 27EA0505 		bic	r5, r7, r5
 1841 0e12 DDE92089 		ldrd	r8, [sp, #128]
 1842 0e16 88EA0408 		eor	r8, r8, r4
 1843 0e1a 89EA0509 		eor	r9, r9, r5
 1844 0e1e 48AB     		add	r3, sp, #288
 1845 0e20 C3E90089 		strd	r8, [r3]
 1846              	.LVL385:
 251:..\fips202.c  **** 
 252:..\fips202.c  ****     Ebe ^= De;
 1847              		.loc 1 252 0 discriminator 3
 1848 0e24 4EAB     		add	r3, sp, #312
 1849              	.LVL386:
 1850 0e26 D3E90001 		ldrd	r0, [r3]
 1851 0e2a DDE90445 		ldrd	r4, [sp, #16]
 1852 0e2e 6040     		eors	r0, r0, r4
ARM GAS  C:\Users\bogur\AppData\Local\Temp\ccXFXavo.s 			page 38


 1853 0e30 6940     		eors	r1, r1, r5
 1854              	.LVL387:
 253:..\fips202.c  ****     BCa = ROL(Ebe, 1);
 1855              		.loc 1 253 0 discriminator 3
 1856 0e32 4B00     		lsls	r3, r1, #1
 1857 0e34 43EAD075 		orr	r5, r3, r0, lsr #31
 1858 0e38 A195     		str	r5, [sp, #644]
 1859 0e3a 4300     		lsls	r3, r0, #1
 1860 0e3c 43EAD175 		orr	r5, r3, r1, lsr #31
 1861 0e40 A095     		str	r5, [sp, #640]
 1862              	.LVL388:
 254:..\fips202.c  ****     Egi ^= Di;
 1863              		.loc 1 254 0 discriminator 3
 1864 0e42 4AAB     		add	r3, sp, #296
 1865 0e44 D3E90001 		ldrd	r0, [r3]
 1866              	.LVL389:
 1867 0e48 80EA0A00 		eor	r0, r0, r10
 1868 0e4c 81EA0B01 		eor	r1, r1, fp
 1869 0e50 0B46     		mov	r3, r1
 1870              	.LVL390:
 255:..\fips202.c  ****     BCe = ROL(Egi, 6);
 1871              		.loc 1 255 0 discriminator 3
 1872 0e52 8901     		lsls	r1, r1, #6
 1873 0e54 41EA9065 		orr	r5, r1, r0, lsr #26
 1874 0e58 A395     		str	r5, [sp, #652]
 1875 0e5a 8201     		lsls	r2, r0, #6
 1876              	.LVL391:
 1877 0e5c 42EA9365 		orr	r5, r2, r3, lsr #26
 1878 0e60 A295     		str	r5, [sp, #648]
 1879              	.LVL392:
 256:..\fips202.c  ****     Eko ^= Do;
 1880              		.loc 1 256 0 discriminator 3
 1881 0e62 50AB     		add	r3, sp, #320
 1882              	.LVL393:
 1883 0e64 D3E90023 		ldrd	r2, [r3]
 1884 0e68 DDE90656 		ldrd	r5, [sp, #24]
 1885 0e6c 5540     		eors	r5, r5, r2
 1886 0e6e 5E40     		eors	r6, r6, r3
 1887 0e70 2A46     		mov	r2, r5
 1888              	.LVL394:
 257:..\fips202.c  ****     BCi = ROL(Eko, 25);
 1889              		.loc 1 257 0 discriminator 3
 1890 0e72 7106     		lsls	r1, r6, #25
 1891 0e74 41EAD515 		orr	r5, r1, r5, lsr #7
 1892 0e78 2395     		str	r5, [sp, #140]
 1893 0e7a 5206     		lsls	r2, r2, #25
 1894 0e7c 42EAD615 		orr	r5, r2, r6, lsr #7
 1895 0e80 2295     		str	r5, [sp, #136]
 1896              	.LVL395:
 258:..\fips202.c  ****     Emu ^= Du;
 1897              		.loc 1 258 0 discriminator 3
 1898 0e82 4CAB     		add	r3, sp, #304
 1899 0e84 D3E90045 		ldrd	r4, [r3]
 1900 0e88 DDE90023 		ldrd	r2, [sp]
 1901 0e8c 6240     		eors	r2, r2, r4
 1902 0e8e 6B40     		eors	r3, r3, r5
 1903              	.LVL396:
ARM GAS  C:\Users\bogur\AppData\Local\Temp\ccXFXavo.s 			page 39


 259:..\fips202.c  ****     BCo = ROL(Emu, 8);
 1904              		.loc 1 259 0 discriminator 3
 1905 0e90 1902     		lsls	r1, r3, #8
 1906 0e92 41EA1265 		orr	r5, r1, r2, lsr #24
 1907 0e96 2595     		str	r5, [sp, #148]
 1908 0e98 1202     		lsls	r2, r2, #8
 1909              	.LVL397:
 1910 0e9a 42EA1365 		orr	r5, r2, r3, lsr #24
 1911 0e9e 2495     		str	r5, [sp, #144]
 1912              	.LVL398:
 260:..\fips202.c  ****     Esa ^= Da;
 1913              		.loc 1 260 0 discriminator 3
 1914 0ea0 52AB     		add	r3, sp, #328
 1915 0ea2 D3E90012 		ldrd	r1, [r3]
 1916 0ea6 DDE90245 		ldrd	r4, [sp, #8]
 1917 0eaa 6140     		eors	r1, r1, r4
 1918 0eac 6A40     		eors	r2, r2, r5
 1919 0eae 1346     		mov	r3, r2
 1920 0eb0 0A46     		mov	r2, r1
 1921              	.LVL399:
 261:..\fips202.c  ****     BCu = ROL(Esa, 18);
 1922              		.loc 1 261 0 discriminator 3
 1923 0eb2 9904     		lsls	r1, r3, #18
 1924 0eb4 41EA9235 		orr	r5, r1, r2, lsr #14
 1925 0eb8 2795     		str	r5, [sp, #156]
 1926 0eba 9204     		lsls	r2, r2, #18
 1927              	.LVL400:
 1928 0ebc 42EA9335 		orr	r5, r2, r3, lsr #14
 1929 0ec0 2695     		str	r5, [sp, #152]
 1930              	.LVL401:
 262:..\fips202.c  ****     Aka = BCa ^ ((~BCe) & BCi);
 1931              		.loc 1 262 0 discriminator 3
 1932 0ec2 A2AB     		add	r3, sp, #648
 1933              	.LVL402:
 1934 0ec4 D3E90089 		ldrd	r8, [r3]
 1935              	.LVL403:
 1936 0ec8 DDE92201 		ldrd	r0, [sp, #136]
 1937 0ecc 20EA0805 		bic	r5, r0, r8
 1938 0ed0 21EA0906 		bic	r6, r1, r9
 1939 0ed4 2A46     		mov	r2, r5
 1940 0ed6 A0A9     		add	r1, sp, #640
 1941              	.LVL404:
 1942 0ed8 D1E90045 		ldrd	r4, [r1]
 1943 0edc 2046     		mov	r0, r4
 1944 0ede 2946     		mov	r1, r5
 1945              	.LVL405:
 1946 0ee0 5040     		eors	r0, r0, r2
 1947 0ee2 7140     		eors	r1, r1, r6
 1948 0ee4 4AAB     		add	r3, sp, #296
 1949              	.LVL406:
 1950 0ee6 C3E90001 		strd	r0, [r3]
 1951              	.LVL407:
 263:..\fips202.c  ****     Ake = BCe ^ ((~BCi) & BCo);
 1952              		.loc 1 263 0 discriminator 3
 1953 0eea DDE92401 		ldrd	r0, [sp, #144]
 1954              	.LVL408:
 1955 0eee DDE92267 		ldrd	r6, [sp, #136]
ARM GAS  C:\Users\bogur\AppData\Local\Temp\ccXFXavo.s 			page 40


 1956 0ef2 20EA0600 		bic	r0, r0, r6
 1957 0ef6 21EA0701 		bic	r1, r1, r7
 1958 0efa 4646     		mov	r6, r8
 1959 0efc 4F46     		mov	r7, r9
 1960 0efe 4640     		eors	r6, r6, r0
 1961 0f00 4F40     		eors	r7, r7, r1
 1962 0f02 4CAB     		add	r3, sp, #304
 1963 0f04 C3E90067 		strd	r6, [r3]
 1964              	.LVL409:
 264:..\fips202.c  ****     Aki = BCi ^ ((~BCo) & BCu);
 1965              		.loc 1 264 0 discriminator 3
 1966 0f08 DDE92401 		ldrd	r0, [sp, #144]
 1967 0f0c DDE92623 		ldrd	r2, [sp, #152]
 1968 0f10 22EA0000 		bic	r0, r2, r0
 1969 0f14 23EA0101 		bic	r1, r3, r1
 1970 0f18 DDE92267 		ldrd	r6, [sp, #136]
 1971              	.LVL410:
 1972 0f1c 4640     		eors	r6, r6, r0
 1973 0f1e 4F40     		eors	r7, r7, r1
 1974 0f20 4EA9     		add	r1, sp, #312
 1975 0f22 C1E90067 		strd	r6, [r1]
 1976              	.LVL411:
 265:..\fips202.c  ****     Ako = BCo ^ ((~BCu) & BCa);
 1977              		.loc 1 265 0 discriminator 3
 1978 0f26 24EA0200 		bic	r0, r4, r2
 1979 0f2a 25EA0301 		bic	r1, r5, r3
 1980 0f2e 0246     		mov	r2, r0
 1981 0f30 0B46     		mov	r3, r1
 1982 0f32 DDE92401 		ldrd	r0, [sp, #144]
 1983 0f36 5040     		eors	r0, r0, r2
 1984 0f38 5940     		eors	r1, r1, r3
 1985 0f3a 50AB     		add	r3, sp, #320
 1986 0f3c C3E90001 		strd	r0, [r3]
 1987              	.LVL412:
 266:..\fips202.c  ****     Aku = BCu ^ ((~BCa) & BCe);
 1988              		.loc 1 266 0 discriminator 3
 1989 0f40 28EA0400 		bic	r0, r8, r4
 1990              	.LVL413:
 1991 0f44 29EA0501 		bic	r1, r9, r5
 1992 0f48 DDE92667 		ldrd	r6, [sp, #152]
 1993              	.LVL414:
 1994 0f4c 4640     		eors	r6, r6, r0
 1995 0f4e 4F40     		eors	r7, r7, r1
 1996 0f50 52AB     		add	r3, sp, #328
 1997              	.LVL415:
 1998 0f52 C3E90067 		strd	r6, [r3]
 1999              	.LVL416:
 267:..\fips202.c  **** 
 268:..\fips202.c  ****     Ebu ^= Du;
 2000              		.loc 1 268 0 discriminator 3
 2001 0f56 72AB     		add	r3, sp, #456
 2002 0f58 D3E90034 		ldrd	r3, [r3]
 2003 0f5c DDE90001 		ldrd	r0, [sp]
 2004 0f60 5840     		eors	r0, r0, r3
 2005 0f62 6140     		eors	r1, r1, r4
 2006 0f64 0C46     		mov	r4, r1
 2007              	.LVL417:
ARM GAS  C:\Users\bogur\AppData\Local\Temp\ccXFXavo.s 			page 41


 269:..\fips202.c  ****     BCa = ROL(Ebu, 27);
 2008              		.loc 1 269 0 discriminator 3
 2009 0f66 C906     		lsls	r1, r1, #27
 2010 0f68 41EA5015 		orr	r5, r1, r0, lsr #5
 2011 0f6c A595     		str	r5, [sp, #660]
 2012 0f6e 01E0     		b	.L13
 2013              	.L14:
 2014              		.align	2
 2015              	.L12:
 2016 0f70 00000000 		.word	.LANCHOR0
 2017              	.L13:
 2018 0f74 C206     		lsls	r2, r0, #27
 2019 0f76 42EA5415 		orr	r5, r2, r4, lsr #5
 2020 0f7a A495     		str	r5, [sp, #656]
 2021              	.LVL418:
 270:..\fips202.c  ****     Ega ^= Da;
 2022              		.loc 1 270 0 discriminator 3
 2023 0f7c 56AB     		add	r3, sp, #344
 2024              	.LVL419:
 2025 0f7e D3E90012 		ldrd	r1, [r3]
 2026 0f82 DDE90245 		ldrd	r4, [sp, #8]
 2027 0f86 6140     		eors	r1, r1, r4
 2028 0f88 6A40     		eors	r2, r2, r5
 2029 0f8a 1346     		mov	r3, r2
 2030              	.LVL420:
 2031 0f8c 0A46     		mov	r2, r1
 2032              	.LVL421:
 271:..\fips202.c  ****     BCe = ROL(Ega, 36);
 2033              		.loc 1 271 0 discriminator 3
 2034 0f8e 090F     		lsrs	r1, r1, #28
 2035 0f90 41EA0311 		orr	r1, r1, r3, lsl #4
 2036 0f94 A691     		str	r1, [sp, #664]
 2037 0f96 1B0F     		lsrs	r3, r3, #28
 2038 0f98 43EA0215 		orr	r5, r3, r2, lsl #4
 2039 0f9c A795     		str	r5, [sp, #668]
 2040              	.LVL422:
 272:..\fips202.c  ****     Eke ^= De;
 2041              		.loc 1 272 0 discriminator 3
 2042 0f9e 5CAB     		add	r3, sp, #368
 2043 0fa0 D3E90034 		ldrd	r3, [r3]
 2044 0fa4 DDE90412 		ldrd	r1, [sp, #16]
 2045 0fa8 4B40     		eors	r3, r3, r1
 2046 0faa 5440     		eors	r4, r4, r2
 2047 0fac 1A46     		mov	r2, r3
 2048              	.LVL423:
 273:..\fips202.c  ****     BCi = ROL(Eke, 10);
 2049              		.loc 1 273 0 discriminator 3
 2050 0fae A102     		lsls	r1, r4, #10
 2051 0fb0 41EA9255 		orr	r5, r1, r2, lsr #22
 2052 0fb4 2995     		str	r5, [sp, #164]
 2053 0fb6 9202     		lsls	r2, r2, #10
 2054 0fb8 42EA9455 		orr	r5, r2, r4, lsr #22
 2055 0fbc 2895     		str	r5, [sp, #160]
 2056              	.LVL424:
 274:..\fips202.c  ****     Emi ^= Di;
 2057              		.loc 1 274 0 discriminator 3
 2058 0fbe 58AB     		add	r3, sp, #352
ARM GAS  C:\Users\bogur\AppData\Local\Temp\ccXFXavo.s 			page 42


 2059 0fc0 D3E90012 		ldrd	r1, [r3]
 2060 0fc4 81EA0A01 		eor	r1, r1, r10
 2061 0fc8 82EA0B02 		eor	r2, r2, fp
 2062 0fcc 1346     		mov	r3, r2
 2063 0fce 0A46     		mov	r2, r1
 2064              	.LVL425:
 275:..\fips202.c  ****     BCo = ROL(Emi, 15);
 2065              		.loc 1 275 0 discriminator 3
 2066 0fd0 D903     		lsls	r1, r3, #15
 2067 0fd2 41EA5241 		orr	r1, r1, r2, lsr #17
 2068 0fd6 2B91     		str	r1, [sp, #172]
 2069 0fd8 D203     		lsls	r2, r2, #15
 2070              	.LVL426:
 2071 0fda 42EA5345 		orr	r5, r2, r3, lsr #17
 2072 0fde 2A95     		str	r5, [sp, #168]
 2073              	.LVL427:
 276:..\fips202.c  ****     Eso ^= Do;
 2074              		.loc 1 276 0 discriminator 3
 2075 0fe0 54AB     		add	r3, sp, #336
 2076 0fe2 D3E90023 		ldrd	r2, [r3]
 2077 0fe6 DDE90645 		ldrd	r4, [sp, #24]
 2078 0fea 5440     		eors	r4, r4, r2
 2079 0fec 5D40     		eors	r5, r5, r3
 2080              	.LVL428:
 277:..\fips202.c  ****     BCu = ROL(Eso, 56);
 2081              		.loc 1 277 0 discriminator 3
 2082 0fee 210A     		lsrs	r1, r4, #8
 2083 0ff0 41EA0561 		orr	r1, r1, r5, lsl #24
 2084 0ff4 2C91     		str	r1, [sp, #176]
 2085 0ff6 2B0A     		lsrs	r3, r5, #8
 2086 0ff8 43EA0465 		orr	r5, r3, r4, lsl #24
 2087 0ffc 2D95     		str	r5, [sp, #180]
 2088              	.LVL429:
 278:..\fips202.c  ****     Ama = BCa ^ ((~BCe) & BCi);
 2089              		.loc 1 278 0 discriminator 3
 2090 0ffe A6AB     		add	r3, sp, #664
 2091              	.LVL430:
 2092 1000 D3E90089 		ldrd	r8, [r3]
 2093 1004 DDE92812 		ldrd	r1, [sp, #160]
 2094 1008 21EA0805 		bic	r5, r1, r8
 2095 100c 22EA0906 		bic	r6, r2, r9
 2096              	.LVL431:
 2097 1010 2A46     		mov	r2, r5
 2098 1012 A4A9     		add	r1, sp, #656
 2099              	.LVL432:
 2100 1014 D1E90045 		ldrd	r4, [r1]
 2101 1018 2046     		mov	r0, r4
 2102 101a 2946     		mov	r1, r5
 2103              	.LVL433:
 2104 101c 5040     		eors	r0, r0, r2
 2105 101e 7140     		eors	r1, r1, r6
 2106 1020 54AB     		add	r3, sp, #336
 2107              	.LVL434:
 2108 1022 C3E90001 		strd	r0, [r3]
 2109              	.LVL435:
 279:..\fips202.c  ****     Ame = BCe ^ ((~BCi) & BCo);
 2110              		.loc 1 279 0 discriminator 3
ARM GAS  C:\Users\bogur\AppData\Local\Temp\ccXFXavo.s 			page 43


 2111 1026 DDE92A12 		ldrd	r1, [sp, #168]
 2112 102a DDE92867 		ldrd	r6, [sp, #160]
 2113 102e 21EA0601 		bic	r1, r1, r6
 2114 1032 22EA0702 		bic	r2, r2, r7
 2115 1036 1346     		mov	r3, r2
 2116 1038 4646     		mov	r6, r8
 2117 103a 4F46     		mov	r7, r9
 2118 103c 4E40     		eors	r6, r6, r1
 2119 103e 5F40     		eors	r7, r7, r3
 2120 1040 56AB     		add	r3, sp, #344
 2121 1042 C3E90067 		strd	r6, [r3]
 2122              	.LVL436:
 280:..\fips202.c  ****     Ami = BCi ^ ((~BCo) & BCu);
 2123              		.loc 1 280 0 discriminator 3
 2124 1046 DDE92A12 		ldrd	r1, [sp, #168]
 2125 104a DDE92C67 		ldrd	r6, [sp, #176]
 2126              	.LVL437:
 2127 104e 26EA0101 		bic	r1, r6, r1
 2128 1052 27EA0202 		bic	r2, r7, r2
 2129 1056 1346     		mov	r3, r2
 2130              	.LVL438:
 2131 1058 DDE92867 		ldrd	r6, [sp, #160]
 2132 105c 4E40     		eors	r6, r6, r1
 2133 105e 5F40     		eors	r7, r7, r3
 2134 1060 58AB     		add	r3, sp, #352
 2135 1062 C3E90067 		strd	r6, [r3]
 2136              	.LVL439:
 281:..\fips202.c  ****     Amo = BCo ^ ((~BCu) & BCa);
 2137              		.loc 1 281 0 discriminator 3
 2138 1066 DDE92C67 		ldrd	r6, [sp, #176]
 2139              	.LVL440:
 2140 106a 24EA0601 		bic	r1, r4, r6
 2141 106e 25EA0702 		bic	r2, r5, r7
 2142 1072 1346     		mov	r3, r2
 2143 1074 0A46     		mov	r2, r1
 2144 1076 DDE92A01 		ldrd	r0, [sp, #168]
 2145              	.LVL441:
 2146 107a 5040     		eors	r0, r0, r2
 2147 107c 5940     		eors	r1, r1, r3
 2148 107e 5AAB     		add	r3, sp, #360
 2149 1080 C3E90001 		strd	r0, [r3]
 2150              	.LVL442:
 282:..\fips202.c  ****     Amu = BCu ^ ((~BCa) & BCe);
 2151              		.loc 1 282 0 discriminator 3
 2152 1084 28EA0401 		bic	r1, r8, r4
 2153 1088 29EA0502 		bic	r2, r9, r5
 2154 108c 1346     		mov	r3, r2
 2155 108e DDE92C67 		ldrd	r6, [sp, #176]
 2156 1092 4E40     		eors	r6, r6, r1
 2157 1094 5F40     		eors	r7, r7, r3
 2158 1096 5CAB     		add	r3, sp, #368
 2159 1098 C3E90067 		strd	r6, [r3]
 2160              	.LVL443:
 283:..\fips202.c  **** 
 284:..\fips202.c  ****     Ebi ^= Di;
 2161              		.loc 1 284 0 discriminator 3
 2162 109c 66AB     		add	r3, sp, #408
ARM GAS  C:\Users\bogur\AppData\Local\Temp\ccXFXavo.s 			page 44


 2163 109e D3E90034 		ldrd	r3, [r3]
 2164 10a2 83EA0A03 		eor	r3, r3, r10
 2165 10a6 84EA0B04 		eor	r4, r4, fp
 2166              	.LVL444:
 2167 10aa 9A46     		mov	r10, r3
 2168              	.LVL445:
 285:..\fips202.c  ****     BCa = ROL(Ebi, 62);
 2169              		.loc 1 285 0 discriminator 3
 2170 10ac 9B08     		lsrs	r3, r3, #2
 2171 10ae 43EA8473 		orr	r3, r3, r4, lsl #30
 2172 10b2 A893     		str	r3, [sp, #672]
 2173 10b4 A308     		lsrs	r3, r4, #2
 2174 10b6 43EA8A73 		orr	r3, r3, r10, lsl #30
 2175 10ba A993     		str	r3, [sp, #676]
 2176              	.LVL446:
 286:..\fips202.c  ****     Ego ^= Do;
 2177              		.loc 1 286 0 discriminator 3
 2178 10bc 62AB     		add	r3, sp, #392
 2179 10be D3E90001 		ldrd	r0, [r3]
 2180              	.LVL447:
 2181 10c2 DDE90634 		ldrd	r3, [sp, #24]
 2182 10c6 4340     		eors	r3, r3, r0
 2183 10c8 4C40     		eors	r4, r4, r1
 2184 10ca 1846     		mov	r0, r3
 2185              	.LVL448:
 287:..\fips202.c  ****     BCe = ROL(Ego, 55);
 2186              		.loc 1 287 0 discriminator 3
 2187 10cc 5B0A     		lsrs	r3, r3, #9
 2188 10ce 43EAC453 		orr	r3, r3, r4, lsl #23
 2189 10d2 AA93     		str	r3, [sp, #680]
 2190 10d4 630A     		lsrs	r3, r4, #9
 2191 10d6 43EAC053 		orr	r3, r3, r0, lsl #23
 2192 10da AB93     		str	r3, [sp, #684]
 2193              	.LVL449:
 288:..\fips202.c  ****     Eku ^= Du;
 2194              		.loc 1 288 0 discriminator 3
 2195 10dc 5EAB     		add	r3, sp, #376
 2196              	.LVL450:
 2197 10de D3E90034 		ldrd	r3, [r3]
 2198              	.LVL451:
 2199 10e2 DDE90012 		ldrd	r1, [sp]
 2200 10e6 5940     		eors	r1, r1, r3
 2201 10e8 6240     		eors	r2, r2, r4
 2202 10ea 1446     		mov	r4, r2
 2203 10ec 0A46     		mov	r2, r1
 2204              	.LVL452:
 289:..\fips202.c  ****     BCi = ROL(Eku, 39);
 2205              		.loc 1 289 0 discriminator 3
 2206 10ee 490E     		lsrs	r1, r1, #25
 2207 10f0 41EAC411 		orr	r1, r1, r4, lsl #7
 2208 10f4 AC91     		str	r1, [sp, #688]
 2209 10f6 630E     		lsrs	r3, r4, #25
 2210 10f8 43EAC213 		orr	r3, r3, r2, lsl #7
 2211 10fc AD93     		str	r3, [sp, #692]
 2212              	.LVL453:
 290:..\fips202.c  ****     Ema ^= Da;
 2213              		.loc 1 290 0 discriminator 3
ARM GAS  C:\Users\bogur\AppData\Local\Temp\ccXFXavo.s 			page 45


 2214 10fe 64AB     		add	r3, sp, #400
 2215              	.LVL454:
 2216 1100 D3E90023 		ldrd	r2, [r3]
 2217 1104 DDE90245 		ldrd	r4, [sp, #8]
 2218 1108 6240     		eors	r2, r2, r4
 2219 110a 6B40     		eors	r3, r3, r5
 2220              	.LVL455:
 291:..\fips202.c  ****     BCo = ROL(Ema, 41);
 2221              		.loc 1 291 0 discriminator 3
 2222 110c D10D     		lsrs	r1, r2, #23
 2223 110e 41EA4321 		orr	r1, r1, r3, lsl #9
 2224 1112 AE91     		str	r1, [sp, #696]
 2225 1114 DB0D     		lsrs	r3, r3, #23
 2226 1116 43EA4223 		orr	r3, r3, r2, lsl #9
 2227 111a AF93     		str	r3, [sp, #700]
 2228              	.LVL456:
 292:..\fips202.c  ****     Ese ^= De;
 2229              		.loc 1 292 0 discriminator 3
 2230 111c 60AB     		add	r3, sp, #384
 2231 111e D3E90023 		ldrd	r2, [r3]
 2232              	.LVL457:
 2233 1122 DDE90445 		ldrd	r4, [sp, #16]
 2234 1126 6240     		eors	r2, r2, r4
 2235 1128 6B40     		eors	r3, r3, r5
 2236              	.LVL458:
 293:..\fips202.c  ****     BCu = ROL(Ese, 2);
 2237              		.loc 1 293 0 discriminator 3
 2238 112a 9900     		lsls	r1, r3, #2
 2239 112c 41EA9271 		orr	r1, r1, r2, lsr #30
 2240 1130 3791     		str	r1, [sp, #220]
 2241 1132 9200     		lsls	r2, r2, #2
 2242              	.LVL459:
 2243 1134 42EA9373 		orr	r3, r2, r3, lsr #30
 2244 1138 3693     		str	r3, [sp, #216]
 2245              	.LVL460:
 294:..\fips202.c  ****     Asa = BCa ^ ((~BCe) & BCi);
 2246              		.loc 1 294 0 discriminator 3
 2247 113a AAAB     		add	r3, sp, #680
 2248              	.LVL461:
 2249 113c D3E90067 		ldrd	r6, [r3]
 2250              	.LVL462:
 2251 1140 ACA9     		add	r1, sp, #688
 2252              	.LVL463:
 2253 1142 D1E90089 		ldrd	r8, [r1]
 2254 1146 28EA0602 		bic	r2, r8, r6
 2255 114a 29EA0703 		bic	r3, r9, r7
 2256              	.LVL464:
 2257 114e A8A9     		add	r1, sp, #672
 2258              	.LVL465:
 2259 1150 D1E900AB 		ldrd	r10, [r1]
 2260 1154 5046     		mov	r0, r10
 2261 1156 5946     		mov	r1, fp
 2262              	.LVL466:
 2263 1158 5040     		eors	r0, r0, r2
 2264 115a 5940     		eors	r1, r1, r3
 2265 115c 5EAB     		add	r3, sp, #376
 2266 115e C3E90001 		strd	r0, [r3]
ARM GAS  C:\Users\bogur\AppData\Local\Temp\ccXFXavo.s 			page 46


 2267              	.LVL467:
 295:..\fips202.c  ****     Ase = BCe ^ ((~BCi) & BCo);
 2268              		.loc 1 295 0 discriminator 3
 2269 1162 AEAB     		add	r3, sp, #696
 2270              	.LVL468:
 2271 1164 D3E90001 		ldrd	r0, [r3]
 2272              	.LVL469:
 2273 1168 20EA0802 		bic	r2, r0, r8
 2274 116c 21EA0903 		bic	r3, r1, r9
 2275              	.LVL470:
 2276 1170 3446     		mov	r4, r6
 2277 1172 3D46     		mov	r5, r7
 2278 1174 5440     		eors	r4, r4, r2
 2279 1176 5D40     		eors	r5, r5, r3
 2280 1178 60AB     		add	r3, sp, #384
 2281 117a C3E90045 		strd	r4, [r3]
 2282              	.LVL471:
 296:..\fips202.c  ****     Asi = BCi ^ ((~BCo) & BCu);
 2283              		.loc 1 296 0 discriminator 3
 2284 117e DDE93645 		ldrd	r4, [sp, #216]
 2285              	.LVL472:
 2286 1182 24EA0002 		bic	r2, r4, r0
 2287 1186 25EA0103 		bic	r3, r5, r1
 2288 118a 4446     		mov	r4, r8
 2289 118c 4D46     		mov	r5, r9
 2290 118e 5440     		eors	r4, r4, r2
 2291 1190 5D40     		eors	r5, r5, r3
 2292 1192 62AB     		add	r3, sp, #392
 2293 1194 C3E90045 		strd	r4, [r3]
 2294              	.LVL473:
 297:..\fips202.c  ****     Aso = BCo ^ ((~BCu) & BCa);
 2295              		.loc 1 297 0 discriminator 3
 2296 1198 DDE93689 		ldrd	r8, [sp, #216]
 2297              	.LVL474:
 2298 119c 2AEA0802 		bic	r2, r10, r8
 2299 11a0 2BEA0903 		bic	r3, fp, r9
 2300 11a4 5040     		eors	r0, r0, r2
 2301              	.LVL475:
 2302 11a6 5940     		eors	r1, r1, r3
 2303 11a8 64AB     		add	r3, sp, #400
 2304 11aa C3E90001 		strd	r0, [r3]
 2305              	.LVL476:
 298:..\fips202.c  ****     Asu = BCu ^ ((~BCa) & BCe);
 2306              		.loc 1 298 0 discriminator 3
 2307 11ae 26EA0A0A 		bic	r10, r6, r10
 2308              	.LVL477:
 2309 11b2 27EA0B0B 		bic	fp, r7, fp
 2310 11b6 88EA0A04 		eor	r4, r8, r10
 2311              	.LVL478:
 2312 11ba 89EA0B05 		eor	r5, r9, fp
 2313 11be 66AB     		add	r3, sp, #408
 2314 11c0 C3E90045 		strd	r4, [r3]
 2315              	.LVL479:
 108:..\fips202.c  ****   {
 2316              		.loc 1 108 0 discriminator 3
 2317 11c4 0CF1020C 		add	ip, ip, #2
 2318              	.LVL480:
ARM GAS  C:\Users\bogur\AppData\Local\Temp\ccXFXavo.s 			page 47


 2319              	.L9:
 108:..\fips202.c  ****   {
 2320              		.loc 1 108 0 is_stmt 0 discriminator 1
 2321 11c8 BCF1170F 		cmp	ip, #23
 2322 11cc 7EF7A5AF 		ble	.L10
 2323 11d0 66AB     		add	r3, sp, #408
 2324              	.LVL481:
 2325 11d2 D3E900AB 		ldrd	r10, [r3]
 299:..\fips202.c  ****   }
 300:..\fips202.c  **** 
 301:..\fips202.c  ****   //copyToState(state, A)
 302:..\fips202.c  ****   state[0] = Aba;
 2326              		.loc 1 302 0 is_stmt 1
 2327 11d6 B19A     		ldr	r2, [sp, #708]
 2328 11d8 1346     		mov	r3, r2
 2329              	.LVL482:
 2330 11da DDE92E01 		ldrd	r0, [sp, #184]
 2331 11de C2E90001 		strd	r0, [r2]
 303:..\fips202.c  ****   state[1] = Abe;
 2332              		.loc 1 303 0
 2333 11e2 DDE93812 		ldrd	r1, [sp, #224]
 2334 11e6 C3E90212 		strd	r1, [r3, #8]
 304:..\fips202.c  ****   state[2] = Abi;
 2335              		.loc 1 304 0
 2336 11ea 1A46     		mov	r2, r3
 2337 11ec 1946     		mov	r1, r3
 2338 11ee DDE93A34 		ldrd	r3, [sp, #232]
 2339 11f2 C2E90434 		strd	r3, [r2, #16]
 305:..\fips202.c  ****   state[3] = Abo;
 2340              		.loc 1 305 0
 2341 11f6 DDE93C23 		ldrd	r2, [sp, #240]
 2342 11fa C1E90623 		strd	r2, [r1, #24]
 306:..\fips202.c  ****   state[4] = Abu;
 2343              		.loc 1 306 0
 2344 11fe 0B46     		mov	r3, r1
 2345 1200 DDE93E12 		ldrd	r1, [sp, #248]
 2346 1204 C3E90812 		strd	r1, [r3, #32]
 307:..\fips202.c  ****   state[5] = Aga;
 2347              		.loc 1 307 0
 2348 1208 1A46     		mov	r2, r3
 2349 120a 1946     		mov	r1, r3
 2350 120c 40AB     		add	r3, sp, #256
 2351              	.LVL483:
 2352 120e D3E90034 		ldrd	r3, [r3]
 2353              	.LVL484:
 2354 1212 C2E90A34 		strd	r3, [r2, #40]
 308:..\fips202.c  ****   state[6] = Age;
 2355              		.loc 1 308 0
 2356 1216 42AB     		add	r3, sp, #264
 2357              	.LVL485:
 2358 1218 D3E90023 		ldrd	r2, [r3]
 2359 121c C1E90C23 		strd	r2, [r1, #48]
 309:..\fips202.c  ****   state[7] = Agi;
 2360              		.loc 1 309 0
 2361 1220 0B46     		mov	r3, r1
 2362              	.LVL486:
 2363 1222 44AA     		add	r2, sp, #272
ARM GAS  C:\Users\bogur\AppData\Local\Temp\ccXFXavo.s 			page 48


 2364              	.LVL487:
 2365 1224 D2E90012 		ldrd	r1, [r2]
 2366 1228 C3E90E12 		strd	r1, [r3, #56]
 310:..\fips202.c  ****   state[8] = Ago;
 2367              		.loc 1 310 0
 2368 122c 1A46     		mov	r2, r3
 2369              	.LVL488:
 2370 122e 1946     		mov	r1, r3
 2371              	.LVL489:
 2372 1230 46AB     		add	r3, sp, #280
 2373              	.LVL490:
 2374 1232 D3E90034 		ldrd	r3, [r3]
 2375              	.LVL491:
 2376 1236 C2E91034 		strd	r3, [r2, #64]
 311:..\fips202.c  ****   state[9] = Agu;
 2377              		.loc 1 311 0
 2378 123a 48AB     		add	r3, sp, #288
 2379              	.LVL492:
 2380 123c D3E90023 		ldrd	r2, [r3]
 2381 1240 C1E91223 		strd	r2, [r1, #72]
 312:..\fips202.c  ****   state[10] = Aka;
 2382              		.loc 1 312 0
 2383 1244 0B46     		mov	r3, r1
 2384              	.LVL493:
 2385 1246 4AAA     		add	r2, sp, #296
 2386              	.LVL494:
 2387 1248 D2E90012 		ldrd	r1, [r2]
 2388 124c C3E91412 		strd	r1, [r3, #80]
 313:..\fips202.c  ****   state[11] = Ake;
 2389              		.loc 1 313 0
 2390 1250 1A46     		mov	r2, r3
 2391              	.LVL495:
 2392 1252 1946     		mov	r1, r3
 2393              	.LVL496:
 2394 1254 4CAB     		add	r3, sp, #304
 2395              	.LVL497:
 2396 1256 D3E90034 		ldrd	r3, [r3]
 2397              	.LVL498:
 2398 125a C2E91634 		strd	r3, [r2, #88]
 314:..\fips202.c  ****   state[12] = Aki;
 2399              		.loc 1 314 0
 2400 125e 4EAB     		add	r3, sp, #312
 2401              	.LVL499:
 2402 1260 D3E90023 		ldrd	r2, [r3]
 2403 1264 C1E91823 		strd	r2, [r1, #96]
 315:..\fips202.c  ****   state[13] = Ako;
 2404              		.loc 1 315 0
 2405 1268 0B46     		mov	r3, r1
 2406              	.LVL500:
 2407 126a 50AA     		add	r2, sp, #320
 2408              	.LVL501:
 2409 126c D2E90012 		ldrd	r1, [r2]
 2410 1270 C3E91A12 		strd	r1, [r3, #104]
 316:..\fips202.c  ****   state[14] = Aku;
 2411              		.loc 1 316 0
 2412 1274 1A46     		mov	r2, r3
 2413              	.LVL502:
ARM GAS  C:\Users\bogur\AppData\Local\Temp\ccXFXavo.s 			page 49


 2414 1276 1946     		mov	r1, r3
 2415              	.LVL503:
 2416 1278 52AB     		add	r3, sp, #328
 2417              	.LVL504:
 2418 127a D3E90034 		ldrd	r3, [r3]
 2419              	.LVL505:
 2420 127e C2E91C34 		strd	r3, [r2, #112]
 317:..\fips202.c  ****   state[15] = Ama;
 2421              		.loc 1 317 0
 2422 1282 54AB     		add	r3, sp, #336
 2423              	.LVL506:
 2424 1284 D3E90023 		ldrd	r2, [r3]
 2425 1288 C1E91E23 		strd	r2, [r1, #120]
 318:..\fips202.c  ****   state[16] = Ame;
 2426              		.loc 1 318 0
 2427 128c 0B46     		mov	r3, r1
 2428              	.LVL507:
 2429 128e 56AA     		add	r2, sp, #344
 2430              	.LVL508:
 2431 1290 D2E90012 		ldrd	r1, [r2]
 2432 1294 C3E92012 		strd	r1, [r3, #128]
 319:..\fips202.c  ****   state[17] = Ami;
 2433              		.loc 1 319 0
 2434 1298 1A46     		mov	r2, r3
 2435              	.LVL509:
 2436 129a 1946     		mov	r1, r3
 2437              	.LVL510:
 2438 129c 58AB     		add	r3, sp, #352
 2439              	.LVL511:
 2440 129e D3E90034 		ldrd	r3, [r3]
 2441              	.LVL512:
 2442 12a2 C2E92234 		strd	r3, [r2, #136]
 320:..\fips202.c  ****   state[18] = Amo;
 2443              		.loc 1 320 0
 2444 12a6 5AAB     		add	r3, sp, #360
 2445              	.LVL513:
 2446 12a8 D3E90023 		ldrd	r2, [r3]
 2447 12ac C1E92423 		strd	r2, [r1, #144]
 321:..\fips202.c  ****   state[19] = Amu;
 2448              		.loc 1 321 0
 2449 12b0 0B46     		mov	r3, r1
 2450              	.LVL514:
 2451 12b2 5CAA     		add	r2, sp, #368
 2452              	.LVL515:
 2453 12b4 D2E90012 		ldrd	r1, [r2]
 2454 12b8 C3E92612 		strd	r1, [r3, #152]
 322:..\fips202.c  ****   state[20] = Asa;
 2455              		.loc 1 322 0
 2456 12bc 1A46     		mov	r2, r3
 2457              	.LVL516:
 2458 12be 1946     		mov	r1, r3
 2459              	.LVL517:
 2460 12c0 5EAB     		add	r3, sp, #376
 2461              	.LVL518:
 2462 12c2 D3E90034 		ldrd	r3, [r3]
 2463              	.LVL519:
 2464 12c6 C2E92834 		strd	r3, [r2, #160]
ARM GAS  C:\Users\bogur\AppData\Local\Temp\ccXFXavo.s 			page 50


 323:..\fips202.c  ****   state[21] = Ase;
 2465              		.loc 1 323 0
 2466 12ca 60AB     		add	r3, sp, #384
 2467              	.LVL520:
 2468 12cc D3E90023 		ldrd	r2, [r3]
 2469 12d0 C1E92A23 		strd	r2, [r1, #168]
 324:..\fips202.c  ****   state[22] = Asi;
 2470              		.loc 1 324 0
 2471 12d4 0B46     		mov	r3, r1
 2472              	.LVL521:
 2473 12d6 62AA     		add	r2, sp, #392
 2474              	.LVL522:
 2475 12d8 D2E90012 		ldrd	r1, [r2]
 2476 12dc C3E92C12 		strd	r1, [r3, #176]
 325:..\fips202.c  ****   state[23] = Aso;
 2477              		.loc 1 325 0
 2478 12e0 1A46     		mov	r2, r3
 2479              	.LVL523:
 2480 12e2 64AB     		add	r3, sp, #400
 2481              	.LVL524:
 2482 12e4 D3E90034 		ldrd	r3, [r3]
 2483              	.LVL525:
 2484 12e8 C2E92E34 		strd	r3, [r2, #184]
 326:..\fips202.c  ****   state[24] = Asu;
 2485              		.loc 1 326 0
 2486 12ec 5346     		mov	r3, r10
 2487              	.LVL526:
 2488 12ee 5C46     		mov	r4, fp
 2489 12f0 C2E93034 		strd	r3, [r2, #192]
 327:..\fips202.c  **** 
 328:..\fips202.c  **** #undef round
 329:..\fips202.c  **** }
 2490              		.loc 1 329 0
 2491 12f4 0DF5337D 		add	sp, sp, #716
 2492              		.cfi_def_cfa_offset 36
 2493              		@ sp needed
 2494 12f8 BDE8F08F 		pop	{r4, r5, r6, r7, r8, r9, r10, fp, pc}
 2495              		.cfi_endproc
 2496              	.LFE2:
 2497              		.size	KeccakF1600_StatePermute, .-KeccakF1600_StatePermute
 2498              		.section	.text.keccak_absorb,"ax",%progbits
 2499              		.align	2
 2500              		.thumb
 2501              		.thumb_func
 2502              		.type	keccak_absorb, %function
 2503              	keccak_absorb:
 2504              	.LFB3:
 330:..\fips202.c  **** 
 331:..\fips202.c  **** #include <string.h>
 332:..\fips202.c  **** #define MIN(a, b) ((a) < (b) ? (a) : (b))
 333:..\fips202.c  **** 
 334:..\fips202.c  **** static void keccak_absorb(uint64_t *s,
 335:..\fips202.c  ****                           unsigned int r,
 336:..\fips202.c  ****                           const unsigned char *m, unsigned long long int mlen,
 337:..\fips202.c  ****                           unsigned char p)
 338:..\fips202.c  **** {
 2505              		.loc 1 338 0
ARM GAS  C:\Users\bogur\AppData\Local\Temp\ccXFXavo.s 			page 51


 2506              		.cfi_startproc
 2507              		@ args = 12, pretend = 0, frame = 200
 2508              		@ frame_needed = 0, uses_anonymous_args = 0
 2509              	.LVL527:
 2510 0000 2DE9F04F 		push	{r4, r5, r6, r7, r8, r9, r10, fp, lr}
 2511              		.cfi_def_cfa_offset 36
 2512              		.cfi_offset 4, -36
 2513              		.cfi_offset 5, -32
 2514              		.cfi_offset 6, -28
 2515              		.cfi_offset 7, -24
 2516              		.cfi_offset 8, -20
 2517              		.cfi_offset 9, -16
 2518              		.cfi_offset 10, -12
 2519              		.cfi_offset 11, -8
 2520              		.cfi_offset 14, -4
 2521 0004 B3B0     		sub	sp, sp, #204
 2522              		.cfi_def_cfa_offset 240
 2523 0006 8346     		mov	fp, r0
 2524 0008 8A46     		mov	r10, r1
 2525 000a 1546     		mov	r5, r2
 339:..\fips202.c  ****   unsigned long long i;
 340:..\fips202.c  ****   unsigned char t[200];
 341:..\fips202.c  **** 
 342:..\fips202.c  ****   while (mlen >= r)
 2526              		.loc 1 342 0
 2527 000c 23E0     		b	.L16
 2528              	.LVL528:
 2529              	.L17:
 343:..\fips202.c  ****   {
 344:..\fips202.c  ****     for (i = 0; i < r / 8; ++i)
 345:..\fips202.c  ****       s[i] ^= load64(m + 8 * i);
 2530              		.loc 1 345 0 discriminator 3
 2531 000e F400     		lsls	r4, r6, #3
 2532 0010 2819     		adds	r0, r5, r4
 2533 0012 FFF7FEFF 		bl	load64
 2534              	.LVL529:
 2535 0016 5C44     		add	r4, r4, fp
 2536 0018 D4E90023 		ldrd	r2, [r4]
 2537 001c 5040     		eors	r0, r0, r2
 2538 001e 5940     		eors	r1, r1, r3
 2539 0020 C4E90001 		strd	r0, [r4]
 344:..\fips202.c  ****       s[i] ^= load64(m + 8 * i);
 2540              		.loc 1 344 0 discriminator 3
 2541 0024 0136     		adds	r6, r6, #1
 2542              	.LVL530:
 2543 0026 47F10007 		adc	r7, r7, #0
 2544              	.LVL531:
 2545 002a 01E0     		b	.L18
 2546              	.LVL532:
 2547              	.L25:
 2548 002c 0026     		movs	r6, #0
 2549 002e 0027     		movs	r7, #0
 2550              	.LVL533:
 2551              	.L18:
 344:..\fips202.c  ****       s[i] ^= load64(m + 8 * i);
 2552              		.loc 1 344 0 is_stmt 0 discriminator 1
 2553 0030 4FEADA02 		lsr	r2, r10, #3
ARM GAS  C:\Users\bogur\AppData\Local\Temp\ccXFXavo.s 			page 52


 2554 0034 0023     		movs	r3, #0
 2555 0036 9F42     		cmp	r7, r3
 2556 0038 08BF     		it	eq
 2557 003a 9642     		cmpeq	r6, r2
 2558 003c E7D3     		bcc	.L17
 346:..\fips202.c  **** 
 347:..\fips202.c  ****     KeccakF1600_StatePermute(s);
 2559              		.loc 1 347 0 is_stmt 1
 2560 003e 5846     		mov	r0, fp
 2561 0040 FFF7FEFF 		bl	KeccakF1600_StatePermute
 2562              	.LVL534:
 348:..\fips202.c  ****     mlen -= r;
 2563              		.loc 1 348 0
 2564 0044 DDE93C34 		ldrd	r3, [sp, #240]
 2565 0048 B3EB0803 		subs	r3, r3, r8
 2566 004c 64EB0904 		sbc	r4, r4, r9
 2567 0050 CDE93C34 		strd	r3, [sp, #240]
 2568              	.LVL535:
 349:..\fips202.c  ****     m += r;
 2569              		.loc 1 349 0
 2570 0054 5544     		add	r5, r5, r10
 2571              	.LVL536:
 2572              	.L16:
 342:..\fips202.c  ****   {
 2573              		.loc 1 342 0
 2574 0056 D046     		mov	r8, r10
 2575 0058 4FF00009 		mov	r9, #0
 2576 005c DDE93C34 		ldrd	r3, [sp, #240]
 2577 0060 4C45     		cmp	r4, r9
 2578 0062 08BF     		it	eq
 2579 0064 5345     		cmpeq	r3, r10
 2580 0066 E1D2     		bcs	.L25
 2581              	.LVL537:
 2582 0068 0022     		movs	r2, #0
 2583 006a 0023     		movs	r3, #0
 2584 006c 06E0     		b	.L19
 2585              	.LVL538:
 2586              	.L20:
 350:..\fips202.c  ****   }
 351:..\fips202.c  **** 
 352:..\fips202.c  ****   for (i = 0; i < r; ++i)
 353:..\fips202.c  ****     t[i] = 0;
 2587              		.loc 1 353 0 discriminator 3
 2588 006e 0DEB0201 		add	r1, sp, r2
 2589 0072 0020     		movs	r0, #0
 2590 0074 0870     		strb	r0, [r1]
 352:..\fips202.c  ****     t[i] = 0;
 2591              		.loc 1 352 0 discriminator 3
 2592 0076 0132     		adds	r2, r2, #1
 2593              	.LVL539:
 2594 0078 43F10003 		adc	r3, r3, #0
 2595              	.LVL540:
 2596              	.L19:
 352:..\fips202.c  ****     t[i] = 0;
 2597              		.loc 1 352 0 is_stmt 0 discriminator 1
 2598 007c 4B45     		cmp	r3, r9
 2599 007e 08BF     		it	eq
ARM GAS  C:\Users\bogur\AppData\Local\Temp\ccXFXavo.s 			page 53


 2600 0080 4245     		cmpeq	r2, r8
 2601 0082 F4D3     		bcc	.L20
 2602 0084 0022     		movs	r2, #0
 2603              	.LVL541:
 2604 0086 0023     		movs	r3, #0
 2605 0088 07E0     		b	.L21
 2606              	.LVL542:
 2607              	.L22:
 354:..\fips202.c  ****   for (i = 0; i < mlen; ++i)
 355:..\fips202.c  ****     t[i] = m[i];
 2608              		.loc 1 355 0 is_stmt 1 discriminator 3
 2609 008a A918     		adds	r1, r5, r2
 2610 008c 0878     		ldrb	r0, [r1]	@ zero_extendqisi2
 2611 008e 0DEB0201 		add	r1, sp, r2
 2612 0092 0870     		strb	r0, [r1]
 354:..\fips202.c  ****   for (i = 0; i < mlen; ++i)
 2613              		.loc 1 354 0 discriminator 3
 2614 0094 0132     		adds	r2, r2, #1
 2615              	.LVL543:
 2616 0096 43F10003 		adc	r3, r3, #0
 2617              	.LVL544:
 2618              	.L21:
 354:..\fips202.c  ****   for (i = 0; i < mlen; ++i)
 2619              		.loc 1 354 0 is_stmt 0 discriminator 1
 2620 009a DDE93C01 		ldrd	r0, [sp, #240]
 2621 009e 8B42     		cmp	r3, r1
 2622 00a0 08BF     		it	eq
 2623 00a2 8242     		cmpeq	r2, r0
 2624 00a4 F1D3     		bcc	.L22
 356:..\fips202.c  ****   t[i] = p;
 2625              		.loc 1 356 0 is_stmt 1
 2626 00a6 6A44     		add	r2, r2, sp
 2627              	.LVL545:
 2628 00a8 9DF8F830 		ldrb	r3, [sp, #248]	@ zero_extendqisi2
 2629 00ac 1370     		strb	r3, [r2]
 357:..\fips202.c  ****   t[r - 1] |= 128;
 2630              		.loc 1 357 0
 2631 00ae 0AF1FF33 		add	r3, r10, #-1
 2632 00b2 32AA     		add	r2, sp, #200
 2633 00b4 1344     		add	r3, r3, r2
 2634 00b6 13F8C82C 		ldrb	r2, [r3, #-200]	@ zero_extendqisi2
 2635 00ba 62F07F02 		orn	r2, r2, #127
 2636 00be 03F8C82C 		strb	r2, [r3, #-200]
 2637              	.LVL546:
 358:..\fips202.c  ****   for (i = 0; i < r / 8; ++i)
 2638              		.loc 1 358 0
 2639 00c2 0026     		movs	r6, #0
 2640 00c4 0027     		movs	r7, #0
 2641 00c6 0EE0     		b	.L23
 2642              	.LVL547:
 2643              	.L24:
 359:..\fips202.c  ****     s[i] ^= load64(t + 8 * i);
 2644              		.loc 1 359 0 discriminator 3
 2645 00c8 F400     		lsls	r4, r6, #3
 2646 00ca 0DEB0400 		add	r0, sp, r4
 2647 00ce FFF7FEFF 		bl	load64
 2648              	.LVL548:
ARM GAS  C:\Users\bogur\AppData\Local\Temp\ccXFXavo.s 			page 54


 2649 00d2 5C44     		add	r4, r4, fp
 2650 00d4 D4E90023 		ldrd	r2, [r4]
 2651 00d8 5040     		eors	r0, r0, r2
 2652 00da 5940     		eors	r1, r1, r3
 2653 00dc C4E90001 		strd	r0, [r4]
 358:..\fips202.c  ****   for (i = 0; i < r / 8; ++i)
 2654              		.loc 1 358 0 discriminator 3
 2655 00e0 0136     		adds	r6, r6, #1
 2656              	.LVL549:
 2657 00e2 47F10007 		adc	r7, r7, #0
 2658              	.LVL550:
 2659              	.L23:
 358:..\fips202.c  ****   for (i = 0; i < r / 8; ++i)
 2660              		.loc 1 358 0 is_stmt 0 discriminator 1
 2661 00e6 4FEADA02 		lsr	r2, r10, #3
 2662 00ea 0023     		movs	r3, #0
 2663 00ec 9F42     		cmp	r7, r3
 2664 00ee 08BF     		it	eq
 2665 00f0 9642     		cmpeq	r6, r2
 2666 00f2 E9D3     		bcc	.L24
 360:..\fips202.c  **** }
 2667              		.loc 1 360 0 is_stmt 1
 2668 00f4 33B0     		add	sp, sp, #204
 2669              		.cfi_def_cfa_offset 36
 2670              		@ sp needed
 2671 00f6 BDE8F08F 		pop	{r4, r5, r6, r7, r8, r9, r10, fp, pc}
 2672              		.cfi_endproc
 2673              	.LFE3:
 2674              		.size	keccak_absorb, .-keccak_absorb
 2675 00fa 00BF     		.section	.text.keccak_squeezeblocks,"ax",%progbits
 2676              		.align	2
 2677              		.thumb
 2678              		.thumb_func
 2679              		.type	keccak_squeezeblocks, %function
 2680              	keccak_squeezeblocks:
 2681              	.LFB4:
 361:..\fips202.c  **** 
 362:..\fips202.c  **** static void keccak_squeezeblocks(unsigned char *h, unsigned long long int nblocks,
 363:..\fips202.c  ****                                  uint64_t *s,
 364:..\fips202.c  ****                                  unsigned int r)
 365:..\fips202.c  **** {
 2682              		.loc 1 365 0
 2683              		.cfi_startproc
 2684              		@ args = 8, pretend = 0, frame = 0
 2685              		@ frame_needed = 0, uses_anonymous_args = 0
 2686              	.LVL551:
 2687 0000 2DE9F843 		push	{r3, r4, r5, r6, r7, r8, r9, lr}
 2688              		.cfi_def_cfa_offset 32
 2689              		.cfi_offset 3, -32
 2690              		.cfi_offset 4, -28
 2691              		.cfi_offset 5, -24
 2692              		.cfi_offset 6, -20
 2693              		.cfi_offset 7, -16
 2694              		.cfi_offset 8, -12
 2695              		.cfi_offset 9, -8
 2696              		.cfi_offset 14, -4
 2697 0004 8046     		mov	r8, r0
ARM GAS  C:\Users\bogur\AppData\Local\Temp\ccXFXavo.s 			page 55


 2698 0006 1646     		mov	r6, r2
 2699 0008 1F46     		mov	r7, r3
 2700 000a DDF82090 		ldr	r9, [sp, #32]
 2701 000e 099D     		ldr	r5, [sp, #36]
 366:..\fips202.c  ****   unsigned int i;
 367:..\fips202.c  ****   while (nblocks > 0)
 2702              		.loc 1 367 0
 2703 0010 15E0     		b	.L28
 2704              	.LVL552:
 2705              	.L31:
 368:..\fips202.c  ****   {
 369:..\fips202.c  ****     KeccakF1600_StatePermute(s);
 2706              		.loc 1 369 0
 2707 0012 4846     		mov	r0, r9
 2708 0014 FFF7FEFF 		bl	KeccakF1600_StatePermute
 2709              	.LVL553:
 370:..\fips202.c  ****     for (i = 0; i < (r >> 3); i++)
 2710              		.loc 1 370 0
 2711 0018 0024     		movs	r4, #0
 2712 001a 08E0     		b	.L29
 2713              	.LVL554:
 2714              	.L30:
 371:..\fips202.c  ****     {
 372:..\fips202.c  ****       store64(h + 8 * i, s[i]);
 2715              		.loc 1 372 0 discriminator 3
 2716 001c E000     		lsls	r0, r4, #3
 2717 001e 09EB0003 		add	r3, r9, r0
 2718 0022 D3E90023 		ldrd	r2, [r3]
 2719 0026 4044     		add	r0, r0, r8
 2720 0028 FFF7FEFF 		bl	store64
 2721              	.LVL555:
 370:..\fips202.c  ****     for (i = 0; i < (r >> 3); i++)
 2722              		.loc 1 370 0 discriminator 3
 2723 002c 0134     		adds	r4, r4, #1
 2724              	.LVL556:
 2725              	.L29:
 370:..\fips202.c  ****     for (i = 0; i < (r >> 3); i++)
 2726              		.loc 1 370 0 is_stmt 0 discriminator 1
 2727 002e B4EBD50F 		cmp	r4, r5, lsr #3
 2728 0032 F3D3     		bcc	.L30
 373:..\fips202.c  ****     }
 374:..\fips202.c  ****     h += r;
 2729              		.loc 1 374 0 is_stmt 1
 2730 0034 A844     		add	r8, r8, r5
 2731              	.LVL557:
 375:..\fips202.c  ****     nblocks--;
 2732              		.loc 1 375 0
 2733 0036 16F1FF36 		adds	r6, r6, #-1
 2734              	.LVL558:
 2735 003a 47F1FF37 		adc	r7, r7, #-1
 2736              	.LVL559:
 2737              	.L28:
 367:..\fips202.c  ****   {
 2738              		.loc 1 367 0
 2739 003e 56EA0703 		orrs	r3, r6, r7
 2740 0042 E6D1     		bne	.L31
 376:..\fips202.c  ****   }
ARM GAS  C:\Users\bogur\AppData\Local\Temp\ccXFXavo.s 			page 56


 377:..\fips202.c  **** }
 2741              		.loc 1 377 0
 2742 0044 BDE8F883 		pop	{r3, r4, r5, r6, r7, r8, r9, pc}
 2743              		.cfi_endproc
 2744              	.LFE4:
 2745              		.size	keccak_squeezeblocks, .-keccak_squeezeblocks
 2746              		.global	__aeabi_uldivmod
 2747              		.section	.text.shake128,"ax",%progbits
 2748              		.align	2
 2749              		.global	shake128
 2750              		.thumb
 2751              		.thumb_func
 2752              		.type	shake128, %function
 2753              	shake128:
 2754              	.LFB5:
 378:..\fips202.c  **** 
 379:..\fips202.c  **** /*
 380:..\fips202.c  **** static void shake128_absorb(uint64_t *s, const unsigned char *input, unsigned int inputByteLen)
 381:..\fips202.c  **** {
 382:..\fips202.c  ****   keccak_absorb(s, SHAKE128_RATE, input, inputByteLen, 0x1F);
 383:..\fips202.c  **** }
 384:..\fips202.c  **** */
 385:..\fips202.c  **** 
 386:..\fips202.c  **** void shake128(unsigned char *output, unsigned long long outlen,
 387:..\fips202.c  ****               const unsigned char *input, unsigned long long inlen)
 388:..\fips202.c  **** {
 2755              		.loc 1 388 0
 2756              		.cfi_startproc
 2757              		@ args = 16, pretend = 0, frame = 368
 2758              		@ frame_needed = 0, uses_anonymous_args = 0
 2759              	.LVL560:
 2760 0000 2DE9F047 		push	{r4, r5, r6, r7, r8, r9, r10, lr}
 2761              		.cfi_def_cfa_offset 32
 2762              		.cfi_offset 4, -32
 2763              		.cfi_offset 5, -28
 2764              		.cfi_offset 6, -24
 2765              		.cfi_offset 7, -20
 2766              		.cfi_offset 8, -16
 2767              		.cfi_offset 9, -12
 2768              		.cfi_offset 10, -8
 2769              		.cfi_offset 14, -4
 2770 0004 E0B0     		sub	sp, sp, #384
 2771              		.cfi_def_cfa_offset 416
 2772 0006 8146     		mov	r9, r0
 2773 0008 1646     		mov	r6, r2
 2774 000a 1F46     		mov	r7, r3
 389:..\fips202.c  ****   uint64_t s[25];
 390:..\fips202.c  ****   unsigned char t[SHAKE128_RATE];
 391:..\fips202.c  ****   unsigned long long nblocks = outlen / SHAKE128_RATE;
 2775              		.loc 1 391 0
 2776 000c A822     		movs	r2, #168
 2777              	.LVL561:
 2778 000e 0023     		movs	r3, #0
 2779 0010 3046     		mov	r0, r6
 2780              	.LVL562:
 2781 0012 3946     		mov	r1, r7
 2782 0014 FFF7FEFF 		bl	__aeabi_uldivmod
ARM GAS  C:\Users\bogur\AppData\Local\Temp\ccXFXavo.s 			page 57


 2783              	.LVL563:
 2784 0018 0446     		mov	r4, r0
 2785 001a 0D46     		mov	r5, r1
 2786              	.LVL564:
 392:..\fips202.c  ****   size_t i;
 393:..\fips202.c  **** 
 394:..\fips202.c  ****   for (i = 0; i < 25; ++i)
 2787              		.loc 1 394 0
 2788 001c 0023     		movs	r3, #0
 2789 001e 07E0     		b	.L34
 2790              	.LVL565:
 2791              	.L35:
 395:..\fips202.c  ****     s[i] = 0;
 2792              		.loc 1 395 0 discriminator 3
 2793 0020 60AA     		add	r2, sp, #384
 2794 0022 02EBC302 		add	r2, r2, r3, lsl #3
 2795 0026 0020     		movs	r0, #0
 2796 0028 0021     		movs	r1, #0
 2797 002a 42E93201 		strd	r0, [r2, #-200]
 394:..\fips202.c  ****     s[i] = 0;
 2798              		.loc 1 394 0 discriminator 3
 2799 002e 0133     		adds	r3, r3, #1
 2800              	.LVL566:
 2801              	.L34:
 394:..\fips202.c  ****     s[i] = 0;
 2802              		.loc 1 394 0 is_stmt 0 discriminator 1
 2803 0030 182B     		cmp	r3, #24
 2804 0032 F5D9     		bls	.L35
 396:..\fips202.c  **** 
 397:..\fips202.c  ****   /* Absorb input */
 398:..\fips202.c  ****   keccak_absorb(s, SHAKE128_RATE, input, inlen, 0x1F);
 2805              		.loc 1 398 0 is_stmt 1
 2806 0034 0DF1B80A 		add	r10, sp, #184
 2807 0038 1F23     		movs	r3, #31
 2808              	.LVL567:
 2809 003a 0293     		str	r3, [sp, #8]
 2810 003c 6AAB     		add	r3, sp, #424
 2811              	.LVL568:
 2812 003e D3E90023 		ldrd	r2, [r3]
 2813 0042 CDE90023 		strd	r2, [sp]
 2814 0046 689A     		ldr	r2, [sp, #416]
 2815 0048 A821     		movs	r1, #168
 2816 004a 5046     		mov	r0, r10
 2817 004c FFF7FEFF 		bl	keccak_absorb
 2818              	.LVL569:
 399:..\fips202.c  **** 
 400:..\fips202.c  ****   /* Squeeze output */
 401:..\fips202.c  ****   keccak_squeezeblocks(output, nblocks, s, SHAKE128_RATE);
 2819              		.loc 1 401 0
 2820 0050 4FF0A808 		mov	r8, #168
 2821 0054 CDF80480 		str	r8, [sp, #4]
 2822 0058 CDF800A0 		str	r10, [sp]
 2823 005c 2246     		mov	r2, r4
 2824 005e 2B46     		mov	r3, r5
 2825 0060 4846     		mov	r0, r9
 2826 0062 FFF7FEFF 		bl	keccak_squeezeblocks
 2827              	.LVL570:
ARM GAS  C:\Users\bogur\AppData\Local\Temp\ccXFXavo.s 			page 58


 402:..\fips202.c  **** 
 403:..\fips202.c  ****   output += nblocks * SHAKE128_RATE;
 2828              		.loc 1 403 0
 2829 0066 08FB04F8 		mul	r8, r8, r4
 2830              	.LVL571:
 404:..\fips202.c  ****   outlen -= nblocks * SHAKE128_RATE;
 2831              		.loc 1 404 0
 2832 006a 2219     		adds	r2, r4, r4
 2833 006c 45EB0503 		adc	r3, r5, r5
 2834 0070 A418     		adds	r4, r4, r2
 2835              	.LVL572:
 2836 0072 5D41     		adcs	r5, r5, r3
 2837 0074 EB00     		lsls	r3, r5, #3
 2838 0076 43EA5473 		orr	r3, r3, r4, lsr #29
 2839 007a E200     		lsls	r2, r4, #3
 2840 007c 141B     		subs	r4, r2, r4
 2841 007e 63EB0505 		sbc	r5, r3, r5
 2842 0082 EB00     		lsls	r3, r5, #3
 2843 0084 43EA5473 		orr	r3, r3, r4, lsr #29
 2844 0088 E200     		lsls	r2, r4, #3
 2845 008a B61A     		subs	r6, r6, r2
 2846 008c 67EB0307 		sbc	r7, r7, r3
 2847              	.LVL573:
 405:..\fips202.c  **** 
 406:..\fips202.c  ****   if (outlen)
 2848              		.loc 1 406 0
 2849 0090 56EA0703 		orrs	r3, r6, r7
 2850 0094 16D0     		beq	.L33
 407:..\fips202.c  ****   {
 408:..\fips202.c  ****     keccak_squeezeblocks(t, 1, s, SHAKE128_RATE);
 2851              		.loc 1 408 0
 2852 0096 A823     		movs	r3, #168
 2853 0098 0193     		str	r3, [sp, #4]
 2854 009a 2EAB     		add	r3, sp, #184
 2855 009c 0093     		str	r3, [sp]
 2856 009e 0122     		movs	r2, #1
 2857 00a0 0023     		movs	r3, #0
 2858 00a2 04A8     		add	r0, sp, #16
 2859 00a4 FFF7FEFF 		bl	keccak_squeezeblocks
 2860              	.LVL574:
 409:..\fips202.c  ****     for (i = 0; i < outlen; i++)
 2861              		.loc 1 409 0
 2862 00a8 0023     		movs	r3, #0
 2863 00aa 06E0     		b	.L37
 2864              	.LVL575:
 2865              	.L38:
 410:..\fips202.c  ****       output[i] = t[i];
 2866              		.loc 1 410 0 discriminator 3
 2867 00ac 03EB0802 		add	r2, r3, r8
 2868 00b0 04A9     		add	r1, sp, #16
 2869 00b2 C95C     		ldrb	r1, [r1, r3]	@ zero_extendqisi2
 2870 00b4 09F80210 		strb	r1, [r9, r2]
 409:..\fips202.c  ****     for (i = 0; i < outlen; i++)
 2871              		.loc 1 409 0 discriminator 3
 2872 00b8 0133     		adds	r3, r3, #1
 2873              	.LVL576:
 2874              	.L37:
ARM GAS  C:\Users\bogur\AppData\Local\Temp\ccXFXavo.s 			page 59


 409:..\fips202.c  ****     for (i = 0; i < outlen; i++)
 2875              		.loc 1 409 0 is_stmt 0 discriminator 1
 2876 00ba 0021     		movs	r1, #0
 2877 00bc B942     		cmp	r1, r7
 2878 00be 08BF     		it	eq
 2879 00c0 B342     		cmpeq	r3, r6
 2880 00c2 F3D3     		bcc	.L38
 2881              	.LVL577:
 2882              	.L33:
 411:..\fips202.c  ****   }
 412:..\fips202.c  **** }
 2883              		.loc 1 412 0 is_stmt 1
 2884 00c4 60B0     		add	sp, sp, #384
 2885              		.cfi_def_cfa_offset 32
 2886              		@ sp needed
 2887 00c6 BDE8F087 		pop	{r4, r5, r6, r7, r8, r9, r10, pc}
 2888              		.cfi_endproc
 2889              	.LFE5:
 2890              		.size	shake128, .-shake128
 2891 00ca 00BF     		.section	.text.sha3_256,"ax",%progbits
 2892              		.align	2
 2893              		.global	sha3_256
 2894              		.thumb
 2895              		.thumb_func
 2896              		.type	sha3_256, %function
 2897              	sha3_256:
 2898              	.LFB6:
 413:..\fips202.c  **** 
 414:..\fips202.c  **** // void cshake128_simple_absorb(uint64_t s[25],
 415:..\fips202.c  **** //                              uint16_t cstm, // 2-byte domain separator
 416:..\fips202.c  **** //                              const unsigned char *in, unsigned long long inlen)
 417:..\fips202.c  **** // {
 418:..\fips202.c  **** //   unsigned char *sep = (unsigned char *)s;
 419:..\fips202.c  **** //   unsigned int i;
 420:..\fips202.c  **** 
 421:..\fips202.c  **** //   for(i=0;i<25;i++)
 422:..\fips202.c  **** //     s[i] = 0;
 423:..\fips202.c  **** 
 424:..\fips202.c  **** //   /* Absorb customization (domain-separation) string */
 425:..\fips202.c  **** //   sep[0] = 0x01;
 426:..\fips202.c  **** //   sep[1] = 0xa8;
 427:..\fips202.c  **** //   sep[2] = 0x01;
 428:..\fips202.c  **** //   sep[3] = 0x00;
 429:..\fips202.c  **** //   sep[4] = 0x01;
 430:..\fips202.c  **** //   sep[5] = 16; // fixed bitlen of cstm
 431:..\fips202.c  **** //   sep[6] = cstm & 0xff;
 432:..\fips202.c  **** //   sep[7] = cstm >> 8;
 433:..\fips202.c  **** 
 434:..\fips202.c  **** //   KeccakF1600_StatePermute(s);
 435:..\fips202.c  **** 
 436:..\fips202.c  **** //   /* Absorb input */
 437:..\fips202.c  **** //   keccak_absorb(s, SHAKE128_RATE, in, inlen, 0x04);
 438:..\fips202.c  **** // }
 439:..\fips202.c  **** 
 440:..\fips202.c  **** // void cshake128_simple_squeezeblocks(unsigned char *output, unsigned long long nblocks, uint64_t 
 441:..\fips202.c  **** // {
 442:..\fips202.c  **** //   keccak_squeezeblocks(output, nblocks, s, SHAKE128_RATE);
ARM GAS  C:\Users\bogur\AppData\Local\Temp\ccXFXavo.s 			page 60


 443:..\fips202.c  **** // }
 444:..\fips202.c  **** 
 445:..\fips202.c  **** // void cshake128_simple(unsigned char *output, unsigned long long outlen,
 446:..\fips202.c  **** //                       uint16_t cstm, // 2-byte domain separator
 447:..\fips202.c  **** //                       const unsigned char *in, unsigned long long inlen)
 448:..\fips202.c  **** // {
 449:..\fips202.c  **** //   uint64_t s[25];
 450:..\fips202.c  **** //   unsigned char t[SHAKE128_RATE];
 451:..\fips202.c  **** //   unsigned int i;
 452:..\fips202.c  **** 
 453:..\fips202.c  **** //   cshake128_simple_absorb(s,cstm,in,inlen);
 454:..\fips202.c  **** 
 455:..\fips202.c  **** //   /* Squeeze output */
 456:..\fips202.c  **** //   keccak_squeezeblocks(output, outlen/SHAKE128_RATE, s, SHAKE128_RATE);
 457:..\fips202.c  **** //   output+=(outlen/SHAKE128_RATE)*SHAKE128_RATE;
 458:..\fips202.c  **** 
 459:..\fips202.c  **** //   if(outlen%SHAKE128_RATE)
 460:..\fips202.c  **** //   {
 461:..\fips202.c  **** //     keccak_squeezeblocks(t, 1, s, SHAKE128_RATE);
 462:..\fips202.c  **** //     for(i=0;i<outlen%SHAKE128_RATE;i++)
 463:..\fips202.c  **** //       output[i] = t[i];
 464:..\fips202.c  **** //   }
 465:..\fips202.c  **** // }
 466:..\fips202.c  **** 
 467:..\fips202.c  **** void sha3_256(unsigned char *output, const unsigned char *input, unsigned long long inlen)
 468:..\fips202.c  **** {
 2899              		.loc 1 468 0
 2900              		.cfi_startproc
 2901              		@ args = 0, pretend = 0, frame = 336
 2902              		@ frame_needed = 0, uses_anonymous_args = 0
 2903              	.LVL578:
 2904 0000 2DE97043 		push	{r4, r5, r6, r8, r9, lr}
 2905              		.cfi_def_cfa_offset 24
 2906              		.cfi_offset 4, -24
 2907              		.cfi_offset 5, -20
 2908              		.cfi_offset 6, -16
 2909              		.cfi_offset 8, -12
 2910              		.cfi_offset 9, -8
 2911              		.cfi_offset 14, -4
 2912 0004 D8B0     		sub	sp, sp, #352
 2913              		.cfi_def_cfa_offset 376
 2914 0006 0646     		mov	r6, r0
 2915 0008 9046     		mov	r8, r2
 2916 000a 9946     		mov	r9, r3
 2917              	.LVL579:
 469:..\fips202.c  ****   uint64_t s[25];
 470:..\fips202.c  ****   unsigned char t[SHA3_256_RATE];
 471:..\fips202.c  ****   size_t i;
 472:..\fips202.c  **** 
 473:..\fips202.c  ****   for (i = 0; i < 25; ++i)
 2918              		.loc 1 473 0
 2919 000c 0023     		movs	r3, #0
 2920 000e 07E0     		b	.L41
 2921              	.LVL580:
 2922              	.L42:
 474:..\fips202.c  ****     s[i] = 0;
 2923              		.loc 1 474 0 discriminator 3
ARM GAS  C:\Users\bogur\AppData\Local\Temp\ccXFXavo.s 			page 61


 2924 0010 58AA     		add	r2, sp, #352
 2925 0012 02EBC300 		add	r0, r2, r3, lsl #3
 2926 0016 0024     		movs	r4, #0
 2927 0018 0025     		movs	r5, #0
 2928 001a 40E93245 		strd	r4, [r0, #-200]
 473:..\fips202.c  ****     s[i] = 0;
 2929              		.loc 1 473 0 discriminator 3
 2930 001e 0133     		adds	r3, r3, #1
 2931              	.LVL581:
 2932              	.L41:
 473:..\fips202.c  ****     s[i] = 0;
 2933              		.loc 1 473 0 is_stmt 0 discriminator 1
 2934 0020 182B     		cmp	r3, #24
 2935 0022 F5D9     		bls	.L42
 475:..\fips202.c  **** 
 476:..\fips202.c  ****   /* Absorb input */
 477:..\fips202.c  ****   keccak_absorb(s, SHA3_256_RATE, input, inlen, 0x06);
 2936              		.loc 1 477 0 is_stmt 1
 2937 0024 26AC     		add	r4, sp, #152
 2938 0026 0623     		movs	r3, #6
 2939              	.LVL582:
 2940 0028 0293     		str	r3, [sp, #8]
 2941 002a CDE90089 		strd	r8, [sp]
 2942 002e 0A46     		mov	r2, r1
 2943 0030 8821     		movs	r1, #136
 2944              	.LVL583:
 2945 0032 2046     		mov	r0, r4
 2946 0034 FFF7FEFF 		bl	keccak_absorb
 2947              	.LVL584:
 478:..\fips202.c  **** 
 479:..\fips202.c  ****   /* Squeeze output */
 480:..\fips202.c  ****   keccak_squeezeblocks(t, 1, s, SHA3_256_RATE);
 2948              		.loc 1 480 0
 2949 0038 8823     		movs	r3, #136
 2950 003a 0193     		str	r3, [sp, #4]
 2951 003c 0094     		str	r4, [sp]
 2952 003e 0122     		movs	r2, #1
 2953 0040 0023     		movs	r3, #0
 2954 0042 04A8     		add	r0, sp, #16
 2955 0044 FFF7FEFF 		bl	keccak_squeezeblocks
 2956              	.LVL585:
 481:..\fips202.c  **** 
 482:..\fips202.c  ****   for (i = 0; i < 32; i++)
 2957              		.loc 1 482 0
 2958 0048 0023     		movs	r3, #0
 2959 004a 03E0     		b	.L43
 2960              	.LVL586:
 2961              	.L44:
 483:..\fips202.c  ****     output[i] = t[i];
 2962              		.loc 1 483 0 discriminator 3
 2963 004c 04AA     		add	r2, sp, #16
 2964 004e D25C     		ldrb	r2, [r2, r3]	@ zero_extendqisi2
 2965 0050 F254     		strb	r2, [r6, r3]
 482:..\fips202.c  ****     output[i] = t[i];
 2966              		.loc 1 482 0 discriminator 3
 2967 0052 0133     		adds	r3, r3, #1
 2968              	.LVL587:
ARM GAS  C:\Users\bogur\AppData\Local\Temp\ccXFXavo.s 			page 62


 2969              	.L43:
 482:..\fips202.c  ****     output[i] = t[i];
 2970              		.loc 1 482 0 is_stmt 0 discriminator 1
 2971 0054 1F2B     		cmp	r3, #31
 2972 0056 F9D9     		bls	.L44
 484:..\fips202.c  **** }
 2973              		.loc 1 484 0 is_stmt 1
 2974 0058 58B0     		add	sp, sp, #352
 2975              		.cfi_def_cfa_offset 24
 2976              		@ sp needed
 2977 005a BDE87083 		pop	{r4, r5, r6, r8, r9, pc}
 2978              		.cfi_endproc
 2979              	.LFE6:
 2980              		.size	sha3_256, .-sha3_256
 2981 005e 00BF     		.section	.text.sha3_512,"ax",%progbits
 2982              		.align	2
 2983              		.global	sha3_512
 2984              		.thumb
 2985              		.thumb_func
 2986              		.type	sha3_512, %function
 2987              	sha3_512:
 2988              	.LFB7:
 485:..\fips202.c  **** 
 486:..\fips202.c  **** void sha3_512(unsigned char *output, const unsigned char *input, unsigned long long inlen)
 487:..\fips202.c  **** {
 2989              		.loc 1 487 0
 2990              		.cfi_startproc
 2991              		@ args = 0, pretend = 0, frame = 272
 2992              		@ frame_needed = 0, uses_anonymous_args = 0
 2993              	.LVL588:
 2994 0000 2DE9F043 		push	{r4, r5, r6, r7, r8, r9, lr}
 2995              		.cfi_def_cfa_offset 28
 2996              		.cfi_offset 4, -28
 2997              		.cfi_offset 5, -24
 2998              		.cfi_offset 6, -20
 2999              		.cfi_offset 7, -16
 3000              		.cfi_offset 8, -12
 3001              		.cfi_offset 9, -8
 3002              		.cfi_offset 14, -4
 3003 0004 C9B0     		sub	sp, sp, #292
 3004              		.cfi_def_cfa_offset 320
 3005 0006 0446     		mov	r4, r0
 3006 0008 9046     		mov	r8, r2
 3007 000a 9946     		mov	r9, r3
 3008              	.LVL589:
 488:..\fips202.c  ****   uint64_t s[25];
 489:..\fips202.c  ****   unsigned char t[SHA3_512_RATE];
 490:..\fips202.c  ****   size_t i;
 491:..\fips202.c  **** 
 492:..\fips202.c  ****   for (i = 0; i < 25; ++i)
 3009              		.loc 1 492 0
 3010 000c 0023     		movs	r3, #0
 3011 000e 07E0     		b	.L47
 3012              	.LVL590:
 3013              	.L48:
 493:..\fips202.c  ****     s[i] = 0;
 3014              		.loc 1 493 0 discriminator 3
ARM GAS  C:\Users\bogur\AppData\Local\Temp\ccXFXavo.s 			page 63


 3015 0010 48AA     		add	r2, sp, #288
 3016 0012 02EBC300 		add	r0, r2, r3, lsl #3
 3017 0016 0026     		movs	r6, #0
 3018 0018 0027     		movs	r7, #0
 3019 001a 40E93267 		strd	r6, [r0, #-200]
 492:..\fips202.c  ****     s[i] = 0;
 3020              		.loc 1 492 0 discriminator 3
 3021 001e 0133     		adds	r3, r3, #1
 3022              	.LVL591:
 3023              	.L47:
 492:..\fips202.c  ****     s[i] = 0;
 3024              		.loc 1 492 0 is_stmt 0 discriminator 1
 3025 0020 182B     		cmp	r3, #24
 3026 0022 F5D9     		bls	.L48
 494:..\fips202.c  **** 
 495:..\fips202.c  ****   /* Absorb input */
 496:..\fips202.c  ****   keccak_absorb(s, SHA3_512_RATE, input, inlen, 0x06);
 3027              		.loc 1 496 0 is_stmt 1
 3028 0024 16AD     		add	r5, sp, #88
 3029 0026 0623     		movs	r3, #6
 3030              	.LVL592:
 3031 0028 0293     		str	r3, [sp, #8]
 3032 002a CDE90089 		strd	r8, [sp]
 3033 002e 0A46     		mov	r2, r1
 3034 0030 4821     		movs	r1, #72
 3035              	.LVL593:
 3036 0032 2846     		mov	r0, r5
 3037 0034 FFF7FEFF 		bl	keccak_absorb
 3038              	.LVL594:
 497:..\fips202.c  **** 
 498:..\fips202.c  ****   /* Squeeze output */
 499:..\fips202.c  ****   keccak_squeezeblocks(t, 1, s, SHA3_512_RATE);
 3039              		.loc 1 499 0
 3040 0038 4823     		movs	r3, #72
 3041 003a 0193     		str	r3, [sp, #4]
 3042 003c 0095     		str	r5, [sp]
 3043 003e 0122     		movs	r2, #1
 3044 0040 0023     		movs	r3, #0
 3045 0042 04A8     		add	r0, sp, #16
 3046 0044 FFF7FEFF 		bl	keccak_squeezeblocks
 3047              	.LVL595:
 500:..\fips202.c  **** 
 501:..\fips202.c  ****   for (i = 0; i < 64; i++)
 3048              		.loc 1 501 0
 3049 0048 0023     		movs	r3, #0
 3050 004a 03E0     		b	.L49
 3051              	.LVL596:
 3052              	.L50:
 502:..\fips202.c  ****     output[i] = t[i];
 3053              		.loc 1 502 0 discriminator 3
 3054 004c 04AA     		add	r2, sp, #16
 3055 004e D25C     		ldrb	r2, [r2, r3]	@ zero_extendqisi2
 3056 0050 E254     		strb	r2, [r4, r3]
 501:..\fips202.c  ****     output[i] = t[i];
 3057              		.loc 1 501 0 discriminator 3
 3058 0052 0133     		adds	r3, r3, #1
 3059              	.LVL597:
ARM GAS  C:\Users\bogur\AppData\Local\Temp\ccXFXavo.s 			page 64


 3060              	.L49:
 501:..\fips202.c  ****     output[i] = t[i];
 3061              		.loc 1 501 0 is_stmt 0 discriminator 1
 3062 0054 3F2B     		cmp	r3, #63
 3063 0056 F9D9     		bls	.L50
 503:..\fips202.c  **** }
 3064              		.loc 1 503 0 is_stmt 1
 3065 0058 49B0     		add	sp, sp, #292
 3066              		.cfi_def_cfa_offset 28
 3067              		@ sp needed
 3068 005a BDE8F083 		pop	{r4, r5, r6, r7, r8, r9, pc}
 3069              		.cfi_endproc
 3070              	.LFE7:
 3071              		.size	sha3_512, .-sha3_512
 3072              		.section	.rodata
 3073              		.align	3
 3074              		.set	.LANCHOR0,. + 0
 3075              		.type	KeccakF_RoundConstants, %object
 3076              		.size	KeccakF_RoundConstants, 192
 3077              	KeccakF_RoundConstants:
 3078 0000 01000000 		.word	1
 3079 0004 00000000 		.word	0
 3080 0008 82800000 		.word	32898
 3081 000c 00000000 		.word	0
 3082 0010 8A800000 		.word	32906
 3083 0014 00000080 		.word	-2147483648
 3084 0018 00800080 		.word	-2147450880
 3085 001c 00000080 		.word	-2147483648
 3086 0020 8B800000 		.word	32907
 3087 0024 00000000 		.word	0
 3088 0028 01000080 		.word	-2147483647
 3089 002c 00000000 		.word	0
 3090 0030 81800080 		.word	-2147450751
 3091 0034 00000080 		.word	-2147483648
 3092 0038 09800000 		.word	32777
 3093 003c 00000080 		.word	-2147483648
 3094 0040 8A000000 		.word	138
 3095 0044 00000000 		.word	0
 3096 0048 88000000 		.word	136
 3097 004c 00000000 		.word	0
 3098 0050 09800080 		.word	-2147450871
 3099 0054 00000000 		.word	0
 3100 0058 0A000080 		.word	-2147483638
 3101 005c 00000000 		.word	0
 3102 0060 8B800080 		.word	-2147450741
 3103 0064 00000000 		.word	0
 3104 0068 8B000000 		.word	139
 3105 006c 00000080 		.word	-2147483648
 3106 0070 89800000 		.word	32905
 3107 0074 00000080 		.word	-2147483648
 3108 0078 03800000 		.word	32771
 3109 007c 00000080 		.word	-2147483648
 3110 0080 02800000 		.word	32770
 3111 0084 00000080 		.word	-2147483648
 3112 0088 80000000 		.word	128
 3113 008c 00000080 		.word	-2147483648
 3114 0090 0A800000 		.word	32778
ARM GAS  C:\Users\bogur\AppData\Local\Temp\ccXFXavo.s 			page 65


 3115 0094 00000000 		.word	0
 3116 0098 0A000080 		.word	-2147483638
 3117 009c 00000080 		.word	-2147483648
 3118 00a0 81800080 		.word	-2147450751
 3119 00a4 00000080 		.word	-2147483648
 3120 00a8 80800000 		.word	32896
 3121 00ac 00000080 		.word	-2147483648
 3122 00b0 01000080 		.word	-2147483647
 3123 00b4 00000000 		.word	0
 3124 00b8 08800080 		.word	-2147450872
 3125 00bc 00000080 		.word	-2147483648
 3126              		.text
 3127              	.Letext0:
 3128              		.file 2 "c:\\program files (x86)\\cypress\\psoc creator\\4.4\\psoc creator\\import\\gnu\\arm\\5.4.
 3129              		.file 3 "c:\\program files (x86)\\cypress\\psoc creator\\4.4\\psoc creator\\import\\gnu\\arm\\5.4.
 3130              		.file 4 "c:\\program files (x86)\\cypress\\psoc creator\\4.4\\psoc creator\\import\\gnu\\arm\\5.4.
 3131              		.section	.debug_info,"",%progbits
 3132              	.Ldebug_info0:
 3133 0000 3C090000 		.4byte	0x93c
 3134 0004 0400     		.2byte	0x4
 3135 0006 00000000 		.4byte	.Ldebug_abbrev0
 3136 000a 04       		.byte	0x4
 3137 000b 01       		.uleb128 0x1
 3138 000c 6C010000 		.4byte	.LASF33
 3139 0010 0C       		.byte	0xc
 3140 0011 79020000 		.4byte	.LASF34
 3141 0015 F5000000 		.4byte	.LASF35
 3142 0019 00000000 		.4byte	.Ldebug_ranges0+0
 3143 001d 00000000 		.4byte	0
 3144 0021 00000000 		.4byte	.Ldebug_line0
 3145 0025 02       		.uleb128 0x2
 3146 0026 08       		.byte	0x8
 3147 0027 07       		.byte	0x7
 3148 0028 33000000 		.4byte	.LASF0
 3149 002c 02       		.uleb128 0x2
 3150 002d 01       		.byte	0x1
 3151 002e 06       		.byte	0x6
 3152 002f 58000000 		.4byte	.LASF1
 3153 0033 03       		.uleb128 0x3
 3154 0034 10000000 		.4byte	.LASF8
 3155 0038 02       		.byte	0x2
 3156 0039 1D       		.byte	0x1d
 3157 003a 3E000000 		.4byte	0x3e
 3158 003e 02       		.uleb128 0x2
 3159 003f 01       		.byte	0x1
 3160 0040 08       		.byte	0x8
 3161 0041 32020000 		.4byte	.LASF2
 3162 0045 02       		.uleb128 0x2
 3163 0046 02       		.byte	0x2
 3164 0047 05       		.byte	0x5
 3165 0048 40020000 		.4byte	.LASF3
 3166 004c 02       		.uleb128 0x2
 3167 004d 02       		.byte	0x2
 3168 004e 07       		.byte	0x7
 3169 004f D6000000 		.4byte	.LASF4
 3170 0053 02       		.uleb128 0x2
 3171 0054 04       		.byte	0x4
ARM GAS  C:\Users\bogur\AppData\Local\Temp\ccXFXavo.s 			page 66


 3172 0055 05       		.byte	0x5
 3173 0056 6A000000 		.4byte	.LASF5
 3174 005a 02       		.uleb128 0x2
 3175 005b 04       		.byte	0x4
 3176 005c 07       		.byte	0x7
 3177 005d BB000000 		.4byte	.LASF6
 3178 0061 02       		.uleb128 0x2
 3179 0062 08       		.byte	0x8
 3180 0063 05       		.byte	0x5
 3181 0064 4A000000 		.4byte	.LASF7
 3182 0068 03       		.uleb128 0x3
 3183 0069 1F020000 		.4byte	.LASF9
 3184 006d 02       		.byte	0x2
 3185 006e 5B       		.byte	0x5b
 3186 006f 25000000 		.4byte	0x25
 3187 0073 04       		.uleb128 0x4
 3188 0074 04       		.byte	0x4
 3189 0075 05       		.byte	0x5
 3190 0076 696E7400 		.ascii	"int\000"
 3191 007a 02       		.uleb128 0x2
 3192 007b 04       		.byte	0x4
 3193 007c 07       		.byte	0x7
 3194 007d AE000000 		.4byte	.LASF10
 3195 0081 03       		.uleb128 0x3
 3196 0082 86020000 		.4byte	.LASF11
 3197 0086 03       		.byte	0x3
 3198 0087 18       		.byte	0x18
 3199 0088 33000000 		.4byte	0x33
 3200 008c 03       		.uleb128 0x3
 3201 008d 07000000 		.4byte	.LASF12
 3202 0091 03       		.byte	0x3
 3203 0092 3C       		.byte	0x3c
 3204 0093 68000000 		.4byte	0x68
 3205 0097 03       		.uleb128 0x3
 3206 0098 00000000 		.4byte	.LASF13
 3207 009c 04       		.byte	0x4
 3208 009d D8       		.byte	0xd8
 3209 009e 7A000000 		.4byte	0x7a
 3210 00a2 02       		.uleb128 0x2
 3211 00a3 08       		.byte	0x8
 3212 00a4 04       		.byte	0x4
 3213 00a5 60010000 		.4byte	.LASF14
 3214 00a9 02       		.uleb128 0x2
 3215 00aa 04       		.byte	0x4
 3216 00ab 07       		.byte	0x7
 3217 00ac 57010000 		.4byte	.LASF15
 3218 00b0 02       		.uleb128 0x2
 3219 00b1 01       		.byte	0x1
 3220 00b2 08       		.byte	0x8
 3221 00b3 66020000 		.4byte	.LASF16
 3222 00b7 05       		.uleb128 0x5
 3223 00b8 04       		.byte	0x4
 3224 00b9 3E000000 		.4byte	0x3e
 3225 00bd 06       		.uleb128 0x6
 3226 00be 5F020000 		.4byte	.LASF36
 3227 00c2 01       		.byte	0x1
 3228 00c3 0F       		.byte	0xf
ARM GAS  C:\Users\bogur\AppData\Local\Temp\ccXFXavo.s 			page 67


 3229 00c4 8C000000 		.4byte	0x8c
 3230 00c8 00000000 		.4byte	.LFB0
 3231 00cc 4C000000 		.4byte	.LFE0-.LFB0
 3232 00d0 01       		.uleb128 0x1
 3233 00d1 9C       		.byte	0x9c
 3234 00d2 FE000000 		.4byte	0xfe
 3235 00d6 07       		.uleb128 0x7
 3236 00d7 7800     		.ascii	"x\000"
 3237 00d9 01       		.byte	0x1
 3238 00da 0F       		.byte	0xf
 3239 00db FE000000 		.4byte	0xfe
 3240 00df 00000000 		.4byte	.LLST0
 3241 00e3 08       		.uleb128 0x8
 3242 00e4 7200     		.ascii	"r\000"
 3243 00e6 01       		.byte	0x1
 3244 00e7 11       		.byte	0x11
 3245 00e8 25000000 		.4byte	0x25
 3246 00ec 21000000 		.4byte	.LLST1
 3247 00f0 08       		.uleb128 0x8
 3248 00f1 6900     		.ascii	"i\000"
 3249 00f3 01       		.byte	0x1
 3250 00f4 11       		.byte	0x11
 3251 00f5 25000000 		.4byte	0x25
 3252 00f9 5D000000 		.4byte	.LLST2
 3253 00fd 00       		.byte	0
 3254 00fe 05       		.uleb128 0x5
 3255 00ff 04       		.byte	0x4
 3256 0100 04010000 		.4byte	0x104
 3257 0104 09       		.uleb128 0x9
 3258 0105 3E000000 		.4byte	0x3e
 3259 0109 0A       		.uleb128 0xa
 3260 010a 2A020000 		.4byte	.LASF17
 3261 010e 01       		.byte	0x1
 3262 010f 1A       		.byte	0x1a
 3263 0110 00000000 		.4byte	.LFB1
 3264 0114 16000000 		.4byte	.LFE1-.LFB1
 3265 0118 01       		.uleb128 0x1
 3266 0119 9C       		.byte	0x9c
 3267 011a 44010000 		.4byte	0x144
 3268 011e 0B       		.uleb128 0xb
 3269 011f 7800     		.ascii	"x\000"
 3270 0121 01       		.byte	0x1
 3271 0122 1A       		.byte	0x1a
 3272 0123 44010000 		.4byte	0x144
 3273 0127 01       		.uleb128 0x1
 3274 0128 50       		.byte	0x50
 3275 0129 07       		.uleb128 0x7
 3276 012a 7500     		.ascii	"u\000"
 3277 012c 01       		.byte	0x1
 3278 012d 1A       		.byte	0x1a
 3279 012e 8C000000 		.4byte	0x8c
 3280 0132 99000000 		.4byte	.LLST3
 3281 0136 08       		.uleb128 0x8
 3282 0137 6900     		.ascii	"i\000"
 3283 0139 01       		.byte	0x1
 3284 013a 1C       		.byte	0x1c
 3285 013b 7A000000 		.4byte	0x7a
ARM GAS  C:\Users\bogur\AppData\Local\Temp\ccXFXavo.s 			page 68


 3286 013f D1000000 		.4byte	.LLST4
 3287 0143 00       		.byte	0
 3288 0144 05       		.uleb128 0x5
 3289 0145 04       		.byte	0x4
 3290 0146 81000000 		.4byte	0x81
 3291 014a 0A       		.uleb128 0xa
 3292 014b 1A000000 		.4byte	.LASF18
 3293 014f 01       		.byte	0x1
 3294 0150 40       		.byte	0x40
 3295 0151 00000000 		.4byte	.LFB2
 3296 0155 FC120000 		.4byte	.LFE2-.LFB2
 3297 0159 01       		.uleb128 0x1
 3298 015a 9C       		.byte	0x9c
 3299 015b FD040000 		.4byte	0x4fd
 3300 015f 0C       		.uleb128 0xc
 3301 0160 64000000 		.4byte	.LASF19
 3302 0164 01       		.byte	0x1
 3303 0165 40       		.byte	0x40
 3304 0166 FD040000 		.4byte	0x4fd
 3305 016a F0000000 		.4byte	.LLST5
 3306 016e 0D       		.uleb128 0xd
 3307 016f 4A020000 		.4byte	.LASF20
 3308 0173 01       		.byte	0x1
 3309 0174 42       		.byte	0x42
 3310 0175 73000000 		.4byte	0x73
 3311 0179 25010000 		.4byte	.LLST6
 3312 017d 08       		.uleb128 0x8
 3313 017e 41626100 		.ascii	"Aba\000"
 3314 0182 01       		.byte	0x1
 3315 0183 44       		.byte	0x44
 3316 0184 8C000000 		.4byte	0x8c
 3317 0188 44010000 		.4byte	.LLST7
 3318 018c 08       		.uleb128 0x8
 3319 018d 41626500 		.ascii	"Abe\000"
 3320 0191 01       		.byte	0x1
 3321 0192 44       		.byte	0x44
 3322 0193 8C000000 		.4byte	0x8c
 3323 0197 16020000 		.4byte	.LLST8
 3324 019b 08       		.uleb128 0x8
 3325 019c 41626900 		.ascii	"Abi\000"
 3326 01a0 01       		.byte	0x1
 3327 01a1 44       		.byte	0x44
 3328 01a2 8C000000 		.4byte	0x8c
 3329 01a6 8B020000 		.4byte	.LLST9
 3330 01aa 08       		.uleb128 0x8
 3331 01ab 41626F00 		.ascii	"Abo\000"
 3332 01af 01       		.byte	0x1
 3333 01b0 44       		.byte	0x44
 3334 01b1 8C000000 		.4byte	0x8c
 3335 01b5 00030000 		.4byte	.LLST10
 3336 01b9 08       		.uleb128 0x8
 3337 01ba 41627500 		.ascii	"Abu\000"
 3338 01be 01       		.byte	0x1
 3339 01bf 44       		.byte	0x44
 3340 01c0 8C000000 		.4byte	0x8c
 3341 01c4 85030000 		.4byte	.LLST11
 3342 01c8 08       		.uleb128 0x8
ARM GAS  C:\Users\bogur\AppData\Local\Temp\ccXFXavo.s 			page 69


 3343 01c9 41676100 		.ascii	"Aga\000"
 3344 01cd 01       		.byte	0x1
 3345 01ce 45       		.byte	0x45
 3346 01cf 8C000000 		.4byte	0x8c
 3347 01d3 0A040000 		.4byte	.LLST12
 3348 01d7 08       		.uleb128 0x8
 3349 01d8 41676500 		.ascii	"Age\000"
 3350 01dc 01       		.byte	0x1
 3351 01dd 45       		.byte	0x45
 3352 01de 8C000000 		.4byte	0x8c
 3353 01e2 DD040000 		.4byte	.LLST13
 3354 01e6 08       		.uleb128 0x8
 3355 01e7 41676900 		.ascii	"Agi\000"
 3356 01eb 01       		.byte	0x1
 3357 01ec 45       		.byte	0x45
 3358 01ed 8C000000 		.4byte	0x8c
 3359 01f1 B0050000 		.4byte	.LLST14
 3360 01f5 08       		.uleb128 0x8
 3361 01f6 41676F00 		.ascii	"Ago\000"
 3362 01fa 01       		.byte	0x1
 3363 01fb 45       		.byte	0x45
 3364 01fc 8C000000 		.4byte	0x8c
 3365 0200 6B060000 		.4byte	.LLST15
 3366 0204 08       		.uleb128 0x8
 3367 0205 41677500 		.ascii	"Agu\000"
 3368 0209 01       		.byte	0x1
 3369 020a 45       		.byte	0x45
 3370 020b 8C000000 		.4byte	0x8c
 3371 020f 17070000 		.4byte	.LLST16
 3372 0213 08       		.uleb128 0x8
 3373 0214 416B6100 		.ascii	"Aka\000"
 3374 0218 01       		.byte	0x1
 3375 0219 46       		.byte	0x46
 3376 021a 8C000000 		.4byte	0x8c
 3377 021e D3070000 		.4byte	.LLST17
 3378 0222 08       		.uleb128 0x8
 3379 0223 416B6500 		.ascii	"Ake\000"
 3380 0227 01       		.byte	0x1
 3381 0228 46       		.byte	0x46
 3382 0229 8C000000 		.4byte	0x8c
 3383 022d 7F080000 		.4byte	.LLST18
 3384 0231 08       		.uleb128 0x8
 3385 0232 416B6900 		.ascii	"Aki\000"
 3386 0236 01       		.byte	0x1
 3387 0237 46       		.byte	0x46
 3388 0238 8C000000 		.4byte	0x8c
 3389 023c 48090000 		.4byte	.LLST19
 3390 0240 08       		.uleb128 0x8
 3391 0241 416B6F00 		.ascii	"Ako\000"
 3392 0245 01       		.byte	0x1
 3393 0246 46       		.byte	0x46
 3394 0247 8C000000 		.4byte	0x8c
 3395 024b 010A0000 		.4byte	.LLST20
 3396 024f 08       		.uleb128 0x8
 3397 0250 416B7500 		.ascii	"Aku\000"
 3398 0254 01       		.byte	0x1
 3399 0255 46       		.byte	0x46
ARM GAS  C:\Users\bogur\AppData\Local\Temp\ccXFXavo.s 			page 70


 3400 0256 8C000000 		.4byte	0x8c
 3401 025a B90A0000 		.4byte	.LLST21
 3402 025e 08       		.uleb128 0x8
 3403 025f 416D6100 		.ascii	"Ama\000"
 3404 0263 01       		.byte	0x1
 3405 0264 47       		.byte	0x47
 3406 0265 8C000000 		.4byte	0x8c
 3407 0269 590B0000 		.4byte	.LLST22
 3408 026d 08       		.uleb128 0x8
 3409 026e 416D6500 		.ascii	"Ame\000"
 3410 0272 01       		.byte	0x1
 3411 0273 47       		.byte	0x47
 3412 0274 8C000000 		.4byte	0x8c
 3413 0278 090C0000 		.4byte	.LLST23
 3414 027c 08       		.uleb128 0x8
 3415 027d 416D6900 		.ascii	"Ami\000"
 3416 0281 01       		.byte	0x1
 3417 0282 47       		.byte	0x47
 3418 0283 8C000000 		.4byte	0x8c
 3419 0287 D20C0000 		.4byte	.LLST24
 3420 028b 08       		.uleb128 0x8
 3421 028c 416D6F00 		.ascii	"Amo\000"
 3422 0290 01       		.byte	0x1
 3423 0291 47       		.byte	0x47
 3424 0292 8C000000 		.4byte	0x8c
 3425 0296 8C0D0000 		.4byte	.LLST25
 3426 029a 08       		.uleb128 0x8
 3427 029b 416D7500 		.ascii	"Amu\000"
 3428 029f 01       		.byte	0x1
 3429 02a0 47       		.byte	0x47
 3430 02a1 8C000000 		.4byte	0x8c
 3431 02a5 490E0000 		.4byte	.LLST26
 3432 02a9 08       		.uleb128 0x8
 3433 02aa 41736100 		.ascii	"Asa\000"
 3434 02ae 01       		.byte	0x1
 3435 02af 48       		.byte	0x48
 3436 02b0 8C000000 		.4byte	0x8c
 3437 02b4 EA0E0000 		.4byte	.LLST27
 3438 02b8 08       		.uleb128 0x8
 3439 02b9 41736500 		.ascii	"Ase\000"
 3440 02bd 01       		.byte	0x1
 3441 02be 48       		.byte	0x48
 3442 02bf 8C000000 		.4byte	0x8c
 3443 02c3 970F0000 		.4byte	.LLST28
 3444 02c7 08       		.uleb128 0x8
 3445 02c8 41736900 		.ascii	"Asi\000"
 3446 02cc 01       		.byte	0x1
 3447 02cd 48       		.byte	0x48
 3448 02ce 8C000000 		.4byte	0x8c
 3449 02d2 54100000 		.4byte	.LLST29
 3450 02d6 08       		.uleb128 0x8
 3451 02d7 41736F00 		.ascii	"Aso\000"
 3452 02db 01       		.byte	0x1
 3453 02dc 48       		.byte	0x48
 3454 02dd 8C000000 		.4byte	0x8c
 3455 02e1 E8100000 		.4byte	.LLST30
 3456 02e5 08       		.uleb128 0x8
ARM GAS  C:\Users\bogur\AppData\Local\Temp\ccXFXavo.s 			page 71


 3457 02e6 41737500 		.ascii	"Asu\000"
 3458 02ea 01       		.byte	0x1
 3459 02eb 48       		.byte	0x48
 3460 02ec 8C000000 		.4byte	0x8c
 3461 02f0 95110000 		.4byte	.LLST31
 3462 02f4 08       		.uleb128 0x8
 3463 02f5 42436100 		.ascii	"BCa\000"
 3464 02f9 01       		.byte	0x1
 3465 02fa 49       		.byte	0x49
 3466 02fb 8C000000 		.4byte	0x8c
 3467 02ff 0C120000 		.4byte	.LLST32
 3468 0303 08       		.uleb128 0x8
 3469 0304 42436500 		.ascii	"BCe\000"
 3470 0308 01       		.byte	0x1
 3471 0309 49       		.byte	0x49
 3472 030a 8C000000 		.4byte	0x8c
 3473 030e E9130000 		.4byte	.LLST33
 3474 0312 08       		.uleb128 0x8
 3475 0313 42436900 		.ascii	"BCi\000"
 3476 0317 01       		.byte	0x1
 3477 0318 49       		.byte	0x49
 3478 0319 8C000000 		.4byte	0x8c
 3479 031d 62150000 		.4byte	.LLST34
 3480 0321 08       		.uleb128 0x8
 3481 0322 42436F00 		.ascii	"BCo\000"
 3482 0326 01       		.byte	0x1
 3483 0327 49       		.byte	0x49
 3484 0328 8C000000 		.4byte	0x8c
 3485 032c 9E160000 		.4byte	.LLST35
 3486 0330 08       		.uleb128 0x8
 3487 0331 42437500 		.ascii	"BCu\000"
 3488 0335 01       		.byte	0x1
 3489 0336 49       		.byte	0x49
 3490 0337 8C000000 		.4byte	0x8c
 3491 033b 2C180000 		.4byte	.LLST36
 3492 033f 08       		.uleb128 0x8
 3493 0340 446100   		.ascii	"Da\000"
 3494 0343 01       		.byte	0x1
 3495 0344 4A       		.byte	0x4a
 3496 0345 8C000000 		.4byte	0x8c
 3497 0349 7A190000 		.4byte	.LLST37
 3498 034d 08       		.uleb128 0x8
 3499 034e 446500   		.ascii	"De\000"
 3500 0351 01       		.byte	0x1
 3501 0352 4A       		.byte	0x4a
 3502 0353 8C000000 		.4byte	0x8c
 3503 0357 BB190000 		.4byte	.LLST38
 3504 035b 08       		.uleb128 0x8
 3505 035c 446900   		.ascii	"Di\000"
 3506 035f 01       		.byte	0x1
 3507 0360 4A       		.byte	0x4a
 3508 0361 8C000000 		.4byte	0x8c
 3509 0365 FD190000 		.4byte	.LLST39
 3510 0369 08       		.uleb128 0x8
 3511 036a 446F00   		.ascii	"Do\000"
 3512 036d 01       		.byte	0x1
 3513 036e 4A       		.byte	0x4a
ARM GAS  C:\Users\bogur\AppData\Local\Temp\ccXFXavo.s 			page 72


 3514 036f 8C000000 		.4byte	0x8c
 3515 0373 321A0000 		.4byte	.LLST40
 3516 0377 08       		.uleb128 0x8
 3517 0378 447500   		.ascii	"Du\000"
 3518 037b 01       		.byte	0x1
 3519 037c 4A       		.byte	0x4a
 3520 037d 8C000000 		.4byte	0x8c
 3521 0381 841A0000 		.4byte	.LLST41
 3522 0385 08       		.uleb128 0x8
 3523 0386 45626100 		.ascii	"Eba\000"
 3524 038a 01       		.byte	0x1
 3525 038b 4B       		.byte	0x4b
 3526 038c 8C000000 		.4byte	0x8c
 3527 0390 C51A0000 		.4byte	.LLST42
 3528 0394 08       		.uleb128 0x8
 3529 0395 45626500 		.ascii	"Ebe\000"
 3530 0399 01       		.byte	0x1
 3531 039a 4B       		.byte	0x4b
 3532 039b 8C000000 		.4byte	0x8c
 3533 039f FA1A0000 		.4byte	.LLST43
 3534 03a3 08       		.uleb128 0x8
 3535 03a4 45626900 		.ascii	"Ebi\000"
 3536 03a8 01       		.byte	0x1
 3537 03a9 4B       		.byte	0x4b
 3538 03aa 8C000000 		.4byte	0x8c
 3539 03ae 601B0000 		.4byte	.LLST44
 3540 03b2 08       		.uleb128 0x8
 3541 03b3 45626F00 		.ascii	"Ebo\000"
 3542 03b7 01       		.byte	0x1
 3543 03b8 4B       		.byte	0x4b
 3544 03b9 8C000000 		.4byte	0x8c
 3545 03bd 851B0000 		.4byte	.LLST45
 3546 03c1 08       		.uleb128 0x8
 3547 03c2 45627500 		.ascii	"Ebu\000"
 3548 03c6 01       		.byte	0x1
 3549 03c7 4B       		.byte	0x4b
 3550 03c8 8C000000 		.4byte	0x8c
 3551 03cc D31B0000 		.4byte	.LLST46
 3552 03d0 08       		.uleb128 0x8
 3553 03d1 45676100 		.ascii	"Ega\000"
 3554 03d5 01       		.byte	0x1
 3555 03d6 4C       		.byte	0x4c
 3556 03d7 8C000000 		.4byte	0x8c
 3557 03db F81B0000 		.4byte	.LLST47
 3558 03df 08       		.uleb128 0x8
 3559 03e0 45676500 		.ascii	"Ege\000"
 3560 03e4 01       		.byte	0x1
 3561 03e5 4C       		.byte	0x4c
 3562 03e6 8C000000 		.4byte	0x8c
 3563 03ea 6F1C0000 		.4byte	.LLST48
 3564 03ee 08       		.uleb128 0x8
 3565 03ef 45676900 		.ascii	"Egi\000"
 3566 03f3 01       		.byte	0x1
 3567 03f4 4C       		.byte	0x4c
 3568 03f5 8C000000 		.4byte	0x8c
 3569 03f9 A41C0000 		.4byte	.LLST49
 3570 03fd 08       		.uleb128 0x8
ARM GAS  C:\Users\bogur\AppData\Local\Temp\ccXFXavo.s 			page 73


 3571 03fe 45676F00 		.ascii	"Ego\000"
 3572 0402 01       		.byte	0x1
 3573 0403 4C       		.byte	0x4c
 3574 0404 8C000000 		.4byte	0x8c
 3575 0408 EE1C0000 		.4byte	.LLST50
 3576 040c 08       		.uleb128 0x8
 3577 040d 45677500 		.ascii	"Egu\000"
 3578 0411 01       		.byte	0x1
 3579 0412 4C       		.byte	0x4c
 3580 0413 8C000000 		.4byte	0x8c
 3581 0417 131D0000 		.4byte	.LLST51
 3582 041b 08       		.uleb128 0x8
 3583 041c 456B6100 		.ascii	"Eka\000"
 3584 0420 01       		.byte	0x1
 3585 0421 4D       		.byte	0x4d
 3586 0422 8C000000 		.4byte	0x8c
 3587 0426 381D0000 		.4byte	.LLST52
 3588 042a 08       		.uleb128 0x8
 3589 042b 456B6500 		.ascii	"Eke\000"
 3590 042f 01       		.byte	0x1
 3591 0430 4D       		.byte	0x4d
 3592 0431 8C000000 		.4byte	0x8c
 3593 0435 921D0000 		.4byte	.LLST53
 3594 0439 08       		.uleb128 0x8
 3595 043a 456B6900 		.ascii	"Eki\000"
 3596 043e 01       		.byte	0x1
 3597 043f 4D       		.byte	0x4d
 3598 0440 8C000000 		.4byte	0x8c
 3599 0444 B71D0000 		.4byte	.LLST54
 3600 0448 08       		.uleb128 0x8
 3601 0449 456B6F00 		.ascii	"Eko\000"
 3602 044d 01       		.byte	0x1
 3603 044e 4D       		.byte	0x4d
 3604 044f 8C000000 		.4byte	0x8c
 3605 0453 EC1D0000 		.4byte	.LLST55
 3606 0457 08       		.uleb128 0x8
 3607 0458 456B7500 		.ascii	"Eku\000"
 3608 045c 01       		.byte	0x1
 3609 045d 4D       		.byte	0x4d
 3610 045e 8C000000 		.4byte	0x8c
 3611 0462 461E0000 		.4byte	.LLST56
 3612 0466 08       		.uleb128 0x8
 3613 0467 456D6100 		.ascii	"Ema\000"
 3614 046b 01       		.byte	0x1
 3615 046c 4E       		.byte	0x4e
 3616 046d 8C000000 		.4byte	0x8c
 3617 0471 A01E0000 		.4byte	.LLST57
 3618 0475 08       		.uleb128 0x8
 3619 0476 456D6500 		.ascii	"Eme\000"
 3620 047a 01       		.byte	0x1
 3621 047b 4E       		.byte	0x4e
 3622 047c 8C000000 		.4byte	0x8c
 3623 0480 FA1E0000 		.4byte	.LLST58
 3624 0484 08       		.uleb128 0x8
 3625 0485 456D6900 		.ascii	"Emi\000"
 3626 0489 01       		.byte	0x1
 3627 048a 4E       		.byte	0x4e
ARM GAS  C:\Users\bogur\AppData\Local\Temp\ccXFXavo.s 			page 74


 3628 048b 8C000000 		.4byte	0x8c
 3629 048f 2B1F0000 		.4byte	.LLST59
 3630 0493 08       		.uleb128 0x8
 3631 0494 456D6F00 		.ascii	"Emo\000"
 3632 0498 01       		.byte	0x1
 3633 0499 4E       		.byte	0x4e
 3634 049a 8C000000 		.4byte	0x8c
 3635 049e 851F0000 		.4byte	.LLST60
 3636 04a2 08       		.uleb128 0x8
 3637 04a3 456D7500 		.ascii	"Emu\000"
 3638 04a7 01       		.byte	0x1
 3639 04a8 4E       		.byte	0x4e
 3640 04a9 8C000000 		.4byte	0x8c
 3641 04ad AA1F0000 		.4byte	.LLST61
 3642 04b1 08       		.uleb128 0x8
 3643 04b2 45736100 		.ascii	"Esa\000"
 3644 04b6 01       		.byte	0x1
 3645 04b7 4F       		.byte	0x4f
 3646 04b8 8C000000 		.4byte	0x8c
 3647 04bc DF1F0000 		.4byte	.LLST62
 3648 04c0 08       		.uleb128 0x8
 3649 04c1 45736500 		.ascii	"Ese\000"
 3650 04c5 01       		.byte	0x1
 3651 04c6 4F       		.byte	0x4f
 3652 04c7 8C000000 		.4byte	0x8c
 3653 04cb 14200000 		.4byte	.LLST63
 3654 04cf 08       		.uleb128 0x8
 3655 04d0 45736900 		.ascii	"Esi\000"
 3656 04d4 01       		.byte	0x1
 3657 04d5 4F       		.byte	0x4f
 3658 04d6 8C000000 		.4byte	0x8c
 3659 04da 49200000 		.4byte	.LLST64
 3660 04de 08       		.uleb128 0x8
 3661 04df 45736F00 		.ascii	"Eso\000"
 3662 04e3 01       		.byte	0x1
 3663 04e4 4F       		.byte	0x4f
 3664 04e5 8C000000 		.4byte	0x8c
 3665 04e9 AF200000 		.4byte	.LLST65
 3666 04ed 08       		.uleb128 0x8
 3667 04ee 45737500 		.ascii	"Esu\000"
 3668 04f2 01       		.byte	0x1
 3669 04f3 4F       		.byte	0x4f
 3670 04f4 8C000000 		.4byte	0x8c
 3671 04f8 D4200000 		.4byte	.LLST66
 3672 04fc 00       		.byte	0
 3673 04fd 05       		.uleb128 0x5
 3674 04fe 04       		.byte	0x4
 3675 04ff 8C000000 		.4byte	0x8c
 3676 0503 0E       		.uleb128 0xe
 3677 0504 6B020000 		.4byte	.LASF21
 3678 0508 01       		.byte	0x1
 3679 0509 4E01     		.2byte	0x14e
 3680 050b 00000000 		.4byte	.LFB3
 3681 050f FA000000 		.4byte	.LFE3-.LFB3
 3682 0513 01       		.uleb128 0x1
 3683 0514 9C       		.byte	0x9c
 3684 0515 BE050000 		.4byte	0x5be
ARM GAS  C:\Users\bogur\AppData\Local\Temp\ccXFXavo.s 			page 75


 3685 0519 0F       		.uleb128 0xf
 3686 051a 7300     		.ascii	"s\000"
 3687 051c 01       		.byte	0x1
 3688 051d 4E01     		.2byte	0x14e
 3689 051f FD040000 		.4byte	0x4fd
 3690 0523 F9200000 		.4byte	.LLST67
 3691 0527 0F       		.uleb128 0xf
 3692 0528 7200     		.ascii	"r\000"
 3693 052a 01       		.byte	0x1
 3694 052b 4F01     		.2byte	0x14f
 3695 052d 7A000000 		.4byte	0x7a
 3696 0531 17210000 		.4byte	.LLST68
 3697 0535 0F       		.uleb128 0xf
 3698 0536 6D00     		.ascii	"m\000"
 3699 0538 01       		.byte	0x1
 3700 0539 5001     		.2byte	0x150
 3701 053b FE000000 		.4byte	0xfe
 3702 053f 4B210000 		.4byte	.LLST69
 3703 0543 10       		.uleb128 0x10
 3704 0544 E9000000 		.4byte	.LASF22
 3705 0548 01       		.byte	0x1
 3706 0549 5001     		.2byte	0x150
 3707 054b 25000000 		.4byte	0x25
 3708 054f 69210000 		.4byte	.LLST70
 3709 0553 11       		.uleb128 0x11
 3710 0554 7000     		.ascii	"p\000"
 3711 0556 01       		.byte	0x1
 3712 0557 5101     		.2byte	0x151
 3713 0559 3E000000 		.4byte	0x3e
 3714 055d 02       		.uleb128 0x2
 3715 055e 91       		.byte	0x91
 3716 055f 08       		.sleb128 8
 3717 0560 12       		.uleb128 0x12
 3718 0561 6900     		.ascii	"i\000"
 3719 0563 01       		.byte	0x1
 3720 0564 5301     		.2byte	0x153
 3721 0566 25000000 		.4byte	0x25
 3722 056a B5210000 		.4byte	.LLST71
 3723 056e 13       		.uleb128 0x13
 3724 056f 7400     		.ascii	"t\000"
 3725 0571 01       		.byte	0x1
 3726 0572 5401     		.2byte	0x154
 3727 0574 BE050000 		.4byte	0x5be
 3728 0578 03       		.uleb128 0x3
 3729 0579 91       		.byte	0x91
 3730 057a 907E     		.sleb128 -240
 3731 057c 14       		.uleb128 0x14
 3732 057d 16000000 		.4byte	.LVL529
 3733 0581 BD000000 		.4byte	0xbd
 3734 0585 93050000 		.4byte	0x593
 3735 0589 15       		.uleb128 0x15
 3736 058a 01       		.uleb128 0x1
 3737 058b 50       		.byte	0x50
 3738 058c 05       		.uleb128 0x5
 3739 058d 75       		.byte	0x75
 3740 058e 00       		.sleb128 0
 3741 058f 74       		.byte	0x74
ARM GAS  C:\Users\bogur\AppData\Local\Temp\ccXFXavo.s 			page 76


 3742 0590 00       		.sleb128 0
 3743 0591 22       		.byte	0x22
 3744 0592 00       		.byte	0
 3745 0593 14       		.uleb128 0x14
 3746 0594 44000000 		.4byte	.LVL534
 3747 0598 4A010000 		.4byte	0x14a
 3748 059c A7050000 		.4byte	0x5a7
 3749 05a0 15       		.uleb128 0x15
 3750 05a1 01       		.uleb128 0x1
 3751 05a2 50       		.byte	0x50
 3752 05a3 02       		.uleb128 0x2
 3753 05a4 7B       		.byte	0x7b
 3754 05a5 00       		.sleb128 0
 3755 05a6 00       		.byte	0
 3756 05a7 16       		.uleb128 0x16
 3757 05a8 D2000000 		.4byte	.LVL548
 3758 05ac BD000000 		.4byte	0xbd
 3759 05b0 15       		.uleb128 0x15
 3760 05b1 01       		.uleb128 0x1
 3761 05b2 50       		.byte	0x50
 3762 05b3 08       		.uleb128 0x8
 3763 05b4 91       		.byte	0x91
 3764 05b5 00       		.sleb128 0
 3765 05b6 74       		.byte	0x74
 3766 05b7 00       		.sleb128 0
 3767 05b8 22       		.byte	0x22
 3768 05b9 08       		.byte	0x8
 3769 05ba F0       		.byte	0xf0
 3770 05bb 1C       		.byte	0x1c
 3771 05bc 00       		.byte	0
 3772 05bd 00       		.byte	0
 3773 05be 17       		.uleb128 0x17
 3774 05bf 3E000000 		.4byte	0x3e
 3775 05c3 CE050000 		.4byte	0x5ce
 3776 05c7 18       		.uleb128 0x18
 3777 05c8 A9000000 		.4byte	0xa9
 3778 05cc C7       		.byte	0xc7
 3779 05cd 00       		.byte	0
 3780 05ce 0E       		.uleb128 0xe
 3781 05cf 73000000 		.4byte	.LASF23
 3782 05d3 01       		.byte	0x1
 3783 05d4 6A01     		.2byte	0x16a
 3784 05d6 00000000 		.4byte	.LFB4
 3785 05da 48000000 		.4byte	.LFE4-.LFB4
 3786 05de 01       		.uleb128 0x1
 3787 05df 9C       		.byte	0x9c
 3788 05e0 54060000 		.4byte	0x654
 3789 05e4 0F       		.uleb128 0xf
 3790 05e5 6800     		.ascii	"h\000"
 3791 05e7 01       		.byte	0x1
 3792 05e8 6A01     		.2byte	0x16a
 3793 05ea B7000000 		.4byte	0xb7
 3794 05ee 61220000 		.4byte	.LLST72
 3795 05f2 10       		.uleb128 0x10
 3796 05f3 8E020000 		.4byte	.LASF24
 3797 05f7 01       		.byte	0x1
 3798 05f8 6A01     		.2byte	0x16a
ARM GAS  C:\Users\bogur\AppData\Local\Temp\ccXFXavo.s 			page 77


 3799 05fa 25000000 		.4byte	0x25
 3800 05fe 7F220000 		.4byte	.LLST73
 3801 0602 11       		.uleb128 0x11
 3802 0603 7300     		.ascii	"s\000"
 3803 0605 01       		.byte	0x1
 3804 0606 6B01     		.2byte	0x16b
 3805 0608 FD040000 		.4byte	0x4fd
 3806 060c 02       		.uleb128 0x2
 3807 060d 91       		.byte	0x91
 3808 060e 00       		.sleb128 0
 3809 060f 11       		.uleb128 0x11
 3810 0610 7200     		.ascii	"r\000"
 3811 0612 01       		.byte	0x1
 3812 0613 6C01     		.2byte	0x16c
 3813 0615 7A000000 		.4byte	0x7a
 3814 0619 02       		.uleb128 0x2
 3815 061a 91       		.byte	0x91
 3816 061b 04       		.sleb128 4
 3817 061c 12       		.uleb128 0x12
 3818 061d 6900     		.ascii	"i\000"
 3819 061f 01       		.byte	0x1
 3820 0620 6E01     		.2byte	0x16e
 3821 0622 7A000000 		.4byte	0x7a
 3822 0626 B7220000 		.4byte	.LLST74
 3823 062a 14       		.uleb128 0x14
 3824 062b 18000000 		.4byte	.LVL553
 3825 062f 4A010000 		.4byte	0x14a
 3826 0633 3E060000 		.4byte	0x63e
 3827 0637 15       		.uleb128 0x15
 3828 0638 01       		.uleb128 0x1
 3829 0639 50       		.byte	0x50
 3830 063a 02       		.uleb128 0x2
 3831 063b 79       		.byte	0x79
 3832 063c 00       		.sleb128 0
 3833 063d 00       		.byte	0
 3834 063e 16       		.uleb128 0x16
 3835 063f 2C000000 		.4byte	.LVL555
 3836 0643 09010000 		.4byte	0x109
 3837 0647 15       		.uleb128 0x15
 3838 0648 01       		.uleb128 0x1
 3839 0649 50       		.byte	0x50
 3840 064a 07       		.uleb128 0x7
 3841 064b 74       		.byte	0x74
 3842 064c 00       		.sleb128 0
 3843 064d 33       		.byte	0x33
 3844 064e 24       		.byte	0x24
 3845 064f 78       		.byte	0x78
 3846 0650 00       		.sleb128 0
 3847 0651 22       		.byte	0x22
 3848 0652 00       		.byte	0
 3849 0653 00       		.byte	0
 3850 0654 19       		.uleb128 0x19
 3851 0655 50020000 		.4byte	.LASF29
 3852 0659 01       		.byte	0x1
 3853 065a 8201     		.2byte	0x182
 3854 065c 00000000 		.4byte	.LFB5
 3855 0660 CA000000 		.4byte	.LFE5-.LFB5
ARM GAS  C:\Users\bogur\AppData\Local\Temp\ccXFXavo.s 			page 78


 3856 0664 01       		.uleb128 0x1
 3857 0665 9C       		.byte	0x9c
 3858 0666 56070000 		.4byte	0x756
 3859 066a 10       		.uleb128 0x10
 3860 066b EE000000 		.4byte	.LASF25
 3861 066f 01       		.byte	0x1
 3862 0670 8201     		.2byte	0x182
 3863 0672 B7000000 		.4byte	0xb7
 3864 0676 D6220000 		.4byte	.LLST75
 3865 067a 10       		.uleb128 0x10
 3866 067b 96020000 		.4byte	.LASF26
 3867 067f 01       		.byte	0x1
 3868 0680 8201     		.2byte	0x182
 3869 0682 25000000 		.4byte	0x25
 3870 0686 04230000 		.4byte	.LLST76
 3871 068a 1A       		.uleb128 0x1a
 3872 068b 59020000 		.4byte	.LASF27
 3873 068f 01       		.byte	0x1
 3874 0690 8301     		.2byte	0x183
 3875 0692 FE000000 		.4byte	0xfe
 3876 0696 02       		.uleb128 0x2
 3877 0697 91       		.byte	0x91
 3878 0698 00       		.sleb128 0
 3879 0699 10       		.uleb128 0x10
 3880 069a A8000000 		.4byte	.LASF28
 3881 069e 01       		.byte	0x1
 3882 069f 8301     		.2byte	0x183
 3883 06a1 25000000 		.4byte	0x25
 3884 06a5 3C230000 		.4byte	.LLST77
 3885 06a9 13       		.uleb128 0x13
 3886 06aa 7300     		.ascii	"s\000"
 3887 06ac 01       		.byte	0x1
 3888 06ad 8501     		.2byte	0x185
 3889 06af 56070000 		.4byte	0x756
 3890 06b3 03       		.uleb128 0x3
 3891 06b4 91       		.byte	0x91
 3892 06b5 987E     		.sleb128 -232
 3893 06b7 13       		.uleb128 0x13
 3894 06b8 7400     		.ascii	"t\000"
 3895 06ba 01       		.byte	0x1
 3896 06bb 8601     		.2byte	0x186
 3897 06bd 66070000 		.4byte	0x766
 3898 06c1 03       		.uleb128 0x3
 3899 06c2 91       		.byte	0x91
 3900 06c3 F07C     		.sleb128 -400
 3901 06c5 1B       		.uleb128 0x1b
 3902 06c6 8E020000 		.4byte	.LASF24
 3903 06ca 01       		.byte	0x1
 3904 06cb 8701     		.2byte	0x187
 3905 06cd 25000000 		.4byte	0x25
 3906 06d1 68230000 		.4byte	.LLST78
 3907 06d5 12       		.uleb128 0x12
 3908 06d6 6900     		.ascii	"i\000"
 3909 06d8 01       		.byte	0x1
 3910 06d9 8801     		.2byte	0x188
 3911 06db 97000000 		.4byte	0x97
 3912 06df 80230000 		.4byte	.LLST79
ARM GAS  C:\Users\bogur\AppData\Local\Temp\ccXFXavo.s 			page 79


 3913 06e3 14       		.uleb128 0x14
 3914 06e4 50000000 		.4byte	.LVL569
 3915 06e8 03050000 		.4byte	0x503
 3916 06ec 14070000 		.4byte	0x714
 3917 06f0 15       		.uleb128 0x15
 3918 06f1 01       		.uleb128 0x1
 3919 06f2 50       		.byte	0x50
 3920 06f3 02       		.uleb128 0x2
 3921 06f4 7A       		.byte	0x7a
 3922 06f5 00       		.sleb128 0
 3923 06f6 15       		.uleb128 0x15
 3924 06f7 01       		.uleb128 0x1
 3925 06f8 51       		.byte	0x51
 3926 06f9 02       		.uleb128 0x2
 3927 06fa 08       		.byte	0x8
 3928 06fb A8       		.byte	0xa8
 3929 06fc 15       		.uleb128 0x15
 3930 06fd 01       		.uleb128 0x1
 3931 06fe 52       		.byte	0x52
 3932 06ff 03       		.uleb128 0x3
 3933 0700 91       		.byte	0x91
 3934 0701 00       		.sleb128 0
 3935 0702 06       		.byte	0x6
 3936 0703 15       		.uleb128 0x15
 3937 0704 02       		.uleb128 0x2
 3938 0705 7D       		.byte	0x7d
 3939 0706 00       		.sleb128 0
 3940 0707 05       		.uleb128 0x5
 3941 0708 91       		.byte	0x91
 3942 0709 08       		.sleb128 8
 3943 070a F6       		.byte	0xf6
 3944 070b 08       		.byte	0x8
 3945 070c 25       		.uleb128 0x25
 3946 070d 15       		.uleb128 0x15
 3947 070e 02       		.uleb128 0x2
 3948 070f 7D       		.byte	0x7d
 3949 0710 08       		.sleb128 8
 3950 0711 01       		.uleb128 0x1
 3951 0712 4F       		.byte	0x4f
 3952 0713 00       		.byte	0
 3953 0714 14       		.uleb128 0x14
 3954 0715 66000000 		.4byte	.LVL570
 3955 0719 CE050000 		.4byte	0x5ce
 3956 071d 36070000 		.4byte	0x736
 3957 0721 15       		.uleb128 0x15
 3958 0722 01       		.uleb128 0x1
 3959 0723 50       		.byte	0x50
 3960 0724 02       		.uleb128 0x2
 3961 0725 79       		.byte	0x79
 3962 0726 00       		.sleb128 0
 3963 0727 15       		.uleb128 0x15
 3964 0728 02       		.uleb128 0x2
 3965 0729 7D       		.byte	0x7d
 3966 072a 00       		.sleb128 0
 3967 072b 02       		.uleb128 0x2
 3968 072c 7A       		.byte	0x7a
 3969 072d 00       		.sleb128 0
ARM GAS  C:\Users\bogur\AppData\Local\Temp\ccXFXavo.s 			page 80


 3970 072e 15       		.uleb128 0x15
 3971 072f 02       		.uleb128 0x2
 3972 0730 7D       		.byte	0x7d
 3973 0731 04       		.sleb128 4
 3974 0732 02       		.uleb128 0x2
 3975 0733 78       		.byte	0x78
 3976 0734 00       		.sleb128 0
 3977 0735 00       		.byte	0
 3978 0736 16       		.uleb128 0x16
 3979 0737 A8000000 		.4byte	.LVL574
 3980 073b CE050000 		.4byte	0x5ce
 3981 073f 15       		.uleb128 0x15
 3982 0740 01       		.uleb128 0x1
 3983 0741 50       		.byte	0x50
 3984 0742 03       		.uleb128 0x3
 3985 0743 91       		.byte	0x91
 3986 0744 F07C     		.sleb128 -400
 3987 0746 15       		.uleb128 0x15
 3988 0747 02       		.uleb128 0x2
 3989 0748 7D       		.byte	0x7d
 3990 0749 00       		.sleb128 0
 3991 074a 02       		.uleb128 0x2
 3992 074b 7A       		.byte	0x7a
 3993 074c 00       		.sleb128 0
 3994 074d 15       		.uleb128 0x15
 3995 074e 02       		.uleb128 0x2
 3996 074f 7D       		.byte	0x7d
 3997 0750 04       		.sleb128 4
 3998 0751 02       		.uleb128 0x2
 3999 0752 08       		.byte	0x8
 4000 0753 A8       		.byte	0xa8
 4001 0754 00       		.byte	0
 4002 0755 00       		.byte	0
 4003 0756 17       		.uleb128 0x17
 4004 0757 8C000000 		.4byte	0x8c
 4005 075b 66070000 		.4byte	0x766
 4006 075f 18       		.uleb128 0x18
 4007 0760 A9000000 		.4byte	0xa9
 4008 0764 18       		.byte	0x18
 4009 0765 00       		.byte	0
 4010 0766 17       		.uleb128 0x17
 4011 0767 3E000000 		.4byte	0x3e
 4012 076b 76070000 		.4byte	0x776
 4013 076f 18       		.uleb128 0x18
 4014 0770 A9000000 		.4byte	0xa9
 4015 0774 A7       		.byte	0xa7
 4016 0775 00       		.byte	0
 4017 0776 1C       		.uleb128 0x1c
 4018 0777 CD000000 		.4byte	.LASF30
 4019 077b 01       		.byte	0x1
 4020 077c D301     		.2byte	0x1d3
 4021 077e 00000000 		.4byte	.LFB6
 4022 0782 5E000000 		.4byte	.LFE6-.LFB6
 4023 0786 01       		.uleb128 0x1
 4024 0787 9C       		.byte	0x9c
 4025 0788 35080000 		.4byte	0x835
 4026 078c 10       		.uleb128 0x10
ARM GAS  C:\Users\bogur\AppData\Local\Temp\ccXFXavo.s 			page 81


 4027 078d EE000000 		.4byte	.LASF25
 4028 0791 01       		.byte	0x1
 4029 0792 D301     		.2byte	0x1d3
 4030 0794 B7000000 		.4byte	0xb7
 4031 0798 B6230000 		.4byte	.LLST80
 4032 079c 10       		.uleb128 0x10
 4033 079d 59020000 		.4byte	.LASF27
 4034 07a1 01       		.byte	0x1
 4035 07a2 D301     		.2byte	0x1d3
 4036 07a4 FE000000 		.4byte	0xfe
 4037 07a8 D4230000 		.4byte	.LLST81
 4038 07ac 10       		.uleb128 0x10
 4039 07ad A8000000 		.4byte	.LASF28
 4040 07b1 01       		.byte	0x1
 4041 07b2 D301     		.2byte	0x1d3
 4042 07b4 25000000 		.4byte	0x25
 4043 07b8 00240000 		.4byte	.LLST82
 4044 07bc 13       		.uleb128 0x13
 4045 07bd 7300     		.ascii	"s\000"
 4046 07bf 01       		.byte	0x1
 4047 07c0 D501     		.2byte	0x1d5
 4048 07c2 56070000 		.4byte	0x756
 4049 07c6 03       		.uleb128 0x3
 4050 07c7 91       		.byte	0x91
 4051 07c8 A07E     		.sleb128 -224
 4052 07ca 13       		.uleb128 0x13
 4053 07cb 7400     		.ascii	"t\000"
 4054 07cd 01       		.byte	0x1
 4055 07ce D601     		.2byte	0x1d6
 4056 07d0 35080000 		.4byte	0x835
 4057 07d4 03       		.uleb128 0x3
 4058 07d5 91       		.byte	0x91
 4059 07d6 987D     		.sleb128 -360
 4060 07d8 12       		.uleb128 0x12
 4061 07d9 6900     		.ascii	"i\000"
 4062 07db 01       		.byte	0x1
 4063 07dc D701     		.2byte	0x1d7
 4064 07de 97000000 		.4byte	0x97
 4065 07e2 28240000 		.4byte	.LLST83
 4066 07e6 14       		.uleb128 0x14
 4067 07e7 38000000 		.4byte	.LVL584
 4068 07eb 03050000 		.4byte	0x503
 4069 07ef 15080000 		.4byte	0x815
 4070 07f3 15       		.uleb128 0x15
 4071 07f4 01       		.uleb128 0x1
 4072 07f5 50       		.byte	0x50
 4073 07f6 02       		.uleb128 0x2
 4074 07f7 74       		.byte	0x74
 4075 07f8 00       		.sleb128 0
 4076 07f9 15       		.uleb128 0x15
 4077 07fa 01       		.uleb128 0x1
 4078 07fb 51       		.byte	0x51
 4079 07fc 02       		.uleb128 0x2
 4080 07fd 08       		.byte	0x8
 4081 07fe 88       		.byte	0x88
 4082 07ff 15       		.uleb128 0x15
 4083 0800 01       		.uleb128 0x1
ARM GAS  C:\Users\bogur\AppData\Local\Temp\ccXFXavo.s 			page 82


 4084 0801 52       		.byte	0x52
 4085 0802 03       		.uleb128 0x3
 4086 0803 F3       		.byte	0xf3
 4087 0804 01       		.uleb128 0x1
 4088 0805 51       		.byte	0x51
 4089 0806 15       		.uleb128 0x15
 4090 0807 02       		.uleb128 0x2
 4091 0808 7D       		.byte	0x7d
 4092 0809 00       		.sleb128 0
 4093 080a 03       		.uleb128 0x3
 4094 080b F5       		.byte	0xf5
 4095 080c 08       		.uleb128 0x8
 4096 080d 25       		.uleb128 0x25
 4097 080e 15       		.uleb128 0x15
 4098 080f 02       		.uleb128 0x2
 4099 0810 7D       		.byte	0x7d
 4100 0811 08       		.sleb128 8
 4101 0812 01       		.uleb128 0x1
 4102 0813 36       		.byte	0x36
 4103 0814 00       		.byte	0
 4104 0815 16       		.uleb128 0x16
 4105 0816 48000000 		.4byte	.LVL585
 4106 081a CE050000 		.4byte	0x5ce
 4107 081e 15       		.uleb128 0x15
 4108 081f 01       		.uleb128 0x1
 4109 0820 50       		.byte	0x50
 4110 0821 03       		.uleb128 0x3
 4111 0822 91       		.byte	0x91
 4112 0823 987D     		.sleb128 -360
 4113 0825 15       		.uleb128 0x15
 4114 0826 02       		.uleb128 0x2
 4115 0827 7D       		.byte	0x7d
 4116 0828 00       		.sleb128 0
 4117 0829 02       		.uleb128 0x2
 4118 082a 74       		.byte	0x74
 4119 082b 00       		.sleb128 0
 4120 082c 15       		.uleb128 0x15
 4121 082d 02       		.uleb128 0x2
 4122 082e 7D       		.byte	0x7d
 4123 082f 04       		.sleb128 4
 4124 0830 02       		.uleb128 0x2
 4125 0831 08       		.byte	0x8
 4126 0832 88       		.byte	0x88
 4127 0833 00       		.byte	0
 4128 0834 00       		.byte	0
 4129 0835 17       		.uleb128 0x17
 4130 0836 3E000000 		.4byte	0x3e
 4131 083a 45080000 		.4byte	0x845
 4132 083e 18       		.uleb128 0x18
 4133 083f A9000000 		.4byte	0xa9
 4134 0843 87       		.byte	0x87
 4135 0844 00       		.byte	0
 4136 0845 1C       		.uleb128 0x1c
 4137 0846 9F000000 		.4byte	.LASF31
 4138 084a 01       		.byte	0x1
 4139 084b E601     		.2byte	0x1e6
 4140 084d 00000000 		.4byte	.LFB7
ARM GAS  C:\Users\bogur\AppData\Local\Temp\ccXFXavo.s 			page 83


 4141 0851 5E000000 		.4byte	.LFE7-.LFB7
 4142 0855 01       		.uleb128 0x1
 4143 0856 9C       		.byte	0x9c
 4144 0857 04090000 		.4byte	0x904
 4145 085b 10       		.uleb128 0x10
 4146 085c EE000000 		.4byte	.LASF25
 4147 0860 01       		.byte	0x1
 4148 0861 E601     		.2byte	0x1e6
 4149 0863 B7000000 		.4byte	0xb7
 4150 0867 5E240000 		.4byte	.LLST84
 4151 086b 10       		.uleb128 0x10
 4152 086c 59020000 		.4byte	.LASF27
 4153 0870 01       		.byte	0x1
 4154 0871 E601     		.2byte	0x1e6
 4155 0873 FE000000 		.4byte	0xfe
 4156 0877 7C240000 		.4byte	.LLST85
 4157 087b 10       		.uleb128 0x10
 4158 087c A8000000 		.4byte	.LASF28
 4159 0880 01       		.byte	0x1
 4160 0881 E601     		.2byte	0x1e6
 4161 0883 25000000 		.4byte	0x25
 4162 0887 A8240000 		.4byte	.LLST86
 4163 088b 13       		.uleb128 0x13
 4164 088c 7300     		.ascii	"s\000"
 4165 088e 01       		.byte	0x1
 4166 088f E801     		.2byte	0x1e8
 4167 0891 56070000 		.4byte	0x756
 4168 0895 03       		.uleb128 0x3
 4169 0896 91       		.byte	0x91
 4170 0897 987E     		.sleb128 -232
 4171 0899 13       		.uleb128 0x13
 4172 089a 7400     		.ascii	"t\000"
 4173 089c 01       		.byte	0x1
 4174 089d E901     		.2byte	0x1e9
 4175 089f 04090000 		.4byte	0x904
 4176 08a3 03       		.uleb128 0x3
 4177 08a4 91       		.byte	0x91
 4178 08a5 D07D     		.sleb128 -304
 4179 08a7 12       		.uleb128 0x12
 4180 08a8 6900     		.ascii	"i\000"
 4181 08aa 01       		.byte	0x1
 4182 08ab EA01     		.2byte	0x1ea
 4183 08ad 97000000 		.4byte	0x97
 4184 08b1 D0240000 		.4byte	.LLST87
 4185 08b5 14       		.uleb128 0x14
 4186 08b6 38000000 		.4byte	.LVL594
 4187 08ba 03050000 		.4byte	0x503
 4188 08be E4080000 		.4byte	0x8e4
 4189 08c2 15       		.uleb128 0x15
 4190 08c3 01       		.uleb128 0x1
 4191 08c4 50       		.byte	0x50
 4192 08c5 02       		.uleb128 0x2
 4193 08c6 75       		.byte	0x75
 4194 08c7 00       		.sleb128 0
 4195 08c8 15       		.uleb128 0x15
 4196 08c9 01       		.uleb128 0x1
 4197 08ca 51       		.byte	0x51
ARM GAS  C:\Users\bogur\AppData\Local\Temp\ccXFXavo.s 			page 84


 4198 08cb 02       		.uleb128 0x2
 4199 08cc 08       		.byte	0x8
 4200 08cd 48       		.byte	0x48
 4201 08ce 15       		.uleb128 0x15
 4202 08cf 01       		.uleb128 0x1
 4203 08d0 52       		.byte	0x52
 4204 08d1 03       		.uleb128 0x3
 4205 08d2 F3       		.byte	0xf3
 4206 08d3 01       		.uleb128 0x1
 4207 08d4 51       		.byte	0x51
 4208 08d5 15       		.uleb128 0x15
 4209 08d6 02       		.uleb128 0x2
 4210 08d7 7D       		.byte	0x7d
 4211 08d8 00       		.sleb128 0
 4212 08d9 03       		.uleb128 0x3
 4213 08da F5       		.byte	0xf5
 4214 08db 08       		.uleb128 0x8
 4215 08dc 25       		.uleb128 0x25
 4216 08dd 15       		.uleb128 0x15
 4217 08de 02       		.uleb128 0x2
 4218 08df 7D       		.byte	0x7d
 4219 08e0 08       		.sleb128 8
 4220 08e1 01       		.uleb128 0x1
 4221 08e2 36       		.byte	0x36
 4222 08e3 00       		.byte	0
 4223 08e4 16       		.uleb128 0x16
 4224 08e5 48000000 		.4byte	.LVL595
 4225 08e9 CE050000 		.4byte	0x5ce
 4226 08ed 15       		.uleb128 0x15
 4227 08ee 01       		.uleb128 0x1
 4228 08ef 50       		.byte	0x50
 4229 08f0 03       		.uleb128 0x3
 4230 08f1 91       		.byte	0x91
 4231 08f2 D07D     		.sleb128 -304
 4232 08f4 15       		.uleb128 0x15
 4233 08f5 02       		.uleb128 0x2
 4234 08f6 7D       		.byte	0x7d
 4235 08f7 00       		.sleb128 0
 4236 08f8 02       		.uleb128 0x2
 4237 08f9 75       		.byte	0x75
 4238 08fa 00       		.sleb128 0
 4239 08fb 15       		.uleb128 0x15
 4240 08fc 02       		.uleb128 0x2
 4241 08fd 7D       		.byte	0x7d
 4242 08fe 04       		.sleb128 4
 4243 08ff 02       		.uleb128 0x2
 4244 0900 08       		.byte	0x8
 4245 0901 48       		.byte	0x48
 4246 0902 00       		.byte	0
 4247 0903 00       		.byte	0
 4248 0904 17       		.uleb128 0x17
 4249 0905 3E000000 		.4byte	0x3e
 4250 0909 14090000 		.4byte	0x914
 4251 090d 18       		.uleb128 0x18
 4252 090e A9000000 		.4byte	0xa9
 4253 0912 47       		.byte	0x47
 4254 0913 00       		.byte	0
ARM GAS  C:\Users\bogur\AppData\Local\Temp\ccXFXavo.s 			page 85


 4255 0914 17       		.uleb128 0x17
 4256 0915 24090000 		.4byte	0x924
 4257 0919 24090000 		.4byte	0x924
 4258 091d 18       		.uleb128 0x18
 4259 091e A9000000 		.4byte	0xa9
 4260 0922 17       		.byte	0x17
 4261 0923 00       		.byte	0
 4262 0924 09       		.uleb128 0x9
 4263 0925 8C000000 		.4byte	0x8c
 4264 0929 1D       		.uleb128 0x1d
 4265 092a 88000000 		.4byte	.LASF32
 4266 092e 01       		.byte	0x1
 4267 092f 25       		.byte	0x25
 4268 0930 3A090000 		.4byte	0x93a
 4269 0934 05       		.uleb128 0x5
 4270 0935 03       		.byte	0x3
 4271 0936 00000000 		.4byte	KeccakF_RoundConstants
 4272 093a 09       		.uleb128 0x9
 4273 093b 14090000 		.4byte	0x914
 4274 093f 00       		.byte	0
 4275              		.section	.debug_abbrev,"",%progbits
 4276              	.Ldebug_abbrev0:
 4277 0000 01       		.uleb128 0x1
 4278 0001 11       		.uleb128 0x11
 4279 0002 01       		.byte	0x1
 4280 0003 25       		.uleb128 0x25
 4281 0004 0E       		.uleb128 0xe
 4282 0005 13       		.uleb128 0x13
 4283 0006 0B       		.uleb128 0xb
 4284 0007 03       		.uleb128 0x3
 4285 0008 0E       		.uleb128 0xe
 4286 0009 1B       		.uleb128 0x1b
 4287 000a 0E       		.uleb128 0xe
 4288 000b 55       		.uleb128 0x55
 4289 000c 17       		.uleb128 0x17
 4290 000d 11       		.uleb128 0x11
 4291 000e 01       		.uleb128 0x1
 4292 000f 10       		.uleb128 0x10
 4293 0010 17       		.uleb128 0x17
 4294 0011 00       		.byte	0
 4295 0012 00       		.byte	0
 4296 0013 02       		.uleb128 0x2
 4297 0014 24       		.uleb128 0x24
 4298 0015 00       		.byte	0
 4299 0016 0B       		.uleb128 0xb
 4300 0017 0B       		.uleb128 0xb
 4301 0018 3E       		.uleb128 0x3e
 4302 0019 0B       		.uleb128 0xb
 4303 001a 03       		.uleb128 0x3
 4304 001b 0E       		.uleb128 0xe
 4305 001c 00       		.byte	0
 4306 001d 00       		.byte	0
 4307 001e 03       		.uleb128 0x3
 4308 001f 16       		.uleb128 0x16
 4309 0020 00       		.byte	0
 4310 0021 03       		.uleb128 0x3
 4311 0022 0E       		.uleb128 0xe
ARM GAS  C:\Users\bogur\AppData\Local\Temp\ccXFXavo.s 			page 86


 4312 0023 3A       		.uleb128 0x3a
 4313 0024 0B       		.uleb128 0xb
 4314 0025 3B       		.uleb128 0x3b
 4315 0026 0B       		.uleb128 0xb
 4316 0027 49       		.uleb128 0x49
 4317 0028 13       		.uleb128 0x13
 4318 0029 00       		.byte	0
 4319 002a 00       		.byte	0
 4320 002b 04       		.uleb128 0x4
 4321 002c 24       		.uleb128 0x24
 4322 002d 00       		.byte	0
 4323 002e 0B       		.uleb128 0xb
 4324 002f 0B       		.uleb128 0xb
 4325 0030 3E       		.uleb128 0x3e
 4326 0031 0B       		.uleb128 0xb
 4327 0032 03       		.uleb128 0x3
 4328 0033 08       		.uleb128 0x8
 4329 0034 00       		.byte	0
 4330 0035 00       		.byte	0
 4331 0036 05       		.uleb128 0x5
 4332 0037 0F       		.uleb128 0xf
 4333 0038 00       		.byte	0
 4334 0039 0B       		.uleb128 0xb
 4335 003a 0B       		.uleb128 0xb
 4336 003b 49       		.uleb128 0x49
 4337 003c 13       		.uleb128 0x13
 4338 003d 00       		.byte	0
 4339 003e 00       		.byte	0
 4340 003f 06       		.uleb128 0x6
 4341 0040 2E       		.uleb128 0x2e
 4342 0041 01       		.byte	0x1
 4343 0042 03       		.uleb128 0x3
 4344 0043 0E       		.uleb128 0xe
 4345 0044 3A       		.uleb128 0x3a
 4346 0045 0B       		.uleb128 0xb
 4347 0046 3B       		.uleb128 0x3b
 4348 0047 0B       		.uleb128 0xb
 4349 0048 27       		.uleb128 0x27
 4350 0049 19       		.uleb128 0x19
 4351 004a 49       		.uleb128 0x49
 4352 004b 13       		.uleb128 0x13
 4353 004c 11       		.uleb128 0x11
 4354 004d 01       		.uleb128 0x1
 4355 004e 12       		.uleb128 0x12
 4356 004f 06       		.uleb128 0x6
 4357 0050 40       		.uleb128 0x40
 4358 0051 18       		.uleb128 0x18
 4359 0052 9742     		.uleb128 0x2117
 4360 0054 19       		.uleb128 0x19
 4361 0055 01       		.uleb128 0x1
 4362 0056 13       		.uleb128 0x13
 4363 0057 00       		.byte	0
 4364 0058 00       		.byte	0
 4365 0059 07       		.uleb128 0x7
 4366 005a 05       		.uleb128 0x5
 4367 005b 00       		.byte	0
 4368 005c 03       		.uleb128 0x3
ARM GAS  C:\Users\bogur\AppData\Local\Temp\ccXFXavo.s 			page 87


 4369 005d 08       		.uleb128 0x8
 4370 005e 3A       		.uleb128 0x3a
 4371 005f 0B       		.uleb128 0xb
 4372 0060 3B       		.uleb128 0x3b
 4373 0061 0B       		.uleb128 0xb
 4374 0062 49       		.uleb128 0x49
 4375 0063 13       		.uleb128 0x13
 4376 0064 02       		.uleb128 0x2
 4377 0065 17       		.uleb128 0x17
 4378 0066 00       		.byte	0
 4379 0067 00       		.byte	0
 4380 0068 08       		.uleb128 0x8
 4381 0069 34       		.uleb128 0x34
 4382 006a 00       		.byte	0
 4383 006b 03       		.uleb128 0x3
 4384 006c 08       		.uleb128 0x8
 4385 006d 3A       		.uleb128 0x3a
 4386 006e 0B       		.uleb128 0xb
 4387 006f 3B       		.uleb128 0x3b
 4388 0070 0B       		.uleb128 0xb
 4389 0071 49       		.uleb128 0x49
 4390 0072 13       		.uleb128 0x13
 4391 0073 02       		.uleb128 0x2
 4392 0074 17       		.uleb128 0x17
 4393 0075 00       		.byte	0
 4394 0076 00       		.byte	0
 4395 0077 09       		.uleb128 0x9
 4396 0078 26       		.uleb128 0x26
 4397 0079 00       		.byte	0
 4398 007a 49       		.uleb128 0x49
 4399 007b 13       		.uleb128 0x13
 4400 007c 00       		.byte	0
 4401 007d 00       		.byte	0
 4402 007e 0A       		.uleb128 0xa
 4403 007f 2E       		.uleb128 0x2e
 4404 0080 01       		.byte	0x1
 4405 0081 03       		.uleb128 0x3
 4406 0082 0E       		.uleb128 0xe
 4407 0083 3A       		.uleb128 0x3a
 4408 0084 0B       		.uleb128 0xb
 4409 0085 3B       		.uleb128 0x3b
 4410 0086 0B       		.uleb128 0xb
 4411 0087 27       		.uleb128 0x27
 4412 0088 19       		.uleb128 0x19
 4413 0089 11       		.uleb128 0x11
 4414 008a 01       		.uleb128 0x1
 4415 008b 12       		.uleb128 0x12
 4416 008c 06       		.uleb128 0x6
 4417 008d 40       		.uleb128 0x40
 4418 008e 18       		.uleb128 0x18
 4419 008f 9742     		.uleb128 0x2117
 4420 0091 19       		.uleb128 0x19
 4421 0092 01       		.uleb128 0x1
 4422 0093 13       		.uleb128 0x13
 4423 0094 00       		.byte	0
 4424 0095 00       		.byte	0
 4425 0096 0B       		.uleb128 0xb
ARM GAS  C:\Users\bogur\AppData\Local\Temp\ccXFXavo.s 			page 88


 4426 0097 05       		.uleb128 0x5
 4427 0098 00       		.byte	0
 4428 0099 03       		.uleb128 0x3
 4429 009a 08       		.uleb128 0x8
 4430 009b 3A       		.uleb128 0x3a
 4431 009c 0B       		.uleb128 0xb
 4432 009d 3B       		.uleb128 0x3b
 4433 009e 0B       		.uleb128 0xb
 4434 009f 49       		.uleb128 0x49
 4435 00a0 13       		.uleb128 0x13
 4436 00a1 02       		.uleb128 0x2
 4437 00a2 18       		.uleb128 0x18
 4438 00a3 00       		.byte	0
 4439 00a4 00       		.byte	0
 4440 00a5 0C       		.uleb128 0xc
 4441 00a6 05       		.uleb128 0x5
 4442 00a7 00       		.byte	0
 4443 00a8 03       		.uleb128 0x3
 4444 00a9 0E       		.uleb128 0xe
 4445 00aa 3A       		.uleb128 0x3a
 4446 00ab 0B       		.uleb128 0xb
 4447 00ac 3B       		.uleb128 0x3b
 4448 00ad 0B       		.uleb128 0xb
 4449 00ae 49       		.uleb128 0x49
 4450 00af 13       		.uleb128 0x13
 4451 00b0 02       		.uleb128 0x2
 4452 00b1 17       		.uleb128 0x17
 4453 00b2 00       		.byte	0
 4454 00b3 00       		.byte	0
 4455 00b4 0D       		.uleb128 0xd
 4456 00b5 34       		.uleb128 0x34
 4457 00b6 00       		.byte	0
 4458 00b7 03       		.uleb128 0x3
 4459 00b8 0E       		.uleb128 0xe
 4460 00b9 3A       		.uleb128 0x3a
 4461 00ba 0B       		.uleb128 0xb
 4462 00bb 3B       		.uleb128 0x3b
 4463 00bc 0B       		.uleb128 0xb
 4464 00bd 49       		.uleb128 0x49
 4465 00be 13       		.uleb128 0x13
 4466 00bf 02       		.uleb128 0x2
 4467 00c0 17       		.uleb128 0x17
 4468 00c1 00       		.byte	0
 4469 00c2 00       		.byte	0
 4470 00c3 0E       		.uleb128 0xe
 4471 00c4 2E       		.uleb128 0x2e
 4472 00c5 01       		.byte	0x1
 4473 00c6 03       		.uleb128 0x3
 4474 00c7 0E       		.uleb128 0xe
 4475 00c8 3A       		.uleb128 0x3a
 4476 00c9 0B       		.uleb128 0xb
 4477 00ca 3B       		.uleb128 0x3b
 4478 00cb 05       		.uleb128 0x5
 4479 00cc 27       		.uleb128 0x27
 4480 00cd 19       		.uleb128 0x19
 4481 00ce 11       		.uleb128 0x11
 4482 00cf 01       		.uleb128 0x1
ARM GAS  C:\Users\bogur\AppData\Local\Temp\ccXFXavo.s 			page 89


 4483 00d0 12       		.uleb128 0x12
 4484 00d1 06       		.uleb128 0x6
 4485 00d2 40       		.uleb128 0x40
 4486 00d3 18       		.uleb128 0x18
 4487 00d4 9742     		.uleb128 0x2117
 4488 00d6 19       		.uleb128 0x19
 4489 00d7 01       		.uleb128 0x1
 4490 00d8 13       		.uleb128 0x13
 4491 00d9 00       		.byte	0
 4492 00da 00       		.byte	0
 4493 00db 0F       		.uleb128 0xf
 4494 00dc 05       		.uleb128 0x5
 4495 00dd 00       		.byte	0
 4496 00de 03       		.uleb128 0x3
 4497 00df 08       		.uleb128 0x8
 4498 00e0 3A       		.uleb128 0x3a
 4499 00e1 0B       		.uleb128 0xb
 4500 00e2 3B       		.uleb128 0x3b
 4501 00e3 05       		.uleb128 0x5
 4502 00e4 49       		.uleb128 0x49
 4503 00e5 13       		.uleb128 0x13
 4504 00e6 02       		.uleb128 0x2
 4505 00e7 17       		.uleb128 0x17
 4506 00e8 00       		.byte	0
 4507 00e9 00       		.byte	0
 4508 00ea 10       		.uleb128 0x10
 4509 00eb 05       		.uleb128 0x5
 4510 00ec 00       		.byte	0
 4511 00ed 03       		.uleb128 0x3
 4512 00ee 0E       		.uleb128 0xe
 4513 00ef 3A       		.uleb128 0x3a
 4514 00f0 0B       		.uleb128 0xb
 4515 00f1 3B       		.uleb128 0x3b
 4516 00f2 05       		.uleb128 0x5
 4517 00f3 49       		.uleb128 0x49
 4518 00f4 13       		.uleb128 0x13
 4519 00f5 02       		.uleb128 0x2
 4520 00f6 17       		.uleb128 0x17
 4521 00f7 00       		.byte	0
 4522 00f8 00       		.byte	0
 4523 00f9 11       		.uleb128 0x11
 4524 00fa 05       		.uleb128 0x5
 4525 00fb 00       		.byte	0
 4526 00fc 03       		.uleb128 0x3
 4527 00fd 08       		.uleb128 0x8
 4528 00fe 3A       		.uleb128 0x3a
 4529 00ff 0B       		.uleb128 0xb
 4530 0100 3B       		.uleb128 0x3b
 4531 0101 05       		.uleb128 0x5
 4532 0102 49       		.uleb128 0x49
 4533 0103 13       		.uleb128 0x13
 4534 0104 02       		.uleb128 0x2
 4535 0105 18       		.uleb128 0x18
 4536 0106 00       		.byte	0
 4537 0107 00       		.byte	0
 4538 0108 12       		.uleb128 0x12
 4539 0109 34       		.uleb128 0x34
ARM GAS  C:\Users\bogur\AppData\Local\Temp\ccXFXavo.s 			page 90


 4540 010a 00       		.byte	0
 4541 010b 03       		.uleb128 0x3
 4542 010c 08       		.uleb128 0x8
 4543 010d 3A       		.uleb128 0x3a
 4544 010e 0B       		.uleb128 0xb
 4545 010f 3B       		.uleb128 0x3b
 4546 0110 05       		.uleb128 0x5
 4547 0111 49       		.uleb128 0x49
 4548 0112 13       		.uleb128 0x13
 4549 0113 02       		.uleb128 0x2
 4550 0114 17       		.uleb128 0x17
 4551 0115 00       		.byte	0
 4552 0116 00       		.byte	0
 4553 0117 13       		.uleb128 0x13
 4554 0118 34       		.uleb128 0x34
 4555 0119 00       		.byte	0
 4556 011a 03       		.uleb128 0x3
 4557 011b 08       		.uleb128 0x8
 4558 011c 3A       		.uleb128 0x3a
 4559 011d 0B       		.uleb128 0xb
 4560 011e 3B       		.uleb128 0x3b
 4561 011f 05       		.uleb128 0x5
 4562 0120 49       		.uleb128 0x49
 4563 0121 13       		.uleb128 0x13
 4564 0122 02       		.uleb128 0x2
 4565 0123 18       		.uleb128 0x18
 4566 0124 00       		.byte	0
 4567 0125 00       		.byte	0
 4568 0126 14       		.uleb128 0x14
 4569 0127 898201   		.uleb128 0x4109
 4570 012a 01       		.byte	0x1
 4571 012b 11       		.uleb128 0x11
 4572 012c 01       		.uleb128 0x1
 4573 012d 31       		.uleb128 0x31
 4574 012e 13       		.uleb128 0x13
 4575 012f 01       		.uleb128 0x1
 4576 0130 13       		.uleb128 0x13
 4577 0131 00       		.byte	0
 4578 0132 00       		.byte	0
 4579 0133 15       		.uleb128 0x15
 4580 0134 8A8201   		.uleb128 0x410a
 4581 0137 00       		.byte	0
 4582 0138 02       		.uleb128 0x2
 4583 0139 18       		.uleb128 0x18
 4584 013a 9142     		.uleb128 0x2111
 4585 013c 18       		.uleb128 0x18
 4586 013d 00       		.byte	0
 4587 013e 00       		.byte	0
 4588 013f 16       		.uleb128 0x16
 4589 0140 898201   		.uleb128 0x4109
 4590 0143 01       		.byte	0x1
 4591 0144 11       		.uleb128 0x11
 4592 0145 01       		.uleb128 0x1
 4593 0146 31       		.uleb128 0x31
 4594 0147 13       		.uleb128 0x13
 4595 0148 00       		.byte	0
 4596 0149 00       		.byte	0
ARM GAS  C:\Users\bogur\AppData\Local\Temp\ccXFXavo.s 			page 91


 4597 014a 17       		.uleb128 0x17
 4598 014b 01       		.uleb128 0x1
 4599 014c 01       		.byte	0x1
 4600 014d 49       		.uleb128 0x49
 4601 014e 13       		.uleb128 0x13
 4602 014f 01       		.uleb128 0x1
 4603 0150 13       		.uleb128 0x13
 4604 0151 00       		.byte	0
 4605 0152 00       		.byte	0
 4606 0153 18       		.uleb128 0x18
 4607 0154 21       		.uleb128 0x21
 4608 0155 00       		.byte	0
 4609 0156 49       		.uleb128 0x49
 4610 0157 13       		.uleb128 0x13
 4611 0158 2F       		.uleb128 0x2f
 4612 0159 0B       		.uleb128 0xb
 4613 015a 00       		.byte	0
 4614 015b 00       		.byte	0
 4615 015c 19       		.uleb128 0x19
 4616 015d 2E       		.uleb128 0x2e
 4617 015e 01       		.byte	0x1
 4618 015f 3F       		.uleb128 0x3f
 4619 0160 19       		.uleb128 0x19
 4620 0161 03       		.uleb128 0x3
 4621 0162 0E       		.uleb128 0xe
 4622 0163 3A       		.uleb128 0x3a
 4623 0164 0B       		.uleb128 0xb
 4624 0165 3B       		.uleb128 0x3b
 4625 0166 05       		.uleb128 0x5
 4626 0167 27       		.uleb128 0x27
 4627 0168 19       		.uleb128 0x19
 4628 0169 11       		.uleb128 0x11
 4629 016a 01       		.uleb128 0x1
 4630 016b 12       		.uleb128 0x12
 4631 016c 06       		.uleb128 0x6
 4632 016d 40       		.uleb128 0x40
 4633 016e 18       		.uleb128 0x18
 4634 016f 9642     		.uleb128 0x2116
 4635 0171 19       		.uleb128 0x19
 4636 0172 01       		.uleb128 0x1
 4637 0173 13       		.uleb128 0x13
 4638 0174 00       		.byte	0
 4639 0175 00       		.byte	0
 4640 0176 1A       		.uleb128 0x1a
 4641 0177 05       		.uleb128 0x5
 4642 0178 00       		.byte	0
 4643 0179 03       		.uleb128 0x3
 4644 017a 0E       		.uleb128 0xe
 4645 017b 3A       		.uleb128 0x3a
 4646 017c 0B       		.uleb128 0xb
 4647 017d 3B       		.uleb128 0x3b
 4648 017e 05       		.uleb128 0x5
 4649 017f 49       		.uleb128 0x49
 4650 0180 13       		.uleb128 0x13
 4651 0181 02       		.uleb128 0x2
 4652 0182 18       		.uleb128 0x18
 4653 0183 00       		.byte	0
ARM GAS  C:\Users\bogur\AppData\Local\Temp\ccXFXavo.s 			page 92


 4654 0184 00       		.byte	0
 4655 0185 1B       		.uleb128 0x1b
 4656 0186 34       		.uleb128 0x34
 4657 0187 00       		.byte	0
 4658 0188 03       		.uleb128 0x3
 4659 0189 0E       		.uleb128 0xe
 4660 018a 3A       		.uleb128 0x3a
 4661 018b 0B       		.uleb128 0xb
 4662 018c 3B       		.uleb128 0x3b
 4663 018d 05       		.uleb128 0x5
 4664 018e 49       		.uleb128 0x49
 4665 018f 13       		.uleb128 0x13
 4666 0190 02       		.uleb128 0x2
 4667 0191 17       		.uleb128 0x17
 4668 0192 00       		.byte	0
 4669 0193 00       		.byte	0
 4670 0194 1C       		.uleb128 0x1c
 4671 0195 2E       		.uleb128 0x2e
 4672 0196 01       		.byte	0x1
 4673 0197 3F       		.uleb128 0x3f
 4674 0198 19       		.uleb128 0x19
 4675 0199 03       		.uleb128 0x3
 4676 019a 0E       		.uleb128 0xe
 4677 019b 3A       		.uleb128 0x3a
 4678 019c 0B       		.uleb128 0xb
 4679 019d 3B       		.uleb128 0x3b
 4680 019e 05       		.uleb128 0x5
 4681 019f 27       		.uleb128 0x27
 4682 01a0 19       		.uleb128 0x19
 4683 01a1 11       		.uleb128 0x11
 4684 01a2 01       		.uleb128 0x1
 4685 01a3 12       		.uleb128 0x12
 4686 01a4 06       		.uleb128 0x6
 4687 01a5 40       		.uleb128 0x40
 4688 01a6 18       		.uleb128 0x18
 4689 01a7 9742     		.uleb128 0x2117
 4690 01a9 19       		.uleb128 0x19
 4691 01aa 01       		.uleb128 0x1
 4692 01ab 13       		.uleb128 0x13
 4693 01ac 00       		.byte	0
 4694 01ad 00       		.byte	0
 4695 01ae 1D       		.uleb128 0x1d
 4696 01af 34       		.uleb128 0x34
 4697 01b0 00       		.byte	0
 4698 01b1 03       		.uleb128 0x3
 4699 01b2 0E       		.uleb128 0xe
 4700 01b3 3A       		.uleb128 0x3a
 4701 01b4 0B       		.uleb128 0xb
 4702 01b5 3B       		.uleb128 0x3b
 4703 01b6 0B       		.uleb128 0xb
 4704 01b7 49       		.uleb128 0x49
 4705 01b8 13       		.uleb128 0x13
 4706 01b9 02       		.uleb128 0x2
 4707 01ba 18       		.uleb128 0x18
 4708 01bb 00       		.byte	0
 4709 01bc 00       		.byte	0
 4710 01bd 00       		.byte	0
ARM GAS  C:\Users\bogur\AppData\Local\Temp\ccXFXavo.s 			page 93


 4711              		.section	.debug_loc,"",%progbits
 4712              	.Ldebug_loc0:
 4713              	.LLST0:
 4714 0000 00000000 		.4byte	.LVL0
 4715 0004 46000000 		.4byte	.LVL7
 4716 0008 0100     		.2byte	0x1
 4717 000a 50       		.byte	0x50
 4718 000b 46000000 		.4byte	.LVL7
 4719 000f 4C000000 		.4byte	.LFE0
 4720 0013 0400     		.2byte	0x4
 4721 0015 F3       		.byte	0xf3
 4722 0016 01       		.uleb128 0x1
 4723 0017 50       		.byte	0x50
 4724 0018 9F       		.byte	0x9f
 4725 0019 00000000 		.4byte	0
 4726 001d 00000000 		.4byte	0
 4727              	.LLST1:
 4728 0021 04000000 		.4byte	.LVL1
 4729 0025 0E000000 		.4byte	.LVL2
 4730 0029 0A00     		.2byte	0xa
 4731 002b 9E       		.byte	0x9e
 4732 002c 08       		.uleb128 0x8
 4733 002d 00000000 		.8byte	0
 4733      00000000 
 4734 0035 0E000000 		.4byte	.LVL2
 4735 0039 32000000 		.4byte	.LVL3
 4736 003d 0600     		.2byte	0x6
 4737 003f 58       		.byte	0x58
 4738 0040 93       		.byte	0x93
 4739 0041 04       		.uleb128 0x4
 4740 0042 59       		.byte	0x59
 4741 0043 93       		.byte	0x93
 4742 0044 04       		.uleb128 0x4
 4743 0045 36000000 		.4byte	.LVL4
 4744 0049 4C000000 		.4byte	.LFE0
 4745 004d 0600     		.2byte	0x6
 4746 004f 58       		.byte	0x58
 4747 0050 93       		.byte	0x93
 4748 0051 04       		.uleb128 0x4
 4749 0052 59       		.byte	0x59
 4750 0053 93       		.byte	0x93
 4751 0054 04       		.uleb128 0x4
 4752 0055 00000000 		.4byte	0
 4753 0059 00000000 		.4byte	0
 4754              	.LLST2:
 4755 005d 04000000 		.4byte	.LVL1
 4756 0061 0E000000 		.4byte	.LVL2
 4757 0065 0A00     		.2byte	0xa
 4758 0067 9E       		.byte	0x9e
 4759 0068 08       		.uleb128 0x8
 4760 0069 00000000 		.8byte	0
 4760      00000000 
 4761 0071 0E000000 		.4byte	.LVL2
 4762 0075 38000000 		.4byte	.LVL5
 4763 0079 0600     		.2byte	0x6
 4764 007b 54       		.byte	0x54
 4765 007c 93       		.byte	0x93
ARM GAS  C:\Users\bogur\AppData\Local\Temp\ccXFXavo.s 			page 94


 4766 007d 04       		.uleb128 0x4
 4767 007e 55       		.byte	0x55
 4768 007f 93       		.byte	0x93
 4769 0080 04       		.uleb128 0x4
 4770 0081 3C000000 		.4byte	.LVL6
 4771 0085 4C000000 		.4byte	.LFE0
 4772 0089 0600     		.2byte	0x6
 4773 008b 54       		.byte	0x54
 4774 008c 93       		.byte	0x93
 4775 008d 04       		.uleb128 0x4
 4776 008e 55       		.byte	0x55
 4777 008f 93       		.byte	0x93
 4778 0090 04       		.uleb128 0x4
 4779 0091 00000000 		.4byte	0
 4780 0095 00000000 		.4byte	0
 4781              	.LLST3:
 4782 0099 00000000 		.4byte	.LVL8
 4783 009d 04000000 		.4byte	.LVL9
 4784 00a1 0600     		.2byte	0x6
 4785 00a3 52       		.byte	0x52
 4786 00a4 93       		.byte	0x93
 4787 00a5 04       		.uleb128 0x4
 4788 00a6 53       		.byte	0x53
 4789 00a7 93       		.byte	0x93
 4790 00a8 04       		.uleb128 0x4
 4791 00a9 04000000 		.4byte	.LVL9
 4792 00ad 08000000 		.4byte	.LVL10
 4793 00b1 0600     		.2byte	0x6
 4794 00b3 52       		.byte	0x52
 4795 00b4 93       		.byte	0x93
 4796 00b5 04       		.uleb128 0x4
 4797 00b6 53       		.byte	0x53
 4798 00b7 93       		.byte	0x93
 4799 00b8 04       		.uleb128 0x4
 4800 00b9 0E000000 		.4byte	.LVL11
 4801 00bd 16000000 		.4byte	.LFE1
 4802 00c1 0600     		.2byte	0x6
 4803 00c3 52       		.byte	0x52
 4804 00c4 93       		.byte	0x93
 4805 00c5 04       		.uleb128 0x4
 4806 00c6 53       		.byte	0x53
 4807 00c7 93       		.byte	0x93
 4808 00c8 04       		.uleb128 0x4
 4809 00c9 00000000 		.4byte	0
 4810 00cd 00000000 		.4byte	0
 4811              	.LLST4:
 4812 00d1 00000000 		.4byte	.LVL8
 4813 00d5 04000000 		.4byte	.LVL9
 4814 00d9 0200     		.2byte	0x2
 4815 00db 30       		.byte	0x30
 4816 00dc 9F       		.byte	0x9f
 4817 00dd 04000000 		.4byte	.LVL9
 4818 00e1 16000000 		.4byte	.LFE1
 4819 00e5 0100     		.2byte	0x1
 4820 00e7 51       		.byte	0x51
 4821 00e8 00000000 		.4byte	0
 4822 00ec 00000000 		.4byte	0
ARM GAS  C:\Users\bogur\AppData\Local\Temp\ccXFXavo.s 			page 95


 4823              	.LLST5:
 4824 00f0 00000000 		.4byte	.LVL13
 4825 00f4 4E000000 		.4byte	.LVL28
 4826 00f8 0100     		.2byte	0x1
 4827 00fa 50       		.byte	0x50
 4828 00fb 4E000000 		.4byte	.LVL28
 4829 00ff 58000000 		.4byte	.LVL30
 4830 0103 0100     		.2byte	0x1
 4831 0105 53       		.byte	0x53
 4832 0106 58000000 		.4byte	.LVL30
 4833 010a 12010000 		.4byte	.LVL64
 4834 010e 0100     		.2byte	0x1
 4835 0110 52       		.byte	0x52
 4836 0111 12010000 		.4byte	.LVL64
 4837 0115 FC120000 		.4byte	.LFE2
 4838 0119 0200     		.2byte	0x2
 4839 011b 91       		.byte	0x91
 4840 011c 54       		.sleb128 -44
 4841 011d 00000000 		.4byte	0
 4842 0121 00000000 		.4byte	0
 4843              	.LLST6:
 4844 0125 0C010000 		.4byte	.LVL63
 4845 0129 1A010000 		.4byte	.LVL65
 4846 012d 0200     		.2byte	0x2
 4847 012f 30       		.byte	0x30
 4848 0130 9F       		.byte	0x9f
 4849 0131 1A010000 		.4byte	.LVL65
 4850 0135 FC120000 		.4byte	.LFE2
 4851 0139 0100     		.2byte	0x1
 4852 013b 5C       		.byte	0x5c
 4853 013c 00000000 		.4byte	0
 4854 0140 00000000 		.4byte	0
 4855              	.LLST7:
 4856 0144 12000000 		.4byte	.LVL14
 4857 0148 1E000000 		.4byte	.LVL16
 4858 014c 0600     		.2byte	0x6
 4859 014e 53       		.byte	0x53
 4860 014f 93       		.byte	0x93
 4861 0150 04       		.uleb128 0x4
 4862 0151 54       		.byte	0x54
 4863 0152 93       		.byte	0x93
 4864 0153 04       		.uleb128 0x4
 4865 0154 1E000000 		.4byte	.LVL16
 4866 0158 4E000000 		.4byte	.LVL28
 4867 015c 0200     		.2byte	0x2
 4868 015e 70       		.byte	0x70
 4869 015f 00       		.sleb128 0
 4870 0160 4E000000 		.4byte	.LVL28
 4871 0164 58000000 		.4byte	.LVL30
 4872 0168 0200     		.2byte	0x2
 4873 016a 73       		.byte	0x73
 4874 016b 00       		.sleb128 0
 4875 016c 58000000 		.4byte	.LVL30
 4876 0170 12010000 		.4byte	.LVL64
 4877 0174 0200     		.2byte	0x2
 4878 0176 72       		.byte	0x72
 4879 0177 00       		.sleb128 0
ARM GAS  C:\Users\bogur\AppData\Local\Temp\ccXFXavo.s 			page 96


 4880 0178 12010000 		.4byte	.LVL64
 4881 017c 1A010000 		.4byte	.LVL65
 4882 0180 0300     		.2byte	0x3
 4883 0182 91       		.byte	0x91
 4884 0183 54       		.sleb128 -44
 4885 0184 06       		.byte	0x6
 4886 0185 1A010000 		.4byte	.LVL65
 4887 0189 24030000 		.4byte	.LVL116
 4888 018d 0300     		.2byte	0x3
 4889 018f 91       		.byte	0x91
 4890 0190 C87B     		.sleb128 -568
 4891 0192 24030000 		.4byte	.LVL116
 4892 0196 2A030000 		.4byte	.LVL118
 4893 019a 0600     		.2byte	0x6
 4894 019c 58       		.byte	0x58
 4895 019d 93       		.byte	0x93
 4896 019e 04       		.uleb128 0x4
 4897 019f 59       		.byte	0x59
 4898 01a0 93       		.byte	0x93
 4899 01a1 04       		.uleb128 0x4
 4900 01a2 2A030000 		.4byte	.LVL118
 4901 01a6 D0030000 		.4byte	.LVL136
 4902 01aa 0300     		.2byte	0x3
 4903 01ac 91       		.byte	0x91
 4904 01ad D87D     		.sleb128 -296
 4905 01af D0030000 		.4byte	.LVL136
 4906 01b3 E2030000 		.4byte	.LVL137
 4907 01b7 0200     		.2byte	0x2
 4908 01b9 74       		.byte	0x74
 4909 01ba 00       		.sleb128 0
 4910 01bb E2030000 		.4byte	.LVL137
 4911 01bf 2A040000 		.4byte	.LVL147
 4912 01c3 0300     		.2byte	0x3
 4913 01c5 91       		.byte	0x91
 4914 01c6 D87D     		.sleb128 -296
 4915 01c8 2A040000 		.4byte	.LVL147
 4916 01cc 50040000 		.4byte	.LVL152
 4917 01d0 0200     		.2byte	0x2
 4918 01d2 73       		.byte	0x73
 4919 01d3 00       		.sleb128 0
 4920 01d4 50040000 		.4byte	.LVL152
 4921 01d8 5E040000 		.4byte	.LVL153
 4922 01dc 0300     		.2byte	0x3
 4923 01de 91       		.byte	0x91
 4924 01df D87D     		.sleb128 -296
 4925 01e1 620C0000 		.4byte	.LVL346
 4926 01e5 7A0C0000 		.4byte	.LVL347
 4927 01e9 0600     		.2byte	0x6
 4928 01eb 52       		.byte	0x52
 4929 01ec 93       		.byte	0x93
 4930 01ed 04       		.uleb128 0x4
 4931 01ee 53       		.byte	0x53
 4932 01ef 93       		.byte	0x93
 4933 01f0 04       		.uleb128 0x4
 4934 01f1 7A0C0000 		.4byte	.LVL347
 4935 01f5 B40C0000 		.4byte	.LVL352
 4936 01f9 0600     		.2byte	0x6
ARM GAS  C:\Users\bogur\AppData\Local\Temp\ccXFXavo.s 			page 97


 4937 01fb 58       		.byte	0x58
 4938 01fc 93       		.byte	0x93
 4939 01fd 04       		.uleb128 0x4
 4940 01fe 59       		.byte	0x59
 4941 01ff 93       		.byte	0x93
 4942 0200 04       		.uleb128 0x4
 4943 0201 B40C0000 		.4byte	.LVL352
 4944 0205 FC120000 		.4byte	.LFE2
 4945 0209 0300     		.2byte	0x3
 4946 020b 91       		.byte	0x91
 4947 020c C87B     		.sleb128 -568
 4948 020e 00000000 		.4byte	0
 4949 0212 00000000 		.4byte	0
 4950              	.LLST8:
 4951 0216 1A000000 		.4byte	.LVL15
 4952 021a 2E000000 		.4byte	.LVL20
 4953 021e 0600     		.2byte	0x6
 4954 0220 51       		.byte	0x51
 4955 0221 93       		.byte	0x93
 4956 0222 04       		.uleb128 0x4
 4957 0223 52       		.byte	0x52
 4958 0224 93       		.byte	0x93
 4959 0225 04       		.uleb128 0x4
 4960 0226 2E000000 		.4byte	.LVL20
 4961 022a 4E000000 		.4byte	.LVL28
 4962 022e 0200     		.2byte	0x2
 4963 0230 70       		.byte	0x70
 4964 0231 08       		.sleb128 8
 4965 0232 4E000000 		.4byte	.LVL28
 4966 0236 58000000 		.4byte	.LVL30
 4967 023a 0200     		.2byte	0x2
 4968 023c 73       		.byte	0x73
 4969 023d 08       		.sleb128 8
 4970 023e 58000000 		.4byte	.LVL30
 4971 0242 12010000 		.4byte	.LVL64
 4972 0246 0200     		.2byte	0x2
 4973 0248 72       		.byte	0x72
 4974 0249 08       		.sleb128 8
 4975 024a 12010000 		.4byte	.LVL64
 4976 024e 1A010000 		.4byte	.LVL65
 4977 0252 0500     		.2byte	0x5
 4978 0254 91       		.byte	0x91
 4979 0255 54       		.sleb128 -44
 4980 0256 06       		.byte	0x6
 4981 0257 23       		.byte	0x23
 4982 0258 08       		.uleb128 0x8
 4983 0259 1A010000 		.4byte	.LVL65
 4984 025d DA050000 		.4byte	.LVL189
 4985 0261 0300     		.2byte	0x3
 4986 0263 91       		.byte	0x91
 4987 0264 F07B     		.sleb128 -528
 4988 0266 9A0C0000 		.4byte	.LVL348
 4989 026a AC0C0000 		.4byte	.LVL350
 4990 026e 0600     		.2byte	0x6
 4991 0270 54       		.byte	0x54
 4992 0271 93       		.byte	0x93
 4993 0272 04       		.uleb128 0x4
ARM GAS  C:\Users\bogur\AppData\Local\Temp\ccXFXavo.s 			page 98


 4994 0273 55       		.byte	0x55
 4995 0274 93       		.byte	0x93
 4996 0275 04       		.uleb128 0x4
 4997 0276 AC0C0000 		.4byte	.LVL350
 4998 027a FC120000 		.4byte	.LFE2
 4999 027e 0300     		.2byte	0x3
 5000 0280 91       		.byte	0x91
 5001 0281 F07B     		.sleb128 -528
 5002 0283 00000000 		.4byte	0
 5003 0287 00000000 		.4byte	0
 5004              	.LLST9:
 5005 028b 22000000 		.4byte	.LVL17
 5006 028f 26000000 		.4byte	.LVL18
 5007 0293 0600     		.2byte	0x6
 5008 0295 53       		.byte	0x53
 5009 0296 93       		.byte	0x93
 5010 0297 04       		.uleb128 0x4
 5011 0298 54       		.byte	0x54
 5012 0299 93       		.byte	0x93
 5013 029a 04       		.uleb128 0x4
 5014 029b 26000000 		.4byte	.LVL18
 5015 029f 4E000000 		.4byte	.LVL28
 5016 02a3 0200     		.2byte	0x2
 5017 02a5 70       		.byte	0x70
 5018 02a6 10       		.sleb128 16
 5019 02a7 4E000000 		.4byte	.LVL28
 5020 02ab 58000000 		.4byte	.LVL30
 5021 02af 0200     		.2byte	0x2
 5022 02b1 73       		.byte	0x73
 5023 02b2 10       		.sleb128 16
 5024 02b3 58000000 		.4byte	.LVL30
 5025 02b7 12010000 		.4byte	.LVL64
 5026 02bb 0200     		.2byte	0x2
 5027 02bd 72       		.byte	0x72
 5028 02be 10       		.sleb128 16
 5029 02bf 12010000 		.4byte	.LVL64
 5030 02c3 1A010000 		.4byte	.LVL65
 5031 02c7 0500     		.2byte	0x5
 5032 02c9 91       		.byte	0x91
 5033 02ca 54       		.sleb128 -44
 5034 02cb 06       		.byte	0x6
 5035 02cc 23       		.byte	0x23
 5036 02cd 10       		.uleb128 0x10
 5037 02ce 1A010000 		.4byte	.LVL65
 5038 02d2 88080000 		.4byte	.LVL260
 5039 02d6 0300     		.2byte	0x3
 5040 02d8 91       		.byte	0x91
 5041 02d9 F87B     		.sleb128 -520
 5042 02db B80C0000 		.4byte	.LVL353
 5043 02df BA0C0000 		.4byte	.LVL354
 5044 02e3 0600     		.2byte	0x6
 5045 02e5 57       		.byte	0x57
 5046 02e6 93       		.byte	0x93
 5047 02e7 04       		.uleb128 0x4
 5048 02e8 58       		.byte	0x58
 5049 02e9 93       		.byte	0x93
 5050 02ea 04       		.uleb128 0x4
ARM GAS  C:\Users\bogur\AppData\Local\Temp\ccXFXavo.s 			page 99


 5051 02eb BA0C0000 		.4byte	.LVL354
 5052 02ef FC120000 		.4byte	.LFE2
 5053 02f3 0300     		.2byte	0x3
 5054 02f5 91       		.byte	0x91
 5055 02f6 F87B     		.sleb128 -520
 5056 02f8 00000000 		.4byte	0
 5057 02fc 00000000 		.4byte	0
 5058              	.LLST10:
 5059 0300 2A000000 		.4byte	.LVL19
 5060 0304 36000000 		.4byte	.LVL22
 5061 0308 0600     		.2byte	0x6
 5062 030a 53       		.byte	0x53
 5063 030b 93       		.byte	0x93
 5064 030c 04       		.uleb128 0x4
 5065 030d 54       		.byte	0x54
 5066 030e 93       		.byte	0x93
 5067 030f 04       		.uleb128 0x4
 5068 0310 36000000 		.4byte	.LVL22
 5069 0314 4E000000 		.4byte	.LVL28
 5070 0318 0200     		.2byte	0x2
 5071 031a 70       		.byte	0x70
 5072 031b 18       		.sleb128 24
 5073 031c 4E000000 		.4byte	.LVL28
 5074 0320 58000000 		.4byte	.LVL30
 5075 0324 0200     		.2byte	0x2
 5076 0326 73       		.byte	0x73
 5077 0327 18       		.sleb128 24
 5078 0328 58000000 		.4byte	.LVL30
 5079 032c 12010000 		.4byte	.LVL64
 5080 0330 0200     		.2byte	0x2
 5081 0332 72       		.byte	0x72
 5082 0333 18       		.sleb128 24
 5083 0334 12010000 		.4byte	.LVL64
 5084 0338 1A010000 		.4byte	.LVL65
 5085 033c 0500     		.2byte	0x5
 5086 033e 91       		.byte	0x91
 5087 033f 54       		.sleb128 -44
 5088 0340 06       		.byte	0x6
 5089 0341 23       		.byte	0x23
 5090 0342 18       		.uleb128 0x18
 5091 0343 1A010000 		.4byte	.LVL65
 5092 0347 72040000 		.4byte	.LVL155
 5093 034b 0300     		.2byte	0x3
 5094 034d 91       		.byte	0x91
 5095 034e 807C     		.sleb128 -512
 5096 0350 72040000 		.4byte	.LVL155
 5097 0354 7E040000 		.4byte	.LVL156
 5098 0358 0600     		.2byte	0x6
 5099 035a 52       		.byte	0x52
 5100 035b 93       		.byte	0x93
 5101 035c 04       		.uleb128 0x4
 5102 035d 53       		.byte	0x53
 5103 035e 93       		.byte	0x93
 5104 035f 04       		.uleb128 0x4
 5105 0360 D20C0000 		.4byte	.LVL356
 5106 0364 D60C0000 		.4byte	.LVL357
 5107 0368 0600     		.2byte	0x6
ARM GAS  C:\Users\bogur\AppData\Local\Temp\ccXFXavo.s 			page 100


 5108 036a 54       		.byte	0x54
 5109 036b 93       		.byte	0x93
 5110 036c 04       		.uleb128 0x4
 5111 036d 55       		.byte	0x55
 5112 036e 93       		.byte	0x93
 5113 036f 04       		.uleb128 0x4
 5114 0370 D60C0000 		.4byte	.LVL357
 5115 0374 FC120000 		.4byte	.LFE2
 5116 0378 0300     		.2byte	0x3
 5117 037a 91       		.byte	0x91
 5118 037b 807C     		.sleb128 -512
 5119 037d 00000000 		.4byte	0
 5120 0381 00000000 		.4byte	0
 5121              	.LLST11:
 5122 0385 32000000 		.4byte	.LVL21
 5123 0389 38000000 		.4byte	.LVL23
 5124 038d 0600     		.2byte	0x6
 5125 038f 51       		.byte	0x51
 5126 0390 93       		.byte	0x93
 5127 0391 04       		.uleb128 0x4
 5128 0392 52       		.byte	0x52
 5129 0393 93       		.byte	0x93
 5130 0394 04       		.uleb128 0x4
 5131 0395 38000000 		.4byte	.LVL23
 5132 0399 4E000000 		.4byte	.LVL28
 5133 039d 0200     		.2byte	0x2
 5134 039f 70       		.byte	0x70
 5135 03a0 20       		.sleb128 32
 5136 03a1 4E000000 		.4byte	.LVL28
 5137 03a5 58000000 		.4byte	.LVL30
 5138 03a9 0200     		.2byte	0x2
 5139 03ab 73       		.byte	0x73
 5140 03ac 20       		.sleb128 32
 5141 03ad 58000000 		.4byte	.LVL30
 5142 03b1 12010000 		.4byte	.LVL64
 5143 03b5 0200     		.2byte	0x2
 5144 03b7 72       		.byte	0x72
 5145 03b8 20       		.sleb128 32
 5146 03b9 12010000 		.4byte	.LVL64
 5147 03bd 1A010000 		.4byte	.LVL65
 5148 03c1 0500     		.2byte	0x5
 5149 03c3 91       		.byte	0x91
 5150 03c4 54       		.sleb128 -44
 5151 03c5 06       		.byte	0x6
 5152 03c6 23       		.byte	0x23
 5153 03c7 20       		.uleb128 0x20
 5154 03c8 1A010000 		.4byte	.LVL65
 5155 03cc 24070000 		.4byte	.LVL219
 5156 03d0 0300     		.2byte	0x3
 5157 03d2 91       		.byte	0x91
 5158 03d3 887C     		.sleb128 -504
 5159 03d5 24070000 		.4byte	.LVL219
 5160 03d9 F0070000 		.4byte	.LVL243
 5161 03dd 0600     		.2byte	0x6
 5162 03df 50       		.byte	0x50
 5163 03e0 93       		.byte	0x93
 5164 03e1 04       		.uleb128 0x4
ARM GAS  C:\Users\bogur\AppData\Local\Temp\ccXFXavo.s 			page 101


 5165 03e2 51       		.byte	0x51
 5166 03e3 93       		.byte	0x93
 5167 03e4 04       		.uleb128 0x4
 5168 03e5 EC0C0000 		.4byte	.LVL358
 5169 03e9 000D0000 		.4byte	.LVL361
 5170 03ed 0600     		.2byte	0x6
 5171 03ef 55       		.byte	0x55
 5172 03f0 93       		.byte	0x93
 5173 03f1 04       		.uleb128 0x4
 5174 03f2 56       		.byte	0x56
 5175 03f3 93       		.byte	0x93
 5176 03f4 04       		.uleb128 0x4
 5177 03f5 000D0000 		.4byte	.LVL361
 5178 03f9 FC120000 		.4byte	.LFE2
 5179 03fd 0300     		.2byte	0x3
 5180 03ff 91       		.byte	0x91
 5181 0400 887C     		.sleb128 -504
 5182 0402 00000000 		.4byte	0
 5183 0406 00000000 		.4byte	0
 5184              	.LLST12:
 5185 040a 3C000000 		.4byte	.LVL24
 5186 040e 40000000 		.4byte	.LVL25
 5187 0412 0600     		.2byte	0x6
 5188 0414 53       		.byte	0x53
 5189 0415 93       		.byte	0x93
 5190 0416 04       		.uleb128 0x4
 5191 0417 54       		.byte	0x54
 5192 0418 93       		.byte	0x93
 5193 0419 04       		.uleb128 0x4
 5194 041a 40000000 		.4byte	.LVL25
 5195 041e 4E000000 		.4byte	.LVL28
 5196 0422 0200     		.2byte	0x2
 5197 0424 70       		.byte	0x70
 5198 0425 28       		.sleb128 40
 5199 0426 4E000000 		.4byte	.LVL28
 5200 042a 58000000 		.4byte	.LVL30
 5201 042e 0200     		.2byte	0x2
 5202 0430 73       		.byte	0x73
 5203 0431 28       		.sleb128 40
 5204 0432 58000000 		.4byte	.LVL30
 5205 0436 12010000 		.4byte	.LVL64
 5206 043a 0200     		.2byte	0x2
 5207 043c 72       		.byte	0x72
 5208 043d 28       		.sleb128 40
 5209 043e 12010000 		.4byte	.LVL64
 5210 0442 1A010000 		.4byte	.LVL65
 5211 0446 0500     		.2byte	0x5
 5212 0448 91       		.byte	0x91
 5213 0449 54       		.sleb128 -44
 5214 044a 06       		.byte	0x6
 5215 044b 23       		.byte	0x23
 5216 044c 28       		.uleb128 0x28
 5217 044d 1A010000 		.4byte	.LVL65
 5218 0451 20010000 		.4byte	.LVL66
 5219 0455 0300     		.2byte	0x3
 5220 0457 91       		.byte	0x91
 5221 0458 907C     		.sleb128 -496
ARM GAS  C:\Users\bogur\AppData\Local\Temp\ccXFXavo.s 			page 102


 5222 045a 20010000 		.4byte	.LVL66
 5223 045e 24010000 		.4byte	.LVL67
 5224 0462 0200     		.2byte	0x2
 5225 0464 73       		.byte	0x73
 5226 0465 00       		.sleb128 0
 5227 0466 24010000 		.4byte	.LVL67
 5228 046a 3A070000 		.4byte	.LVL221
 5229 046e 0300     		.2byte	0x3
 5230 0470 91       		.byte	0x91
 5231 0471 907C     		.sleb128 -496
 5232 0473 3A070000 		.4byte	.LVL221
 5233 0477 4E070000 		.4byte	.LVL223
 5234 047b 0200     		.2byte	0x2
 5235 047d 73       		.byte	0x73
 5236 047e 00       		.sleb128 0
 5237 047f 4E070000 		.4byte	.LVL223
 5238 0483 74070000 		.4byte	.LVL227
 5239 0487 0600     		.2byte	0x6
 5240 0489 52       		.byte	0x52
 5241 048a 93       		.byte	0x93
 5242 048b 04       		.uleb128 0x4
 5243 048c 53       		.byte	0x53
 5244 048d 93       		.byte	0x93
 5245 048e 04       		.uleb128 0x4
 5246 048f AA0D0000 		.4byte	.LVL377
 5247 0493 F00D0000 		.4byte	.LVL382
 5248 0497 0600     		.2byte	0x6
 5249 0499 54       		.byte	0x54
 5250 049a 93       		.byte	0x93
 5251 049b 04       		.uleb128 0x4
 5252 049c 55       		.byte	0x55
 5253 049d 93       		.byte	0x93
 5254 049e 04       		.uleb128 0x4
 5255 049f F00D0000 		.4byte	.LVL382
 5256 04a3 0E120000 		.4byte	.LVL483
 5257 04a7 0300     		.2byte	0x3
 5258 04a9 91       		.byte	0x91
 5259 04aa 907C     		.sleb128 -496
 5260 04ac 0E120000 		.4byte	.LVL483
 5261 04b0 12120000 		.4byte	.LVL484
 5262 04b4 0200     		.2byte	0x2
 5263 04b6 73       		.byte	0x73
 5264 04b7 00       		.sleb128 0
 5265 04b8 12120000 		.4byte	.LVL484
 5266 04bc 18120000 		.4byte	.LVL485
 5267 04c0 0600     		.2byte	0x6
 5268 04c2 53       		.byte	0x53
 5269 04c3 93       		.byte	0x93
 5270 04c4 04       		.uleb128 0x4
 5271 04c5 54       		.byte	0x54
 5272 04c6 93       		.byte	0x93
 5273 04c7 04       		.uleb128 0x4
 5274 04c8 18120000 		.4byte	.LVL485
 5275 04cc FC120000 		.4byte	.LFE2
 5276 04d0 0300     		.2byte	0x3
 5277 04d2 91       		.byte	0x91
 5278 04d3 907C     		.sleb128 -496
ARM GAS  C:\Users\bogur\AppData\Local\Temp\ccXFXavo.s 			page 103


 5279 04d5 00000000 		.4byte	0
 5280 04d9 00000000 		.4byte	0
 5281              	.LLST13:
 5282 04dd 46000000 		.4byte	.LVL26
 5283 04e1 48000000 		.4byte	.LVL27
 5284 04e5 0600     		.2byte	0x6
 5285 04e7 53       		.byte	0x53
 5286 04e8 93       		.byte	0x93
 5287 04e9 04       		.uleb128 0x4
 5288 04ea 54       		.byte	0x54
 5289 04eb 93       		.byte	0x93
 5290 04ec 04       		.uleb128 0x4
 5291 04ed 48000000 		.4byte	.LVL27
 5292 04f1 4E000000 		.4byte	.LVL28
 5293 04f5 0200     		.2byte	0x2
 5294 04f7 70       		.byte	0x70
 5295 04f8 30       		.sleb128 48
 5296 04f9 4E000000 		.4byte	.LVL28
 5297 04fd 58000000 		.4byte	.LVL30
 5298 0501 0200     		.2byte	0x2
 5299 0503 73       		.byte	0x73
 5300 0504 30       		.sleb128 48
 5301 0505 58000000 		.4byte	.LVL30
 5302 0509 12010000 		.4byte	.LVL64
 5303 050d 0200     		.2byte	0x2
 5304 050f 72       		.byte	0x72
 5305 0510 30       		.sleb128 48
 5306 0511 12010000 		.4byte	.LVL64
 5307 0515 1A010000 		.4byte	.LVL65
 5308 0519 0500     		.2byte	0x5
 5309 051b 91       		.byte	0x91
 5310 051c 54       		.sleb128 -44
 5311 051d 06       		.byte	0x6
 5312 051e 23       		.byte	0x23
 5313 051f 30       		.uleb128 0x30
 5314 0520 1A010000 		.4byte	.LVL65
 5315 0524 64010000 		.4byte	.LVL74
 5316 0528 0300     		.2byte	0x3
 5317 052a 91       		.byte	0x91
 5318 052b 987C     		.sleb128 -488
 5319 052d 64010000 		.4byte	.LVL74
 5320 0531 6E010000 		.4byte	.LVL75
 5321 0535 0200     		.2byte	0x2
 5322 0537 73       		.byte	0x73
 5323 0538 00       		.sleb128 0
 5324 0539 6E010000 		.4byte	.LVL75
 5325 053d 26030000 		.4byte	.LVL117
 5326 0541 0300     		.2byte	0x3
 5327 0543 91       		.byte	0x91
 5328 0544 987C     		.sleb128 -488
 5329 0546 26030000 		.4byte	.LVL117
 5330 054a 3A030000 		.4byte	.LVL120
 5331 054e 0200     		.2byte	0x2
 5332 0550 73       		.byte	0x73
 5333 0551 00       		.sleb128 0
 5334 0552 3A030000 		.4byte	.LVL120
 5335 0556 54030000 		.4byte	.LVL123
ARM GAS  C:\Users\bogur\AppData\Local\Temp\ccXFXavo.s 			page 104


 5336 055a 0600     		.2byte	0x6
 5337 055c 50       		.byte	0x50
 5338 055d 93       		.byte	0x93
 5339 055e 04       		.uleb128 0x4
 5340 055f 51       		.byte	0x51
 5341 0560 93       		.byte	0x93
 5342 0561 04       		.uleb128 0x4
 5343 0562 CC0D0000 		.4byte	.LVL379
 5344 0566 D00D0000 		.4byte	.LVL380
 5345 056a 0600     		.2byte	0x6
 5346 056c 58       		.byte	0x58
 5347 056d 93       		.byte	0x93
 5348 056e 04       		.uleb128 0x4
 5349 056f 59       		.byte	0x59
 5350 0570 93       		.byte	0x93
 5351 0571 04       		.uleb128 0x4
 5352 0572 D00D0000 		.4byte	.LVL380
 5353 0576 18120000 		.4byte	.LVL485
 5354 057a 0300     		.2byte	0x3
 5355 057c 91       		.byte	0x91
 5356 057d 987C     		.sleb128 -488
 5357 057f 18120000 		.4byte	.LVL485
 5358 0583 22120000 		.4byte	.LVL486
 5359 0587 0200     		.2byte	0x2
 5360 0589 73       		.byte	0x73
 5361 058a 00       		.sleb128 0
 5362 058b 22120000 		.4byte	.LVL486
 5363 058f 24120000 		.4byte	.LVL487
 5364 0593 0600     		.2byte	0x6
 5365 0595 52       		.byte	0x52
 5366 0596 93       		.byte	0x93
 5367 0597 04       		.uleb128 0x4
 5368 0598 53       		.byte	0x53
 5369 0599 93       		.byte	0x93
 5370 059a 04       		.uleb128 0x4
 5371 059b 24120000 		.4byte	.LVL487
 5372 059f FC120000 		.4byte	.LFE2
 5373 05a3 0300     		.2byte	0x3
 5374 05a5 91       		.byte	0x91
 5375 05a6 987C     		.sleb128 -488
 5376 05a8 00000000 		.4byte	0
 5377 05ac 00000000 		.4byte	0
 5378              	.LLST14:
 5379 05b0 52000000 		.4byte	.LVL29
 5380 05b4 5A000000 		.4byte	.LVL31
 5381 05b8 0600     		.2byte	0x6
 5382 05ba 51       		.byte	0x51
 5383 05bb 93       		.byte	0x93
 5384 05bc 04       		.uleb128 0x4
 5385 05bd 52       		.byte	0x52
 5386 05be 93       		.byte	0x93
 5387 05bf 04       		.uleb128 0x4
 5388 05c0 5A000000 		.4byte	.LVL31
 5389 05c4 12010000 		.4byte	.LVL64
 5390 05c8 0200     		.2byte	0x2
 5391 05ca 72       		.byte	0x72
 5392 05cb 38       		.sleb128 56
ARM GAS  C:\Users\bogur\AppData\Local\Temp\ccXFXavo.s 			page 105


 5393 05cc 12010000 		.4byte	.LVL64
 5394 05d0 1A010000 		.4byte	.LVL65
 5395 05d4 0500     		.2byte	0x5
 5396 05d6 91       		.byte	0x91
 5397 05d7 54       		.sleb128 -44
 5398 05d8 06       		.byte	0x6
 5399 05d9 23       		.byte	0x23
 5400 05da 38       		.uleb128 0x38
 5401 05db 1A010000 		.4byte	.LVL65
 5402 05df 96010000 		.4byte	.LVL80
 5403 05e3 0300     		.2byte	0x3
 5404 05e5 91       		.byte	0x91
 5405 05e6 A07C     		.sleb128 -480
 5406 05e8 96010000 		.4byte	.LVL80
 5407 05ec A0010000 		.4byte	.LVL81
 5408 05f0 0200     		.2byte	0x2
 5409 05f2 73       		.byte	0x73
 5410 05f3 00       		.sleb128 0
 5411 05f4 A0010000 		.4byte	.LVL81
 5412 05f8 F0050000 		.4byte	.LVL191
 5413 05fc 0300     		.2byte	0x3
 5414 05fe 91       		.byte	0x91
 5415 05ff A07C     		.sleb128 -480
 5416 0601 F0050000 		.4byte	.LVL191
 5417 0605 08060000 		.4byte	.LVL193
 5418 0609 0200     		.2byte	0x2
 5419 060b 73       		.byte	0x73
 5420 060c 00       		.sleb128 0
 5421 060d 08060000 		.4byte	.LVL193
 5422 0611 14060000 		.4byte	.LVL194
 5423 0615 0600     		.2byte	0x6
 5424 0617 52       		.byte	0x52
 5425 0618 93       		.byte	0x93
 5426 0619 04       		.uleb128 0x4
 5427 061a 53       		.byte	0x53
 5428 061b 93       		.byte	0x93
 5429 061c 04       		.uleb128 0x4
 5430 061d EC0D0000 		.4byte	.LVL381
 5431 0621 F40D0000 		.4byte	.LVL383
 5432 0625 0600     		.2byte	0x6
 5433 0627 58       		.byte	0x58
 5434 0628 93       		.byte	0x93
 5435 0629 04       		.uleb128 0x4
 5436 062a 59       		.byte	0x59
 5437 062b 93       		.byte	0x93
 5438 062c 04       		.uleb128 0x4
 5439 062d F40D0000 		.4byte	.LVL383
 5440 0631 24120000 		.4byte	.LVL487
 5441 0635 0300     		.2byte	0x3
 5442 0637 91       		.byte	0x91
 5443 0638 A07C     		.sleb128 -480
 5444 063a 24120000 		.4byte	.LVL487
 5445 063e 2E120000 		.4byte	.LVL488
 5446 0642 0200     		.2byte	0x2
 5447 0644 72       		.byte	0x72
 5448 0645 00       		.sleb128 0
 5449 0646 2E120000 		.4byte	.LVL488
ARM GAS  C:\Users\bogur\AppData\Local\Temp\ccXFXavo.s 			page 106


 5450 064a 30120000 		.4byte	.LVL489
 5451 064e 0600     		.2byte	0x6
 5452 0650 51       		.byte	0x51
 5453 0651 93       		.byte	0x93
 5454 0652 04       		.uleb128 0x4
 5455 0653 52       		.byte	0x52
 5456 0654 93       		.byte	0x93
 5457 0655 04       		.uleb128 0x4
 5458 0656 30120000 		.4byte	.LVL489
 5459 065a FC120000 		.4byte	.LFE2
 5460 065e 0300     		.2byte	0x3
 5461 0660 91       		.byte	0x91
 5462 0661 A07C     		.sleb128 -480
 5463 0663 00000000 		.4byte	0
 5464 0667 00000000 		.4byte	0
 5465              	.LLST15:
 5466 066b 5E000000 		.4byte	.LVL32
 5467 066f 62000000 		.4byte	.LVL33
 5468 0673 0600     		.2byte	0x6
 5469 0675 53       		.byte	0x53
 5470 0676 93       		.byte	0x93
 5471 0677 04       		.uleb128 0x4
 5472 0678 54       		.byte	0x54
 5473 0679 93       		.byte	0x93
 5474 067a 04       		.uleb128 0x4
 5475 067b 62000000 		.4byte	.LVL33
 5476 067f 12010000 		.4byte	.LVL64
 5477 0683 0300     		.2byte	0x3
 5478 0685 72       		.byte	0x72
 5479 0686 C000     		.sleb128 64
 5480 0688 12010000 		.4byte	.LVL64
 5481 068c 1A010000 		.4byte	.LVL65
 5482 0690 0500     		.2byte	0x5
 5483 0692 91       		.byte	0x91
 5484 0693 54       		.sleb128 -44
 5485 0694 06       		.byte	0x6
 5486 0695 23       		.byte	0x23
 5487 0696 40       		.uleb128 0x40
 5488 0697 1A010000 		.4byte	.LVL65
 5489 069b CC010000 		.4byte	.LVL86
 5490 069f 0300     		.2byte	0x3
 5491 06a1 91       		.byte	0x91
 5492 06a2 A87C     		.sleb128 -472
 5493 06a4 CC010000 		.4byte	.LVL86
 5494 06a8 D0010000 		.4byte	.LVL87
 5495 06ac 0200     		.2byte	0x2
 5496 06ae 74       		.byte	0x74
 5497 06af 00       		.sleb128 0
 5498 06b0 D0010000 		.4byte	.LVL87
 5499 06b4 9E080000 		.4byte	.LVL262
 5500 06b8 0300     		.2byte	0x3
 5501 06ba 91       		.byte	0x91
 5502 06bb A87C     		.sleb128 -472
 5503 06bd 9E080000 		.4byte	.LVL262
 5504 06c1 AA080000 		.4byte	.LVL263
 5505 06c5 0200     		.2byte	0x2
 5506 06c7 73       		.byte	0x73
ARM GAS  C:\Users\bogur\AppData\Local\Temp\ccXFXavo.s 			page 107


 5507 06c8 00       		.sleb128 0
 5508 06c9 0A0E0000 		.4byte	.LVL384
 5509 06cd 5C0E0000 		.4byte	.LVL391
 5510 06d1 0600     		.2byte	0x6
 5511 06d3 52       		.byte	0x52
 5512 06d4 93       		.byte	0x93
 5513 06d5 04       		.uleb128 0x4
 5514 06d6 53       		.byte	0x53
 5515 06d7 93       		.byte	0x93
 5516 06d8 04       		.uleb128 0x4
 5517 06d9 5C0E0000 		.4byte	.LVL391
 5518 06dd 32120000 		.4byte	.LVL490
 5519 06e1 0300     		.2byte	0x3
 5520 06e3 91       		.byte	0x91
 5521 06e4 A87C     		.sleb128 -472
 5522 06e6 32120000 		.4byte	.LVL490
 5523 06ea 36120000 		.4byte	.LVL491
 5524 06ee 0200     		.2byte	0x2
 5525 06f0 73       		.byte	0x73
 5526 06f1 00       		.sleb128 0
 5527 06f2 36120000 		.4byte	.LVL491
 5528 06f6 3C120000 		.4byte	.LVL492
 5529 06fa 0600     		.2byte	0x6
 5530 06fc 53       		.byte	0x53
 5531 06fd 93       		.byte	0x93
 5532 06fe 04       		.uleb128 0x4
 5533 06ff 54       		.byte	0x54
 5534 0700 93       		.byte	0x93
 5535 0701 04       		.uleb128 0x4
 5536 0702 3C120000 		.4byte	.LVL492
 5537 0706 FC120000 		.4byte	.LFE2
 5538 070a 0300     		.2byte	0x3
 5539 070c 91       		.byte	0x91
 5540 070d A87C     		.sleb128 -472
 5541 070f 00000000 		.4byte	0
 5542 0713 00000000 		.4byte	0
 5543              	.LLST16:
 5544 0717 68000000 		.4byte	.LVL34
 5545 071b 6A000000 		.4byte	.LVL35
 5546 071f 0600     		.2byte	0x6
 5547 0721 53       		.byte	0x53
 5548 0722 93       		.byte	0x93
 5549 0723 04       		.uleb128 0x4
 5550 0724 54       		.byte	0x54
 5551 0725 93       		.byte	0x93
 5552 0726 04       		.uleb128 0x4
 5553 0727 6A000000 		.4byte	.LVL35
 5554 072b 12010000 		.4byte	.LVL64
 5555 072f 0300     		.2byte	0x3
 5556 0731 72       		.byte	0x72
 5557 0732 C800     		.sleb128 72
 5558 0734 12010000 		.4byte	.LVL64
 5559 0738 1A010000 		.4byte	.LVL65
 5560 073c 0500     		.2byte	0x5
 5561 073e 91       		.byte	0x91
 5562 073f 54       		.sleb128 -44
 5563 0740 06       		.byte	0x6
ARM GAS  C:\Users\bogur\AppData\Local\Temp\ccXFXavo.s 			page 108


 5564 0741 23       		.byte	0x23
 5565 0742 48       		.uleb128 0x48
 5566 0743 1A010000 		.4byte	.LVL65
 5567 0747 04020000 		.4byte	.LVL96
 5568 074b 0300     		.2byte	0x3
 5569 074d 91       		.byte	0x91
 5570 074e B07C     		.sleb128 -464
 5571 0750 04020000 		.4byte	.LVL96
 5572 0754 1A020000 		.4byte	.LVL99
 5573 0758 0200     		.2byte	0x2
 5574 075a 72       		.byte	0x72
 5575 075b 00       		.sleb128 0
 5576 075c 1A020000 		.4byte	.LVL99
 5577 0760 88040000 		.4byte	.LVL158
 5578 0764 0300     		.2byte	0x3
 5579 0766 91       		.byte	0x91
 5580 0767 B07C     		.sleb128 -464
 5581 0769 88040000 		.4byte	.LVL158
 5582 076d 98040000 		.4byte	.LVL159
 5583 0771 0200     		.2byte	0x2
 5584 0773 73       		.byte	0x73
 5585 0774 00       		.sleb128 0
 5586 0775 98040000 		.4byte	.LVL159
 5587 0779 A4040000 		.4byte	.LVL160
 5588 077d 0600     		.2byte	0x6
 5589 077f 52       		.byte	0x52
 5590 0780 93       		.byte	0x93
 5591 0781 04       		.uleb128 0x4
 5592 0782 53       		.byte	0x53
 5593 0783 93       		.byte	0x93
 5594 0784 04       		.uleb128 0x4
 5595 0785 240E0000 		.4byte	.LVL385
 5596 0789 C80E0000 		.4byte	.LVL403
 5597 078d 0600     		.2byte	0x6
 5598 078f 58       		.byte	0x58
 5599 0790 93       		.byte	0x93
 5600 0791 04       		.uleb128 0x4
 5601 0792 59       		.byte	0x59
 5602 0793 93       		.byte	0x93
 5603 0794 04       		.uleb128 0x4
 5604 0795 C80E0000 		.4byte	.LVL403
 5605 0799 3C120000 		.4byte	.LVL492
 5606 079d 0300     		.2byte	0x3
 5607 079f 91       		.byte	0x91
 5608 07a0 B07C     		.sleb128 -464
 5609 07a2 3C120000 		.4byte	.LVL492
 5610 07a6 46120000 		.4byte	.LVL493
 5611 07aa 0200     		.2byte	0x2
 5612 07ac 73       		.byte	0x73
 5613 07ad 00       		.sleb128 0
 5614 07ae 46120000 		.4byte	.LVL493
 5615 07b2 48120000 		.4byte	.LVL494
 5616 07b6 0600     		.2byte	0x6
 5617 07b8 52       		.byte	0x52
 5618 07b9 93       		.byte	0x93
 5619 07ba 04       		.uleb128 0x4
 5620 07bb 53       		.byte	0x53
ARM GAS  C:\Users\bogur\AppData\Local\Temp\ccXFXavo.s 			page 109


 5621 07bc 93       		.byte	0x93
 5622 07bd 04       		.uleb128 0x4
 5623 07be 48120000 		.4byte	.LVL494
 5624 07c2 FC120000 		.4byte	.LFE2
 5625 07c6 0300     		.2byte	0x3
 5626 07c8 91       		.byte	0x91
 5627 07c9 B07C     		.sleb128 -464
 5628 07cb 00000000 		.4byte	0
 5629 07cf 00000000 		.4byte	0
 5630              	.LLST17:
 5631 07d3 74000000 		.4byte	.LVL36
 5632 07d7 7C000000 		.4byte	.LVL37
 5633 07db 0600     		.2byte	0x6
 5634 07dd 51       		.byte	0x51
 5635 07de 93       		.byte	0x93
 5636 07df 04       		.uleb128 0x4
 5637 07e0 52       		.byte	0x52
 5638 07e1 93       		.byte	0x93
 5639 07e2 04       		.uleb128 0x4
 5640 07e3 7C000000 		.4byte	.LVL37
 5641 07e7 12010000 		.4byte	.LVL64
 5642 07eb 0300     		.2byte	0x3
 5643 07ed 72       		.byte	0x72
 5644 07ee D000     		.sleb128 80
 5645 07f0 12010000 		.4byte	.LVL64
 5646 07f4 1A010000 		.4byte	.LVL65
 5647 07f8 0500     		.2byte	0x5
 5648 07fa 91       		.byte	0x91
 5649 07fb 54       		.sleb128 -44
 5650 07fc 06       		.byte	0x6
 5651 07fd 23       		.byte	0x23
 5652 07fe 50       		.uleb128 0x50
 5653 07ff 1A010000 		.4byte	.LVL65
 5654 0803 2E010000 		.4byte	.LVL68
 5655 0807 0300     		.2byte	0x3
 5656 0809 91       		.byte	0x91
 5657 080a B87C     		.sleb128 -456
 5658 080c 2E010000 		.4byte	.LVL68
 5659 0810 32010000 		.4byte	.LVL69
 5660 0814 0200     		.2byte	0x2
 5661 0816 73       		.byte	0x73
 5662 0817 00       		.sleb128 0
 5663 0818 32010000 		.4byte	.LVL69
 5664 081c AE040000 		.4byte	.LVL162
 5665 0820 0300     		.2byte	0x3
 5666 0822 91       		.byte	0x91
 5667 0823 B87C     		.sleb128 -456
 5668 0825 AE040000 		.4byte	.LVL162
 5669 0829 BE040000 		.4byte	.LVL164
 5670 082d 0200     		.2byte	0x2
 5671 082f 73       		.byte	0x73
 5672 0830 00       		.sleb128 0
 5673 0831 EA0E0000 		.4byte	.LVL407
 5674 0835 EE0E0000 		.4byte	.LVL408
 5675 0839 0600     		.2byte	0x6
 5676 083b 50       		.byte	0x50
 5677 083c 93       		.byte	0x93
ARM GAS  C:\Users\bogur\AppData\Local\Temp\ccXFXavo.s 			page 110


 5678 083d 04       		.uleb128 0x4
 5679 083e 51       		.byte	0x51
 5680 083f 93       		.byte	0x93
 5681 0840 04       		.uleb128 0x4
 5682 0841 EE0E0000 		.4byte	.LVL408
 5683 0845 48120000 		.4byte	.LVL494
 5684 0849 0300     		.2byte	0x3
 5685 084b 91       		.byte	0x91
 5686 084c B87C     		.sleb128 -456
 5687 084e 48120000 		.4byte	.LVL494
 5688 0852 52120000 		.4byte	.LVL495
 5689 0856 0200     		.2byte	0x2
 5690 0858 72       		.byte	0x72
 5691 0859 00       		.sleb128 0
 5692 085a 52120000 		.4byte	.LVL495
 5693 085e 54120000 		.4byte	.LVL496
 5694 0862 0600     		.2byte	0x6
 5695 0864 51       		.byte	0x51
 5696 0865 93       		.byte	0x93
 5697 0866 04       		.uleb128 0x4
 5698 0867 52       		.byte	0x52
 5699 0868 93       		.byte	0x93
 5700 0869 04       		.uleb128 0x4
 5701 086a 54120000 		.4byte	.LVL496
 5702 086e FC120000 		.4byte	.LFE2
 5703 0872 0300     		.2byte	0x3
 5704 0874 91       		.byte	0x91
 5705 0875 B87C     		.sleb128 -456
 5706 0877 00000000 		.4byte	0
 5707 087b 00000000 		.4byte	0
 5708              	.LLST18:
 5709 087f 80000000 		.4byte	.LVL38
 5710 0883 84000000 		.4byte	.LVL39
 5711 0887 0600     		.2byte	0x6
 5712 0889 53       		.byte	0x53
 5713 088a 93       		.byte	0x93
 5714 088b 04       		.uleb128 0x4
 5715 088c 54       		.byte	0x54
 5716 088d 93       		.byte	0x93
 5717 088e 04       		.uleb128 0x4
 5718 088f 84000000 		.4byte	.LVL39
 5719 0893 12010000 		.4byte	.LVL64
 5720 0897 0300     		.2byte	0x3
 5721 0899 72       		.byte	0x72
 5722 089a D800     		.sleb128 88
 5723 089c 12010000 		.4byte	.LVL64
 5724 08a0 1A010000 		.4byte	.LVL65
 5725 08a4 0500     		.2byte	0x5
 5726 08a6 91       		.byte	0x91
 5727 08a7 54       		.sleb128 -44
 5728 08a8 06       		.byte	0x6
 5729 08a9 23       		.byte	0x23
 5730 08aa 58       		.uleb128 0x58
 5731 08ab 1A010000 		.4byte	.LVL65
 5732 08af 6E010000 		.4byte	.LVL75
 5733 08b3 0300     		.2byte	0x3
 5734 08b5 91       		.byte	0x91
ARM GAS  C:\Users\bogur\AppData\Local\Temp\ccXFXavo.s 			page 111


 5735 08b6 C07C     		.sleb128 -448
 5736 08b8 6E010000 		.4byte	.LVL75
 5737 08bc 78010000 		.4byte	.LVL76
 5738 08c0 0200     		.2byte	0x2
 5739 08c2 73       		.byte	0x73
 5740 08c3 00       		.sleb128 0
 5741 08c4 78010000 		.4byte	.LVL76
 5742 08c8 64070000 		.4byte	.LVL225
 5743 08cc 0300     		.2byte	0x3
 5744 08ce 91       		.byte	0x91
 5745 08cf C07C     		.sleb128 -448
 5746 08d1 64070000 		.4byte	.LVL225
 5747 08d5 76070000 		.4byte	.LVL228
 5748 08d9 0200     		.2byte	0x2
 5749 08db 73       		.byte	0x73
 5750 08dc 00       		.sleb128 0
 5751 08dd 76070000 		.4byte	.LVL228
 5752 08e1 78070000 		.4byte	.LVL229
 5753 08e5 0300     		.2byte	0x3
 5754 08e7 91       		.byte	0x91
 5755 08e8 C07C     		.sleb128 -448
 5756 08ea 78070000 		.4byte	.LVL229
 5757 08ee 84070000 		.4byte	.LVL230
 5758 08f2 0600     		.2byte	0x6
 5759 08f4 52       		.byte	0x52
 5760 08f5 93       		.byte	0x93
 5761 08f6 04       		.uleb128 0x4
 5762 08f7 53       		.byte	0x53
 5763 08f8 93       		.byte	0x93
 5764 08f9 04       		.uleb128 0x4
 5765 08fa 080F0000 		.4byte	.LVL409
 5766 08fe 1C0F0000 		.4byte	.LVL410
 5767 0902 0600     		.2byte	0x6
 5768 0904 56       		.byte	0x56
 5769 0905 93       		.byte	0x93
 5770 0906 04       		.uleb128 0x4
 5771 0907 57       		.byte	0x57
 5772 0908 93       		.byte	0x93
 5773 0909 04       		.uleb128 0x4
 5774 090a 1C0F0000 		.4byte	.LVL410
 5775 090e 56120000 		.4byte	.LVL497
 5776 0912 0300     		.2byte	0x3
 5777 0914 91       		.byte	0x91
 5778 0915 C07C     		.sleb128 -448
 5779 0917 56120000 		.4byte	.LVL497
 5780 091b 5A120000 		.4byte	.LVL498
 5781 091f 0200     		.2byte	0x2
 5782 0921 73       		.byte	0x73
 5783 0922 00       		.sleb128 0
 5784 0923 5A120000 		.4byte	.LVL498
 5785 0927 60120000 		.4byte	.LVL499
 5786 092b 0600     		.2byte	0x6
 5787 092d 53       		.byte	0x53
 5788 092e 93       		.byte	0x93
 5789 092f 04       		.uleb128 0x4
 5790 0930 54       		.byte	0x54
 5791 0931 93       		.byte	0x93
ARM GAS  C:\Users\bogur\AppData\Local\Temp\ccXFXavo.s 			page 112


 5792 0932 04       		.uleb128 0x4
 5793 0933 60120000 		.4byte	.LVL499
 5794 0937 FC120000 		.4byte	.LFE2
 5795 093b 0300     		.2byte	0x3
 5796 093d 91       		.byte	0x91
 5797 093e C07C     		.sleb128 -448
 5798 0940 00000000 		.4byte	0
 5799 0944 00000000 		.4byte	0
 5800              	.LLST19:
 5801 0948 8A000000 		.4byte	.LVL40
 5802 094c 8C000000 		.4byte	.LVL41
 5803 0950 0600     		.2byte	0x6
 5804 0952 53       		.byte	0x53
 5805 0953 93       		.byte	0x93
 5806 0954 04       		.uleb128 0x4
 5807 0955 54       		.byte	0x54
 5808 0956 93       		.byte	0x93
 5809 0957 04       		.uleb128 0x4
 5810 0958 8C000000 		.4byte	.LVL41
 5811 095c 12010000 		.4byte	.LVL64
 5812 0960 0300     		.2byte	0x3
 5813 0962 72       		.byte	0x72
 5814 0963 E000     		.sleb128 96
 5815 0965 12010000 		.4byte	.LVL64
 5816 0969 1A010000 		.4byte	.LVL65
 5817 096d 0500     		.2byte	0x5
 5818 096f 91       		.byte	0x91
 5819 0970 54       		.sleb128 -44
 5820 0971 06       		.byte	0x6
 5821 0972 23       		.byte	0x23
 5822 0973 60       		.uleb128 0x60
 5823 0974 1A010000 		.4byte	.LVL65
 5824 0978 A0010000 		.4byte	.LVL81
 5825 097c 0300     		.2byte	0x3
 5826 097e 91       		.byte	0x91
 5827 097f C87C     		.sleb128 -440
 5828 0981 A0010000 		.4byte	.LVL81
 5829 0985 AC010000 		.4byte	.LVL82
 5830 0989 0200     		.2byte	0x2
 5831 098b 73       		.byte	0x73
 5832 098c 00       		.sleb128 0
 5833 098d AC010000 		.4byte	.LVL82
 5834 0991 50030000 		.4byte	.LVL122
 5835 0995 0300     		.2byte	0x3
 5836 0997 91       		.byte	0x91
 5837 0998 C87C     		.sleb128 -440
 5838 099a 50030000 		.4byte	.LVL122
 5839 099e 58030000 		.4byte	.LVL124
 5840 09a2 0200     		.2byte	0x2
 5841 09a4 73       		.byte	0x73
 5842 09a5 00       		.sleb128 0
 5843 09a6 58030000 		.4byte	.LVL124
 5844 09aa 5E030000 		.4byte	.LVL125
 5845 09ae 0300     		.2byte	0x3
 5846 09b0 91       		.byte	0x91
 5847 09b1 C87C     		.sleb128 -440
 5848 09b3 260F0000 		.4byte	.LVL411
ARM GAS  C:\Users\bogur\AppData\Local\Temp\ccXFXavo.s 			page 113


 5849 09b7 4C0F0000 		.4byte	.LVL414
 5850 09bb 0600     		.2byte	0x6
 5851 09bd 56       		.byte	0x56
 5852 09be 93       		.byte	0x93
 5853 09bf 04       		.uleb128 0x4
 5854 09c0 57       		.byte	0x57
 5855 09c1 93       		.byte	0x93
 5856 09c2 04       		.uleb128 0x4
 5857 09c3 4C0F0000 		.4byte	.LVL414
 5858 09c7 60120000 		.4byte	.LVL499
 5859 09cb 0300     		.2byte	0x3
 5860 09cd 91       		.byte	0x91
 5861 09ce C87C     		.sleb128 -440
 5862 09d0 60120000 		.4byte	.LVL499
 5863 09d4 6A120000 		.4byte	.LVL500
 5864 09d8 0200     		.2byte	0x2
 5865 09da 73       		.byte	0x73
 5866 09db 00       		.sleb128 0
 5867 09dc 6A120000 		.4byte	.LVL500
 5868 09e0 6C120000 		.4byte	.LVL501
 5869 09e4 0600     		.2byte	0x6
 5870 09e6 52       		.byte	0x52
 5871 09e7 93       		.byte	0x93
 5872 09e8 04       		.uleb128 0x4
 5873 09e9 53       		.byte	0x53
 5874 09ea 93       		.byte	0x93
 5875 09eb 04       		.uleb128 0x4
 5876 09ec 6C120000 		.4byte	.LVL501
 5877 09f0 FC120000 		.4byte	.LFE2
 5878 09f4 0300     		.2byte	0x3
 5879 09f6 91       		.byte	0x91
 5880 09f7 C87C     		.sleb128 -440
 5881 09f9 00000000 		.4byte	0
 5882 09fd 00000000 		.4byte	0
 5883              	.LLST20:
 5884 0a01 96000000 		.4byte	.LVL42
 5885 0a05 9E000000 		.4byte	.LVL43
 5886 0a09 0600     		.2byte	0x6
 5887 0a0b 51       		.byte	0x51
 5888 0a0c 93       		.byte	0x93
 5889 0a0d 04       		.uleb128 0x4
 5890 0a0e 52       		.byte	0x52
 5891 0a0f 93       		.byte	0x93
 5892 0a10 04       		.uleb128 0x4
 5893 0a11 9E000000 		.4byte	.LVL43
 5894 0a15 12010000 		.4byte	.LVL64
 5895 0a19 0300     		.2byte	0x3
 5896 0a1b 72       		.byte	0x72
 5897 0a1c E800     		.sleb128 104
 5898 0a1e 12010000 		.4byte	.LVL64
 5899 0a22 1A010000 		.4byte	.LVL65
 5900 0a26 0500     		.2byte	0x5
 5901 0a28 91       		.byte	0x91
 5902 0a29 54       		.sleb128 -44
 5903 0a2a 06       		.byte	0x6
 5904 0a2b 23       		.byte	0x23
 5905 0a2c 68       		.uleb128 0x68
ARM GAS  C:\Users\bogur\AppData\Local\Temp\ccXFXavo.s 			page 114


 5906 0a2d 1A010000 		.4byte	.LVL65
 5907 0a31 D6010000 		.4byte	.LVL89
 5908 0a35 0300     		.2byte	0x3
 5909 0a37 91       		.byte	0x91
 5910 0a38 D07C     		.sleb128 -432
 5911 0a3a D6010000 		.4byte	.LVL89
 5912 0a3e DA010000 		.4byte	.LVL90
 5913 0a42 0200     		.2byte	0x2
 5914 0a44 74       		.byte	0x74
 5915 0a45 00       		.sleb128 0
 5916 0a46 DA010000 		.4byte	.LVL90
 5917 0a4a 1E060000 		.4byte	.LVL196
 5918 0a4e 0300     		.2byte	0x3
 5919 0a50 91       		.byte	0x91
 5920 0a51 D07C     		.sleb128 -432
 5921 0a53 1E060000 		.4byte	.LVL196
 5922 0a57 2E060000 		.4byte	.LVL197
 5923 0a5b 0200     		.2byte	0x2
 5924 0a5d 73       		.byte	0x73
 5925 0a5e 00       		.sleb128 0
 5926 0a5f 400F0000 		.4byte	.LVL412
 5927 0a63 440F0000 		.4byte	.LVL413
 5928 0a67 0600     		.2byte	0x6
 5929 0a69 50       		.byte	0x50
 5930 0a6a 93       		.byte	0x93
 5931 0a6b 04       		.uleb128 0x4
 5932 0a6c 51       		.byte	0x51
 5933 0a6d 93       		.byte	0x93
 5934 0a6e 04       		.uleb128 0x4
 5935 0a6f 440F0000 		.4byte	.LVL413
 5936 0a73 520F0000 		.4byte	.LVL415
 5937 0a77 0200     		.2byte	0x2
 5938 0a79 73       		.byte	0x73
 5939 0a7a 00       		.sleb128 0
 5940 0a7b 520F0000 		.4byte	.LVL415
 5941 0a7f 6C120000 		.4byte	.LVL501
 5942 0a83 0300     		.2byte	0x3
 5943 0a85 91       		.byte	0x91
 5944 0a86 D07C     		.sleb128 -432
 5945 0a88 6C120000 		.4byte	.LVL501
 5946 0a8c 76120000 		.4byte	.LVL502
 5947 0a90 0200     		.2byte	0x2
 5948 0a92 72       		.byte	0x72
 5949 0a93 00       		.sleb128 0
 5950 0a94 76120000 		.4byte	.LVL502
 5951 0a98 78120000 		.4byte	.LVL503
 5952 0a9c 0600     		.2byte	0x6
 5953 0a9e 51       		.byte	0x51
 5954 0a9f 93       		.byte	0x93
 5955 0aa0 04       		.uleb128 0x4
 5956 0aa1 52       		.byte	0x52
 5957 0aa2 93       		.byte	0x93
 5958 0aa3 04       		.uleb128 0x4
 5959 0aa4 78120000 		.4byte	.LVL503
 5960 0aa8 FC120000 		.4byte	.LFE2
 5961 0aac 0300     		.2byte	0x3
 5962 0aae 91       		.byte	0x91
ARM GAS  C:\Users\bogur\AppData\Local\Temp\ccXFXavo.s 			page 115


 5963 0aaf D07C     		.sleb128 -432
 5964 0ab1 00000000 		.4byte	0
 5965 0ab5 00000000 		.4byte	0
 5966              	.LLST21:
 5967 0ab9 A2000000 		.4byte	.LVL44
 5968 0abd A6000000 		.4byte	.LVL45
 5969 0ac1 0600     		.2byte	0x6
 5970 0ac3 53       		.byte	0x53
 5971 0ac4 93       		.byte	0x93
 5972 0ac5 04       		.uleb128 0x4
 5973 0ac6 54       		.byte	0x54
 5974 0ac7 93       		.byte	0x93
 5975 0ac8 04       		.uleb128 0x4
 5976 0ac9 A6000000 		.4byte	.LVL45
 5977 0acd 12010000 		.4byte	.LVL64
 5978 0ad1 0300     		.2byte	0x3
 5979 0ad3 72       		.byte	0x72
 5980 0ad4 F000     		.sleb128 112
 5981 0ad6 12010000 		.4byte	.LVL64
 5982 0ada 1A010000 		.4byte	.LVL65
 5983 0ade 0500     		.2byte	0x5
 5984 0ae0 91       		.byte	0x91
 5985 0ae1 54       		.sleb128 -44
 5986 0ae2 06       		.byte	0x6
 5987 0ae3 23       		.byte	0x23
 5988 0ae4 70       		.uleb128 0x70
 5989 0ae5 1A010000 		.4byte	.LVL65
 5990 0ae9 16020000 		.4byte	.LVL98
 5991 0aed 0300     		.2byte	0x3
 5992 0aef 91       		.byte	0x91
 5993 0af0 D87C     		.sleb128 -424
 5994 0af2 16020000 		.4byte	.LVL98
 5995 0af6 1E020000 		.4byte	.LVL100
 5996 0afa 0200     		.2byte	0x2
 5997 0afc 73       		.byte	0x73
 5998 0afd 00       		.sleb128 0
 5999 0afe 1E020000 		.4byte	.LVL100
 6000 0b02 D0080000 		.4byte	.LVL266
 6001 0b06 0300     		.2byte	0x3
 6002 0b08 91       		.byte	0x91
 6003 0b09 D87C     		.sleb128 -424
 6004 0b0b 560F0000 		.4byte	.LVL416
 6005 0b0f 10100000 		.4byte	.LVL431
 6006 0b13 0600     		.2byte	0x6
 6007 0b15 56       		.byte	0x56
 6008 0b16 93       		.byte	0x93
 6009 0b17 04       		.uleb128 0x4
 6010 0b18 57       		.byte	0x57
 6011 0b19 93       		.byte	0x93
 6012 0b1a 04       		.uleb128 0x4
 6013 0b1b 10100000 		.4byte	.LVL431
 6014 0b1f 7A120000 		.4byte	.LVL504
 6015 0b23 0300     		.2byte	0x3
 6016 0b25 91       		.byte	0x91
 6017 0b26 D87C     		.sleb128 -424
 6018 0b28 7A120000 		.4byte	.LVL504
 6019 0b2c 7E120000 		.4byte	.LVL505
ARM GAS  C:\Users\bogur\AppData\Local\Temp\ccXFXavo.s 			page 116


 6020 0b30 0200     		.2byte	0x2
 6021 0b32 73       		.byte	0x73
 6022 0b33 00       		.sleb128 0
 6023 0b34 7E120000 		.4byte	.LVL505
 6024 0b38 84120000 		.4byte	.LVL506
 6025 0b3c 0600     		.2byte	0x6
 6026 0b3e 53       		.byte	0x53
 6027 0b3f 93       		.byte	0x93
 6028 0b40 04       		.uleb128 0x4
 6029 0b41 54       		.byte	0x54
 6030 0b42 93       		.byte	0x93
 6031 0b43 04       		.uleb128 0x4
 6032 0b44 84120000 		.4byte	.LVL506
 6033 0b48 FC120000 		.4byte	.LFE2
 6034 0b4c 0300     		.2byte	0x3
 6035 0b4e 91       		.byte	0x91
 6036 0b4f D87C     		.sleb128 -424
 6037 0b51 00000000 		.4byte	0
 6038 0b55 00000000 		.4byte	0
 6039              	.LLST22:
 6040 0b59 AC000000 		.4byte	.LVL46
 6041 0b5d AE000000 		.4byte	.LVL47
 6042 0b61 0600     		.2byte	0x6
 6043 0b63 53       		.byte	0x53
 6044 0b64 93       		.byte	0x93
 6045 0b65 04       		.uleb128 0x4
 6046 0b66 54       		.byte	0x54
 6047 0b67 93       		.byte	0x93
 6048 0b68 04       		.uleb128 0x4
 6049 0b69 AE000000 		.4byte	.LVL47
 6050 0b6d 12010000 		.4byte	.LVL64
 6051 0b71 0300     		.2byte	0x3
 6052 0b73 72       		.byte	0x72
 6053 0b74 F800     		.sleb128 120
 6054 0b76 12010000 		.4byte	.LVL64
 6055 0b7a 1A010000 		.4byte	.LVL65
 6056 0b7e 0500     		.2byte	0x5
 6057 0b80 91       		.byte	0x91
 6058 0b81 54       		.sleb128 -44
 6059 0b82 06       		.byte	0x6
 6060 0b83 23       		.byte	0x23
 6061 0b84 78       		.uleb128 0x78
 6062 0b85 1A010000 		.4byte	.LVL65
 6063 0b89 3E010000 		.4byte	.LVL70
 6064 0b8d 0300     		.2byte	0x3
 6065 0b8f 91       		.byte	0x91
 6066 0b90 E07C     		.sleb128 -416
 6067 0b92 3E010000 		.4byte	.LVL70
 6068 0b96 48010000 		.4byte	.LVL71
 6069 0b9a 0200     		.2byte	0x2
 6070 0b9c 73       		.byte	0x73
 6071 0b9d 00       		.sleb128 0
 6072 0b9e 48010000 		.4byte	.LVL71
 6073 0ba2 F2080000 		.4byte	.LVL268
 6074 0ba6 0300     		.2byte	0x3
 6075 0ba8 91       		.byte	0x91
 6076 0ba9 E07C     		.sleb128 -416
ARM GAS  C:\Users\bogur\AppData\Local\Temp\ccXFXavo.s 			page 117


 6077 0bab F2080000 		.4byte	.LVL268
 6078 0baf 0C090000 		.4byte	.LVL271
 6079 0bb3 0600     		.2byte	0x6
 6080 0bb5 52       		.byte	0x52
 6081 0bb6 93       		.byte	0x93
 6082 0bb7 04       		.uleb128 0x4
 6083 0bb8 53       		.byte	0x53
 6084 0bb9 93       		.byte	0x93
 6085 0bba 04       		.uleb128 0x4
 6086 0bbb 26100000 		.4byte	.LVL435
 6087 0bbf 7A100000 		.4byte	.LVL441
 6088 0bc3 0600     		.2byte	0x6
 6089 0bc5 50       		.byte	0x50
 6090 0bc6 93       		.byte	0x93
 6091 0bc7 04       		.uleb128 0x4
 6092 0bc8 51       		.byte	0x51
 6093 0bc9 93       		.byte	0x93
 6094 0bca 04       		.uleb128 0x4
 6095 0bcb 7A100000 		.4byte	.LVL441
 6096 0bcf 84120000 		.4byte	.LVL506
 6097 0bd3 0300     		.2byte	0x3
 6098 0bd5 91       		.byte	0x91
 6099 0bd6 E07C     		.sleb128 -416
 6100 0bd8 84120000 		.4byte	.LVL506
 6101 0bdc 8E120000 		.4byte	.LVL507
 6102 0be0 0200     		.2byte	0x2
 6103 0be2 73       		.byte	0x73
 6104 0be3 00       		.sleb128 0
 6105 0be4 8E120000 		.4byte	.LVL507
 6106 0be8 90120000 		.4byte	.LVL508
 6107 0bec 0600     		.2byte	0x6
 6108 0bee 52       		.byte	0x52
 6109 0bef 93       		.byte	0x93
 6110 0bf0 04       		.uleb128 0x4
 6111 0bf1 53       		.byte	0x53
 6112 0bf2 93       		.byte	0x93
 6113 0bf3 04       		.uleb128 0x4
 6114 0bf4 90120000 		.4byte	.LVL508
 6115 0bf8 FC120000 		.4byte	.LFE2
 6116 0bfc 0300     		.2byte	0x3
 6117 0bfe 91       		.byte	0x91
 6118 0bff E07C     		.sleb128 -416
 6119 0c01 00000000 		.4byte	0
 6120 0c05 00000000 		.4byte	0
 6121              	.LLST23:
 6122 0c09 B8000000 		.4byte	.LVL48
 6123 0c0d C0000000 		.4byte	.LVL49
 6124 0c11 0600     		.2byte	0x6
 6125 0c13 51       		.byte	0x51
 6126 0c14 93       		.byte	0x93
 6127 0c15 04       		.uleb128 0x4
 6128 0c16 52       		.byte	0x52
 6129 0c17 93       		.byte	0x93
 6130 0c18 04       		.uleb128 0x4
 6131 0c19 C0000000 		.4byte	.LVL49
 6132 0c1d 12010000 		.4byte	.LVL64
 6133 0c21 0300     		.2byte	0x3
ARM GAS  C:\Users\bogur\AppData\Local\Temp\ccXFXavo.s 			page 118


 6134 0c23 72       		.byte	0x72
 6135 0c24 8001     		.sleb128 128
 6136 0c26 12010000 		.4byte	.LVL64
 6137 0c2a 1A010000 		.4byte	.LVL65
 6138 0c2e 0600     		.2byte	0x6
 6139 0c30 91       		.byte	0x91
 6140 0c31 54       		.sleb128 -44
 6141 0c32 06       		.byte	0x6
 6142 0c33 23       		.byte	0x23
 6143 0c34 8001     		.uleb128 0x80
 6144 0c36 1A010000 		.4byte	.LVL65
 6145 0c3a 78010000 		.4byte	.LVL76
 6146 0c3e 0300     		.2byte	0x3
 6147 0c40 91       		.byte	0x91
 6148 0c41 E87C     		.sleb128 -408
 6149 0c43 78010000 		.4byte	.LVL76
 6150 0c47 84010000 		.4byte	.LVL77
 6151 0c4b 0200     		.2byte	0x2
 6152 0c4d 73       		.byte	0x73
 6153 0c4e 00       		.sleb128 0
 6154 0c4f 84010000 		.4byte	.LVL77
 6155 0c53 D4040000 		.4byte	.LVL166
 6156 0c57 0300     		.2byte	0x3
 6157 0c59 91       		.byte	0x91
 6158 0c5a E87C     		.sleb128 -408
 6159 0c5c D4040000 		.4byte	.LVL166
 6160 0c60 E8040000 		.4byte	.LVL167
 6161 0c64 0200     		.2byte	0x2
 6162 0c66 73       		.byte	0x73
 6163 0c67 00       		.sleb128 0
 6164 0c68 E8040000 		.4byte	.LVL167
 6165 0c6c 36050000 		.4byte	.LVL172
 6166 0c70 0600     		.2byte	0x6
 6167 0c72 52       		.byte	0x52
 6168 0c73 93       		.byte	0x93
 6169 0c74 04       		.uleb128 0x4
 6170 0c75 53       		.byte	0x53
 6171 0c76 93       		.byte	0x93
 6172 0c77 04       		.uleb128 0x4
 6173 0c78 46100000 		.4byte	.LVL436
 6174 0c7c 4E100000 		.4byte	.LVL437
 6175 0c80 0600     		.2byte	0x6
 6176 0c82 56       		.byte	0x56
 6177 0c83 93       		.byte	0x93
 6178 0c84 04       		.uleb128 0x4
 6179 0c85 57       		.byte	0x57
 6180 0c86 93       		.byte	0x93
 6181 0c87 04       		.uleb128 0x4
 6182 0c88 4E100000 		.4byte	.LVL437
 6183 0c8c 58100000 		.4byte	.LVL438
 6184 0c90 0200     		.2byte	0x2
 6185 0c92 73       		.byte	0x73
 6186 0c93 00       		.sleb128 0
 6187 0c94 58100000 		.4byte	.LVL438
 6188 0c98 90120000 		.4byte	.LVL508
 6189 0c9c 0300     		.2byte	0x3
 6190 0c9e 91       		.byte	0x91
ARM GAS  C:\Users\bogur\AppData\Local\Temp\ccXFXavo.s 			page 119


 6191 0c9f E87C     		.sleb128 -408
 6192 0ca1 90120000 		.4byte	.LVL508
 6193 0ca5 9A120000 		.4byte	.LVL509
 6194 0ca9 0200     		.2byte	0x2
 6195 0cab 72       		.byte	0x72
 6196 0cac 00       		.sleb128 0
 6197 0cad 9A120000 		.4byte	.LVL509
 6198 0cb1 9C120000 		.4byte	.LVL510
 6199 0cb5 0600     		.2byte	0x6
 6200 0cb7 51       		.byte	0x51
 6201 0cb8 93       		.byte	0x93
 6202 0cb9 04       		.uleb128 0x4
 6203 0cba 52       		.byte	0x52
 6204 0cbb 93       		.byte	0x93
 6205 0cbc 04       		.uleb128 0x4
 6206 0cbd 9C120000 		.4byte	.LVL510
 6207 0cc1 FC120000 		.4byte	.LFE2
 6208 0cc5 0300     		.2byte	0x3
 6209 0cc7 91       		.byte	0x91
 6210 0cc8 E87C     		.sleb128 -408
 6211 0cca 00000000 		.4byte	0
 6212 0cce 00000000 		.4byte	0
 6213              	.LLST24:
 6214 0cd2 C4000000 		.4byte	.LVL50
 6215 0cd6 C8000000 		.4byte	.LVL51
 6216 0cda 0600     		.2byte	0x6
 6217 0cdc 53       		.byte	0x53
 6218 0cdd 93       		.byte	0x93
 6219 0cde 04       		.uleb128 0x4
 6220 0cdf 54       		.byte	0x54
 6221 0ce0 93       		.byte	0x93
 6222 0ce1 04       		.uleb128 0x4
 6223 0ce2 C8000000 		.4byte	.LVL51
 6224 0ce6 12010000 		.4byte	.LVL64
 6225 0cea 0300     		.2byte	0x3
 6226 0cec 72       		.byte	0x72
 6227 0ced 8801     		.sleb128 136
 6228 0cef 12010000 		.4byte	.LVL64
 6229 0cf3 1A010000 		.4byte	.LVL65
 6230 0cf7 0600     		.2byte	0x6
 6231 0cf9 91       		.byte	0x91
 6232 0cfa 54       		.sleb128 -44
 6233 0cfb 06       		.byte	0x6
 6234 0cfc 23       		.byte	0x23
 6235 0cfd 8801     		.uleb128 0x88
 6236 0cff 1A010000 		.4byte	.LVL65
 6237 0d03 AC010000 		.4byte	.LVL82
 6238 0d07 0300     		.2byte	0x3
 6239 0d09 91       		.byte	0x91
 6240 0d0a F07C     		.sleb128 -400
 6241 0d0c AC010000 		.4byte	.LVL82
 6242 0d10 B0010000 		.4byte	.LVL83
 6243 0d14 0200     		.2byte	0x2
 6244 0d16 73       		.byte	0x73
 6245 0d17 00       		.sleb128 0
 6246 0d18 B0010000 		.4byte	.LVL83
 6247 0d1c 8E070000 		.4byte	.LVL232
ARM GAS  C:\Users\bogur\AppData\Local\Temp\ccXFXavo.s 			page 120


 6248 0d20 0300     		.2byte	0x3
 6249 0d22 91       		.byte	0x91
 6250 0d23 F07C     		.sleb128 -400
 6251 0d25 8E070000 		.4byte	.LVL232
 6252 0d29 96070000 		.4byte	.LVL233
 6253 0d2d 0200     		.2byte	0x2
 6254 0d2f 73       		.byte	0x73
 6255 0d30 00       		.sleb128 0
 6256 0d31 96070000 		.4byte	.LVL233
 6257 0d35 9E070000 		.4byte	.LVL235
 6258 0d39 0300     		.2byte	0x3
 6259 0d3b 91       		.byte	0x91
 6260 0d3c F07C     		.sleb128 -400
 6261 0d3e 66100000 		.4byte	.LVL439
 6262 0d42 6A100000 		.4byte	.LVL440
 6263 0d46 0600     		.2byte	0x6
 6264 0d48 56       		.byte	0x56
 6265 0d49 93       		.byte	0x93
 6266 0d4a 04       		.uleb128 0x4
 6267 0d4b 57       		.byte	0x57
 6268 0d4c 93       		.byte	0x93
 6269 0d4d 04       		.uleb128 0x4
 6270 0d4e 6A100000 		.4byte	.LVL440
 6271 0d52 9E120000 		.4byte	.LVL511
 6272 0d56 0300     		.2byte	0x3
 6273 0d58 91       		.byte	0x91
 6274 0d59 F07C     		.sleb128 -400
 6275 0d5b 9E120000 		.4byte	.LVL511
 6276 0d5f A2120000 		.4byte	.LVL512
 6277 0d63 0200     		.2byte	0x2
 6278 0d65 73       		.byte	0x73
 6279 0d66 00       		.sleb128 0
 6280 0d67 A2120000 		.4byte	.LVL512
 6281 0d6b A8120000 		.4byte	.LVL513
 6282 0d6f 0600     		.2byte	0x6
 6283 0d71 53       		.byte	0x53
 6284 0d72 93       		.byte	0x93
 6285 0d73 04       		.uleb128 0x4
 6286 0d74 54       		.byte	0x54
 6287 0d75 93       		.byte	0x93
 6288 0d76 04       		.uleb128 0x4
 6289 0d77 A8120000 		.4byte	.LVL513
 6290 0d7b FC120000 		.4byte	.LFE2
 6291 0d7f 0300     		.2byte	0x3
 6292 0d81 91       		.byte	0x91
 6293 0d82 F07C     		.sleb128 -400
 6294 0d84 00000000 		.4byte	0
 6295 0d88 00000000 		.4byte	0
 6296              	.LLST25:
 6297 0d8c CE000000 		.4byte	.LVL52
 6298 0d90 D0000000 		.4byte	.LVL53
 6299 0d94 0600     		.2byte	0x6
 6300 0d96 53       		.byte	0x53
 6301 0d97 93       		.byte	0x93
 6302 0d98 04       		.uleb128 0x4
 6303 0d99 54       		.byte	0x54
 6304 0d9a 93       		.byte	0x93
ARM GAS  C:\Users\bogur\AppData\Local\Temp\ccXFXavo.s 			page 121


 6305 0d9b 04       		.uleb128 0x4
 6306 0d9c D0000000 		.4byte	.LVL53
 6307 0da0 12010000 		.4byte	.LVL64
 6308 0da4 0300     		.2byte	0x3
 6309 0da6 72       		.byte	0x72
 6310 0da7 9001     		.sleb128 144
 6311 0da9 12010000 		.4byte	.LVL64
 6312 0dad 1A010000 		.4byte	.LVL65
 6313 0db1 0600     		.2byte	0x6
 6314 0db3 91       		.byte	0x91
 6315 0db4 54       		.sleb128 -44
 6316 0db5 06       		.byte	0x6
 6317 0db6 23       		.byte	0x23
 6318 0db7 9001     		.uleb128 0x90
 6319 0db9 1A010000 		.4byte	.LVL65
 6320 0dbd E4010000 		.4byte	.LVL91
 6321 0dc1 0300     		.2byte	0x3
 6322 0dc3 91       		.byte	0x91
 6323 0dc4 F87C     		.sleb128 -392
 6324 0dc6 E4010000 		.4byte	.LVL91
 6325 0dca E8010000 		.4byte	.LVL92
 6326 0dce 0200     		.2byte	0x2
 6327 0dd0 74       		.byte	0x74
 6328 0dd1 00       		.sleb128 0
 6329 0dd2 E8010000 		.4byte	.LVL92
 6330 0dd6 74030000 		.4byte	.LVL127
 6331 0dda 0300     		.2byte	0x3
 6332 0ddc 91       		.byte	0x91
 6333 0ddd F87C     		.sleb128 -392
 6334 0ddf 74030000 		.4byte	.LVL127
 6335 0de3 80030000 		.4byte	.LVL128
 6336 0de7 0200     		.2byte	0x2
 6337 0de9 73       		.byte	0x73
 6338 0dea 00       		.sleb128 0
 6339 0deb 80030000 		.4byte	.LVL128
 6340 0def 8C030000 		.4byte	.LVL129
 6341 0df3 0600     		.2byte	0x6
 6342 0df5 50       		.byte	0x50
 6343 0df6 93       		.byte	0x93
 6344 0df7 04       		.uleb128 0x4
 6345 0df8 51       		.byte	0x51
 6346 0df9 93       		.byte	0x93
 6347 0dfa 04       		.uleb128 0x4
 6348 0dfb 84100000 		.4byte	.LVL442
 6349 0dff C2100000 		.4byte	.LVL447
 6350 0e03 0600     		.2byte	0x6
 6351 0e05 50       		.byte	0x50
 6352 0e06 93       		.byte	0x93
 6353 0e07 04       		.uleb128 0x4
 6354 0e08 51       		.byte	0x51
 6355 0e09 93       		.byte	0x93
 6356 0e0a 04       		.uleb128 0x4
 6357 0e0b C2100000 		.4byte	.LVL447
 6358 0e0f A8120000 		.4byte	.LVL513
 6359 0e13 0300     		.2byte	0x3
 6360 0e15 91       		.byte	0x91
 6361 0e16 F87C     		.sleb128 -392
ARM GAS  C:\Users\bogur\AppData\Local\Temp\ccXFXavo.s 			page 122


 6362 0e18 A8120000 		.4byte	.LVL513
 6363 0e1c B2120000 		.4byte	.LVL514
 6364 0e20 0200     		.2byte	0x2
 6365 0e22 73       		.byte	0x73
 6366 0e23 00       		.sleb128 0
 6367 0e24 B2120000 		.4byte	.LVL514
 6368 0e28 B4120000 		.4byte	.LVL515
 6369 0e2c 0600     		.2byte	0x6
 6370 0e2e 52       		.byte	0x52
 6371 0e2f 93       		.byte	0x93
 6372 0e30 04       		.uleb128 0x4
 6373 0e31 53       		.byte	0x53
 6374 0e32 93       		.byte	0x93
 6375 0e33 04       		.uleb128 0x4
 6376 0e34 B4120000 		.4byte	.LVL515
 6377 0e38 FC120000 		.4byte	.LFE2
 6378 0e3c 0300     		.2byte	0x3
 6379 0e3e 91       		.byte	0x91
 6380 0e3f F87C     		.sleb128 -392
 6381 0e41 00000000 		.4byte	0
 6382 0e45 00000000 		.4byte	0
 6383              	.LLST26:
 6384 0e49 DA000000 		.4byte	.LVL54
 6385 0e4d E2000000 		.4byte	.LVL55
 6386 0e51 0600     		.2byte	0x6
 6387 0e53 51       		.byte	0x51
 6388 0e54 93       		.byte	0x93
 6389 0e55 04       		.uleb128 0x4
 6390 0e56 52       		.byte	0x52
 6391 0e57 93       		.byte	0x93
 6392 0e58 04       		.uleb128 0x4
 6393 0e59 E2000000 		.4byte	.LVL55
 6394 0e5d 12010000 		.4byte	.LVL64
 6395 0e61 0300     		.2byte	0x3
 6396 0e63 72       		.byte	0x72
 6397 0e64 9801     		.sleb128 152
 6398 0e66 12010000 		.4byte	.LVL64
 6399 0e6a 1A010000 		.4byte	.LVL65
 6400 0e6e 0600     		.2byte	0x6
 6401 0e70 91       		.byte	0x91
 6402 0e71 54       		.sleb128 -44
 6403 0e72 06       		.byte	0x6
 6404 0e73 23       		.byte	0x23
 6405 0e74 9801     		.uleb128 0x98
 6406 0e76 1A010000 		.4byte	.LVL65
 6407 0e7a 24020000 		.4byte	.LVL101
 6408 0e7e 0300     		.2byte	0x3
 6409 0e80 91       		.byte	0x91
 6410 0e81 807D     		.sleb128 -384
 6411 0e83 24020000 		.4byte	.LVL101
 6412 0e87 2C020000 		.4byte	.LVL102
 6413 0e8b 0200     		.2byte	0x2
 6414 0e8d 73       		.byte	0x73
 6415 0e8e 00       		.sleb128 0
 6416 0e8f 2C020000 		.4byte	.LVL102
 6417 0e93 54060000 		.4byte	.LVL199
 6418 0e97 0300     		.2byte	0x3
ARM GAS  C:\Users\bogur\AppData\Local\Temp\ccXFXavo.s 			page 123


 6419 0e99 91       		.byte	0x91
 6420 0e9a 807D     		.sleb128 -384
 6421 0e9c 9C100000 		.4byte	.LVL443
 6422 0ea0 40110000 		.4byte	.LVL462
 6423 0ea4 0600     		.2byte	0x6
 6424 0ea6 56       		.byte	0x56
 6425 0ea7 93       		.byte	0x93
 6426 0ea8 04       		.uleb128 0x4
 6427 0ea9 57       		.byte	0x57
 6428 0eaa 93       		.byte	0x93
 6429 0eab 04       		.uleb128 0x4
 6430 0eac 40110000 		.4byte	.LVL462
 6431 0eb0 B4120000 		.4byte	.LVL515
 6432 0eb4 0300     		.2byte	0x3
 6433 0eb6 91       		.byte	0x91
 6434 0eb7 807D     		.sleb128 -384
 6435 0eb9 B4120000 		.4byte	.LVL515
 6436 0ebd BE120000 		.4byte	.LVL516
 6437 0ec1 0200     		.2byte	0x2
 6438 0ec3 72       		.byte	0x72
 6439 0ec4 00       		.sleb128 0
 6440 0ec5 BE120000 		.4byte	.LVL516
 6441 0ec9 C0120000 		.4byte	.LVL517
 6442 0ecd 0600     		.2byte	0x6
 6443 0ecf 51       		.byte	0x51
 6444 0ed0 93       		.byte	0x93
 6445 0ed1 04       		.uleb128 0x4
 6446 0ed2 52       		.byte	0x52
 6447 0ed3 93       		.byte	0x93
 6448 0ed4 04       		.uleb128 0x4
 6449 0ed5 C0120000 		.4byte	.LVL517
 6450 0ed9 FC120000 		.4byte	.LFE2
 6451 0edd 0300     		.2byte	0x3
 6452 0edf 91       		.byte	0x91
 6453 0ee0 807D     		.sleb128 -384
 6454 0ee2 00000000 		.4byte	0
 6455 0ee6 00000000 		.4byte	0
 6456              	.LLST27:
 6457 0eea E6000000 		.4byte	.LVL56
 6458 0eee EA000000 		.4byte	.LVL57
 6459 0ef2 0600     		.2byte	0x6
 6460 0ef4 53       		.byte	0x53
 6461 0ef5 93       		.byte	0x93
 6462 0ef6 04       		.uleb128 0x4
 6463 0ef7 54       		.byte	0x54
 6464 0ef8 93       		.byte	0x93
 6465 0ef9 04       		.uleb128 0x4
 6466 0efa EA000000 		.4byte	.LVL57
 6467 0efe 12010000 		.4byte	.LVL64
 6468 0f02 0300     		.2byte	0x3
 6469 0f04 72       		.byte	0x72
 6470 0f05 A001     		.sleb128 160
 6471 0f07 12010000 		.4byte	.LVL64
 6472 0f0b 1A010000 		.4byte	.LVL65
 6473 0f0f 0600     		.2byte	0x6
 6474 0f11 91       		.byte	0x91
 6475 0f12 54       		.sleb128 -44
ARM GAS  C:\Users\bogur\AppData\Local\Temp\ccXFXavo.s 			page 124


 6476 0f13 06       		.byte	0x6
 6477 0f14 23       		.byte	0x23
 6478 0f15 A001     		.uleb128 0xa0
 6479 0f17 1A010000 		.4byte	.LVL65
 6480 0f1b 4E010000 		.4byte	.LVL72
 6481 0f1f 0300     		.2byte	0x3
 6482 0f21 91       		.byte	0x91
 6483 0f22 887D     		.sleb128 -376
 6484 0f24 4E010000 		.4byte	.LVL72
 6485 0f28 64010000 		.4byte	.LVL74
 6486 0f2c 0200     		.2byte	0x2
 6487 0f2e 73       		.byte	0x73
 6488 0f2f 00       		.sleb128 0
 6489 0f30 64010000 		.4byte	.LVL74
 6490 0f34 6A060000 		.4byte	.LVL201
 6491 0f38 0300     		.2byte	0x3
 6492 0f3a 91       		.byte	0x91
 6493 0f3b 887D     		.sleb128 -376
 6494 0f3d 6A060000 		.4byte	.LVL201
 6495 0f41 78060000 		.4byte	.LVL202
 6496 0f45 0200     		.2byte	0x2
 6497 0f47 73       		.byte	0x73
 6498 0f48 00       		.sleb128 0
 6499 0f49 62110000 		.4byte	.LVL467
 6500 0f4d 68110000 		.4byte	.LVL469
 6501 0f51 0600     		.2byte	0x6
 6502 0f53 50       		.byte	0x50
 6503 0f54 93       		.byte	0x93
 6504 0f55 04       		.uleb128 0x4
 6505 0f56 51       		.byte	0x51
 6506 0f57 93       		.byte	0x93
 6507 0f58 04       		.uleb128 0x4
 6508 0f59 68110000 		.4byte	.LVL469
 6509 0f5d C2120000 		.4byte	.LVL518
 6510 0f61 0300     		.2byte	0x3
 6511 0f63 91       		.byte	0x91
 6512 0f64 887D     		.sleb128 -376
 6513 0f66 C2120000 		.4byte	.LVL518
 6514 0f6a C6120000 		.4byte	.LVL519
 6515 0f6e 0200     		.2byte	0x2
 6516 0f70 73       		.byte	0x73
 6517 0f71 00       		.sleb128 0
 6518 0f72 C6120000 		.4byte	.LVL519
 6519 0f76 CC120000 		.4byte	.LVL520
 6520 0f7a 0600     		.2byte	0x6
 6521 0f7c 53       		.byte	0x53
 6522 0f7d 93       		.byte	0x93
 6523 0f7e 04       		.uleb128 0x4
 6524 0f7f 54       		.byte	0x54
 6525 0f80 93       		.byte	0x93
 6526 0f81 04       		.uleb128 0x4
 6527 0f82 CC120000 		.4byte	.LVL520
 6528 0f86 FC120000 		.4byte	.LFE2
 6529 0f8a 0300     		.2byte	0x3
 6530 0f8c 91       		.byte	0x91
 6531 0f8d 887D     		.sleb128 -376
 6532 0f8f 00000000 		.4byte	0
ARM GAS  C:\Users\bogur\AppData\Local\Temp\ccXFXavo.s 			page 125


 6533 0f93 00000000 		.4byte	0
 6534              	.LLST28:
 6535 0f97 F0000000 		.4byte	.LVL58
 6536 0f9b F2000000 		.4byte	.LVL59
 6537 0f9f 0600     		.2byte	0x6
 6538 0fa1 53       		.byte	0x53
 6539 0fa2 93       		.byte	0x93
 6540 0fa3 04       		.uleb128 0x4
 6541 0fa4 54       		.byte	0x54
 6542 0fa5 93       		.byte	0x93
 6543 0fa6 04       		.uleb128 0x4
 6544 0fa7 F2000000 		.4byte	.LVL59
 6545 0fab 12010000 		.4byte	.LVL64
 6546 0faf 0300     		.2byte	0x3
 6547 0fb1 72       		.byte	0x72
 6548 0fb2 A801     		.sleb128 168
 6549 0fb4 12010000 		.4byte	.LVL64
 6550 0fb8 1A010000 		.4byte	.LVL65
 6551 0fbc 0600     		.2byte	0x6
 6552 0fbe 91       		.byte	0x91
 6553 0fbf 54       		.sleb128 -44
 6554 0fc0 06       		.byte	0x6
 6555 0fc1 23       		.byte	0x23
 6556 0fc2 A801     		.uleb128 0xa8
 6557 0fc4 1A010000 		.4byte	.LVL65
 6558 0fc8 84010000 		.4byte	.LVL77
 6559 0fcc 0300     		.2byte	0x3
 6560 0fce 91       		.byte	0x91
 6561 0fcf 907D     		.sleb128 -368
 6562 0fd1 84010000 		.4byte	.LVL77
 6563 0fd5 88010000 		.4byte	.LVL78
 6564 0fd9 0200     		.2byte	0x2
 6565 0fdb 73       		.byte	0x73
 6566 0fdc 00       		.sleb128 0
 6567 0fdd 88010000 		.4byte	.LVL78
 6568 0fe1 08090000 		.4byte	.LVL270
 6569 0fe5 0300     		.2byte	0x3
 6570 0fe7 91       		.byte	0x91
 6571 0fe8 907D     		.sleb128 -368
 6572 0fea 08090000 		.4byte	.LVL270
 6573 0fee 14090000 		.4byte	.LVL272
 6574 0ff2 0200     		.2byte	0x2
 6575 0ff4 73       		.byte	0x73
 6576 0ff5 00       		.sleb128 0
 6577 0ff6 14090000 		.4byte	.LVL272
 6578 0ffa 1E090000 		.4byte	.LVL273
 6579 0ffe 0600     		.2byte	0x6
 6580 1000 52       		.byte	0x52
 6581 1001 93       		.byte	0x93
 6582 1002 04       		.uleb128 0x4
 6583 1003 53       		.byte	0x53
 6584 1004 93       		.byte	0x93
 6585 1005 04       		.uleb128 0x4
 6586 1006 7E110000 		.4byte	.LVL471
 6587 100a 82110000 		.4byte	.LVL472
 6588 100e 0600     		.2byte	0x6
 6589 1010 54       		.byte	0x54
ARM GAS  C:\Users\bogur\AppData\Local\Temp\ccXFXavo.s 			page 126


 6590 1011 93       		.byte	0x93
 6591 1012 04       		.uleb128 0x4
 6592 1013 55       		.byte	0x55
 6593 1014 93       		.byte	0x93
 6594 1015 04       		.uleb128 0x4
 6595 1016 82110000 		.4byte	.LVL472
 6596 101a CC120000 		.4byte	.LVL520
 6597 101e 0300     		.2byte	0x3
 6598 1020 91       		.byte	0x91
 6599 1021 907D     		.sleb128 -368
 6600 1023 CC120000 		.4byte	.LVL520
 6601 1027 D6120000 		.4byte	.LVL521
 6602 102b 0200     		.2byte	0x2
 6603 102d 73       		.byte	0x73
 6604 102e 00       		.sleb128 0
 6605 102f D6120000 		.4byte	.LVL521
 6606 1033 D8120000 		.4byte	.LVL522
 6607 1037 0600     		.2byte	0x6
 6608 1039 52       		.byte	0x52
 6609 103a 93       		.byte	0x93
 6610 103b 04       		.uleb128 0x4
 6611 103c 53       		.byte	0x53
 6612 103d 93       		.byte	0x93
 6613 103e 04       		.uleb128 0x4
 6614 103f D8120000 		.4byte	.LVL522
 6615 1043 FC120000 		.4byte	.LFE2
 6616 1047 0300     		.2byte	0x3
 6617 1049 91       		.byte	0x91
 6618 104a 907D     		.sleb128 -368
 6619 104c 00000000 		.4byte	0
 6620 1050 00000000 		.4byte	0
 6621              	.LLST29:
 6622 1054 FC000000 		.4byte	.LVL60
 6623 1058 04010000 		.4byte	.LVL61
 6624 105c 0600     		.2byte	0x6
 6625 105e 51       		.byte	0x51
 6626 105f 93       		.byte	0x93
 6627 1060 04       		.uleb128 0x4
 6628 1061 52       		.byte	0x52
 6629 1062 93       		.byte	0x93
 6630 1063 04       		.uleb128 0x4
 6631 1064 04010000 		.4byte	.LVL61
 6632 1068 12010000 		.4byte	.LVL64
 6633 106c 0300     		.2byte	0x3
 6634 106e 72       		.byte	0x72
 6635 106f B001     		.sleb128 176
 6636 1071 12010000 		.4byte	.LVL64
 6637 1075 1A010000 		.4byte	.LVL65
 6638 1079 0600     		.2byte	0x6
 6639 107b 91       		.byte	0x91
 6640 107c 54       		.sleb128 -44
 6641 107d 06       		.byte	0x6
 6642 107e 23       		.byte	0x23
 6643 107f B001     		.uleb128 0xb0
 6644 1081 1A010000 		.4byte	.LVL65
 6645 1085 BA010000 		.4byte	.LVL84
 6646 1089 0300     		.2byte	0x3
ARM GAS  C:\Users\bogur\AppData\Local\Temp\ccXFXavo.s 			page 127


 6647 108b 91       		.byte	0x91
 6648 108c 987D     		.sleb128 -360
 6649 108e BA010000 		.4byte	.LVL84
 6650 1092 D4010000 		.4byte	.LVL88
 6651 1096 0200     		.2byte	0x2
 6652 1098 73       		.byte	0x73
 6653 1099 00       		.sleb128 0
 6654 109a D4010000 		.4byte	.LVL88
 6655 109e 12050000 		.4byte	.LVL170
 6656 10a2 0300     		.2byte	0x3
 6657 10a4 91       		.byte	0x91
 6658 10a5 987D     		.sleb128 -360
 6659 10a7 98110000 		.4byte	.LVL473
 6660 10ab BA110000 		.4byte	.LVL478
 6661 10af 0600     		.2byte	0x6
 6662 10b1 54       		.byte	0x54
 6663 10b2 93       		.byte	0x93
 6664 10b3 04       		.uleb128 0x4
 6665 10b4 55       		.byte	0x55
 6666 10b5 93       		.byte	0x93
 6667 10b6 04       		.uleb128 0x4
 6668 10b7 BA110000 		.4byte	.LVL478
 6669 10bb D8120000 		.4byte	.LVL522
 6670 10bf 0300     		.2byte	0x3
 6671 10c1 91       		.byte	0x91
 6672 10c2 987D     		.sleb128 -360
 6673 10c4 D8120000 		.4byte	.LVL522
 6674 10c8 E2120000 		.4byte	.LVL523
 6675 10cc 0200     		.2byte	0x2
 6676 10ce 72       		.byte	0x72
 6677 10cf 00       		.sleb128 0
 6678 10d0 E2120000 		.4byte	.LVL523
 6679 10d4 FC120000 		.4byte	.LFE2
 6680 10d8 0600     		.2byte	0x6
 6681 10da 51       		.byte	0x51
 6682 10db 93       		.byte	0x93
 6683 10dc 04       		.uleb128 0x4
 6684 10dd 52       		.byte	0x52
 6685 10de 93       		.byte	0x93
 6686 10df 04       		.uleb128 0x4
 6687 10e0 00000000 		.4byte	0
 6688 10e4 00000000 		.4byte	0
 6689              	.LLST30:
 6690 10e8 08010000 		.4byte	.LVL62
 6691 10ec 0C010000 		.4byte	.LVL63
 6692 10f0 0600     		.2byte	0x6
 6693 10f2 53       		.byte	0x53
 6694 10f3 93       		.byte	0x93
 6695 10f4 04       		.uleb128 0x4
 6696 10f5 54       		.byte	0x54
 6697 10f6 93       		.byte	0x93
 6698 10f7 04       		.uleb128 0x4
 6699 10f8 0C010000 		.4byte	.LVL63
 6700 10fc 12010000 		.4byte	.LVL64
 6701 1100 0300     		.2byte	0x3
 6702 1102 72       		.byte	0x72
 6703 1103 B801     		.sleb128 184
ARM GAS  C:\Users\bogur\AppData\Local\Temp\ccXFXavo.s 			page 128


 6704 1105 12010000 		.4byte	.LVL64
 6705 1109 1A010000 		.4byte	.LVL65
 6706 110d 0600     		.2byte	0x6
 6707 110f 91       		.byte	0x91
 6708 1110 54       		.sleb128 -44
 6709 1111 06       		.byte	0x6
 6710 1112 23       		.byte	0x23
 6711 1113 B801     		.uleb128 0xb8
 6712 1115 1A010000 		.4byte	.LVL65
 6713 1119 F2010000 		.4byte	.LVL93
 6714 111d 0300     		.2byte	0x3
 6715 111f 91       		.byte	0x91
 6716 1120 A07D     		.sleb128 -352
 6717 1122 F2010000 		.4byte	.LVL93
 6718 1126 F6010000 		.4byte	.LVL94
 6719 112a 0200     		.2byte	0x2
 6720 112c 74       		.byte	0x74
 6721 112d 00       		.sleb128 0
 6722 112e F6010000 		.4byte	.LVL94
 6723 1132 B4070000 		.4byte	.LVL237
 6724 1136 0300     		.2byte	0x3
 6725 1138 91       		.byte	0x91
 6726 1139 A07D     		.sleb128 -352
 6727 113b B4070000 		.4byte	.LVL237
 6728 113f C4070000 		.4byte	.LVL238
 6729 1143 0200     		.2byte	0x2
 6730 1145 73       		.byte	0x73
 6731 1146 00       		.sleb128 0
 6732 1147 AE110000 		.4byte	.LVL476
 6733 114b C8110000 		.4byte	.LVL480
 6734 114f 0600     		.2byte	0x6
 6735 1151 50       		.byte	0x50
 6736 1152 93       		.byte	0x93
 6737 1153 04       		.uleb128 0x4
 6738 1154 51       		.byte	0x51
 6739 1155 93       		.byte	0x93
 6740 1156 04       		.uleb128 0x4
 6741 1157 C8110000 		.4byte	.LVL480
 6742 115b E4120000 		.4byte	.LVL524
 6743 115f 0300     		.2byte	0x3
 6744 1161 91       		.byte	0x91
 6745 1162 A07D     		.sleb128 -352
 6746 1164 E4120000 		.4byte	.LVL524
 6747 1168 E8120000 		.4byte	.LVL525
 6748 116c 0200     		.2byte	0x2
 6749 116e 73       		.byte	0x73
 6750 116f 00       		.sleb128 0
 6751 1170 E8120000 		.4byte	.LVL525
 6752 1174 EE120000 		.4byte	.LVL526
 6753 1178 0600     		.2byte	0x6
 6754 117a 53       		.byte	0x53
 6755 117b 93       		.byte	0x93
 6756 117c 04       		.uleb128 0x4
 6757 117d 54       		.byte	0x54
 6758 117e 93       		.byte	0x93
 6759 117f 04       		.uleb128 0x4
 6760 1180 EE120000 		.4byte	.LVL526
ARM GAS  C:\Users\bogur\AppData\Local\Temp\ccXFXavo.s 			page 129


 6761 1184 FC120000 		.4byte	.LFE2
 6762 1188 0300     		.2byte	0x3
 6763 118a 91       		.byte	0x91
 6764 118b A07D     		.sleb128 -352
 6765 118d 00000000 		.4byte	0
 6766 1191 00000000 		.4byte	0
 6767              	.LLST31:
 6768 1195 0C010000 		.4byte	.LVL63
 6769 1199 1A010000 		.4byte	.LVL65
 6770 119d 0600     		.2byte	0x6
 6771 119f 53       		.byte	0x53
 6772 11a0 93       		.byte	0x93
 6773 11a1 04       		.uleb128 0x4
 6774 11a2 54       		.byte	0x54
 6775 11a3 93       		.byte	0x93
 6776 11a4 04       		.uleb128 0x4
 6777 11a5 1A010000 		.4byte	.LVL65
 6778 11a9 32020000 		.4byte	.LVL103
 6779 11ad 0300     		.2byte	0x3
 6780 11af 91       		.byte	0x91
 6781 11b0 A87D     		.sleb128 -344
 6782 11b2 32020000 		.4byte	.LVL103
 6783 11b6 3A020000 		.4byte	.LVL104
 6784 11ba 0200     		.2byte	0x2
 6785 11bc 73       		.byte	0x73
 6786 11bd 00       		.sleb128 0
 6787 11be 3A020000 		.4byte	.LVL104
 6788 11c2 A6030000 		.4byte	.LVL131
 6789 11c6 0300     		.2byte	0x3
 6790 11c8 91       		.byte	0x91
 6791 11c9 A87D     		.sleb128 -344
 6792 11cb C4110000 		.4byte	.LVL479
 6793 11cf C8110000 		.4byte	.LVL480
 6794 11d3 0600     		.2byte	0x6
 6795 11d5 54       		.byte	0x54
 6796 11d6 93       		.byte	0x93
 6797 11d7 04       		.uleb128 0x4
 6798 11d8 55       		.byte	0x55
 6799 11d9 93       		.byte	0x93
 6800 11da 04       		.uleb128 0x4
 6801 11db C8110000 		.4byte	.LVL480
 6802 11df D2110000 		.4byte	.LVL481
 6803 11e3 0300     		.2byte	0x3
 6804 11e5 91       		.byte	0x91
 6805 11e6 A87D     		.sleb128 -344
 6806 11e8 D2110000 		.4byte	.LVL481
 6807 11ec DA110000 		.4byte	.LVL482
 6808 11f0 0200     		.2byte	0x2
 6809 11f2 73       		.byte	0x73
 6810 11f3 00       		.sleb128 0
 6811 11f4 DA110000 		.4byte	.LVL482
 6812 11f8 FC120000 		.4byte	.LFE2
 6813 11fc 0600     		.2byte	0x6
 6814 11fe 5A       		.byte	0x5a
 6815 11ff 93       		.byte	0x93
 6816 1200 04       		.uleb128 0x4
 6817 1201 5B       		.byte	0x5b
ARM GAS  C:\Users\bogur\AppData\Local\Temp\ccXFXavo.s 			page 130


 6818 1202 93       		.byte	0x93
 6819 1203 04       		.uleb128 0x4
 6820 1204 00000000 		.4byte	0
 6821 1208 00000000 		.4byte	0
 6822              	.LLST32:
 6823 120c 5E010000 		.4byte	.LVL73
 6824 1210 12030000 		.4byte	.LVL115
 6825 1214 0600     		.2byte	0x6
 6826 1216 58       		.byte	0x58
 6827 1217 93       		.byte	0x93
 6828 1218 04       		.uleb128 0x4
 6829 1219 59       		.byte	0x59
 6830 121a 93       		.byte	0x93
 6831 121b 04       		.uleb128 0x4
 6832 121c 24030000 		.4byte	.LVL116
 6833 1220 2A030000 		.4byte	.LVL118
 6834 1224 0600     		.2byte	0x6
 6835 1226 58       		.byte	0x58
 6836 1227 93       		.byte	0x93
 6837 1228 04       		.uleb128 0x4
 6838 1229 59       		.byte	0x59
 6839 122a 93       		.byte	0x93
 6840 122b 04       		.uleb128 0x4
 6841 122c 2A030000 		.4byte	.LVL118
 6842 1230 D0030000 		.4byte	.LVL136
 6843 1234 0300     		.2byte	0x3
 6844 1236 91       		.byte	0x91
 6845 1237 D87D     		.sleb128 -296
 6846 1239 D0030000 		.4byte	.LVL136
 6847 123d E2030000 		.4byte	.LVL137
 6848 1241 0200     		.2byte	0x2
 6849 1243 74       		.byte	0x74
 6850 1244 00       		.sleb128 0
 6851 1245 E2030000 		.4byte	.LVL137
 6852 1249 2A040000 		.4byte	.LVL147
 6853 124d 0300     		.2byte	0x3
 6854 124f 91       		.byte	0x91
 6855 1250 D87D     		.sleb128 -296
 6856 1252 2A040000 		.4byte	.LVL147
 6857 1256 50040000 		.4byte	.LVL152
 6858 125a 0200     		.2byte	0x2
 6859 125c 73       		.byte	0x73
 6860 125d 00       		.sleb128 0
 6861 125e 50040000 		.4byte	.LVL152
 6862 1262 5E040000 		.4byte	.LVL153
 6863 1266 0300     		.2byte	0x3
 6864 1268 91       		.byte	0x91
 6865 1269 D87D     		.sleb128 -296
 6866 126b 86040000 		.4byte	.LVL157
 6867 126f 3C050000 		.4byte	.LVL173
 6868 1273 0300     		.2byte	0x3
 6869 1275 91       		.byte	0x91
 6870 1276 807E     		.sleb128 -256
 6871 1278 3C050000 		.4byte	.LVL173
 6872 127c 68050000 		.4byte	.LVL178
 6873 1280 0200     		.2byte	0x2
 6874 1282 71       		.byte	0x71
ARM GAS  C:\Users\bogur\AppData\Local\Temp\ccXFXavo.s 			page 131


 6875 1283 00       		.sleb128 0
 6876 1284 68050000 		.4byte	.LVL178
 6877 1288 8A050000 		.4byte	.LVL182
 6878 128c 0600     		.2byte	0x6
 6879 128e 59       		.byte	0x59
 6880 128f 93       		.byte	0x93
 6881 1290 04       		.uleb128 0x4
 6882 1291 5A       		.byte	0x5a
 6883 1292 93       		.byte	0x93
 6884 1293 04       		.uleb128 0x4
 6885 1294 8A050000 		.4byte	.LVL182
 6886 1298 EE050000 		.4byte	.LVL190
 6887 129c 0300     		.2byte	0x3
 6888 129e 91       		.byte	0x91
 6889 129f 807E     		.sleb128 -256
 6890 12a1 EE050000 		.4byte	.LVL190
 6891 12a5 38070000 		.4byte	.LVL220
 6892 12a9 0300     		.2byte	0x3
 6893 12ab 91       		.byte	0x91
 6894 12ac D07B     		.sleb128 -560
 6895 12ae 38070000 		.4byte	.LVL220
 6896 12b2 EC070000 		.4byte	.LVL242
 6897 12b6 0300     		.2byte	0x3
 6898 12b8 91       		.byte	0x91
 6899 12b9 A87E     		.sleb128 -216
 6900 12bb EC070000 		.4byte	.LVL242
 6901 12bf 54080000 		.4byte	.LVL254
 6902 12c3 0200     		.2byte	0x2
 6903 12c5 71       		.byte	0x71
 6904 12c6 00       		.sleb128 0
 6905 12c7 54080000 		.4byte	.LVL254
 6906 12cb 6C080000 		.4byte	.LVL256
 6907 12cf 0200     		.2byte	0x2
 6908 12d1 79       		.byte	0x79
 6909 12d2 00       		.sleb128 0
 6910 12d3 6C080000 		.4byte	.LVL256
 6911 12d7 9C080000 		.4byte	.LVL261
 6912 12db 0300     		.2byte	0x3
 6913 12dd 91       		.byte	0x91
 6914 12de A87E     		.sleb128 -216
 6915 12e0 9C080000 		.4byte	.LVL261
 6916 12e4 38090000 		.4byte	.LVL276
 6917 12e8 0300     		.2byte	0x3
 6918 12ea 91       		.byte	0x91
 6919 12eb C07E     		.sleb128 -192
 6920 12ed 38090000 		.4byte	.LVL276
 6921 12f1 98090000 		.4byte	.LVL289
 6922 12f5 0200     		.2byte	0x2
 6923 12f7 71       		.byte	0x71
 6924 12f8 00       		.sleb128 0
 6925 12f9 98090000 		.4byte	.LVL289
 6926 12fd BC090000 		.4byte	.LVL292
 6927 1301 0200     		.2byte	0x2
 6928 1303 79       		.byte	0x79
 6929 1304 00       		.sleb128 0
 6930 1305 BC090000 		.4byte	.LVL292
 6931 1309 FA090000 		.4byte	.LVL299
ARM GAS  C:\Users\bogur\AppData\Local\Temp\ccXFXavo.s 			page 132


 6932 130d 0300     		.2byte	0x3
 6933 130f 91       		.byte	0x91
 6934 1310 C07E     		.sleb128 -192
 6935 1312 FA090000 		.4byte	.LVL299
 6936 1316 A80B0000 		.4byte	.LVL330
 6937 131a 0600     		.2byte	0x6
 6938 131c 58       		.byte	0x58
 6939 131d 93       		.byte	0x93
 6940 131e 04       		.uleb128 0x4
 6941 131f 59       		.byte	0x59
 6942 1320 93       		.byte	0x93
 6943 1321 04       		.uleb128 0x4
 6944 1322 CC0B0000 		.4byte	.LVL334
 6945 1326 F60C0000 		.4byte	.LVL359
 6946 132a 0600     		.2byte	0x6
 6947 132c 50       		.byte	0x50
 6948 132d 93       		.byte	0x93
 6949 132e 04       		.uleb128 0x4
 6950 132f 51       		.byte	0x51
 6951 1330 93       		.byte	0x93
 6952 1331 04       		.uleb128 0x4
 6953 1332 0A0D0000 		.4byte	.LVL362
 6954 1336 420E0000 		.4byte	.LVL388
 6955 133a 0300     		.2byte	0x3
 6956 133c 91       		.byte	0x91
 6957 133d E07B     		.sleb128 -544
 6958 133f 420E0000 		.4byte	.LVL388
 6959 1343 D80E0000 		.4byte	.LVL404
 6960 1347 0300     		.2byte	0x3
 6961 1349 91       		.byte	0x91
 6962 134a 907F     		.sleb128 -112
 6963 134c D80E0000 		.4byte	.LVL404
 6964 1350 E00E0000 		.4byte	.LVL405
 6965 1354 0200     		.2byte	0x2
 6966 1356 71       		.byte	0x71
 6967 1357 00       		.sleb128 0
 6968 1358 E00E0000 		.4byte	.LVL405
 6969 135c 660F0000 		.4byte	.LVL417
 6970 1360 0600     		.2byte	0x6
 6971 1362 54       		.byte	0x54
 6972 1363 93       		.byte	0x93
 6973 1364 04       		.uleb128 0x4
 6974 1365 55       		.byte	0x55
 6975 1366 93       		.byte	0x93
 6976 1367 04       		.uleb128 0x4
 6977 1368 660F0000 		.4byte	.LVL417
 6978 136c 7C0F0000 		.4byte	.LVL418
 6979 1370 0300     		.2byte	0x3
 6980 1372 91       		.byte	0x91
 6981 1373 907F     		.sleb128 -112
 6982 1375 7C0F0000 		.4byte	.LVL418
 6983 1379 14100000 		.4byte	.LVL432
 6984 137d 0300     		.2byte	0x3
 6985 137f 91       		.byte	0x91
 6986 1380 A07F     		.sleb128 -96
 6987 1382 14100000 		.4byte	.LVL432
 6988 1386 1C100000 		.4byte	.LVL433
ARM GAS  C:\Users\bogur\AppData\Local\Temp\ccXFXavo.s 			page 133


 6989 138a 0200     		.2byte	0x2
 6990 138c 71       		.byte	0x71
 6991 138d 00       		.sleb128 0
 6992 138e 1C100000 		.4byte	.LVL433
 6993 1392 AA100000 		.4byte	.LVL444
 6994 1396 0600     		.2byte	0x6
 6995 1398 54       		.byte	0x54
 6996 1399 93       		.byte	0x93
 6997 139a 04       		.uleb128 0x4
 6998 139b 55       		.byte	0x55
 6999 139c 93       		.byte	0x93
 7000 139d 04       		.uleb128 0x4
 7001 139e AA100000 		.4byte	.LVL444
 7002 13a2 BC100000 		.4byte	.LVL446
 7003 13a6 0300     		.2byte	0x3
 7004 13a8 91       		.byte	0x91
 7005 13a9 A07F     		.sleb128 -96
 7006 13ab BC100000 		.4byte	.LVL446
 7007 13af 50110000 		.4byte	.LVL465
 7008 13b3 0300     		.2byte	0x3
 7009 13b5 91       		.byte	0x91
 7010 13b6 B07F     		.sleb128 -80
 7011 13b8 50110000 		.4byte	.LVL465
 7012 13bc 58110000 		.4byte	.LVL466
 7013 13c0 0200     		.2byte	0x2
 7014 13c2 71       		.byte	0x71
 7015 13c3 00       		.sleb128 0
 7016 13c4 58110000 		.4byte	.LVL466
 7017 13c8 B2110000 		.4byte	.LVL477
 7018 13cc 0600     		.2byte	0x6
 7019 13ce 5A       		.byte	0x5a
 7020 13cf 93       		.byte	0x93
 7021 13d0 04       		.uleb128 0x4
 7022 13d1 5B       		.byte	0x5b
 7023 13d2 93       		.byte	0x93
 7024 13d3 04       		.uleb128 0x4
 7025 13d4 B2110000 		.4byte	.LVL477
 7026 13d8 C8110000 		.4byte	.LVL480
 7027 13dc 0300     		.2byte	0x3
 7028 13de 91       		.byte	0x91
 7029 13df B07F     		.sleb128 -80
 7030 13e1 00000000 		.4byte	0
 7031 13e5 00000000 		.4byte	0
 7032              	.LLST33:
 7033 13e9 90010000 		.4byte	.LVL79
 7034 13ed DE020000 		.4byte	.LVL111
 7035 13f1 0600     		.2byte	0x6
 7036 13f3 56       		.byte	0x56
 7037 13f4 93       		.byte	0x93
 7038 13f5 04       		.uleb128 0x4
 7039 13f6 57       		.byte	0x57
 7040 13f7 93       		.byte	0x93
 7041 13f8 04       		.uleb128 0x4
 7042 13f9 4E030000 		.4byte	.LVL121
 7043 13fd BC030000 		.4byte	.LVL133
 7044 1401 0300     		.2byte	0x3
 7045 1403 91       		.byte	0x91
ARM GAS  C:\Users\bogur\AppData\Local\Temp\ccXFXavo.s 			page 134


 7046 1404 E07D     		.sleb128 -288
 7047 1406 BC030000 		.4byte	.LVL133
 7048 140a C2030000 		.4byte	.LVL135
 7049 140e 0200     		.2byte	0x2
 7050 1410 73       		.byte	0x73
 7051 1411 00       		.sleb128 0
 7052 1412 C2030000 		.4byte	.LVL135
 7053 1416 62040000 		.4byte	.LVL154
 7054 141a 0600     		.2byte	0x6
 7055 141c 5A       		.byte	0x5a
 7056 141d 93       		.byte	0x93
 7057 141e 04       		.uleb128 0x4
 7058 141f 5B       		.byte	0x5b
 7059 1420 93       		.byte	0x93
 7060 1421 04       		.uleb128 0x4
 7061 1422 62040000 		.4byte	.LVL154
 7062 1426 AC040000 		.4byte	.LVL161
 7063 142a 0300     		.2byte	0x3
 7064 142c 91       		.byte	0x91
 7065 142d E07D     		.sleb128 -288
 7066 142f AC040000 		.4byte	.LVL161
 7067 1433 1C060000 		.4byte	.LVL195
 7068 1437 0300     		.2byte	0x3
 7069 1439 91       		.byte	0x91
 7070 143a B07A     		.sleb128 -720
 7071 143c 1C060000 		.4byte	.LVL195
 7072 1440 62070000 		.4byte	.LVL224
 7073 1444 0300     		.2byte	0x3
 7074 1446 91       		.byte	0x91
 7075 1447 C87A     		.sleb128 -696
 7076 1449 62070000 		.4byte	.LVL224
 7077 144d DA070000 		.4byte	.LVL240
 7078 1451 0300     		.2byte	0x3
 7079 1453 91       		.byte	0x91
 7080 1454 B07E     		.sleb128 -208
 7081 1456 DA070000 		.4byte	.LVL240
 7082 145a EA070000 		.4byte	.LVL241
 7083 145e 0200     		.2byte	0x2
 7084 1460 73       		.byte	0x73
 7085 1461 00       		.sleb128 0
 7086 1462 EA070000 		.4byte	.LVL241
 7087 1466 74080000 		.4byte	.LVL257
 7088 146a 0600     		.2byte	0x6
 7089 146c 5A       		.byte	0x5a
 7090 146d 93       		.byte	0x93
 7091 146e 04       		.uleb128 0x4
 7092 146f 5B       		.byte	0x5b
 7093 1470 93       		.byte	0x93
 7094 1471 04       		.uleb128 0x4
 7095 1472 74080000 		.4byte	.LVL257
 7096 1476 BE080000 		.4byte	.LVL264
 7097 147a 0300     		.2byte	0x3
 7098 147c 91       		.byte	0x91
 7099 147d B07E     		.sleb128 -208
 7100 147f BE080000 		.4byte	.LVL264
 7101 1483 320A0000 		.4byte	.LVL303
 7102 1487 0300     		.2byte	0x3
ARM GAS  C:\Users\bogur\AppData\Local\Temp\ccXFXavo.s 			page 135


 7103 1489 91       		.byte	0x91
 7104 148a E07A     		.sleb128 -672
 7105 148c 320A0000 		.4byte	.LVL303
 7106 1490 720B0000 		.4byte	.LVL327
 7107 1494 0600     		.2byte	0x6
 7108 1496 56       		.byte	0x56
 7109 1497 93       		.byte	0x93
 7110 1498 04       		.uleb128 0x4
 7111 1499 57       		.byte	0x57
 7112 149a 93       		.byte	0x93
 7113 149b 04       		.uleb128 0x4
 7114 149c EC0B0000 		.4byte	.LVL337
 7115 14a0 2A0D0000 		.4byte	.LVL365
 7116 14a4 0300     		.2byte	0x3
 7117 14a6 91       		.byte	0x91
 7118 14a7 F07A     		.sleb128 -656
 7119 14a9 2A0D0000 		.4byte	.LVL365
 7120 14ad 8A0D0000 		.4byte	.LVL375
 7121 14b1 0300     		.2byte	0x3
 7122 14b3 91       		.byte	0x91
 7123 14b4 887F     		.sleb128 -120
 7124 14b6 8A0D0000 		.4byte	.LVL375
 7125 14ba A60D0000 		.4byte	.LVL376
 7126 14be 0200     		.2byte	0x2
 7127 14c0 73       		.byte	0x73
 7128 14c1 00       		.sleb128 0
 7129 14c2 A60D0000 		.4byte	.LVL376
 7130 14c6 C20D0000 		.4byte	.LVL378
 7131 14ca 0600     		.2byte	0x6
 7132 14cc 58       		.byte	0x58
 7133 14cd 93       		.byte	0x93
 7134 14ce 04       		.uleb128 0x4
 7135 14cf 59       		.byte	0x59
 7136 14d0 93       		.byte	0x93
 7137 14d1 04       		.uleb128 0x4
 7138 14d2 C20D0000 		.4byte	.LVL378
 7139 14d6 620E0000 		.4byte	.LVL392
 7140 14da 0300     		.2byte	0x3
 7141 14dc 91       		.byte	0x91
 7142 14dd 887F     		.sleb128 -120
 7143 14df 620E0000 		.4byte	.LVL392
 7144 14e3 C40E0000 		.4byte	.LVL402
 7145 14e7 0300     		.2byte	0x3
 7146 14e9 91       		.byte	0x91
 7147 14ea 987F     		.sleb128 -104
 7148 14ec C40E0000 		.4byte	.LVL402
 7149 14f0 E60E0000 		.4byte	.LVL406
 7150 14f4 0200     		.2byte	0x2
 7151 14f6 73       		.byte	0x73
 7152 14f7 00       		.sleb128 0
 7153 14f8 E60E0000 		.4byte	.LVL406
 7154 14fc 9E0F0000 		.4byte	.LVL422
 7155 1500 0600     		.2byte	0x6
 7156 1502 58       		.byte	0x58
 7157 1503 93       		.byte	0x93
 7158 1504 04       		.uleb128 0x4
 7159 1505 59       		.byte	0x59
ARM GAS  C:\Users\bogur\AppData\Local\Temp\ccXFXavo.s 			page 136


 7160 1506 93       		.byte	0x93
 7161 1507 04       		.uleb128 0x4
 7162 1508 9E0F0000 		.4byte	.LVL422
 7163 150c 00100000 		.4byte	.LVL430
 7164 1510 0300     		.2byte	0x3
 7165 1512 91       		.byte	0x91
 7166 1513 A87F     		.sleb128 -88
 7167 1515 00100000 		.4byte	.LVL430
 7168 1519 22100000 		.4byte	.LVL434
 7169 151d 0200     		.2byte	0x2
 7170 151f 73       		.byte	0x73
 7171 1520 00       		.sleb128 0
 7172 1521 22100000 		.4byte	.LVL434
 7173 1525 DC100000 		.4byte	.LVL449
 7174 1529 0600     		.2byte	0x6
 7175 152b 58       		.byte	0x58
 7176 152c 93       		.byte	0x93
 7177 152d 04       		.uleb128 0x4
 7178 152e 59       		.byte	0x59
 7179 152f 93       		.byte	0x93
 7180 1530 04       		.uleb128 0x4
 7181 1531 DC100000 		.4byte	.LVL449
 7182 1535 3C110000 		.4byte	.LVL461
 7183 1539 0300     		.2byte	0x3
 7184 153b 91       		.byte	0x91
 7185 153c B87F     		.sleb128 -72
 7186 153e 3C110000 		.4byte	.LVL461
 7187 1542 4E110000 		.4byte	.LVL464
 7188 1546 0200     		.2byte	0x2
 7189 1548 73       		.byte	0x73
 7190 1549 00       		.sleb128 0
 7191 154a 4E110000 		.4byte	.LVL464
 7192 154e C8110000 		.4byte	.LVL480
 7193 1552 0600     		.2byte	0x6
 7194 1554 56       		.byte	0x56
 7195 1555 93       		.byte	0x93
 7196 1556 04       		.uleb128 0x4
 7197 1557 57       		.byte	0x57
 7198 1558 93       		.byte	0x93
 7199 1559 04       		.uleb128 0x4
 7200 155a 00000000 		.4byte	0
 7201 155e 00000000 		.4byte	0
 7202              	.LLST34:
 7203 1562 C6010000 		.4byte	.LVL85
 7204 1566 38030000 		.4byte	.LVL119
 7205 156a 0600     		.2byte	0x6
 7206 156c 50       		.byte	0x50
 7207 156d 93       		.byte	0x93
 7208 156e 04       		.uleb128 0x4
 7209 156f 51       		.byte	0x51
 7210 1570 93       		.byte	0x93
 7211 1571 04       		.uleb128 0x4
 7212 1572 72030000 		.4byte	.LVL126
 7213 1576 C2030000 		.4byte	.LVL135
 7214 157a 0300     		.2byte	0x3
 7215 157c 91       		.byte	0x91
 7216 157d E87D     		.sleb128 -280
ARM GAS  C:\Users\bogur\AppData\Local\Temp\ccXFXavo.s 			page 137


 7217 157f C2030000 		.4byte	.LVL135
 7218 1583 22040000 		.4byte	.LVL145
 7219 1587 0200     		.2byte	0x2
 7220 1589 73       		.byte	0x73
 7221 158a 00       		.sleb128 0
 7222 158b 22040000 		.4byte	.LVL145
 7223 158f D2040000 		.4byte	.LVL165
 7224 1593 0300     		.2byte	0x3
 7225 1595 91       		.byte	0x91
 7226 1596 E87D     		.sleb128 -280
 7227 1598 D2040000 		.4byte	.LVL165
 7228 159c 42060000 		.4byte	.LVL198
 7229 15a0 0300     		.2byte	0x3
 7230 15a2 91       		.byte	0x91
 7231 15a3 B87A     		.sleb128 -712
 7232 15a5 42060000 		.4byte	.LVL198
 7233 15a9 92060000 		.4byte	.LVL204
 7234 15ad 0300     		.2byte	0x3
 7235 15af 91       		.byte	0x91
 7236 15b0 907E     		.sleb128 -240
 7237 15b2 92060000 		.4byte	.LVL204
 7238 15b6 A6060000 		.4byte	.LVL205
 7239 15ba 0200     		.2byte	0x2
 7240 15bc 71       		.byte	0x71
 7241 15bd 00       		.sleb128 0
 7242 15be A6060000 		.4byte	.LVL205
 7243 15c2 DA060000 		.4byte	.LVL212
 7244 15c6 0600     		.2byte	0x6
 7245 15c8 56       		.byte	0x56
 7246 15c9 93       		.byte	0x93
 7247 15ca 04       		.uleb128 0x4
 7248 15cb 57       		.byte	0x57
 7249 15cc 93       		.byte	0x93
 7250 15cd 04       		.uleb128 0x4
 7251 15ce DA060000 		.4byte	.LVL212
 7252 15d2 8C070000 		.4byte	.LVL231
 7253 15d6 0300     		.2byte	0x3
 7254 15d8 91       		.byte	0x91
 7255 15d9 907E     		.sleb128 -240
 7256 15db 8C070000 		.4byte	.LVL231
 7257 15df E4080000 		.4byte	.LVL267
 7258 15e3 0300     		.2byte	0x3
 7259 15e5 91       		.byte	0x91
 7260 15e6 D07A     		.sleb128 -688
 7261 15e8 E4080000 		.4byte	.LVL267
 7262 15ec 2A090000 		.4byte	.LVL275
 7263 15f0 0300     		.2byte	0x3
 7264 15f2 91       		.byte	0x91
 7265 15f3 C87E     		.sleb128 -184
 7266 15f5 2A090000 		.4byte	.LVL275
 7267 15f9 38090000 		.4byte	.LVL276
 7268 15fd 0200     		.2byte	0x2
 7269 15ff 71       		.byte	0x71
 7270 1600 00       		.sleb128 0
 7271 1601 38090000 		.4byte	.LVL276
 7272 1605 78090000 		.4byte	.LVL285
 7273 1609 0600     		.2byte	0x6
ARM GAS  C:\Users\bogur\AppData\Local\Temp\ccXFXavo.s 			page 138


 7274 160b 55       		.byte	0x55
 7275 160c 93       		.byte	0x93
 7276 160d 04       		.uleb128 0x4
 7277 160e 56       		.byte	0x56
 7278 160f 93       		.byte	0x93
 7279 1610 04       		.uleb128 0x4
 7280 1611 78090000 		.4byte	.LVL285
 7281 1615 6C0A0000 		.4byte	.LVL312
 7282 1619 0300     		.2byte	0x3
 7283 161b 91       		.byte	0x91
 7284 161c C87E     		.sleb128 -184
 7285 161e 6C0A0000 		.4byte	.LVL312
 7286 1622 C40B0000 		.4byte	.LVL333
 7287 1626 0600     		.2byte	0x6
 7288 1628 50       		.byte	0x50
 7289 1629 93       		.byte	0x93
 7290 162a 04       		.uleb128 0x4
 7291 162b 51       		.byte	0x51
 7292 162c 93       		.byte	0x93
 7293 162d 04       		.uleb128 0x4
 7294 162e 0C0C0000 		.4byte	.LVL340
 7295 1632 480D0000 		.4byte	.LVL369
 7296 1636 0300     		.2byte	0x3
 7297 1638 91       		.byte	0x91
 7298 1639 D87B     		.sleb128 -552
 7299 163b 480D0000 		.4byte	.LVL369
 7300 163f 820E0000 		.4byte	.LVL395
 7301 1643 0300     		.2byte	0x3
 7302 1645 91       		.byte	0x91
 7303 1646 807B     		.sleb128 -640
 7304 1648 820E0000 		.4byte	.LVL395
 7305 164c BE0F0000 		.4byte	.LVL424
 7306 1650 0300     		.2byte	0x3
 7307 1652 91       		.byte	0x91
 7308 1653 987B     		.sleb128 -616
 7309 1655 BE0F0000 		.4byte	.LVL424
 7310 1659 FE100000 		.4byte	.LVL453
 7311 165d 0300     		.2byte	0x3
 7312 165f 91       		.byte	0x91
 7313 1660 B07B     		.sleb128 -592
 7314 1662 FE100000 		.4byte	.LVL453
 7315 1666 42110000 		.4byte	.LVL463
 7316 166a 0200     		.2byte	0x2
 7317 166c 91       		.byte	0x91
 7318 166d 40       		.sleb128 -64
 7319 166e 42110000 		.4byte	.LVL463
 7320 1672 50110000 		.4byte	.LVL465
 7321 1676 0200     		.2byte	0x2
 7322 1678 71       		.byte	0x71
 7323 1679 00       		.sleb128 0
 7324 167a 50110000 		.4byte	.LVL465
 7325 167e 9C110000 		.4byte	.LVL474
 7326 1682 0600     		.2byte	0x6
 7327 1684 58       		.byte	0x58
 7328 1685 93       		.byte	0x93
 7329 1686 04       		.uleb128 0x4
 7330 1687 59       		.byte	0x59
ARM GAS  C:\Users\bogur\AppData\Local\Temp\ccXFXavo.s 			page 139


 7331 1688 93       		.byte	0x93
 7332 1689 04       		.uleb128 0x4
 7333 168a 9C110000 		.4byte	.LVL474
 7334 168e C8110000 		.4byte	.LVL480
 7335 1692 0200     		.2byte	0x2
 7336 1694 91       		.byte	0x91
 7337 1695 40       		.sleb128 -64
 7338 1696 00000000 		.4byte	0
 7339 169a 00000000 		.4byte	0
 7340              	.LLST35:
 7341 169e FE010000 		.4byte	.LVL95
 7342 16a2 10020000 		.4byte	.LVL97
 7343 16a6 0600     		.2byte	0x6
 7344 16a8 54       		.byte	0x54
 7345 16a9 93       		.byte	0x93
 7346 16aa 04       		.uleb128 0x4
 7347 16ab 55       		.byte	0x55
 7348 16ac 93       		.byte	0x93
 7349 16ad 04       		.uleb128 0x4
 7350 16ae 10020000 		.4byte	.LVL97
 7351 16b2 94030000 		.4byte	.LVL130
 7352 16b6 0300     		.2byte	0x3
 7353 16b8 91       		.byte	0x91
 7354 16b9 A87A     		.sleb128 -728
 7355 16bb 94030000 		.4byte	.LVL130
 7356 16bf F6030000 		.4byte	.LVL139
 7357 16c3 0300     		.2byte	0x3
 7358 16c5 91       		.byte	0x91
 7359 16c6 F07D     		.sleb128 -272
 7360 16c8 F6030000 		.4byte	.LVL139
 7361 16cc 02040000 		.4byte	.LVL140
 7362 16d0 0200     		.2byte	0x2
 7363 16d2 71       		.byte	0x71
 7364 16d3 00       		.sleb128 0
 7365 16d4 02040000 		.4byte	.LVL140
 7366 16d8 38040000 		.4byte	.LVL150
 7367 16dc 0600     		.2byte	0x6
 7368 16de 56       		.byte	0x56
 7369 16df 93       		.byte	0x93
 7370 16e0 04       		.uleb128 0x4
 7371 16e1 57       		.byte	0x57
 7372 16e2 93       		.byte	0x93
 7373 16e3 04       		.uleb128 0x4
 7374 16e4 38040000 		.4byte	.LVL150
 7375 16e8 FC040000 		.4byte	.LVL168
 7376 16ec 0300     		.2byte	0x3
 7377 16ee 91       		.byte	0x91
 7378 16ef F07D     		.sleb128 -272
 7379 16f1 FC040000 		.4byte	.LVL168
 7380 16f5 50050000 		.4byte	.LVL175
 7381 16f9 0300     		.2byte	0x3
 7382 16fb 91       		.byte	0x91
 7383 16fc 887E     		.sleb128 -248
 7384 16fe 50050000 		.4byte	.LVL175
 7385 1702 60050000 		.4byte	.LVL177
 7386 1706 0200     		.2byte	0x2
 7387 1708 73       		.byte	0x73
ARM GAS  C:\Users\bogur\AppData\Local\Temp\ccXFXavo.s 			page 140


 7388 1709 00       		.sleb128 0
 7389 170a 60050000 		.4byte	.LVL177
 7390 170e CE050000 		.4byte	.LVL187
 7391 1712 0600     		.2byte	0x6
 7392 1714 56       		.byte	0x56
 7393 1715 93       		.byte	0x93
 7394 1716 04       		.uleb128 0x4
 7395 1717 57       		.byte	0x57
 7396 1718 93       		.byte	0x93
 7397 1719 04       		.uleb128 0x4
 7398 171a CE050000 		.4byte	.LVL187
 7399 171e 68060000 		.4byte	.LVL200
 7400 1722 0300     		.2byte	0x3
 7401 1724 91       		.byte	0x91
 7402 1725 887E     		.sleb128 -248
 7403 1727 68060000 		.4byte	.LVL200
 7404 172b AE060000 		.4byte	.LVL207
 7405 172f 0300     		.2byte	0x3
 7406 1731 91       		.byte	0x91
 7407 1732 987E     		.sleb128 -232
 7408 1734 AE060000 		.4byte	.LVL207
 7409 1738 BA060000 		.4byte	.LVL208
 7410 173c 0200     		.2byte	0x2
 7411 173e 73       		.byte	0x73
 7412 173f 00       		.sleb128 0
 7413 1740 BA060000 		.4byte	.LVL208
 7414 1744 9C070000 		.4byte	.LVL234
 7415 1748 0600     		.2byte	0x6
 7416 174a 54       		.byte	0x54
 7417 174b 93       		.byte	0x93
 7418 174c 04       		.uleb128 0x4
 7419 174d 55       		.byte	0x55
 7420 174e 93       		.byte	0x93
 7421 174f 04       		.uleb128 0x4
 7422 1750 9C070000 		.4byte	.LVL234
 7423 1754 B2070000 		.4byte	.LVL236
 7424 1758 0300     		.2byte	0x3
 7425 175a 91       		.byte	0x91
 7426 175b 987E     		.sleb128 -232
 7427 175d B2070000 		.4byte	.LVL236
 7428 1761 00080000 		.4byte	.LVL245
 7429 1765 0300     		.2byte	0x3
 7430 1767 91       		.byte	0x91
 7431 1768 B87E     		.sleb128 -200
 7432 176a 00080000 		.4byte	.LVL245
 7433 176e 10080000 		.4byte	.LVL247
 7434 1772 0200     		.2byte	0x2
 7435 1774 73       		.byte	0x73
 7436 1775 00       		.sleb128 0
 7437 1776 10080000 		.4byte	.LVL247
 7438 177a 7E080000 		.4byte	.LVL259
 7439 177e 0600     		.2byte	0x6
 7440 1780 56       		.byte	0x56
 7441 1781 93       		.byte	0x93
 7442 1782 04       		.uleb128 0x4
 7443 1783 57       		.byte	0x57
 7444 1784 93       		.byte	0x93
ARM GAS  C:\Users\bogur\AppData\Local\Temp\ccXFXavo.s 			page 141


 7445 1785 04       		.uleb128 0x4
 7446 1786 7E080000 		.4byte	.LVL259
 7447 178a 06090000 		.4byte	.LVL269
 7448 178e 0300     		.2byte	0x3
 7449 1790 91       		.byte	0x91
 7450 1791 B87E     		.sleb128 -200
 7451 1793 06090000 		.4byte	.LVL269
 7452 1797 A60A0000 		.4byte	.LVL318
 7453 179b 0300     		.2byte	0x3
 7454 179d 91       		.byte	0x91
 7455 179e E87A     		.sleb128 -664
 7456 17a0 A60A0000 		.4byte	.LVL318
 7457 17a4 B20A0000 		.4byte	.LVL319
 7458 17a8 0600     		.2byte	0x6
 7459 17aa 5A       		.byte	0x5a
 7460 17ab 93       		.byte	0x93
 7461 17ac 04       		.uleb128 0x4
 7462 17ad 5B       		.byte	0x5b
 7463 17ae 93       		.byte	0x93
 7464 17af 04       		.uleb128 0x4
 7465 17b0 B20A0000 		.4byte	.LVL319
 7466 17b4 2A0C0000 		.4byte	.LVL342
 7467 17b8 0200     		.2byte	0x2
 7468 17ba 7D       		.byte	0x7d
 7469 17bb 00       		.sleb128 0
 7470 17bc 2A0C0000 		.4byte	.LVL342
 7471 17c0 680D0000 		.4byte	.LVL371
 7472 17c4 0300     		.2byte	0x3
 7473 17c6 91       		.byte	0x91
 7474 17c7 F87A     		.sleb128 -648
 7475 17c9 680D0000 		.4byte	.LVL371
 7476 17cd A00E0000 		.4byte	.LVL398
 7477 17d1 0300     		.2byte	0x3
 7478 17d3 91       		.byte	0x91
 7479 17d4 887B     		.sleb128 -632
 7480 17d6 A00E0000 		.4byte	.LVL398
 7481 17da E00F0000 		.4byte	.LVL427
 7482 17de 0300     		.2byte	0x3
 7483 17e0 91       		.byte	0x91
 7484 17e1 A07B     		.sleb128 -608
 7485 17e3 E00F0000 		.4byte	.LVL427
 7486 17e7 1C110000 		.4byte	.LVL456
 7487 17eb 0300     		.2byte	0x3
 7488 17ed 91       		.byte	0x91
 7489 17ee B87B     		.sleb128 -584
 7490 17f0 1C110000 		.4byte	.LVL456
 7491 17f4 64110000 		.4byte	.LVL468
 7492 17f8 0200     		.2byte	0x2
 7493 17fa 91       		.byte	0x91
 7494 17fb 48       		.sleb128 -56
 7495 17fc 64110000 		.4byte	.LVL468
 7496 1800 70110000 		.4byte	.LVL470
 7497 1804 0200     		.2byte	0x2
 7498 1806 73       		.byte	0x73
 7499 1807 00       		.sleb128 0
 7500 1808 70110000 		.4byte	.LVL470
 7501 180c A6110000 		.4byte	.LVL475
ARM GAS  C:\Users\bogur\AppData\Local\Temp\ccXFXavo.s 			page 142


 7502 1810 0600     		.2byte	0x6
 7503 1812 50       		.byte	0x50
 7504 1813 93       		.byte	0x93
 7505 1814 04       		.uleb128 0x4
 7506 1815 51       		.byte	0x51
 7507 1816 93       		.byte	0x93
 7508 1817 04       		.uleb128 0x4
 7509 1818 A6110000 		.4byte	.LVL475
 7510 181c C8110000 		.4byte	.LVL480
 7511 1820 0200     		.2byte	0x2
 7512 1822 91       		.byte	0x91
 7513 1823 48       		.sleb128 -56
 7514 1824 00000000 		.4byte	0
 7515 1828 00000000 		.4byte	0
 7516              	.LLST36:
 7517 182c 3E020000 		.4byte	.LVL105
 7518 1830 CA020000 		.4byte	.LVL110
 7519 1834 0600     		.2byte	0x6
 7520 1836 54       		.byte	0x54
 7521 1837 93       		.byte	0x93
 7522 1838 04       		.uleb128 0x4
 7523 1839 55       		.byte	0x55
 7524 183a 93       		.byte	0x93
 7525 183b 04       		.uleb128 0x4
 7526 183c BA030000 		.4byte	.LVL132
 7527 1840 12040000 		.4byte	.LVL142
 7528 1844 0300     		.2byte	0x3
 7529 1846 91       		.byte	0x91
 7530 1847 F87D     		.sleb128 -264
 7531 1849 12040000 		.4byte	.LVL142
 7532 184d 32040000 		.4byte	.LVL149
 7533 1851 0200     		.2byte	0x2
 7534 1853 74       		.byte	0x74
 7535 1854 00       		.sleb128 0
 7536 1855 32040000 		.4byte	.LVL149
 7537 1859 BC040000 		.4byte	.LVL163
 7538 185d 0600     		.2byte	0x6
 7539 185f 58       		.byte	0x58
 7540 1860 93       		.byte	0x93
 7541 1861 04       		.uleb128 0x4
 7542 1862 59       		.byte	0x59
 7543 1863 93       		.byte	0x93
 7544 1864 04       		.uleb128 0x4
 7545 1865 BC040000 		.4byte	.LVL163
 7546 1869 26050000 		.4byte	.LVL171
 7547 186d 0300     		.2byte	0x3
 7548 186f 91       		.byte	0x91
 7549 1870 F87D     		.sleb128 -264
 7550 1872 26050000 		.4byte	.LVL171
 7551 1876 8C060000 		.4byte	.LVL203
 7552 187a 0300     		.2byte	0x3
 7553 187c 91       		.byte	0x91
 7554 187d C07A     		.sleb128 -704
 7555 187f 8C060000 		.4byte	.LVL203
 7556 1883 CA060000 		.4byte	.LVL210
 7557 1887 0300     		.2byte	0x3
 7558 1889 91       		.byte	0x91
ARM GAS  C:\Users\bogur\AppData\Local\Temp\ccXFXavo.s 			page 143


 7559 188a A07E     		.sleb128 -224
 7560 188c CA060000 		.4byte	.LVL210
 7561 1890 D8060000 		.4byte	.LVL211
 7562 1894 0200     		.2byte	0x2
 7563 1896 73       		.byte	0x73
 7564 1897 00       		.sleb128 0
 7565 1898 D8060000 		.4byte	.LVL211
 7566 189c 3E070000 		.4byte	.LVL222
 7567 18a0 0600     		.2byte	0x6
 7568 18a2 5A       		.byte	0x5a
 7569 18a3 93       		.byte	0x93
 7570 18a4 04       		.uleb128 0x4
 7571 18a5 5B       		.byte	0x5b
 7572 18a6 93       		.byte	0x93
 7573 18a7 04       		.uleb128 0x4
 7574 18a8 3E070000 		.4byte	.LVL222
 7575 18ac D8070000 		.4byte	.LVL239
 7576 18b0 0300     		.2byte	0x3
 7577 18b2 91       		.byte	0x91
 7578 18b3 A07E     		.sleb128 -224
 7579 18b5 D8070000 		.4byte	.LVL239
 7580 18b9 24090000 		.4byte	.LVL274
 7581 18bd 0300     		.2byte	0x3
 7582 18bf 91       		.byte	0x91
 7583 18c0 D87A     		.sleb128 -680
 7584 18c2 24090000 		.4byte	.LVL274
 7585 18c6 66090000 		.4byte	.LVL282
 7586 18ca 0300     		.2byte	0x3
 7587 18cc 91       		.byte	0x91
 7588 18cd D07E     		.sleb128 -176
 7589 18cf 66090000 		.4byte	.LVL282
 7590 18d3 76090000 		.4byte	.LVL284
 7591 18d7 0200     		.2byte	0x2
 7592 18d9 73       		.byte	0x73
 7593 18da 00       		.sleb128 0
 7594 18db 76090000 		.4byte	.LVL284
 7595 18df CA090000 		.4byte	.LVL294
 7596 18e3 0600     		.2byte	0x6
 7597 18e5 5A       		.byte	0x5a
 7598 18e6 93       		.byte	0x93
 7599 18e7 04       		.uleb128 0x4
 7600 18e8 5B       		.byte	0x5b
 7601 18e9 93       		.byte	0x93
 7602 18ea 04       		.uleb128 0x4
 7603 18eb CA090000 		.4byte	.LVL294
 7604 18ef F20A0000 		.4byte	.LVL322
 7605 18f3 0300     		.2byte	0x3
 7606 18f5 91       		.byte	0x91
 7607 18f6 D07E     		.sleb128 -176
 7608 18f8 F20A0000 		.4byte	.LVL322
 7609 18fc 7A0B0000 		.4byte	.LVL328
 7610 1900 0600     		.2byte	0x6
 7611 1902 54       		.byte	0x54
 7612 1903 93       		.byte	0x93
 7613 1904 04       		.uleb128 0x4
 7614 1905 55       		.byte	0x55
 7615 1906 93       		.byte	0x93
ARM GAS  C:\Users\bogur\AppData\Local\Temp\ccXFXavo.s 			page 144


 7616 1907 04       		.uleb128 0x4
 7617 1908 4A0C0000 		.4byte	.LVL345
 7618 190c A00C0000 		.4byte	.LVL349
 7619 1910 0300     		.2byte	0x3
 7620 1912 91       		.byte	0x91
 7621 1913 807F     		.sleb128 -128
 7622 1915 A00C0000 		.4byte	.LVL349
 7623 1919 AE0C0000 		.4byte	.LVL351
 7624 191d 0200     		.2byte	0x2
 7625 191f 72       		.byte	0x72
 7626 1920 00       		.sleb128 0
 7627 1921 AE0C0000 		.4byte	.LVL351
 7628 1925 C00C0000 		.4byte	.LVL355
 7629 1929 0600     		.2byte	0x6
 7630 192b 55       		.byte	0x55
 7631 192c 93       		.byte	0x93
 7632 192d 04       		.uleb128 0x4
 7633 192e 56       		.byte	0x56
 7634 192f 93       		.byte	0x93
 7635 1930 04       		.uleb128 0x4
 7636 1931 C00C0000 		.4byte	.LVL355
 7637 1935 880D0000 		.4byte	.LVL374
 7638 1939 0300     		.2byte	0x3
 7639 193b 91       		.byte	0x91
 7640 193c 807F     		.sleb128 -128
 7641 193e 880D0000 		.4byte	.LVL374
 7642 1942 C20E0000 		.4byte	.LVL401
 7643 1946 0300     		.2byte	0x3
 7644 1948 91       		.byte	0x91
 7645 1949 907B     		.sleb128 -624
 7646 194b C20E0000 		.4byte	.LVL401
 7647 194f FE0F0000 		.4byte	.LVL429
 7648 1953 0300     		.2byte	0x3
 7649 1955 91       		.byte	0x91
 7650 1956 A87B     		.sleb128 -600
 7651 1958 FE0F0000 		.4byte	.LVL429
 7652 195c 3A110000 		.4byte	.LVL460
 7653 1960 0300     		.2byte	0x3
 7654 1962 91       		.byte	0x91
 7655 1963 C07B     		.sleb128 -576
 7656 1965 3A110000 		.4byte	.LVL460
 7657 1969 C8110000 		.4byte	.LVL480
 7658 196d 0300     		.2byte	0x3
 7659 196f 91       		.byte	0x91
 7660 1970 E87B     		.sleb128 -536
 7661 1972 00000000 		.4byte	0
 7662 1976 00000000 		.4byte	0
 7663              	.LLST37:
 7664 197a 64020000 		.4byte	.LVL106
 7665 197e 82020000 		.4byte	.LVL107
 7666 1982 0600     		.2byte	0x6
 7667 1984 52       		.byte	0x52
 7668 1985 93       		.byte	0x93
 7669 1986 04       		.uleb128 0x4
 7670 1987 53       		.byte	0x53
 7671 1988 93       		.byte	0x93
 7672 1989 04       		.uleb128 0x4
ARM GAS  C:\Users\bogur\AppData\Local\Temp\ccXFXavo.s 			page 145


 7673 198a 82020000 		.4byte	.LVL107
 7674 198e A60A0000 		.4byte	.LVL318
 7675 1992 0200     		.2byte	0x2
 7676 1994 7D       		.byte	0x7d
 7677 1995 00       		.sleb128 0
 7678 1996 180B0000 		.4byte	.LVL323
 7679 199a D40B0000 		.4byte	.LVL335
 7680 199e 0600     		.2byte	0x6
 7681 19a0 52       		.byte	0x52
 7682 19a1 93       		.byte	0x93
 7683 19a2 04       		.uleb128 0x4
 7684 19a3 53       		.byte	0x53
 7685 19a4 93       		.byte	0x93
 7686 19a5 04       		.uleb128 0x4
 7687 19a6 D40B0000 		.4byte	.LVL335
 7688 19aa C8110000 		.4byte	.LVL480
 7689 19ae 0300     		.2byte	0x3
 7690 19b0 91       		.byte	0x91
 7691 19b1 987A     		.sleb128 -744
 7692 19b3 00000000 		.4byte	0
 7693 19b7 00000000 		.4byte	0
 7694              	.LLST38:
 7695 19bb 8E020000 		.4byte	.LVL108
 7696 19bf 02030000 		.4byte	.LVL113
 7697 19c3 0600     		.2byte	0x6
 7698 19c5 52       		.byte	0x52
 7699 19c6 93       		.byte	0x93
 7700 19c7 04       		.uleb128 0x4
 7701 19c8 53       		.byte	0x53
 7702 19c9 93       		.byte	0x93
 7703 19ca 04       		.uleb128 0x4
 7704 19cb 02030000 		.4byte	.LVL113
 7705 19cf 180B0000 		.4byte	.LVL323
 7706 19d3 0300     		.2byte	0x3
 7707 19d5 91       		.byte	0x91
 7708 19d6 987A     		.sleb128 -744
 7709 19d8 420B0000 		.4byte	.LVL324
 7710 19dc 480B0000 		.4byte	.LVL325
 7711 19e0 0600     		.2byte	0x6
 7712 19e2 5A       		.byte	0x5a
 7713 19e3 93       		.byte	0x93
 7714 19e4 04       		.uleb128 0x4
 7715 19e5 5B       		.byte	0x5b
 7716 19e6 93       		.byte	0x93
 7717 19e7 04       		.uleb128 0x4
 7718 19e8 480B0000 		.4byte	.LVL325
 7719 19ec C8110000 		.4byte	.LVL480
 7720 19f0 0300     		.2byte	0x3
 7721 19f2 91       		.byte	0x91
 7722 19f3 A07A     		.sleb128 -736
 7723 19f5 00000000 		.4byte	0
 7724 19f9 00000000 		.4byte	0
 7725              	.LLST39:
 7726 19fd BC020000 		.4byte	.LVL109
 7727 1a01 0E030000 		.4byte	.LVL114
 7728 1a05 0600     		.2byte	0x6
 7729 1a07 5A       		.byte	0x5a
ARM GAS  C:\Users\bogur\AppData\Local\Temp\ccXFXavo.s 			page 146


 7730 1a08 93       		.byte	0x93
 7731 1a09 04       		.uleb128 0x4
 7732 1a0a 5B       		.byte	0x5b
 7733 1a0b 93       		.byte	0x93
 7734 1a0c 04       		.uleb128 0x4
 7735 1a0d 0E030000 		.4byte	.LVL114
 7736 1a11 420B0000 		.4byte	.LVL324
 7737 1a15 0300     		.2byte	0x3
 7738 1a17 91       		.byte	0x91
 7739 1a18 A07A     		.sleb128 -736
 7740 1a1a 700B0000 		.4byte	.LVL326
 7741 1a1e AC100000 		.4byte	.LVL445
 7742 1a22 0600     		.2byte	0x6
 7743 1a24 5A       		.byte	0x5a
 7744 1a25 93       		.byte	0x93
 7745 1a26 04       		.uleb128 0x4
 7746 1a27 5B       		.byte	0x5b
 7747 1a28 93       		.byte	0x93
 7748 1a29 04       		.uleb128 0x4
 7749 1a2a 00000000 		.4byte	0
 7750 1a2e 00000000 		.4byte	0
 7751              	.LLST40:
 7752 1a32 E0020000 		.4byte	.LVL112
 7753 1a36 A6030000 		.4byte	.LVL131
 7754 1a3a 0600     		.2byte	0x6
 7755 1a3c 55       		.byte	0x55
 7756 1a3d 93       		.byte	0x93
 7757 1a3e 04       		.uleb128 0x4
 7758 1a3f 56       		.byte	0x56
 7759 1a40 93       		.byte	0x93
 7760 1a41 04       		.uleb128 0x4
 7761 1a42 A6030000 		.4byte	.LVL131
 7762 1a46 5C080000 		.4byte	.LVL255
 7763 1a4a 0300     		.2byte	0x3
 7764 1a4c 91       		.byte	0x91
 7765 1a4d C87B     		.sleb128 -568
 7766 1a4f 5C080000 		.4byte	.LVL255
 7767 1a53 CC080000 		.4byte	.LVL265
 7768 1a57 0600     		.2byte	0x6
 7769 1a59 54       		.byte	0x54
 7770 1a5a 93       		.byte	0x93
 7771 1a5b 04       		.uleb128 0x4
 7772 1a5c 55       		.byte	0x55
 7773 1a5d 93       		.byte	0x93
 7774 1a5e 04       		.uleb128 0x4
 7775 1a5f 8E0B0000 		.4byte	.LVL329
 7776 1a63 C00B0000 		.4byte	.LVL332
 7777 1a67 0600     		.2byte	0x6
 7778 1a69 55       		.byte	0x55
 7779 1a6a 93       		.byte	0x93
 7780 1a6b 04       		.uleb128 0x4
 7781 1a6c 56       		.byte	0x56
 7782 1a6d 93       		.byte	0x93
 7783 1a6e 04       		.uleb128 0x4
 7784 1a6f C00B0000 		.4byte	.LVL332
 7785 1a73 C8110000 		.4byte	.LVL480
 7786 1a77 0300     		.2byte	0x3
ARM GAS  C:\Users\bogur\AppData\Local\Temp\ccXFXavo.s 			page 147


 7787 1a79 91       		.byte	0x91
 7788 1a7a A87A     		.sleb128 -728
 7789 1a7c 00000000 		.4byte	0
 7790 1a80 00000000 		.4byte	0
 7791              	.LLST41:
 7792 1a84 0E030000 		.4byte	.LVL114
 7793 1a88 C0030000 		.4byte	.LVL134
 7794 1a8c 0600     		.2byte	0x6
 7795 1a8e 5A       		.byte	0x5a
 7796 1a8f 93       		.byte	0x93
 7797 1a90 04       		.uleb128 0x4
 7798 1a91 5B       		.byte	0x5b
 7799 1a92 93       		.byte	0x93
 7800 1a93 04       		.uleb128 0x4
 7801 1a94 C0030000 		.4byte	.LVL134
 7802 1a98 8E0B0000 		.4byte	.LVL329
 7803 1a9c 0300     		.2byte	0x3
 7804 1a9e 91       		.byte	0x91
 7805 1a9f A87A     		.sleb128 -728
 7806 1aa1 BA0B0000 		.4byte	.LVL331
 7807 1aa5 360C0000 		.4byte	.LVL343
 7808 1aa9 0600     		.2byte	0x6
 7809 1aab 57       		.byte	0x57
 7810 1aac 93       		.byte	0x93
 7811 1aad 04       		.uleb128 0x4
 7812 1aae 58       		.byte	0x58
 7813 1aaf 93       		.byte	0x93
 7814 1ab0 04       		.uleb128 0x4
 7815 1ab1 360C0000 		.4byte	.LVL343
 7816 1ab5 C8110000 		.4byte	.LVL480
 7817 1ab9 0200     		.2byte	0x2
 7818 1abb 7D       		.byte	0x7d
 7819 1abc 00       		.sleb128 0
 7820 1abd 00000000 		.4byte	0
 7821 1ac1 00000000 		.4byte	0
 7822              	.LLST42:
 7823 1ac5 F4030000 		.4byte	.LVL138
 7824 1ac9 16040000 		.4byte	.LVL143
 7825 1acd 0600     		.2byte	0x6
 7826 1acf 58       		.byte	0x58
 7827 1ad0 93       		.byte	0x93
 7828 1ad1 04       		.uleb128 0x4
 7829 1ad2 59       		.byte	0x59
 7830 1ad3 93       		.byte	0x93
 7831 1ad4 04       		.uleb128 0x4
 7832 1ad5 16040000 		.4byte	.LVL143
 7833 1ad9 CC0B0000 		.4byte	.LVL334
 7834 1add 0300     		.2byte	0x3
 7835 1adf 91       		.byte	0x91
 7836 1ae0 987C     		.sleb128 -488
 7837 1ae2 CC0B0000 		.4byte	.LVL334
 7838 1ae6 F60C0000 		.4byte	.LVL359
 7839 1aea 0600     		.2byte	0x6
 7840 1aec 50       		.byte	0x50
 7841 1aed 93       		.byte	0x93
 7842 1aee 04       		.uleb128 0x4
 7843 1aef 51       		.byte	0x51
ARM GAS  C:\Users\bogur\AppData\Local\Temp\ccXFXavo.s 			page 148


 7844 1af0 93       		.byte	0x93
 7845 1af1 04       		.uleb128 0x4
 7846 1af2 00000000 		.4byte	0
 7847 1af6 00000000 		.4byte	0
 7848              	.LLST43:
 7849 1afa 10040000 		.4byte	.LVL141
 7850 1afe 12040000 		.4byte	.LVL142
 7851 1b02 0600     		.2byte	0x6
 7852 1b04 54       		.byte	0x54
 7853 1b05 93       		.byte	0x93
 7854 1b06 04       		.uleb128 0x4
 7855 1b07 55       		.byte	0x55
 7856 1b08 93       		.byte	0x93
 7857 1b09 04       		.uleb128 0x4
 7858 1b0a 12040000 		.4byte	.LVL142
 7859 1b0e 1E040000 		.4byte	.LVL144
 7860 1b12 0200     		.2byte	0x2
 7861 1b14 71       		.byte	0x71
 7862 1b15 00       		.sleb128 0
 7863 1b16 1E040000 		.4byte	.LVL144
 7864 1b1a FC090000 		.4byte	.LVL300
 7865 1b1e 0300     		.2byte	0x3
 7866 1b20 91       		.byte	0x91
 7867 1b21 C87C     		.sleb128 -440
 7868 1b23 FC090000 		.4byte	.LVL300
 7869 1b27 0A0A0000 		.4byte	.LVL301
 7870 1b2b 0200     		.2byte	0x2
 7871 1b2d 73       		.byte	0x73
 7872 1b2e 00       		.sleb128 0
 7873 1b2f 0A0A0000 		.4byte	.LVL301
 7874 1b33 260E0000 		.4byte	.LVL386
 7875 1b37 0300     		.2byte	0x3
 7876 1b39 91       		.byte	0x91
 7877 1b3a C87C     		.sleb128 -440
 7878 1b3c 260E0000 		.4byte	.LVL386
 7879 1b40 320E0000 		.4byte	.LVL387
 7880 1b44 0200     		.2byte	0x2
 7881 1b46 73       		.byte	0x73
 7882 1b47 00       		.sleb128 0
 7883 1b48 320E0000 		.4byte	.LVL387
 7884 1b4c 480E0000 		.4byte	.LVL389
 7885 1b50 0600     		.2byte	0x6
 7886 1b52 50       		.byte	0x50
 7887 1b53 93       		.byte	0x93
 7888 1b54 04       		.uleb128 0x4
 7889 1b55 51       		.byte	0x51
 7890 1b56 93       		.byte	0x93
 7891 1b57 04       		.uleb128 0x4
 7892 1b58 00000000 		.4byte	0
 7893 1b5c 00000000 		.4byte	0
 7894              	.LLST44:
 7895 1b60 28040000 		.4byte	.LVL146
 7896 1b64 2E040000 		.4byte	.LVL148
 7897 1b68 0600     		.2byte	0x6
 7898 1b6a 52       		.byte	0x52
 7899 1b6b 93       		.byte	0x93
 7900 1b6c 04       		.uleb128 0x4
ARM GAS  C:\Users\bogur\AppData\Local\Temp\ccXFXavo.s 			page 149


 7901 1b6d 53       		.byte	0x53
 7902 1b6e 93       		.byte	0x93
 7903 1b6f 04       		.uleb128 0x4
 7904 1b70 2E040000 		.4byte	.LVL148
 7905 1b74 AC100000 		.4byte	.LVL445
 7906 1b78 0300     		.2byte	0x3
 7907 1b7a 91       		.byte	0x91
 7908 1b7b A87D     		.sleb128 -344
 7909 1b7d 00000000 		.4byte	0
 7910 1b81 00000000 		.4byte	0
 7911              	.LLST45:
 7912 1b85 40040000 		.4byte	.LVL151
 7913 1b89 54050000 		.4byte	.LVL176
 7914 1b8d 0600     		.2byte	0x6
 7915 1b8f 56       		.byte	0x56
 7916 1b90 93       		.byte	0x93
 7917 1b91 04       		.uleb128 0x4
 7918 1b92 57       		.byte	0x57
 7919 1b93 93       		.byte	0x93
 7920 1b94 04       		.uleb128 0x4
 7921 1b95 54050000 		.4byte	.LVL176
 7922 1b99 6E0A0000 		.4byte	.LVL313
 7923 1b9d 0300     		.2byte	0x3
 7924 1b9f 91       		.byte	0x91
 7925 1ba0 F87C     		.sleb128 -392
 7926 1ba2 6E0A0000 		.4byte	.LVL313
 7927 1ba6 7C0A0000 		.4byte	.LVL314
 7928 1baa 0200     		.2byte	0x2
 7929 1bac 73       		.byte	0x73
 7930 1bad 00       		.sleb128 0
 7931 1bae 7C0A0000 		.4byte	.LVL314
 7932 1bb2 FA0C0000 		.4byte	.LVL360
 7933 1bb6 0300     		.2byte	0x3
 7934 1bb8 91       		.byte	0x91
 7935 1bb9 F87C     		.sleb128 -392
 7936 1bbb FA0C0000 		.4byte	.LVL360
 7937 1bbf 140D0000 		.4byte	.LVL363
 7938 1bc3 0600     		.2byte	0x6
 7939 1bc5 50       		.byte	0x50
 7940 1bc6 93       		.byte	0x93
 7941 1bc7 04       		.uleb128 0x4
 7942 1bc8 51       		.byte	0x51
 7943 1bc9 93       		.byte	0x93
 7944 1bca 04       		.uleb128 0x4
 7945 1bcb 00000000 		.4byte	0
 7946 1bcf 00000000 		.4byte	0
 7947              	.LLST46:
 7948 1bd3 5E040000 		.4byte	.LVL153
 7949 1bd7 06050000 		.4byte	.LVL169
 7950 1bdb 0600     		.2byte	0x6
 7951 1bdd 50       		.byte	0x50
 7952 1bde 93       		.byte	0x93
 7953 1bdf 04       		.uleb128 0x4
 7954 1be0 51       		.byte	0x51
 7955 1be1 93       		.byte	0x93
 7956 1be2 04       		.uleb128 0x4
 7957 1be3 06050000 		.4byte	.LVL169
ARM GAS  C:\Users\bogur\AppData\Local\Temp\ccXFXavo.s 			page 150


 7958 1be7 660F0000 		.4byte	.LVL417
 7959 1beb 0300     		.2byte	0x3
 7960 1bed 91       		.byte	0x91
 7961 1bee D87D     		.sleb128 -296
 7962 1bf0 00000000 		.4byte	0
 7963 1bf4 00000000 		.4byte	0
 7964              	.LLST47:
 7965 1bf8 4E050000 		.4byte	.LVL174
 7966 1bfc DA050000 		.4byte	.LVL189
 7967 1c00 0600     		.2byte	0x6
 7968 1c02 57       		.byte	0x57
 7969 1c03 93       		.byte	0x93
 7970 1c04 04       		.uleb128 0x4
 7971 1c05 58       		.byte	0x58
 7972 1c06 93       		.byte	0x93
 7973 1c07 04       		.uleb128 0x4
 7974 1c08 DA050000 		.4byte	.LVL189
 7975 1c0c BE090000 		.4byte	.LVL293
 7976 1c10 0300     		.2byte	0x3
 7977 1c12 91       		.byte	0x91
 7978 1c13 E87C     		.sleb128 -408
 7979 1c15 BE090000 		.4byte	.LVL293
 7980 1c19 CE090000 		.4byte	.LVL295
 7981 1c1d 0200     		.2byte	0x2
 7982 1c1f 73       		.byte	0x73
 7983 1c20 00       		.sleb128 0
 7984 1c21 CE090000 		.4byte	.LVL295
 7985 1c25 D2090000 		.4byte	.LVL296
 7986 1c29 0600     		.2byte	0x6
 7987 1c2b 51       		.byte	0x51
 7988 1c2c 93       		.byte	0x93
 7989 1c2d 04       		.uleb128 0x4
 7990 1c2e 52       		.byte	0x52
 7991 1c2f 93       		.byte	0x93
 7992 1c30 04       		.uleb128 0x4
 7993 1c31 D2090000 		.4byte	.LVL296
 7994 1c35 7E0F0000 		.4byte	.LVL419
 7995 1c39 0300     		.2byte	0x3
 7996 1c3b 91       		.byte	0x91
 7997 1c3c E87C     		.sleb128 -408
 7998 1c3e 7E0F0000 		.4byte	.LVL419
 7999 1c42 8C0F0000 		.4byte	.LVL420
 8000 1c46 0200     		.2byte	0x2
 8001 1c48 73       		.byte	0x73
 8002 1c49 00       		.sleb128 0
 8003 1c4a 8C0F0000 		.4byte	.LVL420
 8004 1c4e 8E0F0000 		.4byte	.LVL421
 8005 1c52 0300     		.2byte	0x3
 8006 1c54 91       		.byte	0x91
 8007 1c55 E87C     		.sleb128 -408
 8008 1c57 8E0F0000 		.4byte	.LVL421
 8009 1c5b AE0F0000 		.4byte	.LVL423
 8010 1c5f 0600     		.2byte	0x6
 8011 1c61 52       		.byte	0x52
 8012 1c62 93       		.byte	0x93
 8013 1c63 04       		.uleb128 0x4
 8014 1c64 53       		.byte	0x53
ARM GAS  C:\Users\bogur\AppData\Local\Temp\ccXFXavo.s 			page 151


 8015 1c65 93       		.byte	0x93
 8016 1c66 04       		.uleb128 0x4
 8017 1c67 00000000 		.4byte	0
 8018 1c6b 00000000 		.4byte	0
 8019              	.LLST48:
 8020 1c6f 6C050000 		.4byte	.LVL179
 8021 1c73 70050000 		.4byte	.LVL180
 8022 1c77 0600     		.2byte	0x6
 8023 1c79 50       		.byte	0x50
 8024 1c7a 93       		.byte	0x93
 8025 1c7b 04       		.uleb128 0x4
 8026 1c7c 51       		.byte	0x51
 8027 1c7d 93       		.byte	0x93
 8028 1c7e 04       		.uleb128 0x4
 8029 1c7f 70050000 		.4byte	.LVL180
 8030 1c83 DC0B0000 		.4byte	.LVL336
 8031 1c87 0300     		.2byte	0x3
 8032 1c89 91       		.byte	0x91
 8033 1c8a 807C     		.sleb128 -512
 8034 1c8c DC0B0000 		.4byte	.LVL336
 8035 1c90 FA0B0000 		.4byte	.LVL338
 8036 1c94 0600     		.2byte	0x6
 8037 1c96 52       		.byte	0x52
 8038 1c97 93       		.byte	0x93
 8039 1c98 04       		.uleb128 0x4
 8040 1c99 53       		.byte	0x53
 8041 1c9a 93       		.byte	0x93
 8042 1c9b 04       		.uleb128 0x4
 8043 1c9c 00000000 		.4byte	0
 8044 1ca0 00000000 		.4byte	0
 8045              	.LLST49:
 8046 1ca4 86050000 		.4byte	.LVL181
 8047 1ca8 98050000 		.4byte	.LVL183
 8048 1cac 0600     		.2byte	0x6
 8049 1cae 50       		.byte	0x50
 8050 1caf 93       		.byte	0x93
 8051 1cb0 04       		.uleb128 0x4
 8052 1cb1 51       		.byte	0x51
 8053 1cb2 93       		.byte	0x93
 8054 1cb3 04       		.uleb128 0x4
 8055 1cb4 98050000 		.4byte	.LVL183
 8056 1cb8 A2050000 		.4byte	.LVL184
 8057 1cbc 0200     		.2byte	0x2
 8058 1cbe 73       		.byte	0x73
 8059 1cbf 00       		.sleb128 0
 8060 1cc0 A2050000 		.4byte	.LVL184
 8061 1cc4 3A0A0000 		.4byte	.LVL304
 8062 1cc8 0300     		.2byte	0x3
 8063 1cca 91       		.byte	0x91
 8064 1ccb B87C     		.sleb128 -456
 8065 1ccd 3A0A0000 		.4byte	.LVL304
 8066 1cd1 580A0000 		.4byte	.LVL307
 8067 1cd5 0200     		.2byte	0x2
 8068 1cd7 72       		.byte	0x72
 8069 1cd8 00       		.sleb128 0
 8070 1cd9 580A0000 		.4byte	.LVL307
 8071 1cdd 520E0000 		.4byte	.LVL390
ARM GAS  C:\Users\bogur\AppData\Local\Temp\ccXFXavo.s 			page 152


 8072 1ce1 0300     		.2byte	0x3
 8073 1ce3 91       		.byte	0x91
 8074 1ce4 B87C     		.sleb128 -456
 8075 1ce6 00000000 		.4byte	0
 8076 1cea 00000000 		.4byte	0
 8077              	.LLST50:
 8078 1cee A6050000 		.4byte	.LVL185
 8079 1cf2 04060000 		.4byte	.LVL192
 8080 1cf6 0600     		.2byte	0x6
 8081 1cf8 5A       		.byte	0x5a
 8082 1cf9 93       		.byte	0x93
 8083 1cfa 04       		.uleb128 0x4
 8084 1cfb 5B       		.byte	0x5b
 8085 1cfc 93       		.byte	0x93
 8086 1cfd 04       		.uleb128 0x4
 8087 1cfe 04060000 		.4byte	.LVL192
 8088 1d02 CC100000 		.4byte	.LVL448
 8089 1d06 0300     		.2byte	0x3
 8090 1d08 91       		.byte	0x91
 8091 1d09 987D     		.sleb128 -360
 8092 1d0b 00000000 		.4byte	0
 8093 1d0f 00000000 		.4byte	0
 8094              	.LLST51:
 8095 1d13 CA050000 		.4byte	.LVL186
 8096 1d17 D2050000 		.4byte	.LVL188
 8097 1d1b 0600     		.2byte	0x6
 8098 1d1d 58       		.byte	0x58
 8099 1d1e 93       		.byte	0x93
 8100 1d1f 04       		.uleb128 0x4
 8101 1d20 59       		.byte	0x59
 8102 1d21 93       		.byte	0x93
 8103 1d22 04       		.uleb128 0x4
 8104 1d23 D2050000 		.4byte	.LVL188
 8105 1d27 1A0D0000 		.4byte	.LVL364
 8106 1d2b 0300     		.2byte	0x3
 8107 1d2d 91       		.byte	0x91
 8108 1d2e B07C     		.sleb128 -464
 8109 1d30 00000000 		.4byte	0
 8110 1d34 00000000 		.4byte	0
 8111              	.LLST52:
 8112 1d38 AC060000 		.4byte	.LVL206
 8113 1d3c EE060000 		.4byte	.LVL214
 8114 1d40 0600     		.2byte	0x6
 8115 1d42 50       		.byte	0x50
 8116 1d43 93       		.byte	0x93
 8117 1d44 04       		.uleb128 0x4
 8118 1d45 51       		.byte	0x51
 8119 1d46 93       		.byte	0x93
 8120 1d47 04       		.uleb128 0x4
 8121 1d48 EE060000 		.4byte	.LVL214
 8122 1d4c CE090000 		.4byte	.LVL295
 8123 1d50 0300     		.2byte	0x3
 8124 1d52 91       		.byte	0x91
 8125 1d53 A07C     		.sleb128 -480
 8126 1d55 CE090000 		.4byte	.LVL295
 8127 1d59 DC090000 		.4byte	.LVL297
 8128 1d5d 0200     		.2byte	0x2
ARM GAS  C:\Users\bogur\AppData\Local\Temp\ccXFXavo.s 			page 153


 8129 1d5f 73       		.byte	0x73
 8130 1d60 00       		.sleb128 0
 8131 1d61 DC090000 		.4byte	.LVL297
 8132 1d65 2C0D0000 		.4byte	.LVL366
 8133 1d69 0300     		.2byte	0x3
 8134 1d6b 91       		.byte	0x91
 8135 1d6c A07C     		.sleb128 -480
 8136 1d6e 2C0D0000 		.4byte	.LVL366
 8137 1d72 380D0000 		.4byte	.LVL367
 8138 1d76 0200     		.2byte	0x2
 8139 1d78 73       		.byte	0x73
 8140 1d79 00       		.sleb128 0
 8141 1d7a 380D0000 		.4byte	.LVL367
 8142 1d7e 420D0000 		.4byte	.LVL368
 8143 1d82 0600     		.2byte	0x6
 8144 1d84 52       		.byte	0x52
 8145 1d85 93       		.byte	0x93
 8146 1d86 04       		.uleb128 0x4
 8147 1d87 53       		.byte	0x53
 8148 1d88 93       		.byte	0x93
 8149 1d89 04       		.uleb128 0x4
 8150 1d8a 00000000 		.4byte	0
 8151 1d8e 00000000 		.4byte	0
 8152              	.LLST53:
 8153 1d92 C8060000 		.4byte	.LVL209
 8154 1d96 12070000 		.4byte	.LVL216
 8155 1d9a 0600     		.2byte	0x6
 8156 1d9c 59       		.byte	0x59
 8157 1d9d 93       		.byte	0x93
 8158 1d9e 04       		.uleb128 0x4
 8159 1d9f 5A       		.byte	0x5a
 8160 1da0 93       		.byte	0x93
 8161 1da1 04       		.uleb128 0x4
 8162 1da2 12070000 		.4byte	.LVL216
 8163 1da6 AE0F0000 		.4byte	.LVL423
 8164 1daa 0300     		.2byte	0x3
 8165 1dac 91       		.byte	0x91
 8166 1dad 807D     		.sleb128 -384
 8167 1daf 00000000 		.4byte	0
 8168 1db3 00000000 		.4byte	0
 8169              	.LLST54:
 8170 1db7 E0060000 		.4byte	.LVL213
 8171 1dbb 04080000 		.4byte	.LVL246
 8172 1dbf 0600     		.2byte	0x6
 8173 1dc1 56       		.byte	0x56
 8174 1dc2 93       		.byte	0x93
 8175 1dc3 04       		.uleb128 0x4
 8176 1dc4 57       		.byte	0x57
 8177 1dc5 93       		.byte	0x93
 8178 1dc6 04       		.uleb128 0x4
 8179 1dc7 04080000 		.4byte	.LVL246
 8180 1dcb FC0B0000 		.4byte	.LVL339
 8181 1dcf 0300     		.2byte	0x3
 8182 1dd1 91       		.byte	0x91
 8183 1dd2 F07B     		.sleb128 -528
 8184 1dd4 FC0B0000 		.4byte	.LVL339
 8185 1dd8 1A0C0000 		.4byte	.LVL341
ARM GAS  C:\Users\bogur\AppData\Local\Temp\ccXFXavo.s 			page 154


 8186 1ddc 0600     		.2byte	0x6
 8187 1dde 52       		.byte	0x52
 8188 1ddf 93       		.byte	0x93
 8189 1de0 04       		.uleb128 0x4
 8190 1de1 53       		.byte	0x53
 8191 1de2 93       		.byte	0x93
 8192 1de3 04       		.uleb128 0x4
 8193 1de4 00000000 		.4byte	0
 8194 1de8 00000000 		.4byte	0
 8195              	.LLST55:
 8196 1dec FA060000 		.4byte	.LVL215
 8197 1df0 20070000 		.4byte	.LVL218
 8198 1df4 0600     		.2byte	0x6
 8199 1df6 50       		.byte	0x50
 8200 1df7 93       		.byte	0x93
 8201 1df8 04       		.uleb128 0x4
 8202 1df9 51       		.byte	0x51
 8203 1dfa 93       		.byte	0x93
 8204 1dfb 04       		.uleb128 0x4
 8205 1dfc 20070000 		.4byte	.LVL218
 8206 1e00 7E0A0000 		.4byte	.LVL315
 8207 1e04 0300     		.2byte	0x3
 8208 1e06 91       		.byte	0x91
 8209 1e07 D07C     		.sleb128 -432
 8210 1e09 7E0A0000 		.4byte	.LVL315
 8211 1e0d 820A0000 		.4byte	.LVL316
 8212 1e11 0200     		.2byte	0x2
 8213 1e13 74       		.byte	0x74
 8214 1e14 00       		.sleb128 0
 8215 1e15 820A0000 		.4byte	.LVL316
 8216 1e19 840A0000 		.4byte	.LVL317
 8217 1e1d 0600     		.2byte	0x6
 8218 1e1f 54       		.byte	0x54
 8219 1e20 93       		.byte	0x93
 8220 1e21 04       		.uleb128 0x4
 8221 1e22 55       		.byte	0x55
 8222 1e23 93       		.byte	0x93
 8223 1e24 04       		.uleb128 0x4
 8224 1e25 840A0000 		.4byte	.LVL317
 8225 1e29 640E0000 		.4byte	.LVL393
 8226 1e2d 0300     		.2byte	0x3
 8227 1e2f 91       		.byte	0x91
 8228 1e30 D07C     		.sleb128 -432
 8229 1e32 640E0000 		.4byte	.LVL393
 8230 1e36 720E0000 		.4byte	.LVL394
 8231 1e3a 0200     		.2byte	0x2
 8232 1e3c 73       		.byte	0x73
 8233 1e3d 00       		.sleb128 0
 8234 1e3e 00000000 		.4byte	0
 8235 1e42 00000000 		.4byte	0
 8236              	.LLST56:
 8237 1e46 18070000 		.4byte	.LVL217
 8238 1e4a 6C070000 		.4byte	.LVL226
 8239 1e4e 0600     		.2byte	0x6
 8240 1e50 58       		.byte	0x58
 8241 1e51 93       		.byte	0x93
 8242 1e52 04       		.uleb128 0x4
ARM GAS  C:\Users\bogur\AppData\Local\Temp\ccXFXavo.s 			page 155


 8243 1e53 59       		.byte	0x59
 8244 1e54 93       		.byte	0x93
 8245 1e55 04       		.uleb128 0x4
 8246 1e56 6C070000 		.4byte	.LVL226
 8247 1e5a C00A0000 		.4byte	.LVL320
 8248 1e5e 0300     		.2byte	0x3
 8249 1e60 91       		.byte	0x91
 8250 1e61 887D     		.sleb128 -376
 8251 1e63 C00A0000 		.4byte	.LVL320
 8252 1e67 D20A0000 		.4byte	.LVL321
 8253 1e6b 0200     		.2byte	0x2
 8254 1e6d 73       		.byte	0x73
 8255 1e6e 00       		.sleb128 0
 8256 1e6f D20A0000 		.4byte	.LVL321
 8257 1e73 DE100000 		.4byte	.LVL450
 8258 1e77 0300     		.2byte	0x3
 8259 1e79 91       		.byte	0x91
 8260 1e7a 887D     		.sleb128 -376
 8261 1e7c DE100000 		.4byte	.LVL450
 8262 1e80 E2100000 		.4byte	.LVL451
 8263 1e84 0200     		.2byte	0x2
 8264 1e86 73       		.byte	0x73
 8265 1e87 00       		.sleb128 0
 8266 1e88 E2100000 		.4byte	.LVL451
 8267 1e8c EE100000 		.4byte	.LVL452
 8268 1e90 0600     		.2byte	0x6
 8269 1e92 53       		.byte	0x53
 8270 1e93 93       		.byte	0x93
 8271 1e94 04       		.uleb128 0x4
 8272 1e95 54       		.byte	0x54
 8273 1e96 93       		.byte	0x93
 8274 1e97 04       		.uleb128 0x4
 8275 1e98 00000000 		.4byte	0
 8276 1e9c 00000000 		.4byte	0
 8277              	.LLST57:
 8278 1ea0 FE070000 		.4byte	.LVL244
 8279 1ea4 88080000 		.4byte	.LVL260
 8280 1ea8 0600     		.2byte	0x6
 8281 1eaa 57       		.byte	0x57
 8282 1eab 93       		.byte	0x93
 8283 1eac 04       		.uleb128 0x4
 8284 1ead 58       		.byte	0x58
 8285 1eae 93       		.byte	0x93
 8286 1eaf 04       		.uleb128 0x4
 8287 1eb0 88080000 		.4byte	.LVL260
 8288 1eb4 DC090000 		.4byte	.LVL297
 8289 1eb8 0300     		.2byte	0x3
 8290 1eba 91       		.byte	0x91
 8291 1ebb A07D     		.sleb128 -352
 8292 1ebd DC090000 		.4byte	.LVL297
 8293 1ec1 EA090000 		.4byte	.LVL298
 8294 1ec5 0200     		.2byte	0x2
 8295 1ec7 73       		.byte	0x73
 8296 1ec8 00       		.sleb128 0
 8297 1ec9 EA090000 		.4byte	.LVL298
 8298 1ecd 00110000 		.4byte	.LVL454
 8299 1ed1 0300     		.2byte	0x3
ARM GAS  C:\Users\bogur\AppData\Local\Temp\ccXFXavo.s 			page 156


 8300 1ed3 91       		.byte	0x91
 8301 1ed4 A07D     		.sleb128 -352
 8302 1ed6 00110000 		.4byte	.LVL454
 8303 1eda 0C110000 		.4byte	.LVL455
 8304 1ede 0200     		.2byte	0x2
 8305 1ee0 73       		.byte	0x73
 8306 1ee1 00       		.sleb128 0
 8307 1ee2 0C110000 		.4byte	.LVL455
 8308 1ee6 22110000 		.4byte	.LVL457
 8309 1eea 0600     		.2byte	0x6
 8310 1eec 52       		.byte	0x52
 8311 1eed 93       		.byte	0x93
 8312 1eee 04       		.uleb128 0x4
 8313 1eef 53       		.byte	0x53
 8314 1ef0 93       		.byte	0x93
 8315 1ef1 04       		.uleb128 0x4
 8316 1ef2 00000000 		.4byte	0
 8317 1ef6 00000000 		.4byte	0
 8318              	.LLST58:
 8319 1efa 1E080000 		.4byte	.LVL248
 8320 1efe 26080000 		.4byte	.LVL249
 8321 1f02 0600     		.2byte	0x6
 8322 1f04 58       		.byte	0x58
 8323 1f05 93       		.byte	0x93
 8324 1f06 04       		.uleb128 0x4
 8325 1f07 59       		.byte	0x59
 8326 1f08 93       		.byte	0x93
 8327 1f09 04       		.uleb128 0x4
 8328 1f0a 26080000 		.4byte	.LVL249
 8329 1f0e 2E080000 		.4byte	.LVL250
 8330 1f12 0200     		.2byte	0x2
 8331 1f14 73       		.byte	0x73
 8332 1f15 00       		.sleb128 0
 8333 1f16 2E080000 		.4byte	.LVL250
 8334 1f1a 580D0000 		.4byte	.LVL370
 8335 1f1e 0300     		.2byte	0x3
 8336 1f20 91       		.byte	0x91
 8337 1f21 907C     		.sleb128 -496
 8338 1f23 00000000 		.4byte	0
 8339 1f27 00000000 		.4byte	0
 8340              	.LLST59:
 8341 1f2b 40080000 		.4byte	.LVL251
 8342 1f2f 42080000 		.4byte	.LVL252
 8343 1f33 0600     		.2byte	0x6
 8344 1f35 58       		.byte	0x58
 8345 1f36 93       		.byte	0x93
 8346 1f37 04       		.uleb128 0x4
 8347 1f38 59       		.byte	0x59
 8348 1f39 93       		.byte	0x93
 8349 1f3a 04       		.uleb128 0x4
 8350 1f3b 42080000 		.4byte	.LVL252
 8351 1f3f 50080000 		.4byte	.LVL253
 8352 1f43 0200     		.2byte	0x2
 8353 1f45 73       		.byte	0x73
 8354 1f46 00       		.sleb128 0
 8355 1f47 50080000 		.4byte	.LVL253
 8356 1f4b 540A0000 		.4byte	.LVL306
ARM GAS  C:\Users\bogur\AppData\Local\Temp\ccXFXavo.s 			page 157


 8357 1f4f 0300     		.2byte	0x3
 8358 1f51 91       		.byte	0x91
 8359 1f52 F07C     		.sleb128 -400
 8360 1f54 540A0000 		.4byte	.LVL306
 8361 1f58 5C0A0000 		.4byte	.LVL308
 8362 1f5c 0200     		.2byte	0x2
 8363 1f5e 73       		.byte	0x73
 8364 1f5f 00       		.sleb128 0
 8365 1f60 5C0A0000 		.4byte	.LVL308
 8366 1f64 D00F0000 		.4byte	.LVL425
 8367 1f68 0300     		.2byte	0x3
 8368 1f6a 91       		.byte	0x91
 8369 1f6b F07C     		.sleb128 -400
 8370 1f6d D00F0000 		.4byte	.LVL425
 8371 1f71 DA0F0000 		.4byte	.LVL426
 8372 1f75 0600     		.2byte	0x6
 8373 1f77 52       		.byte	0x52
 8374 1f78 93       		.byte	0x93
 8375 1f79 04       		.uleb128 0x4
 8376 1f7a 53       		.byte	0x53
 8377 1f7b 93       		.byte	0x93
 8378 1f7c 04       		.uleb128 0x4
 8379 1f7d 00000000 		.4byte	0
 8380 1f81 00000000 		.4byte	0
 8381              	.LLST60:
 8382 1f85 5C080000 		.4byte	.LVL255
 8383 1f89 3C090000 		.4byte	.LVL277
 8384 1f8d 0600     		.2byte	0x6
 8385 1f8f 50       		.byte	0x50
 8386 1f90 93       		.byte	0x93
 8387 1f91 04       		.uleb128 0x4
 8388 1f92 51       		.byte	0x51
 8389 1f93 93       		.byte	0x93
 8390 1f94 04       		.uleb128 0x4
 8391 1f95 3C090000 		.4byte	.LVL277
 8392 1f99 1A0C0000 		.4byte	.LVL341
 8393 1f9d 0300     		.2byte	0x3
 8394 1f9f 91       		.byte	0x91
 8395 1fa0 C87B     		.sleb128 -568
 8396 1fa2 00000000 		.4byte	0
 8397 1fa6 00000000 		.4byte	0
 8398              	.LLST61:
 8399 1faa 7A080000 		.4byte	.LVL258
 8400 1fae 44090000 		.4byte	.LVL278
 8401 1fb2 0600     		.2byte	0x6
 8402 1fb4 59       		.byte	0x59
 8403 1fb5 93       		.byte	0x93
 8404 1fb6 04       		.uleb128 0x4
 8405 1fb7 5A       		.byte	0x5a
 8406 1fb8 93       		.byte	0x93
 8407 1fb9 04       		.uleb128 0x4
 8408 1fba 44090000 		.4byte	.LVL278
 8409 1fbe 900E0000 		.4byte	.LVL396
 8410 1fc2 0300     		.2byte	0x3
 8411 1fc4 91       		.byte	0x91
 8412 1fc5 C07C     		.sleb128 -448
 8413 1fc7 900E0000 		.4byte	.LVL396
ARM GAS  C:\Users\bogur\AppData\Local\Temp\ccXFXavo.s 			page 158


 8414 1fcb 9A0E0000 		.4byte	.LVL397
 8415 1fcf 0600     		.2byte	0x6
 8416 1fd1 52       		.byte	0x52
 8417 1fd2 93       		.byte	0x93
 8418 1fd3 04       		.uleb128 0x4
 8419 1fd4 53       		.byte	0x53
 8420 1fd5 93       		.byte	0x93
 8421 1fd6 04       		.uleb128 0x4
 8422 1fd7 00000000 		.4byte	0
 8423 1fdb 00000000 		.4byte	0
 8424              	.LLST62:
 8425 1fdf 4A090000 		.4byte	.LVL279
 8426 1fe3 4E090000 		.4byte	.LVL280
 8427 1fe7 0600     		.2byte	0x6
 8428 1fe9 58       		.byte	0x58
 8429 1fea 93       		.byte	0x93
 8430 1feb 04       		.uleb128 0x4
 8431 1fec 59       		.byte	0x59
 8432 1fed 93       		.byte	0x93
 8433 1fee 04       		.uleb128 0x4
 8434 1fef 4E090000 		.4byte	.LVL280
 8435 1ff3 B20E0000 		.4byte	.LVL399
 8436 1ff7 0300     		.2byte	0x3
 8437 1ff9 91       		.byte	0x91
 8438 1ffa D87C     		.sleb128 -424
 8439 1ffc B20E0000 		.4byte	.LVL399
 8440 2000 BC0E0000 		.4byte	.LVL400
 8441 2004 0600     		.2byte	0x6
 8442 2006 52       		.byte	0x52
 8443 2007 93       		.byte	0x93
 8444 2008 04       		.uleb128 0x4
 8445 2009 53       		.byte	0x53
 8446 200a 93       		.byte	0x93
 8447 200b 04       		.uleb128 0x4
 8448 200c 00000000 		.4byte	0
 8449 2010 00000000 		.4byte	0
 8450              	.LLST63:
 8451 2014 64090000 		.4byte	.LVL281
 8452 2018 6A090000 		.4byte	.LVL283
 8453 201c 0600     		.2byte	0x6
 8454 201e 5A       		.byte	0x5a
 8455 201f 93       		.byte	0x93
 8456 2020 04       		.uleb128 0x4
 8457 2021 5B       		.byte	0x5b
 8458 2022 93       		.byte	0x93
 8459 2023 04       		.uleb128 0x4
 8460 2024 6A090000 		.4byte	.LVL283
 8461 2028 2A110000 		.4byte	.LVL458
 8462 202c 0300     		.2byte	0x3
 8463 202e 91       		.byte	0x91
 8464 202f 907D     		.sleb128 -368
 8465 2031 2A110000 		.4byte	.LVL458
 8466 2035 34110000 		.4byte	.LVL459
 8467 2039 0600     		.2byte	0x6
 8468 203b 52       		.byte	0x52
 8469 203c 93       		.byte	0x93
 8470 203d 04       		.uleb128 0x4
ARM GAS  C:\Users\bogur\AppData\Local\Temp\ccXFXavo.s 			page 159


 8471 203e 53       		.byte	0x53
 8472 203f 93       		.byte	0x93
 8473 2040 04       		.uleb128 0x4
 8474 2041 00000000 		.4byte	0
 8475 2045 00000000 		.4byte	0
 8476              	.LLST64:
 8477 2049 80090000 		.4byte	.LVL286
 8478 204d 86090000 		.4byte	.LVL287
 8479 2051 0600     		.2byte	0x6
 8480 2053 55       		.byte	0x55
 8481 2054 93       		.byte	0x93
 8482 2055 04       		.uleb128 0x4
 8483 2056 56       		.byte	0x56
 8484 2057 93       		.byte	0x93
 8485 2058 04       		.uleb128 0x4
 8486 2059 86090000 		.4byte	.LVL287
 8487 205d 90090000 		.4byte	.LVL288
 8488 2061 0200     		.2byte	0x2
 8489 2063 73       		.byte	0x73
 8490 2064 00       		.sleb128 0
 8491 2065 90090000 		.4byte	.LVL288
 8492 2069 600A0000 		.4byte	.LVL309
 8493 206d 0300     		.2byte	0x3
 8494 206f 91       		.byte	0x91
 8495 2070 A87C     		.sleb128 -472
 8496 2072 600A0000 		.4byte	.LVL309
 8497 2076 640A0000 		.4byte	.LVL310
 8498 207a 0200     		.2byte	0x2
 8499 207c 73       		.byte	0x73
 8500 207d 00       		.sleb128 0
 8501 207e 640A0000 		.4byte	.LVL310
 8502 2082 660A0000 		.4byte	.LVL311
 8503 2086 0600     		.2byte	0x6
 8504 2088 53       		.byte	0x53
 8505 2089 93       		.byte	0x93
 8506 208a 04       		.uleb128 0x4
 8507 208b 54       		.byte	0x54
 8508 208c 93       		.byte	0x93
 8509 208d 04       		.uleb128 0x4
 8510 208e 660A0000 		.4byte	.LVL311
 8511 2092 6A0D0000 		.4byte	.LVL372
 8512 2096 0300     		.2byte	0x3
 8513 2098 91       		.byte	0x91
 8514 2099 A87C     		.sleb128 -472
 8515 209b 6A0D0000 		.4byte	.LVL372
 8516 209f 780D0000 		.4byte	.LVL373
 8517 20a3 0200     		.2byte	0x2
 8518 20a5 73       		.byte	0x73
 8519 20a6 00       		.sleb128 0
 8520 20a7 00000000 		.4byte	0
 8521 20ab 00000000 		.4byte	0
 8522              	.LLST65:
 8523 20af 9E090000 		.4byte	.LVL290
 8524 20b3 500A0000 		.4byte	.LVL305
 8525 20b7 0600     		.2byte	0x6
 8526 20b9 50       		.byte	0x50
 8527 20ba 93       		.byte	0x93
ARM GAS  C:\Users\bogur\AppData\Local\Temp\ccXFXavo.s 			page 160


 8528 20bb 04       		.uleb128 0x4
 8529 20bc 51       		.byte	0x51
 8530 20bd 93       		.byte	0x93
 8531 20be 04       		.uleb128 0x4
 8532 20bf 500A0000 		.4byte	.LVL305
 8533 20c3 EE0F0000 		.4byte	.LVL428
 8534 20c7 0300     		.2byte	0x3
 8535 20c9 91       		.byte	0x91
 8536 20ca E07C     		.sleb128 -416
 8537 20cc 00000000 		.4byte	0
 8538 20d0 00000000 		.4byte	0
 8539              	.LLST66:
 8540 20d4 B6090000 		.4byte	.LVL291
 8541 20d8 200A0000 		.4byte	.LVL302
 8542 20dc 0600     		.2byte	0x6
 8543 20de 55       		.byte	0x55
 8544 20df 93       		.byte	0x93
 8545 20e0 04       		.uleb128 0x4
 8546 20e1 56       		.byte	0x56
 8547 20e2 93       		.byte	0x93
 8548 20e3 04       		.uleb128 0x4
 8549 20e4 200A0000 		.4byte	.LVL302
 8550 20e8 3A0C0000 		.4byte	.LVL344
 8551 20ec 0300     		.2byte	0x3
 8552 20ee 91       		.byte	0x91
 8553 20ef F87B     		.sleb128 -520
 8554 20f1 00000000 		.4byte	0
 8555 20f5 00000000 		.4byte	0
 8556              	.LLST67:
 8557 20f9 00000000 		.4byte	.LVL527
 8558 20fd 0E000000 		.4byte	.LVL528
 8559 2101 0100     		.2byte	0x1
 8560 2103 50       		.byte	0x50
 8561 2104 0E000000 		.4byte	.LVL528
 8562 2108 FA000000 		.4byte	.LFE3
 8563 210c 0100     		.2byte	0x1
 8564 210e 5B       		.byte	0x5b
 8565 210f 00000000 		.4byte	0
 8566 2113 00000000 		.4byte	0
 8567              	.LLST68:
 8568 2117 00000000 		.4byte	.LVL527
 8569 211b 0E000000 		.4byte	.LVL528
 8570 211f 0100     		.2byte	0x1
 8571 2121 51       		.byte	0x51
 8572 2122 0E000000 		.4byte	.LVL528
 8573 2126 56000000 		.4byte	.LVL536
 8574 212a 0100     		.2byte	0x1
 8575 212c 58       		.byte	0x58
 8576 212d 56000000 		.4byte	.LVL536
 8577 2131 68000000 		.4byte	.LVL537
 8578 2135 0100     		.2byte	0x1
 8579 2137 5A       		.byte	0x5a
 8580 2138 68000000 		.4byte	.LVL537
 8581 213c FA000000 		.4byte	.LFE3
 8582 2140 0100     		.2byte	0x1
 8583 2142 58       		.byte	0x58
 8584 2143 00000000 		.4byte	0
ARM GAS  C:\Users\bogur\AppData\Local\Temp\ccXFXavo.s 			page 161


 8585 2147 00000000 		.4byte	0
 8586              	.LLST69:
 8587 214b 00000000 		.4byte	.LVL527
 8588 214f 0E000000 		.4byte	.LVL528
 8589 2153 0100     		.2byte	0x1
 8590 2155 52       		.byte	0x52
 8591 2156 0E000000 		.4byte	.LVL528
 8592 215a FA000000 		.4byte	.LFE3
 8593 215e 0100     		.2byte	0x1
 8594 2160 55       		.byte	0x55
 8595 2161 00000000 		.4byte	0
 8596 2165 00000000 		.4byte	0
 8597              	.LLST70:
 8598 2169 00000000 		.4byte	.LVL527
 8599 216d 2C000000 		.4byte	.LVL532
 8600 2171 0200     		.2byte	0x2
 8601 2173 91       		.byte	0x91
 8602 2174 00       		.sleb128 0
 8603 2175 2C000000 		.4byte	.LVL532
 8604 2179 30000000 		.4byte	.LVL533
 8605 217d 0600     		.2byte	0x6
 8606 217f 53       		.byte	0x53
 8607 2180 93       		.byte	0x93
 8608 2181 04       		.uleb128 0x4
 8609 2182 54       		.byte	0x54
 8610 2183 93       		.byte	0x93
 8611 2184 04       		.uleb128 0x4
 8612 2185 30000000 		.4byte	.LVL533
 8613 2189 54000000 		.4byte	.LVL535
 8614 218d 0200     		.2byte	0x2
 8615 218f 91       		.byte	0x91
 8616 2190 00       		.sleb128 0
 8617 2191 54000000 		.4byte	.LVL535
 8618 2195 56000000 		.4byte	.LVL536
 8619 2199 0600     		.2byte	0x6
 8620 219b 53       		.byte	0x53
 8621 219c 93       		.byte	0x93
 8622 219d 04       		.uleb128 0x4
 8623 219e 54       		.byte	0x54
 8624 219f 93       		.byte	0x93
 8625 21a0 04       		.uleb128 0x4
 8626 21a1 56000000 		.4byte	.LVL536
 8627 21a5 FA000000 		.4byte	.LFE3
 8628 21a9 0200     		.2byte	0x2
 8629 21ab 91       		.byte	0x91
 8630 21ac 00       		.sleb128 0
 8631 21ad 00000000 		.4byte	0
 8632 21b1 00000000 		.4byte	0
 8633              	.LLST71:
 8634 21b5 0E000000 		.4byte	.LVL528
 8635 21b9 26000000 		.4byte	.LVL530
 8636 21bd 0600     		.2byte	0x6
 8637 21bf 56       		.byte	0x56
 8638 21c0 93       		.byte	0x93
 8639 21c1 04       		.uleb128 0x4
 8640 21c2 57       		.byte	0x57
 8641 21c3 93       		.byte	0x93
ARM GAS  C:\Users\bogur\AppData\Local\Temp\ccXFXavo.s 			page 162


 8642 21c4 04       		.uleb128 0x4
 8643 21c5 2A000000 		.4byte	.LVL531
 8644 21c9 2C000000 		.4byte	.LVL532
 8645 21cd 0600     		.2byte	0x6
 8646 21cf 56       		.byte	0x56
 8647 21d0 93       		.byte	0x93
 8648 21d1 04       		.uleb128 0x4
 8649 21d2 57       		.byte	0x57
 8650 21d3 93       		.byte	0x93
 8651 21d4 04       		.uleb128 0x4
 8652 21d5 30000000 		.4byte	.LVL533
 8653 21d9 56000000 		.4byte	.LVL536
 8654 21dd 0600     		.2byte	0x6
 8655 21df 56       		.byte	0x56
 8656 21e0 93       		.byte	0x93
 8657 21e1 04       		.uleb128 0x4
 8658 21e2 57       		.byte	0x57
 8659 21e3 93       		.byte	0x93
 8660 21e4 04       		.uleb128 0x4
 8661 21e5 6E000000 		.4byte	.LVL538
 8662 21e9 78000000 		.4byte	.LVL539
 8663 21ed 0600     		.2byte	0x6
 8664 21ef 52       		.byte	0x52
 8665 21f0 93       		.byte	0x93
 8666 21f1 04       		.uleb128 0x4
 8667 21f2 53       		.byte	0x53
 8668 21f3 93       		.byte	0x93
 8669 21f4 04       		.uleb128 0x4
 8670 21f5 7C000000 		.4byte	.LVL540
 8671 21f9 86000000 		.4byte	.LVL541
 8672 21fd 0600     		.2byte	0x6
 8673 21ff 52       		.byte	0x52
 8674 2200 93       		.byte	0x93
 8675 2201 04       		.uleb128 0x4
 8676 2202 53       		.byte	0x53
 8677 2203 93       		.byte	0x93
 8678 2204 04       		.uleb128 0x4
 8679 2205 8A000000 		.4byte	.LVL542
 8680 2209 96000000 		.4byte	.LVL543
 8681 220d 0600     		.2byte	0x6
 8682 220f 52       		.byte	0x52
 8683 2210 93       		.byte	0x93
 8684 2211 04       		.uleb128 0x4
 8685 2212 53       		.byte	0x53
 8686 2213 93       		.byte	0x93
 8687 2214 04       		.uleb128 0x4
 8688 2215 9A000000 		.4byte	.LVL544
 8689 2219 A8000000 		.4byte	.LVL545
 8690 221d 0600     		.2byte	0x6
 8691 221f 52       		.byte	0x52
 8692 2220 93       		.byte	0x93
 8693 2221 04       		.uleb128 0x4
 8694 2222 53       		.byte	0x53
 8695 2223 93       		.byte	0x93
 8696 2224 04       		.uleb128 0x4
 8697 2225 C2000000 		.4byte	.LVL546
 8698 2229 C8000000 		.4byte	.LVL547
ARM GAS  C:\Users\bogur\AppData\Local\Temp\ccXFXavo.s 			page 163


 8699 222d 0A00     		.2byte	0xa
 8700 222f 9E       		.byte	0x9e
 8701 2230 08       		.uleb128 0x8
 8702 2231 00000000 		.8byte	0
 8702      00000000 
 8703 2239 C8000000 		.4byte	.LVL547
 8704 223d E2000000 		.4byte	.LVL549
 8705 2241 0600     		.2byte	0x6
 8706 2243 56       		.byte	0x56
 8707 2244 93       		.byte	0x93
 8708 2245 04       		.uleb128 0x4
 8709 2246 57       		.byte	0x57
 8710 2247 93       		.byte	0x93
 8711 2248 04       		.uleb128 0x4
 8712 2249 E6000000 		.4byte	.LVL550
 8713 224d FA000000 		.4byte	.LFE3
 8714 2251 0600     		.2byte	0x6
 8715 2253 56       		.byte	0x56
 8716 2254 93       		.byte	0x93
 8717 2255 04       		.uleb128 0x4
 8718 2256 57       		.byte	0x57
 8719 2257 93       		.byte	0x93
 8720 2258 04       		.uleb128 0x4
 8721 2259 00000000 		.4byte	0
 8722 225d 00000000 		.4byte	0
 8723              	.LLST72:
 8724 2261 00000000 		.4byte	.LVL551
 8725 2265 12000000 		.4byte	.LVL552
 8726 2269 0100     		.2byte	0x1
 8727 226b 50       		.byte	0x50
 8728 226c 12000000 		.4byte	.LVL552
 8729 2270 48000000 		.4byte	.LFE4
 8730 2274 0100     		.2byte	0x1
 8731 2276 58       		.byte	0x58
 8732 2277 00000000 		.4byte	0
 8733 227b 00000000 		.4byte	0
 8734              	.LLST73:
 8735 227f 00000000 		.4byte	.LVL551
 8736 2283 12000000 		.4byte	.LVL552
 8737 2287 0600     		.2byte	0x6
 8738 2289 52       		.byte	0x52
 8739 228a 93       		.byte	0x93
 8740 228b 04       		.uleb128 0x4
 8741 228c 53       		.byte	0x53
 8742 228d 93       		.byte	0x93
 8743 228e 04       		.uleb128 0x4
 8744 228f 12000000 		.4byte	.LVL552
 8745 2293 3A000000 		.4byte	.LVL558
 8746 2297 0600     		.2byte	0x6
 8747 2299 56       		.byte	0x56
 8748 229a 93       		.byte	0x93
 8749 229b 04       		.uleb128 0x4
 8750 229c 57       		.byte	0x57
 8751 229d 93       		.byte	0x93
 8752 229e 04       		.uleb128 0x4
 8753 229f 3E000000 		.4byte	.LVL559
 8754 22a3 48000000 		.4byte	.LFE4
ARM GAS  C:\Users\bogur\AppData\Local\Temp\ccXFXavo.s 			page 164


 8755 22a7 0600     		.2byte	0x6
 8756 22a9 56       		.byte	0x56
 8757 22aa 93       		.byte	0x93
 8758 22ab 04       		.uleb128 0x4
 8759 22ac 57       		.byte	0x57
 8760 22ad 93       		.byte	0x93
 8761 22ae 04       		.uleb128 0x4
 8762 22af 00000000 		.4byte	0
 8763 22b3 00000000 		.4byte	0
 8764              	.LLST74:
 8765 22b7 18000000 		.4byte	.LVL553
 8766 22bb 1C000000 		.4byte	.LVL554
 8767 22bf 0200     		.2byte	0x2
 8768 22c1 30       		.byte	0x30
 8769 22c2 9F       		.byte	0x9f
 8770 22c3 1C000000 		.4byte	.LVL554
 8771 22c7 3E000000 		.4byte	.LVL559
 8772 22cb 0100     		.2byte	0x1
 8773 22cd 54       		.byte	0x54
 8774 22ce 00000000 		.4byte	0
 8775 22d2 00000000 		.4byte	0
 8776              	.LLST75:
 8777 22d6 00000000 		.4byte	.LVL560
 8778 22da 12000000 		.4byte	.LVL562
 8779 22de 0100     		.2byte	0x1
 8780 22e0 50       		.byte	0x50
 8781 22e1 12000000 		.4byte	.LVL562
 8782 22e5 6A000000 		.4byte	.LVL571
 8783 22e9 0100     		.2byte	0x1
 8784 22eb 59       		.byte	0x59
 8785 22ec 6A000000 		.4byte	.LVL571
 8786 22f0 CA000000 		.4byte	.LFE5
 8787 22f4 0600     		.2byte	0x6
 8788 22f6 79       		.byte	0x79
 8789 22f7 00       		.sleb128 0
 8790 22f8 78       		.byte	0x78
 8791 22f9 00       		.sleb128 0
 8792 22fa 22       		.byte	0x22
 8793 22fb 9F       		.byte	0x9f
 8794 22fc 00000000 		.4byte	0
 8795 2300 00000000 		.4byte	0
 8796              	.LLST76:
 8797 2304 00000000 		.4byte	.LVL560
 8798 2308 0E000000 		.4byte	.LVL561
 8799 230c 0600     		.2byte	0x6
 8800 230e 52       		.byte	0x52
 8801 230f 93       		.byte	0x93
 8802 2310 04       		.uleb128 0x4
 8803 2311 53       		.byte	0x53
 8804 2312 93       		.byte	0x93
 8805 2313 04       		.uleb128 0x4
 8806 2314 0E000000 		.4byte	.LVL561
 8807 2318 90000000 		.4byte	.LVL573
 8808 231c 0600     		.2byte	0x6
 8809 231e F3       		.byte	0xf3
 8810 231f 03       		.uleb128 0x3
 8811 2320 F5       		.byte	0xf5
ARM GAS  C:\Users\bogur\AppData\Local\Temp\ccXFXavo.s 			page 165


 8812 2321 02       		.uleb128 0x2
 8813 2322 25       		.uleb128 0x25
 8814 2323 9F       		.byte	0x9f
 8815 2324 90000000 		.4byte	.LVL573
 8816 2328 CA000000 		.4byte	.LFE5
 8817 232c 0600     		.2byte	0x6
 8818 232e 56       		.byte	0x56
 8819 232f 93       		.byte	0x93
 8820 2330 04       		.uleb128 0x4
 8821 2331 57       		.byte	0x57
 8822 2332 93       		.byte	0x93
 8823 2333 04       		.uleb128 0x4
 8824 2334 00000000 		.4byte	0
 8825 2338 00000000 		.4byte	0
 8826              	.LLST77:
 8827 233c 00000000 		.4byte	.LVL560
 8828 2340 3E000000 		.4byte	.LVL568
 8829 2344 0200     		.2byte	0x2
 8830 2346 91       		.byte	0x91
 8831 2347 08       		.sleb128 8
 8832 2348 3E000000 		.4byte	.LVL568
 8833 234c 4F000000 		.4byte	.LVL569-1
 8834 2350 0200     		.2byte	0x2
 8835 2352 73       		.byte	0x73
 8836 2353 00       		.sleb128 0
 8837 2354 4F000000 		.4byte	.LVL569-1
 8838 2358 CA000000 		.4byte	.LFE5
 8839 235c 0200     		.2byte	0x2
 8840 235e 91       		.byte	0x91
 8841 235f 08       		.sleb128 8
 8842 2360 00000000 		.4byte	0
 8843 2364 00000000 		.4byte	0
 8844              	.LLST78:
 8845 2368 1C000000 		.4byte	.LVL564
 8846 236c 72000000 		.4byte	.LVL572
 8847 2370 0600     		.2byte	0x6
 8848 2372 54       		.byte	0x54
 8849 2373 93       		.byte	0x93
 8850 2374 04       		.uleb128 0x4
 8851 2375 55       		.byte	0x55
 8852 2376 93       		.byte	0x93
 8853 2377 04       		.uleb128 0x4
 8854 2378 00000000 		.4byte	0
 8855 237c 00000000 		.4byte	0
 8856              	.LLST79:
 8857 2380 1C000000 		.4byte	.LVL564
 8858 2384 20000000 		.4byte	.LVL565
 8859 2388 0200     		.2byte	0x2
 8860 238a 30       		.byte	0x30
 8861 238b 9F       		.byte	0x9f
 8862 238c 20000000 		.4byte	.LVL565
 8863 2390 3A000000 		.4byte	.LVL567
 8864 2394 0100     		.2byte	0x1
 8865 2396 53       		.byte	0x53
 8866 2397 A8000000 		.4byte	.LVL574
 8867 239b AC000000 		.4byte	.LVL575
 8868 239f 0200     		.2byte	0x2
ARM GAS  C:\Users\bogur\AppData\Local\Temp\ccXFXavo.s 			page 166


 8869 23a1 30       		.byte	0x30
 8870 23a2 9F       		.byte	0x9f
 8871 23a3 AC000000 		.4byte	.LVL575
 8872 23a7 C4000000 		.4byte	.LVL577
 8873 23ab 0100     		.2byte	0x1
 8874 23ad 53       		.byte	0x53
 8875 23ae 00000000 		.4byte	0
 8876 23b2 00000000 		.4byte	0
 8877              	.LLST80:
 8878 23b6 00000000 		.4byte	.LVL578
 8879 23ba 10000000 		.4byte	.LVL580
 8880 23be 0100     		.2byte	0x1
 8881 23c0 50       		.byte	0x50
 8882 23c1 10000000 		.4byte	.LVL580
 8883 23c5 5E000000 		.4byte	.LFE6
 8884 23c9 0100     		.2byte	0x1
 8885 23cb 56       		.byte	0x56
 8886 23cc 00000000 		.4byte	0
 8887 23d0 00000000 		.4byte	0
 8888              	.LLST81:
 8889 23d4 00000000 		.4byte	.LVL578
 8890 23d8 32000000 		.4byte	.LVL583
 8891 23dc 0100     		.2byte	0x1
 8892 23de 51       		.byte	0x51
 8893 23df 32000000 		.4byte	.LVL583
 8894 23e3 37000000 		.4byte	.LVL584-1
 8895 23e7 0100     		.2byte	0x1
 8896 23e9 52       		.byte	0x52
 8897 23ea 37000000 		.4byte	.LVL584-1
 8898 23ee 5E000000 		.4byte	.LFE6
 8899 23f2 0400     		.2byte	0x4
 8900 23f4 F3       		.byte	0xf3
 8901 23f5 01       		.uleb128 0x1
 8902 23f6 51       		.byte	0x51
 8903 23f7 9F       		.byte	0x9f
 8904 23f8 00000000 		.4byte	0
 8905 23fc 00000000 		.4byte	0
 8906              	.LLST82:
 8907 2400 00000000 		.4byte	.LVL578
 8908 2404 10000000 		.4byte	.LVL580
 8909 2408 0600     		.2byte	0x6
 8910 240a 52       		.byte	0x52
 8911 240b 93       		.byte	0x93
 8912 240c 04       		.uleb128 0x4
 8913 240d 53       		.byte	0x53
 8914 240e 93       		.byte	0x93
 8915 240f 04       		.uleb128 0x4
 8916 2410 10000000 		.4byte	.LVL580
 8917 2414 5E000000 		.4byte	.LFE6
 8918 2418 0600     		.2byte	0x6
 8919 241a F3       		.byte	0xf3
 8920 241b 03       		.uleb128 0x3
 8921 241c F5       		.byte	0xf5
 8922 241d 02       		.uleb128 0x2
 8923 241e 25       		.uleb128 0x25
 8924 241f 9F       		.byte	0x9f
 8925 2420 00000000 		.4byte	0
ARM GAS  C:\Users\bogur\AppData\Local\Temp\ccXFXavo.s 			page 167


 8926 2424 00000000 		.4byte	0
 8927              	.LLST83:
 8928 2428 0C000000 		.4byte	.LVL579
 8929 242c 10000000 		.4byte	.LVL580
 8930 2430 0200     		.2byte	0x2
 8931 2432 30       		.byte	0x30
 8932 2433 9F       		.byte	0x9f
 8933 2434 10000000 		.4byte	.LVL580
 8934 2438 28000000 		.4byte	.LVL582
 8935 243c 0100     		.2byte	0x1
 8936 243e 53       		.byte	0x53
 8937 243f 48000000 		.4byte	.LVL585
 8938 2443 4C000000 		.4byte	.LVL586
 8939 2447 0200     		.2byte	0x2
 8940 2449 30       		.byte	0x30
 8941 244a 9F       		.byte	0x9f
 8942 244b 4C000000 		.4byte	.LVL586
 8943 244f 5E000000 		.4byte	.LFE6
 8944 2453 0100     		.2byte	0x1
 8945 2455 53       		.byte	0x53
 8946 2456 00000000 		.4byte	0
 8947 245a 00000000 		.4byte	0
 8948              	.LLST84:
 8949 245e 00000000 		.4byte	.LVL588
 8950 2462 10000000 		.4byte	.LVL590
 8951 2466 0100     		.2byte	0x1
 8952 2468 50       		.byte	0x50
 8953 2469 10000000 		.4byte	.LVL590
 8954 246d 5E000000 		.4byte	.LFE7
 8955 2471 0100     		.2byte	0x1
 8956 2473 54       		.byte	0x54
 8957 2474 00000000 		.4byte	0
 8958 2478 00000000 		.4byte	0
 8959              	.LLST85:
 8960 247c 00000000 		.4byte	.LVL588
 8961 2480 32000000 		.4byte	.LVL593
 8962 2484 0100     		.2byte	0x1
 8963 2486 51       		.byte	0x51
 8964 2487 32000000 		.4byte	.LVL593
 8965 248b 37000000 		.4byte	.LVL594-1
 8966 248f 0100     		.2byte	0x1
 8967 2491 52       		.byte	0x52
 8968 2492 37000000 		.4byte	.LVL594-1
 8969 2496 5E000000 		.4byte	.LFE7
 8970 249a 0400     		.2byte	0x4
 8971 249c F3       		.byte	0xf3
 8972 249d 01       		.uleb128 0x1
 8973 249e 51       		.byte	0x51
 8974 249f 9F       		.byte	0x9f
 8975 24a0 00000000 		.4byte	0
 8976 24a4 00000000 		.4byte	0
 8977              	.LLST86:
 8978 24a8 00000000 		.4byte	.LVL588
 8979 24ac 10000000 		.4byte	.LVL590
 8980 24b0 0600     		.2byte	0x6
 8981 24b2 52       		.byte	0x52
 8982 24b3 93       		.byte	0x93
ARM GAS  C:\Users\bogur\AppData\Local\Temp\ccXFXavo.s 			page 168


 8983 24b4 04       		.uleb128 0x4
 8984 24b5 53       		.byte	0x53
 8985 24b6 93       		.byte	0x93
 8986 24b7 04       		.uleb128 0x4
 8987 24b8 10000000 		.4byte	.LVL590
 8988 24bc 5E000000 		.4byte	.LFE7
 8989 24c0 0600     		.2byte	0x6
 8990 24c2 F3       		.byte	0xf3
 8991 24c3 03       		.uleb128 0x3
 8992 24c4 F5       		.byte	0xf5
 8993 24c5 02       		.uleb128 0x2
 8994 24c6 25       		.uleb128 0x25
 8995 24c7 9F       		.byte	0x9f
 8996 24c8 00000000 		.4byte	0
 8997 24cc 00000000 		.4byte	0
 8998              	.LLST87:
 8999 24d0 0C000000 		.4byte	.LVL589
 9000 24d4 10000000 		.4byte	.LVL590
 9001 24d8 0200     		.2byte	0x2
 9002 24da 30       		.byte	0x30
 9003 24db 9F       		.byte	0x9f
 9004 24dc 10000000 		.4byte	.LVL590
 9005 24e0 28000000 		.4byte	.LVL592
 9006 24e4 0100     		.2byte	0x1
 9007 24e6 53       		.byte	0x53
 9008 24e7 48000000 		.4byte	.LVL595
 9009 24eb 4C000000 		.4byte	.LVL596
 9010 24ef 0200     		.2byte	0x2
 9011 24f1 30       		.byte	0x30
 9012 24f2 9F       		.byte	0x9f
 9013 24f3 4C000000 		.4byte	.LVL596
 9014 24f7 5E000000 		.4byte	.LFE7
 9015 24fb 0100     		.2byte	0x1
 9016 24fd 53       		.byte	0x53
 9017 24fe 00000000 		.4byte	0
 9018 2502 00000000 		.4byte	0
 9019              		.section	.debug_aranges,"",%progbits
 9020 0000 54000000 		.4byte	0x54
 9021 0004 0200     		.2byte	0x2
 9022 0006 00000000 		.4byte	.Ldebug_info0
 9023 000a 04       		.byte	0x4
 9024 000b 00       		.byte	0
 9025 000c 0000     		.2byte	0
 9026 000e 0000     		.2byte	0
 9027 0010 00000000 		.4byte	.LFB0
 9028 0014 4C000000 		.4byte	.LFE0-.LFB0
 9029 0018 00000000 		.4byte	.LFB1
 9030 001c 16000000 		.4byte	.LFE1-.LFB1
 9031 0020 00000000 		.4byte	.LFB2
 9032 0024 FC120000 		.4byte	.LFE2-.LFB2
 9033 0028 00000000 		.4byte	.LFB3
 9034 002c FA000000 		.4byte	.LFE3-.LFB3
 9035 0030 00000000 		.4byte	.LFB4
 9036 0034 48000000 		.4byte	.LFE4-.LFB4
 9037 0038 00000000 		.4byte	.LFB5
 9038 003c CA000000 		.4byte	.LFE5-.LFB5
 9039 0040 00000000 		.4byte	.LFB6
ARM GAS  C:\Users\bogur\AppData\Local\Temp\ccXFXavo.s 			page 169


 9040 0044 5E000000 		.4byte	.LFE6-.LFB6
 9041 0048 00000000 		.4byte	.LFB7
 9042 004c 5E000000 		.4byte	.LFE7-.LFB7
 9043 0050 00000000 		.4byte	0
 9044 0054 00000000 		.4byte	0
 9045              		.section	.debug_ranges,"",%progbits
 9046              	.Ldebug_ranges0:
 9047 0000 00000000 		.4byte	.LFB0
 9048 0004 4C000000 		.4byte	.LFE0
 9049 0008 00000000 		.4byte	.LFB1
 9050 000c 16000000 		.4byte	.LFE1
 9051 0010 00000000 		.4byte	.LFB2
 9052 0014 FC120000 		.4byte	.LFE2
 9053 0018 00000000 		.4byte	.LFB3
 9054 001c FA000000 		.4byte	.LFE3
 9055 0020 00000000 		.4byte	.LFB4
 9056 0024 48000000 		.4byte	.LFE4
 9057 0028 00000000 		.4byte	.LFB5
 9058 002c CA000000 		.4byte	.LFE5
 9059 0030 00000000 		.4byte	.LFB6
 9060 0034 5E000000 		.4byte	.LFE6
 9061 0038 00000000 		.4byte	.LFB7
 9062 003c 5E000000 		.4byte	.LFE7
 9063 0040 00000000 		.4byte	0
 9064 0044 00000000 		.4byte	0
 9065              		.section	.debug_line,"",%progbits
 9066              	.Ldebug_line0:
 9067 0000 F6060000 		.section	.debug_str,"MS",%progbits,1
 9067      0200A201 
 9067      00000201 
 9067      FB0E0D00 
 9067      01010101 
 9068              	.LASF13:
 9069 0000 73697A65 		.ascii	"size_t\000"
 9069      5F7400
 9070              	.LASF12:
 9071 0007 75696E74 		.ascii	"uint64_t\000"
 9071      36345F74 
 9071      00
 9072              	.LASF8:
 9073 0010 5F5F7569 		.ascii	"__uint8_t\000"
 9073      6E74385F 
 9073      7400
 9074              	.LASF18:
 9075 001a 4B656363 		.ascii	"KeccakF1600_StatePermute\000"
 9075      616B4631 
 9075      3630305F 
 9075      53746174 
 9075      65506572 
 9076              	.LASF0:
 9077 0033 6C6F6E67 		.ascii	"long long unsigned int\000"
 9077      206C6F6E 
 9077      6720756E 
 9077      7369676E 
 9077      65642069 
 9078              	.LASF7:
 9079 004a 6C6F6E67 		.ascii	"long long int\000"
ARM GAS  C:\Users\bogur\AppData\Local\Temp\ccXFXavo.s 			page 170


 9079      206C6F6E 
 9079      6720696E 
 9079      7400
 9080              	.LASF1:
 9081 0058 7369676E 		.ascii	"signed char\000"
 9081      65642063 
 9081      68617200 
 9082              	.LASF19:
 9083 0064 73746174 		.ascii	"state\000"
 9083      6500
 9084              	.LASF5:
 9085 006a 6C6F6E67 		.ascii	"long int\000"
 9085      20696E74 
 9085      00
 9086              	.LASF23:
 9087 0073 6B656363 		.ascii	"keccak_squeezeblocks\000"
 9087      616B5F73 
 9087      71756565 
 9087      7A65626C 
 9087      6F636B73 
 9088              	.LASF32:
 9089 0088 4B656363 		.ascii	"KeccakF_RoundConstants\000"
 9089      616B465F 
 9089      526F756E 
 9089      64436F6E 
 9089      7374616E 
 9090              	.LASF31:
 9091 009f 73686133 		.ascii	"sha3_512\000"
 9091      5F353132 
 9091      00
 9092              	.LASF28:
 9093 00a8 696E6C65 		.ascii	"inlen\000"
 9093      6E00
 9094              	.LASF10:
 9095 00ae 756E7369 		.ascii	"unsigned int\000"
 9095      676E6564 
 9095      20696E74 
 9095      00
 9096              	.LASF6:
 9097 00bb 6C6F6E67 		.ascii	"long unsigned int\000"
 9097      20756E73 
 9097      69676E65 
 9097      6420696E 
 9097      7400
 9098              	.LASF30:
 9099 00cd 73686133 		.ascii	"sha3_256\000"
 9099      5F323536 
 9099      00
 9100              	.LASF4:
 9101 00d6 73686F72 		.ascii	"short unsigned int\000"
 9101      7420756E 
 9101      7369676E 
 9101      65642069 
 9101      6E7400
 9102              	.LASF22:
 9103 00e9 6D6C656E 		.ascii	"mlen\000"
 9103      00
ARM GAS  C:\Users\bogur\AppData\Local\Temp\ccXFXavo.s 			page 171


 9104              	.LASF25:
 9105 00ee 6F757470 		.ascii	"output\000"
 9105      757400
 9106              	.LASF35:
 9107 00f5 433A5C55 		.ascii	"C:\\Users\\bogur\\Documents\\GitHub\\TFG2\\Codigo\\"
 9107      73657273 
 9107      5C626F67 
 9107      75725C44 
 9107      6F63756D 
 9108 0121 416C676F 		.ascii	"Algoritmos postcuanticos\\PSOC\\SABER\\Saber\\Saber"
 9108      7269746D 
 9108      6F732070 
 9108      6F737463 
 9108      75616E74 
 9109 0150 2E637964 		.ascii	".cydsn\000"
 9109      736E00
 9110              	.LASF15:
 9111 0157 73697A65 		.ascii	"sizetype\000"
 9111      74797065 
 9111      00
 9112              	.LASF14:
 9113 0160 6C6F6E67 		.ascii	"long double\000"
 9113      20646F75 
 9113      626C6500 
 9114              	.LASF33:
 9115 016c 474E5520 		.ascii	"GNU C11 5.4.1 20160609 (release) [ARM/embedded-5-br"
 9115      43313120 
 9115      352E342E 
 9115      31203230 
 9115      31363036 
 9116 019f 616E6368 		.ascii	"anch revision 237715] -mcpu=cortex-m4 -mfloat-abi=s"
 9116      20726576 
 9116      6973696F 
 9116      6E203233 
 9116      37373135 
 9117 01d2 6F667466 		.ascii	"oftfp -mfpu=fpv4-sp-d16 -mthumb -g -Og -ffunction-s"
 9117      70202D6D 
 9117      6670753D 
 9117      66707634 
 9117      2D73702D 
 9118 0205 65637469 		.ascii	"ections -ffat-lto-objects\000"
 9118      6F6E7320 
 9118      2D666661 
 9118      742D6C74 
 9118      6F2D6F62 
 9119              	.LASF9:
 9120 021f 5F5F7569 		.ascii	"__uint64_t\000"
 9120      6E743634 
 9120      5F7400
 9121              	.LASF17:
 9122 022a 73746F72 		.ascii	"store64\000"
 9122      65363400 
 9123              	.LASF2:
 9124 0232 756E7369 		.ascii	"unsigned char\000"
 9124      676E6564 
 9124      20636861 
 9124      7200
ARM GAS  C:\Users\bogur\AppData\Local\Temp\ccXFXavo.s 			page 172


 9125              	.LASF3:
 9126 0240 73686F72 		.ascii	"short int\000"
 9126      7420696E 
 9126      7400
 9127              	.LASF20:
 9128 024a 726F756E 		.ascii	"round\000"
 9128      6400
 9129              	.LASF29:
 9130 0250 7368616B 		.ascii	"shake128\000"
 9130      65313238 
 9130      00
 9131              	.LASF27:
 9132 0259 696E7075 		.ascii	"input\000"
 9132      7400
 9133              	.LASF36:
 9134 025f 6C6F6164 		.ascii	"load64\000"
 9134      363400
 9135              	.LASF16:
 9136 0266 63686172 		.ascii	"char\000"
 9136      00
 9137              	.LASF21:
 9138 026b 6B656363 		.ascii	"keccak_absorb\000"
 9138      616B5F61 
 9138      62736F72 
 9138      6200
 9139              	.LASF34:
 9140 0279 2E2E5C66 		.ascii	"..\\fips202.c\000"
 9140      69707332 
 9140      30322E63 
 9140      00
 9141              	.LASF11:
 9142 0286 75696E74 		.ascii	"uint8_t\000"
 9142      385F7400 
 9143              	.LASF24:
 9144 028e 6E626C6F 		.ascii	"nblocks\000"
 9144      636B7300 
 9145              	.LASF26:
 9146 0296 6F75746C 		.ascii	"outlen\000"
 9146      656E00
 9147              		.ident	"GCC: (GNU Tools for ARM Embedded Processors) 5.4.1 20160609 (release) [ARM/embedded-5-bran
