ARM GAS  C:\Users\bogur\AppData\Local\Temp\ccBmRsgc.s 			page 1


   1              		.syntax unified
   2              		.cpu cortex-m4
   3              		.eabi_attribute 27, 1
   4              		.fpu fpv4-sp-d16
   5              		.eabi_attribute 20, 1
   6              		.eabi_attribute 21, 1
   7              		.eabi_attribute 23, 3
   8              		.eabi_attribute 24, 1
   9              		.eabi_attribute 25, 1
  10              		.eabi_attribute 26, 1
  11              		.eabi_attribute 30, 1
  12              		.eabi_attribute 34, 1
  13              		.eabi_attribute 18, 4
  14              		.thumb
  15              		.syntax unified
  16              		.file	"mainTask.c"
  17              		.text
  18              	.Ltext0:
  19              		.cfi_sections	.debug_frame
  20              		.section	.text.mainTask,"ax",%progbits
  21              		.align	2
  22              		.global	mainTask
  23              		.thumb
  24              		.thumb_func
  25              		.type	mainTask, %function
  26              	mainTask:
  27              	.LFB485:
  28              		.file 1 "mainTask.c"
   1:mainTask.c    **** /* ========================================
   2:mainTask.c    ****  *
   3:mainTask.c    ****  * Copyright YOUR COMPANY, THE YEAR
   4:mainTask.c    ****  * All Rights Reserved
   5:mainTask.c    ****  * UNPUBLISHED, LICENSED SOFTWARE.
   6:mainTask.c    ****  *
   7:mainTask.c    ****  * CONFIDENTIAL AND PROPRIETARY INFORMATION
   8:mainTask.c    ****  * WHICH IS THE PROPERTY OF your company.
   9:mainTask.c    ****  *
  10:mainTask.c    ****  * ========================================
  11:mainTask.c    **** */
  12:mainTask.c    **** 
  13:mainTask.c    **** #include "project.h"
  14:mainTask.c    **** #include "FreeRTOS.h"
  15:mainTask.c    **** #include "task.h"
  16:mainTask.c    **** #include "semphr.h"
  17:mainTask.c    **** #include <stdio.h>
  18:mainTask.c    **** #include <stdlib.h>
  19:mainTask.c    **** #include "../saber_wrapper.h"
  20:mainTask.c    **** 
  21:mainTask.c    **** unsigned char *sk = NULL;
  22:mainTask.c    **** unsigned char *pk = NULL;
  23:mainTask.c    **** unsigned char *ct = NULL;
  24:mainTask.c    **** unsigned char *ss = NULL;
  25:mainTask.c    **** 
  26:mainTask.c    **** // External semaphore from UART task
  27:mainTask.c    **** extern SemaphoreHandle_t uartReadySemaphore;
  28:mainTask.c    **** 
  29:mainTask.c    **** void mainTask(void *arg)
ARM GAS  C:\Users\bogur\AppData\Local\Temp\ccBmRsgc.s 			page 2


  30:mainTask.c    **** {
  29              		.loc 1 30 0
  30              		.cfi_startproc
  31              		@ args = 0, pretend = 0, frame = 0
  32              		@ frame_needed = 0, uses_anonymous_args = 0
  33              	.LVL0:
  34 0000 2DE9F041 		push	{r4, r5, r6, r7, r8, lr}
  35              		.cfi_def_cfa_offset 24
  36              		.cfi_offset 4, -24
  37              		.cfi_offset 5, -20
  38              		.cfi_offset 6, -16
  39              		.cfi_offset 7, -12
  40              		.cfi_offset 8, -8
  41              		.cfi_offset 14, -4
  31:mainTask.c    ****     (void)arg;
  32:mainTask.c    ****     
  33:mainTask.c    ****     // Wait for UART to be ready (block until semaphore is given)
  34:mainTask.c    ****     xSemaphoreTake(uartReadySemaphore, portMAX_DELAY);
  42              		.loc 1 34 0
  43 0004 4FF0FF31 		mov	r1, #-1
  44 0008 3B4B     		ldr	r3, .L11
  45 000a 1868     		ldr	r0, [r3]
  46              	.LVL1:
  47 000c FFF7FEFF 		bl	xQueueSemaphoreTake
  48              	.LVL2:
  35:mainTask.c    ****     
  36:mainTask.c    ****     printf("Main task started - UART is ready\r\n");
  49              		.loc 1 36 0
  50 0010 3A48     		ldr	r0, .L11+4
  51 0012 FFF7FEFF 		bl	puts
  52              	.LVL3:
  37:mainTask.c    ****     
  38:mainTask.c    ****     //Initialize SABER
  39:mainTask.c    ****     if (saber_init(SABER_SECURITY_FIRE) != 0) {
  53              		.loc 1 39 0
  54 0016 0420     		movs	r0, #4
  55 0018 FFF7FEFF 		bl	saber_init
  56              	.LVL4:
  57 001c 10B1     		cbz	r0, .L2
  40:mainTask.c    ****         printf("FireSaber init failed\n");
  58              		.loc 1 40 0
  59 001e 3848     		ldr	r0, .L11+8
  60 0020 FFF7FEFF 		bl	puts
  61              	.LVL5:
  62              	.L2:
  41:mainTask.c    ****     }
  42:mainTask.c    ****     
  43:mainTask.c    ****     // Allocate memory
  44:mainTask.c    ****     const size_t BYTES_SK = saber_get_secret_key_size();
  63              		.loc 1 44 0
  64 0024 FFF7FEFF 		bl	saber_get_secret_key_size
  65              	.LVL6:
  66 0028 0446     		mov	r4, r0
  67              	.LVL7:
  45:mainTask.c    ****     const size_t BYTES_PK = saber_get_public_key_size();
  68              		.loc 1 45 0
  69 002a FFF7FEFF 		bl	saber_get_public_key_size
ARM GAS  C:\Users\bogur\AppData\Local\Temp\ccBmRsgc.s 			page 3


  70              	.LVL8:
  71 002e 0646     		mov	r6, r0
  72              	.LVL9:
  46:mainTask.c    ****     const size_t BYTES_CT = saber_get_ciphertext_size();
  73              		.loc 1 46 0
  74 0030 FFF7FEFF 		bl	saber_get_ciphertext_size
  75              	.LVL10:
  76 0034 0546     		mov	r5, r0
  77              	.LVL11:
  47:mainTask.c    ****     const size_t BYTES_SS = saber_get_shared_secret_size();
  78              		.loc 1 47 0
  79 0036 FFF7FEFF 		bl	saber_get_shared_secret_size
  80              	.LVL12:
  81 003a 8046     		mov	r8, r0
  82              	.LVL13:
  48:mainTask.c    **** 
  49:mainTask.c    ****     printf("FireSaber Sizes:\r\n");
  83              		.loc 1 49 0
  84 003c 3148     		ldr	r0, .L11+12
  85              	.LVL14:
  86 003e FFF7FEFF 		bl	puts
  87              	.LVL15:
  50:mainTask.c    ****     printf("  Public Key Size     : %lu bytes\r\n", (unsigned long)BYTES_PK);
  88              		.loc 1 50 0
  89 0042 3146     		mov	r1, r6
  90 0044 3048     		ldr	r0, .L11+16
  91 0046 FFF7FEFF 		bl	printf
  92              	.LVL16:
  51:mainTask.c    ****     printf("  Secret Key Size     : %lu bytes\r\n", (unsigned long)BYTES_SK);
  93              		.loc 1 51 0
  94 004a 2146     		mov	r1, r4
  95 004c 2F48     		ldr	r0, .L11+20
  96 004e FFF7FEFF 		bl	printf
  97              	.LVL17:
  52:mainTask.c    ****     printf("  Ciphertext Size     : %lu bytes\r\n", (unsigned long)BYTES_CT);
  98              		.loc 1 52 0
  99 0052 2946     		mov	r1, r5
 100 0054 2E48     		ldr	r0, .L11+24
 101 0056 FFF7FEFF 		bl	printf
 102              	.LVL18:
  53:mainTask.c    ****     printf("  Shared Secret Size  : %lu bytes\r\n\r\n", (unsigned long)BYTES_SS);
 103              		.loc 1 53 0
 104 005a 4146     		mov	r1, r8
 105 005c 2D48     		ldr	r0, .L11+28
 106 005e FFF7FEFF 		bl	printf
 107              	.LVL19:
  54:mainTask.c    ****     
  55:mainTask.c    ****     sk = (unsigned char *) calloc(BYTES_SK, sizeof(unsigned char));
 108              		.loc 1 55 0
 109 0062 0121     		movs	r1, #1
 110 0064 2046     		mov	r0, r4
 111 0066 FFF7FEFF 		bl	calloc
 112              	.LVL20:
 113 006a 0746     		mov	r7, r0
 114 006c 2A4C     		ldr	r4, .L11+32
 115              	.LVL21:
 116 006e 2060     		str	r0, [r4]
ARM GAS  C:\Users\bogur\AppData\Local\Temp\ccBmRsgc.s 			page 4


  56:mainTask.c    ****     pk = (unsigned char *) calloc(BYTES_PK, sizeof(unsigned char));
 117              		.loc 1 56 0
 118 0070 0121     		movs	r1, #1
 119 0072 3046     		mov	r0, r6
 120 0074 FFF7FEFF 		bl	calloc
 121              	.LVL22:
 122 0078 0646     		mov	r6, r0
 123              	.LVL23:
 124 007a 6060     		str	r0, [r4, #4]
  57:mainTask.c    ****     ct = (unsigned char *) calloc(BYTES_CT, sizeof(unsigned char));
 125              		.loc 1 57 0
 126 007c 0121     		movs	r1, #1
 127 007e 2846     		mov	r0, r5
 128 0080 FFF7FEFF 		bl	calloc
 129              	.LVL24:
 130 0084 0546     		mov	r5, r0
 131              	.LVL25:
 132 0086 A060     		str	r0, [r4, #8]
  58:mainTask.c    ****     ss = (unsigned char *) calloc(BYTES_SS, sizeof(unsigned char));
 133              		.loc 1 58 0
 134 0088 0121     		movs	r1, #1
 135 008a 4046     		mov	r0, r8
 136 008c FFF7FEFF 		bl	calloc
 137              	.LVL26:
 138 0090 E060     		str	r0, [r4, #12]
  59:mainTask.c    **** 
  60:mainTask.c    ****     if (!sk || !pk || !ct || !ss) {
 139              		.loc 1 60 0
 140 0092 17B1     		cbz	r7, .L3
 141              		.loc 1 60 0 is_stmt 0 discriminator 1
 142 0094 0EB1     		cbz	r6, .L3
 143              		.loc 1 60 0 discriminator 2
 144 0096 05B1     		cbz	r5, .L3
 145              		.loc 1 60 0 discriminator 3
 146 0098 18B9     		cbnz	r0, .L4
 147              	.L3:
  61:mainTask.c    ****         printf("Memory allocation failed\r\n");
 148              		.loc 1 61 0 is_stmt 1
 149 009a 2048     		ldr	r0, .L11+36
 150 009c FFF7FEFF 		bl	puts
 151              	.LVL27:
 152 00a0 02E0     		b	.L5
 153              	.L4:
  62:mainTask.c    ****     }
  63:mainTask.c    ****     else{
  64:mainTask.c    ****         printf("Correct memory allocation\r\n");
 154              		.loc 1 64 0
 155 00a2 1F48     		ldr	r0, .L11+40
 156 00a4 FFF7FEFF 		bl	puts
 157              	.LVL28:
 158              	.L5:
  65:mainTask.c    ****     }
  66:mainTask.c    ****     
  67:mainTask.c    ****      if (saber_keypair(pk, sk) != 0) {
 159              		.loc 1 67 0
 160 00a8 1B4B     		ldr	r3, .L11+32
 161 00aa 1968     		ldr	r1, [r3]
ARM GAS  C:\Users\bogur\AppData\Local\Temp\ccBmRsgc.s 			page 5


 162 00ac 5868     		ldr	r0, [r3, #4]
 163 00ae FFF7FEFF 		bl	saber_keypair
 164              	.LVL29:
 165 00b2 10B1     		cbz	r0, .L6
  68:mainTask.c    ****         printf("Keypair generation failed\n");
 166              		.loc 1 68 0
 167 00b4 1B48     		ldr	r0, .L11+44
 168 00b6 FFF7FEFF 		bl	puts
 169              	.LVL30:
 170              	.L6:
  69:mainTask.c    ****     }
  70:mainTask.c    ****     printf("Keypair generation succesful\n");
 171              		.loc 1 70 0
 172 00ba 1B48     		ldr	r0, .L11+48
 173 00bc FFF7FEFF 		bl	puts
 174              	.LVL31:
  71:mainTask.c    **** 
  72:mainTask.c    ****     if (saber_encapsulate(ct, ss, pk) != 0) {
 175              		.loc 1 72 0
 176 00c0 154B     		ldr	r3, .L11+32
 177 00c2 5A68     		ldr	r2, [r3, #4]
 178 00c4 D968     		ldr	r1, [r3, #12]
 179 00c6 9868     		ldr	r0, [r3, #8]
 180 00c8 FFF7FEFF 		bl	saber_encapsulate
 181              	.LVL32:
 182 00cc 10B1     		cbz	r0, .L7
  73:mainTask.c    ****             printf("Encapsulation failed\n");
 183              		.loc 1 73 0
 184 00ce 1748     		ldr	r0, .L11+52
 185 00d0 FFF7FEFF 		bl	puts
 186              	.LVL33:
 187              	.L7:
  74:mainTask.c    ****     }
  75:mainTask.c    ****     printf("Correct encapsulation\n");
 188              		.loc 1 75 0
 189 00d4 1648     		ldr	r0, .L11+56
 190 00d6 FFF7FEFF 		bl	puts
 191              	.LVL34:
  76:mainTask.c    ****     
  77:mainTask.c    ****     if (saber_decapsulate(ss, ct, sk) != 0) {
 192              		.loc 1 77 0
 193 00da 0F4B     		ldr	r3, .L11+32
 194 00dc 1A68     		ldr	r2, [r3]
 195 00de 9968     		ldr	r1, [r3, #8]
 196 00e0 D868     		ldr	r0, [r3, #12]
 197 00e2 FFF7FEFF 		bl	saber_decapsulate
 198              	.LVL35:
 199 00e6 10B1     		cbz	r0, .L8
  78:mainTask.c    ****             printf("Encapsulation failed\n");
 200              		.loc 1 78 0
 201 00e8 1048     		ldr	r0, .L11+52
 202 00ea FFF7FEFF 		bl	puts
 203              	.LVL36:
 204              	.L8:
  79:mainTask.c    ****     }
  80:mainTask.c    ****     
  81:mainTask.c    ****     printf("Correct decapsulation\n");
ARM GAS  C:\Users\bogur\AppData\Local\Temp\ccBmRsgc.s 			page 6


 205              		.loc 1 81 0
 206 00ee 1148     		ldr	r0, .L11+60
 207 00f0 FFF7FEFF 		bl	puts
 208              	.LVL37:
 209              	.L9:
 210 00f4 FEE7     		b	.L9
 211              	.L12:
 212 00f6 00BF     		.align	2
 213              	.L11:
 214 00f8 00000000 		.word	uartReadySemaphore
 215 00fc 00000000 		.word	.LC0
 216 0100 24000000 		.word	.LC1
 217 0104 3C000000 		.word	.LC2
 218 0108 50000000 		.word	.LC3
 219 010c 74000000 		.word	.LC4
 220 0110 98000000 		.word	.LC5
 221 0114 BC000000 		.word	.LC6
 222 0118 00000000 		.word	.LANCHOR0
 223 011c E4000000 		.word	.LC7
 224 0120 00010000 		.word	.LC8
 225 0124 1C010000 		.word	.LC9
 226 0128 38010000 		.word	.LC10
 227 012c 58010000 		.word	.LC11
 228 0130 70010000 		.word	.LC12
 229 0134 88010000 		.word	.LC13
 230              		.cfi_endproc
 231              	.LFE485:
 232              		.size	mainTask, .-mainTask
 233              		.global	ss
 234              		.global	ct
 235              		.global	pk
 236              		.global	sk
 237              		.section	.rodata.str1.4,"aMS",%progbits,1
 238              		.align	2
 239              	.LC0:
 240 0000 4D61696E 		.ascii	"Main task started - UART is ready\015\000"
 240      20746173 
 240      6B207374 
 240      61727465 
 240      64202D20 
 241 0023 00       		.space	1
 242              	.LC1:
 243 0024 46697265 		.ascii	"FireSaber init failed\000"
 243      53616265 
 243      7220696E 
 243      69742066 
 243      61696C65 
 244 003a 0000     		.space	2
 245              	.LC2:
 246 003c 46697265 		.ascii	"FireSaber Sizes:\015\000"
 246      53616265 
 246      72205369 
 246      7A65733A 
 246      0D00
 247 004e 0000     		.space	2
 248              	.LC3:
 249 0050 20205075 		.ascii	"  Public Key Size     : %lu bytes\015\012\000"
ARM GAS  C:\Users\bogur\AppData\Local\Temp\ccBmRsgc.s 			page 7


 249      626C6963 
 249      204B6579 
 249      2053697A 
 249      65202020 
 250              	.LC4:
 251 0074 20205365 		.ascii	"  Secret Key Size     : %lu bytes\015\012\000"
 251      63726574 
 251      204B6579 
 251      2053697A 
 251      65202020 
 252              	.LC5:
 253 0098 20204369 		.ascii	"  Ciphertext Size     : %lu bytes\015\012\000"
 253      70686572 
 253      74657874 
 253      2053697A 
 253      65202020 
 254              	.LC6:
 255 00bc 20205368 		.ascii	"  Shared Secret Size  : %lu bytes\015\012\015\012\000"
 255      61726564 
 255      20536563 
 255      72657420 
 255      53697A65 
 256 00e2 0000     		.space	2
 257              	.LC7:
 258 00e4 4D656D6F 		.ascii	"Memory allocation failed\015\000"
 258      72792061 
 258      6C6C6F63 
 258      6174696F 
 258      6E206661 
 259 00fe 0000     		.space	2
 260              	.LC8:
 261 0100 436F7272 		.ascii	"Correct memory allocation\015\000"
 261      65637420 
 261      6D656D6F 
 261      72792061 
 261      6C6C6F63 
 262 011b 00       		.space	1
 263              	.LC9:
 264 011c 4B657970 		.ascii	"Keypair generation failed\000"
 264      61697220 
 264      67656E65 
 264      72617469 
 264      6F6E2066 
 265 0136 0000     		.space	2
 266              	.LC10:
 267 0138 4B657970 		.ascii	"Keypair generation succesful\000"
 267      61697220 
 267      67656E65 
 267      72617469 
 267      6F6E2073 
 268 0155 000000   		.space	3
 269              	.LC11:
 270 0158 456E6361 		.ascii	"Encapsulation failed\000"
 270      7073756C 
 270      6174696F 
 270      6E206661 
 270      696C6564 
ARM GAS  C:\Users\bogur\AppData\Local\Temp\ccBmRsgc.s 			page 8


 271 016d 000000   		.space	3
 272              	.LC12:
 273 0170 436F7272 		.ascii	"Correct encapsulation\000"
 273      65637420 
 273      656E6361 
 273      7073756C 
 273      6174696F 
 274 0186 0000     		.space	2
 275              	.LC13:
 276 0188 436F7272 		.ascii	"Correct decapsulation\000"
 276      65637420 
 276      64656361 
 276      7073756C 
 276      6174696F 
 277              		.bss
 278              		.align	2
 279              		.set	.LANCHOR0,. + 0
 280              		.type	sk, %object
 281              		.size	sk, 4
 282              	sk:
 283 0000 00000000 		.space	4
 284              		.type	pk, %object
 285              		.size	pk, 4
 286              	pk:
 287 0004 00000000 		.space	4
 288              		.type	ct, %object
 289              		.size	ct, 4
 290              	ct:
 291 0008 00000000 		.space	4
 292              		.type	ss, %object
 293              		.size	ss, 4
 294              	ss:
 295 000c 00000000 		.space	4
 296              		.text
 297              	.Letext0:
 298              		.file 2 "c:\\program files (x86)\\cypress\\psoc creator\\4.4\\psoc creator\\import\\gnu\\arm\\5.4.
 299              		.file 3 "c:\\program files (x86)\\cypress\\psoc creator\\4.4\\psoc creator\\import\\gnu\\arm\\5.4.
 300              		.file 4 "c:\\program files (x86)\\cypress\\psoc creator\\4.4\\psoc creator\\import\\gnu\\arm\\5.4.
 301              		.file 5 "Generated_Source\\PSoC6\\pdl\\drivers/peripheral/device/cy_device.h"
 302              		.file 6 "Generated_Source\\PSoC6\\pdl\\drivers/peripheral/scb/cy_scb_uart.h"
 303              		.file 7 "Generated_Source\\PSoC6\\pdl\\rtos/FreeRTOS/10.0.1/Source/portable/GCC/CM4F/portmacro.h"
 304              		.file 8 "Generated_Source\\PSoC6\\pdl\\rtos/FreeRTOS/10.0.1/Source/include/queue.h"
 305              		.file 9 "Generated_Source\\PSoC6\\pdl\\rtos/FreeRTOS/10.0.1/Source/include/semphr.h"
 306              		.file 10 "Generated_Source\\PSoC6\\pdl\\cmsis/include/core_cm4.h"
 307              		.file 11 "Generated_Source\\PSoC6/UART.h"
 308              		.file 12 "../saber_wrapper.h"
 309              		.file 13 "c:\\program files (x86)\\cypress\\psoc creator\\4.4\\psoc creator\\import\\gnu\\arm\\5.4
 310              		.file 14 "c:\\program files (x86)\\cypress\\psoc creator\\4.4\\psoc creator\\import\\gnu\\arm\\5.4
 311              		.file 15 "<built-in>"