ARM GAS  C:\Users\bogur\AppData\Local\Temp\ccWW6oLd.s 			page 1


   1              		.syntax unified
   2              		.cpu cortex-m4
   3              		.eabi_attribute 27, 1
   4              		.fpu fpv4-sp-d16
   5              		.eabi_attribute 20, 1
   6              		.eabi_attribute 21, 1
   7              		.eabi_attribute 23, 3
   8              		.eabi_attribute 24, 1
   9              		.eabi_attribute 25, 1
  10              		.eabi_attribute 26, 1
  11              		.eabi_attribute 30, 1
  12              		.eabi_attribute 34, 1
  13              		.eabi_attribute 18, 4
  14              		.thumb
  15              		.syntax unified
  16              		.file	"poly.c"
  17              		.text
  18              	.Ltext0:
  19              		.cfi_sections	.debug_frame
  20              		.section	.text.MatrixVectorMul,"ax",%progbits
  21              		.align	2
  22              		.global	MatrixVectorMul
  23              		.thumb
  24              		.thumb_func
  25              		.type	MatrixVectorMul, %function
  26              	MatrixVectorMul:
  27              	.LFB1:
  28              		.file 1 "..\\poly.c"
   1:..\poly.c     **** #include <stdio.h>
   2:..\poly.c     **** #include "api.h"
   3:..\poly.c     **** #include "poly.h"
   4:..\poly.c     **** #include "poly_mul.h"
   5:..\poly.c     **** #include "pack_unpack.h"
   6:..\poly.c     **** #include "cbd.h"
   7:..\poly.c     **** #include "fips202.h"
   8:..\poly.c     **** 
   9:..\poly.c     **** void MatrixVectorMul(const uint16_t A[SABER_L][SABER_L][SABER_N], const uint16_t s[SABER_L][SABER_N
  10:..\poly.c     **** {
  29              		.loc 1 10 0
  30              		.cfi_startproc
  31              		@ args = 0, pretend = 0, frame = 0
  32              		@ frame_needed = 0, uses_anonymous_args = 0
  33              	.LVL0:
  34 0000 2DE9F843 		push	{r3, r4, r5, r6, r7, r8, r9, lr}
  35              		.cfi_def_cfa_offset 32
  36              		.cfi_offset 3, -32
  37              		.cfi_offset 4, -28
  38              		.cfi_offset 5, -24
  39              		.cfi_offset 6, -20
  40              		.cfi_offset 7, -16
  41              		.cfi_offset 8, -12
  42              		.cfi_offset 9, -8
  43              		.cfi_offset 14, -4
  44 0004 8146     		mov	r9, r0
  45 0006 8846     		mov	r8, r1
  46 0008 1746     		mov	r7, r2
  47 000a 1E46     		mov	r6, r3
ARM GAS  C:\Users\bogur\AppData\Local\Temp\ccWW6oLd.s 			page 2


  48              	.LVL1:
  11:..\poly.c     **** 	int i, j;
  12:..\poly.c     **** 	for (i = 0; i < SABER_L; i++)
  49              		.loc 1 12 0
  50 000c 0025     		movs	r5, #0
  51 000e 1BE0     		b	.L2
  52              	.LVL2:
  53              	.L5:
  13:..\poly.c     **** 	{
  14:..\poly.c     **** 		for (j = 0; j < SABER_L; j++)
  15:..\poly.c     **** 		{
  16:..\poly.c     **** 			if (transpose == 1)
  54              		.loc 1 16 0
  55 0010 012E     		cmp	r6, #1
  56 0012 09D1     		bne	.L3
  17:..\poly.c     **** 			{
  18:..\poly.c     **** 				poly_mul_acc(A[j][i], s[j], res[i]);
  57              		.loc 1 18 0
  58 0014 09EBC420 		add	r0, r9, r4, lsl #11
  59 0018 6B02     		lsls	r3, r5, #9
  60 001a FA18     		adds	r2, r7, r3
  61 001c 08EB4421 		add	r1, r8, r4, lsl #9
  62 0020 1844     		add	r0, r0, r3
  63 0022 FFF7FEFF 		bl	poly_mul_acc
  64              	.LVL3:
  65 0026 09E0     		b	.L4
  66              	.L3:
  19:..\poly.c     **** 			}
  20:..\poly.c     **** 			else
  21:..\poly.c     **** 			{
  22:..\poly.c     **** 				poly_mul_acc(A[i][j], s[j], res[i]);
  67              		.loc 1 22 0
  68 0028 09EBC520 		add	r0, r9, r5, lsl #11
  69 002c 6302     		lsls	r3, r4, #9
  70 002e 07EB4522 		add	r2, r7, r5, lsl #9
  71 0032 08EB0301 		add	r1, r8, r3
  72 0036 1844     		add	r0, r0, r3
  73 0038 FFF7FEFF 		bl	poly_mul_acc
  74              	.LVL4:
  75              	.L4:
  14:..\poly.c     **** 		{
  76              		.loc 1 14 0 discriminator 2
  77 003c 0134     		adds	r4, r4, #1
  78              	.LVL5:
  79 003e 00E0     		b	.L6
  80              	.LVL6:
  81              	.L7:
  82 0040 0024     		movs	r4, #0
  83              	.L6:
  84              	.LVL7:
  14:..\poly.c     **** 		{
  85              		.loc 1 14 0 is_stmt 0 discriminator 1
  86 0042 032C     		cmp	r4, #3
  87 0044 E4DD     		ble	.L5
  12:..\poly.c     **** 	{
  88              		.loc 1 12 0 is_stmt 1 discriminator 2
  89 0046 0135     		adds	r5, r5, #1
ARM GAS  C:\Users\bogur\AppData\Local\Temp\ccWW6oLd.s 			page 3


  90              	.LVL8:
  91              	.L2:
  12:..\poly.c     **** 	{
  92              		.loc 1 12 0 is_stmt 0 discriminator 1
  93 0048 032D     		cmp	r5, #3
  94 004a F9DD     		ble	.L7
  23:..\poly.c     **** 			}	
  24:..\poly.c     **** 		}
  25:..\poly.c     **** 	}
  26:..\poly.c     **** }
  95              		.loc 1 26 0 is_stmt 1
  96 004c BDE8F883 		pop	{r3, r4, r5, r6, r7, r8, r9, pc}
  97              		.cfi_endproc
  98              	.LFE1:
  99              		.size	MatrixVectorMul, .-MatrixVectorMul
 100              		.section	.text.InnerProd,"ax",%progbits
 101              		.align	2
 102              		.global	InnerProd
 103              		.thumb
 104              		.thumb_func
 105              		.type	InnerProd, %function
 106              	InnerProd:
 107              	.LFB2:
  27:..\poly.c     **** 
  28:..\poly.c     **** void InnerProd(const uint16_t b[SABER_L][SABER_N], const uint16_t s[SABER_L][SABER_N], uint16_t res
  29:..\poly.c     **** {
 108              		.loc 1 29 0
 109              		.cfi_startproc
 110              		@ args = 0, pretend = 0, frame = 0
 111              		@ frame_needed = 0, uses_anonymous_args = 0
 112              	.LVL9:
 113 0000 F8B5     		push	{r3, r4, r5, r6, r7, lr}
 114              		.cfi_def_cfa_offset 24
 115              		.cfi_offset 3, -24
 116              		.cfi_offset 4, -20
 117              		.cfi_offset 5, -16
 118              		.cfi_offset 6, -12
 119              		.cfi_offset 7, -8
 120              		.cfi_offset 14, -4
 121 0002 0746     		mov	r7, r0
 122 0004 0E46     		mov	r6, r1
 123 0006 1546     		mov	r5, r2
 124              	.LVL10:
  30:..\poly.c     **** 	int j;
  31:..\poly.c     **** 	for (j = 0; j < SABER_L; j++)
 125              		.loc 1 31 0
 126 0008 0024     		movs	r4, #0
 127 000a 06E0     		b	.L10
 128              	.LVL11:
 129              	.L11:
  32:..\poly.c     **** 	{
  33:..\poly.c     **** 		poly_mul_acc(b[j], s[j], res);
 130              		.loc 1 33 0 discriminator 3
 131 000c 6002     		lsls	r0, r4, #9
 132 000e 2A46     		mov	r2, r5
 133 0010 3118     		adds	r1, r6, r0
 134 0012 3844     		add	r0, r0, r7
ARM GAS  C:\Users\bogur\AppData\Local\Temp\ccWW6oLd.s 			page 4


 135 0014 FFF7FEFF 		bl	poly_mul_acc
 136              	.LVL12:
  31:..\poly.c     **** 	{
 137              		.loc 1 31 0 discriminator 3
 138 0018 0134     		adds	r4, r4, #1
 139              	.LVL13:
 140              	.L10:
  31:..\poly.c     **** 	{
 141              		.loc 1 31 0 is_stmt 0 discriminator 1
 142 001a 032C     		cmp	r4, #3
 143 001c F6DD     		ble	.L11
  34:..\poly.c     **** 	}
  35:..\poly.c     **** }
 144              		.loc 1 35 0 is_stmt 1
 145 001e F8BD     		pop	{r3, r4, r5, r6, r7, pc}
 146              		.cfi_endproc
 147              	.LFE2:
 148              		.size	InnerProd, .-InnerProd
 149              		.section	.text.GenMatrix,"ax",%progbits
 150              		.align	2
 151              		.global	GenMatrix
 152              		.thumb
 153              		.thumb_func
 154              		.type	GenMatrix, %function
 155              	GenMatrix:
 156              	.LFB3:
  36:..\poly.c     **** 
  37:..\poly.c     **** void GenMatrix(uint16_t A[SABER_L][SABER_L][SABER_N], const uint8_t seed[SABER_SEEDBYTES])
  38:..\poly.c     **** {
 157              		.loc 1 38 0
 158              		.cfi_startproc
 159              		@ args = 0, pretend = 0, frame = 6656
 160              		@ frame_needed = 0, uses_anonymous_args = 0
 161              	.LVL14:
 162 0000 30B5     		push	{r4, r5, lr}
 163              		.cfi_def_cfa_offset 12
 164              		.cfi_offset 4, -12
 165              		.cfi_offset 5, -8
 166              		.cfi_offset 14, -4
 167 0002 ADF5D05D 		sub	sp, sp, #6656
 168              		.cfi_def_cfa_offset 6668
 169 0006 85B0     		sub	sp, sp, #20
 170              		.cfi_def_cfa_offset 6688
 171 0008 0546     		mov	r5, r0
  39:..\poly.c     **** 	uint8_t buf[SABER_L * SABER_POLYVECBYTES];
  40:..\poly.c     **** 	int i;
  41:..\poly.c     **** 
  42:..\poly.c     **** 	shake128(buf, sizeof(buf), seed, SABER_SEEDBYTES);
 172              		.loc 1 42 0
 173 000a 2022     		movs	r2, #32
 174 000c 0023     		movs	r3, #0
 175 000e CDE90223 		strd	r2, [sp, #8]
 176 0012 0091     		str	r1, [sp]
 177 0014 4FF4D052 		mov	r2, #6656
 178 0018 0023     		movs	r3, #0
 179 001a 04A8     		add	r0, sp, #16
 180              	.LVL15:
ARM GAS  C:\Users\bogur\AppData\Local\Temp\ccWW6oLd.s 			page 5


 181 001c FFF7FEFF 		bl	shake128
 182              	.LVL16:
  43:..\poly.c     **** 
  44:..\poly.c     **** 	for (i = 0; i < SABER_L; i++)
 183              		.loc 1 44 0
 184 0020 0024     		movs	r4, #0
 185 0022 09E0     		b	.L14
 186              	.LVL17:
 187              	.L15:
  45:..\poly.c     **** 	{
  46:..\poly.c     **** 		BS2POLVECq(buf + i * SABER_POLYVECBYTES, A[i]);
 188              		.loc 1 46 0 discriminator 3
 189 0024 05EBC421 		add	r1, r5, r4, lsl #11
 190 0028 4FF4D060 		mov	r0, #1664
 191 002c 04AB     		add	r3, sp, #16
 192 002e 00FB0430 		mla	r0, r0, r4, r3
 193 0032 FFF7FEFF 		bl	BS2POLVECq
 194              	.LVL18:
  44:..\poly.c     **** 	{
 195              		.loc 1 44 0 discriminator 3
 196 0036 0134     		adds	r4, r4, #1
 197              	.LVL19:
 198              	.L14:
  44:..\poly.c     **** 	{
 199              		.loc 1 44 0 is_stmt 0 discriminator 1
 200 0038 032C     		cmp	r4, #3
 201 003a F3DD     		ble	.L15
  47:..\poly.c     **** 	}
  48:..\poly.c     **** }
 202              		.loc 1 48 0 is_stmt 1
 203 003c 0DF5D05D 		add	sp, sp, #6656
 204 0040 05B0     		add	sp, sp, #20
 205              		.cfi_def_cfa_offset 12
 206              		@ sp needed
 207 0042 30BD     		pop	{r4, r5, pc}
 208              		.cfi_endproc
 209              	.LFE3:
 210              		.size	GenMatrix, .-GenMatrix
 211              		.section	.text.GenSecret,"ax",%progbits
 212              		.align	2
 213              		.global	GenSecret
 214              		.thumb
 215              		.thumb_func
 216              		.type	GenSecret, %function
 217              	GenSecret:
 218              	.LFB4:
  49:..\poly.c     **** 
  50:..\poly.c     **** void GenSecret(uint16_t s[SABER_L][SABER_N], const uint8_t seed[SABER_NOISE_SEEDBYTES])
  51:..\poly.c     **** {
 219              		.loc 1 51 0
 220              		.cfi_startproc
 221              		@ args = 0, pretend = 0, frame = 768
 222              		@ frame_needed = 0, uses_anonymous_args = 0
 223              	.LVL20:
 224 0000 30B5     		push	{r4, r5, lr}
 225              		.cfi_def_cfa_offset 12
 226              		.cfi_offset 4, -12
ARM GAS  C:\Users\bogur\AppData\Local\Temp\ccWW6oLd.s 			page 6


 227              		.cfi_offset 5, -8
 228              		.cfi_offset 14, -4
 229 0002 ADF5457D 		sub	sp, sp, #788
 230              		.cfi_def_cfa_offset 800
 231 0006 0546     		mov	r5, r0
  52:..\poly.c     **** 	uint8_t buf[SABER_L * SABER_POLYCOINBYTES];
  53:..\poly.c     **** 	size_t i;
  54:..\poly.c     **** 
  55:..\poly.c     **** 	shake128(buf, sizeof(buf), seed, SABER_NOISE_SEEDBYTES);
 232              		.loc 1 55 0
 233 0008 2022     		movs	r2, #32
 234 000a 0023     		movs	r3, #0
 235 000c CDE90223 		strd	r2, [sp, #8]
 236 0010 0091     		str	r1, [sp]
 237 0012 4FF44072 		mov	r2, #768
 238 0016 0023     		movs	r3, #0
 239 0018 04A8     		add	r0, sp, #16
 240              	.LVL21:
 241 001a FFF7FEFF 		bl	shake128
 242              	.LVL22:
  56:..\poly.c     **** 
  57:..\poly.c     **** 	for (i = 0; i < SABER_L; i++)
 243              		.loc 1 57 0
 244 001e 0024     		movs	r4, #0
 245 0020 09E0     		b	.L18
 246              	.LVL23:
 247              	.L19:
  58:..\poly.c     **** 	{
  59:..\poly.c     **** 		cbd(s[i], buf + i * SABER_POLYCOINBYTES);
 248              		.loc 1 59 0 discriminator 3
 249 0022 04EB4403 		add	r3, r4, r4, lsl #1
 250 0026 9901     		lsls	r1, r3, #6
 251 0028 04AB     		add	r3, sp, #16
 252 002a 1944     		add	r1, r1, r3
 253 002c 05EB4420 		add	r0, r5, r4, lsl #9
 254 0030 FFF7FEFF 		bl	cbd
 255              	.LVL24:
  57:..\poly.c     **** 	{
 256              		.loc 1 57 0 discriminator 3
 257 0034 0134     		adds	r4, r4, #1
 258              	.LVL25:
 259              	.L18:
  57:..\poly.c     **** 	{
 260              		.loc 1 57 0 is_stmt 0 discriminator 1
 261 0036 032C     		cmp	r4, #3
 262 0038 F3D9     		bls	.L19
  60:..\poly.c     **** 	}
  61:..\poly.c     **** }
 263              		.loc 1 61 0 is_stmt 1
 264 003a 0DF5457D 		add	sp, sp, #788
 265              		.cfi_def_cfa_offset 12
 266              		@ sp needed
 267 003e 30BD     		pop	{r4, r5, pc}
 268              		.cfi_endproc
 269              	.LFE4:
 270              		.size	GenSecret, .-GenSecret
 271              		.text
ARM GAS  C:\Users\bogur\AppData\Local\Temp\ccWW6oLd.s 			page 7


 272              	.Letext0:
 273              		.file 2 "c:\\program files (x86)\\cypress\\psoc creator\\4.4\\psoc creator\\import\\gnu\\arm\\5.4.
 274              		.file 3 "c:\\program files (x86)\\cypress\\psoc creator\\4.4\\psoc creator\\import\\gnu\\arm\\5.4.
 275              		.file 4 "c:\\program files (x86)\\cypress\\psoc creator\\4.4\\psoc creator\\import\\gnu\\arm\\5.4.
 276              		.file 5 "..\\poly_mul.h"
 277              		.file 6 "..\\fips202.h"
 278              		.file 7 "..\\pack_unpack.h"
 279              		.file 8 "..\\cbd.h"