ARM GAS  C:\Users\bogurad\AppData\Local\Temp\cc8qfBQJ.s 			page 1


   1              		.syntax unified
   2              		.cpu cortex-m4
   3              		.eabi_attribute 27, 1
   4              		.fpu fpv4-sp-d16
   5              		.eabi_attribute 20, 1
   6              		.eabi_attribute 21, 1
   7              		.eabi_attribute 23, 3
   8              		.eabi_attribute 24, 1
   9              		.eabi_attribute 25, 1
  10              		.eabi_attribute 26, 1
  11              		.eabi_attribute 30, 1
  12              		.eabi_attribute 34, 1
  13              		.eabi_attribute 18, 4
  14              		.thumb
  15              		.syntax unified
  16              		.file	"SABER_indcpa.c"
  17              		.text
  18              	.Ltext0:
  19              		.cfi_sections	.debug_frame
  20              		.section	.text.karatsuba_simple,"ax",%progbits
  21              		.align	2
  22              		.thumb
  23              		.thumb_func
  24              		.type	karatsuba_simple, %function
  25              	karatsuba_simple:
  26              	.LFB1:
  27              		.file 1 "..\\poly_mul.c"
   1:..\poly_mul.c **** #include "poly_mul.h"
   2:..\poly_mul.c **** #include <stdint.h>
   3:..\poly_mul.c **** #include <string.h>
   4:..\poly_mul.c **** 
   5:..\poly_mul.c **** #define SCHB_N 16
   6:..\poly_mul.c **** 
   7:..\poly_mul.c **** #define N_RES (SABER_N << 1)
   8:..\poly_mul.c **** #define N_SB (SABER_N >> 2)
   9:..\poly_mul.c **** #define N_SB_RES (2*N_SB-1)
  10:..\poly_mul.c **** 
  11:..\poly_mul.c **** #define OVERFLOWING_MUL(X, Y) ((uint16_t)((uint32_t)(X) * (uint32_t)(Y)))
  12:..\poly_mul.c **** 
  13:..\poly_mul.c **** #define KARATSUBA_N 64
  14:..\poly_mul.c **** static void karatsuba_simple(const uint16_t *a_1, const uint16_t *b_1, uint16_t *result_final) {
  28              		.loc 1 14 0
  29              		.cfi_startproc
  30              		@ args = 0, pretend = 0, frame = 344
  31              		@ frame_needed = 0, uses_anonymous_args = 0
  32              	.LVL0:
  33 0000 2DE9F04F 		push	{r4, r5, r6, r7, r8, r9, r10, fp, lr}
  34              		.cfi_def_cfa_offset 36
  35              		.cfi_offset 4, -36
  36              		.cfi_offset 5, -32
  37              		.cfi_offset 6, -28
  38              		.cfi_offset 7, -24
  39              		.cfi_offset 8, -20
  40              		.cfi_offset 9, -16
  41              		.cfi_offset 10, -12
  42              		.cfi_offset 11, -8
  43              		.cfi_offset 14, -4
ARM GAS  C:\Users\bogurad\AppData\Local\Temp\cc8qfBQJ.s 			page 2


  44 0004 D7B0     		sub	sp, sp, #348
  45              		.cfi_def_cfa_offset 384
  46 0006 0590     		str	r0, [sp, #20]
  47 0008 8946     		mov	r9, r1
  48 000a 9046     		mov	r8, r2
  15:..\poly_mul.c ****     uint16_t d01[KARATSUBA_N / 2 - 1];
  16:..\poly_mul.c ****     uint16_t d0123[KARATSUBA_N / 2 - 1];
  17:..\poly_mul.c ****     uint16_t d23[KARATSUBA_N / 2 - 1];
  18:..\poly_mul.c ****     uint16_t result_d01[KARATSUBA_N - 1];
  19:..\poly_mul.c **** 
  20:..\poly_mul.c ****     int32_t i, j;
  21:..\poly_mul.c **** 
  22:..\poly_mul.c ****     memset(result_d01, 0, (KARATSUBA_N - 1)*sizeof(uint16_t));
  49              		.loc 1 22 0
  50 000c 7E22     		movs	r2, #126
  51              	.LVL1:
  52 000e 0021     		movs	r1, #0
  53              	.LVL2:
  54 0010 06A8     		add	r0, sp, #24
  55              	.LVL3:
  56 0012 FFF7FEFF 		bl	memset
  57              	.LVL4:
  23:..\poly_mul.c ****     memset(d01, 0, (KARATSUBA_N / 2 - 1)*sizeof(uint16_t));
  58              		.loc 1 23 0
  59 0016 3E24     		movs	r4, #62
  60 0018 2246     		mov	r2, r4
  61 001a 0021     		movs	r1, #0
  62 001c 46A8     		add	r0, sp, #280
  63 001e FFF7FEFF 		bl	memset
  64              	.LVL5:
  24:..\poly_mul.c ****     memset(d0123, 0, (KARATSUBA_N / 2 - 1)*sizeof(uint16_t));
  65              		.loc 1 24 0
  66 0022 2246     		mov	r2, r4
  67 0024 0021     		movs	r1, #0
  68 0026 36A8     		add	r0, sp, #216
  69 0028 FFF7FEFF 		bl	memset
  70              	.LVL6:
  25:..\poly_mul.c ****     memset(d23, 0, (KARATSUBA_N / 2 - 1)*sizeof(uint16_t));
  71              		.loc 1 25 0
  72 002c 2246     		mov	r2, r4
  73 002e 0021     		movs	r1, #0
  74 0030 26A8     		add	r0, sp, #152
  75 0032 FFF7FEFF 		bl	memset
  76              	.LVL7:
  26:..\poly_mul.c ****     memset(result_final, 0, (2 * KARATSUBA_N - 1)*sizeof(uint16_t));
  77              		.loc 1 26 0
  78 0036 FE22     		movs	r2, #254
  79 0038 0021     		movs	r1, #0
  80 003a 4046     		mov	r0, r8
  81 003c FFF7FEFF 		bl	memset
  82              	.LVL8:
  27:..\poly_mul.c **** 
  28:..\poly_mul.c ****     uint16_t acc1, acc2, acc3, acc4, acc5, acc6, acc7, acc8, acc9, acc10;
  29:..\poly_mul.c **** 
  30:..\poly_mul.c **** 
  31:..\poly_mul.c ****     for (i = 0; i < KARATSUBA_N / 4; i++) {
  83              		.loc 1 31 0
ARM GAS  C:\Users\bogurad\AppData\Local\Temp\cc8qfBQJ.s 			page 3


  84 0040 0023     		movs	r3, #0
  85 0042 0493     		str	r3, [sp, #16]
  86 0044 9EE0     		b	.L2
  87              	.LVL9:
  88              	.L5:
  32:..\poly_mul.c ****         acc1 = a_1[i]; //a0
  89              		.loc 1 32 0
  90 0046 059A     		ldr	r2, [sp, #20]
  91 0048 0498     		ldr	r0, [sp, #16]
  92 004a 32F810B0 		ldrh	fp, [r2, r0, lsl #1]
  93              	.LVL10:
  33:..\poly_mul.c ****         acc2 = a_1[i + KARATSUBA_N / 4]; //a1
  94              		.loc 1 33 0
  95 004e 0346     		mov	r3, r0
  96              	.LVL11:
  97 0050 1033     		adds	r3, r3, #16
  98 0052 1146     		mov	r1, r2
  99 0054 32F81330 		ldrh	r3, [r2, r3, lsl #1]
 100 0058 0193     		str	r3, [sp, #4]
 101              	.LVL12:
  34:..\poly_mul.c ****         acc3 = a_1[i + 2 * KARATSUBA_N / 4]; //a2
 102              		.loc 1 34 0
 103 005a 00F12003 		add	r3, r0, #32
 104 005e 31F81330 		ldrh	r3, [r1, r3, lsl #1]
 105 0062 0293     		str	r3, [sp, #8]
 106              	.LVL13:
  35:..\poly_mul.c ****         acc4 = a_1[i + 3 * KARATSUBA_N / 4]; //a3
 107              		.loc 1 35 0
 108 0064 0346     		mov	r3, r0
 109 0066 3033     		adds	r3, r3, #48
 110 0068 31F81330 		ldrh	r3, [r1, r3, lsl #1]
 111 006c 0393     		str	r3, [sp, #12]
 112              	.LVL14:
  36:..\poly_mul.c ****         for (j = 0; j < KARATSUBA_N / 4; j++) {
 113              		.loc 1 36 0
 114 006e 4FF0000E 		mov	lr, #0
 115 0072 80E0     		b	.L3
 116              	.LVL15:
 117              	.L4:
  37:..\poly_mul.c **** 
  38:..\poly_mul.c ****             acc5 = b_1[j]; //b0
 118              		.loc 1 38 0 discriminator 3
 119 0074 39F81E70 		ldrh	r7, [r9, lr, lsl #1]
 120              	.LVL16:
  39:..\poly_mul.c ****             acc6 = b_1[j + KARATSUBA_N / 4]; //b1
 121              		.loc 1 39 0 discriminator 3
 122 0078 0EF11003 		add	r3, lr, #16
 123 007c 39F81360 		ldrh	r6, [r9, r3, lsl #1]
 124              	.LVL17:
  40:..\poly_mul.c **** 
  41:..\poly_mul.c ****             result_final[i + j + 0 * KARATSUBA_N / 4] =
 125              		.loc 1 41 0 discriminator 3
 126 0080 049B     		ldr	r3, [sp, #16]
 127 0082 03EB0E01 		add	r1, r3, lr
  42:..\poly_mul.c ****                 result_final[i + j + 0 * KARATSUBA_N / 4] +
 128              		.loc 1 42 0 discriminator 3
 129 0086 38F81120 		ldrh	r2, [r8, r1, lsl #1]
ARM GAS  C:\Users\bogurad\AppData\Local\Temp\cc8qfBQJ.s 			page 4


  43:..\poly_mul.c ****                 OVERFLOWING_MUL(acc1, acc5);
 130              		.loc 1 43 0 discriminator 3
 131 008a 1BFB07F3 		smulbb	r3, fp, r7
  41:..\poly_mul.c ****                 result_final[i + j + 0 * KARATSUBA_N / 4] +
 132              		.loc 1 41 0 discriminator 3
 133 008e 12FA83F3 		uxtah	r3, r2, r3
 134 0092 28F81130 		strh	r3, [r8, r1, lsl #1]	@ movhi
  44:..\poly_mul.c ****             result_final[i + j + 2 * KARATSUBA_N / 4] =
 135              		.loc 1 44 0 discriminator 3
 136 0096 01F12005 		add	r5, r1, #32
  45:..\poly_mul.c ****                 result_final[i + j + 2 * KARATSUBA_N / 4] +
 137              		.loc 1 45 0 discriminator 3
 138 009a 38F81520 		ldrh	r2, [r8, r5, lsl #1]
  46:..\poly_mul.c ****                 OVERFLOWING_MUL(acc2, acc6);
 139              		.loc 1 46 0 discriminator 3
 140 009e 0198     		ldr	r0, [sp, #4]
 141 00a0 10FB06F3 		smulbb	r3, r0, r6
  44:..\poly_mul.c ****             result_final[i + j + 2 * KARATSUBA_N / 4] =
 142              		.loc 1 44 0 discriminator 3
 143 00a4 12FA83F3 		uxtah	r3, r2, r3
 144 00a8 28F81530 		strh	r3, [r8, r5, lsl #1]	@ movhi
  47:..\poly_mul.c **** 
  48:..\poly_mul.c ****             acc7 = acc5 + acc6; //b01
 145              		.loc 1 48 0 discriminator 3
 146 00ac BC19     		adds	r4, r7, r6
 147              	.LVL18:
  49:..\poly_mul.c ****             acc8 = acc1 + acc2; //a01
 148              		.loc 1 49 0 discriminator 3
 149 00ae 0BEB0003 		add	r3, fp, r0
  50:..\poly_mul.c ****             d01[i + j] = d01[i + j] + (uint16_t)(acc7 * (uint64_t)acc8);
 150              		.loc 1 50 0 discriminator 3
 151 00b2 56AA     		add	r2, sp, #344
 152 00b4 02EB4100 		add	r0, r2, r1, lsl #1
 153 00b8 30F8402C 		ldrh	r2, [r0, #-64]
 154 00bc 14FB03F3 		smulbb	r3, r4, r3
 155 00c0 12FA83F3 		uxtah	r3, r2, r3
 156 00c4 20F8403C 		strh	r3, [r0, #-64]	@ movhi
  51:..\poly_mul.c ****             //--------------------------------------------------------
  52:..\poly_mul.c **** 
  53:..\poly_mul.c ****             acc7 = b_1[j + 2 * KARATSUBA_N / 4]; //b2
 157              		.loc 1 53 0 discriminator 3
 158 00c8 0EF12003 		add	r3, lr, #32
 159 00cc 39F81320 		ldrh	r2, [r9, r3, lsl #1]
 160              	.LVL19:
  54:..\poly_mul.c ****             acc8 = b_1[j + 3 * KARATSUBA_N / 4]; //b3
 161              		.loc 1 54 0 discriminator 3
 162 00d0 0EF13003 		add	r3, lr, #48
 163 00d4 39F81330 		ldrh	r3, [r9, r3, lsl #1]
 164              	.LVL20:
  55:..\poly_mul.c ****             result_final[i + j + 4 * KARATSUBA_N / 4] =
 165              		.loc 1 55 0 discriminator 3
 166 00d8 01F1400C 		add	ip, r1, #64
  56:..\poly_mul.c ****                 result_final[i + j + 4 * KARATSUBA_N / 4] +
 167              		.loc 1 56 0 discriminator 3
 168 00dc 38F81CA0 		ldrh	r10, [r8, ip, lsl #1]
  57:..\poly_mul.c ****                 OVERFLOWING_MUL(acc7, acc3);
 169              		.loc 1 57 0 discriminator 3
ARM GAS  C:\Users\bogurad\AppData\Local\Temp\cc8qfBQJ.s 			page 5


 170 00e0 BDF80840 		ldrh	r4, [sp, #8]
 171 00e4 14FB02F4 		smulbb	r4, r4, r2
  55:..\poly_mul.c ****             result_final[i + j + 4 * KARATSUBA_N / 4] =
 172              		.loc 1 55 0 discriminator 3
 173 00e8 1AFA84F4 		uxtah	r4, r10, r4
 174 00ec 28F81C40 		strh	r4, [r8, ip, lsl #1]	@ movhi
  58:..\poly_mul.c **** 
  59:..\poly_mul.c ****             result_final[i + j + 6 * KARATSUBA_N / 4] =
 175              		.loc 1 59 0 discriminator 3
 176 00f0 01F1600C 		add	ip, r1, #96
  60:..\poly_mul.c ****                 result_final[i + j + 6 * KARATSUBA_N / 4] +
 177              		.loc 1 60 0 discriminator 3
 178 00f4 38F81CA0 		ldrh	r10, [r8, ip, lsl #1]
  61:..\poly_mul.c ****                 OVERFLOWING_MUL(acc8, acc4);
 179              		.loc 1 61 0 discriminator 3
 180 00f8 BDF80C40 		ldrh	r4, [sp, #12]
 181 00fc 14FB03F4 		smulbb	r4, r4, r3
  59:..\poly_mul.c ****                 result_final[i + j + 6 * KARATSUBA_N / 4] +
 182              		.loc 1 59 0 discriminator 3
 183 0100 1AFA84F4 		uxtah	r4, r10, r4
 184 0104 28F81C40 		strh	r4, [r8, ip, lsl #1]	@ movhi
  62:..\poly_mul.c **** 
  63:..\poly_mul.c ****             acc9 = acc3 + acc4;
 185              		.loc 1 63 0 discriminator 3
 186 0108 029C     		ldr	r4, [sp, #8]
 187 010a A446     		mov	ip, r4
 188 010c 039C     		ldr	r4, [sp, #12]
 189 010e A444     		add	ip, ip, r4
  64:..\poly_mul.c ****             acc10 = acc7 + acc8;
 190              		.loc 1 64 0 discriminator 3
 191 0110 D418     		adds	r4, r2, r3
 192              	.LVL21:
  65:..\poly_mul.c ****             d23[i + j] = d23[i + j] + OVERFLOWING_MUL(acc9, acc10);
 193              		.loc 1 65 0 discriminator 3
 194 0112 30F8C0AC 		ldrh	r10, [r0, #-192]
 195 0116 1CFB04F4 		smulbb	r4, ip, r4
 196              	.LVL22:
 197 011a 1AFA84F4 		uxtah	r4, r10, r4
 198 011e 20F8C04C 		strh	r4, [r0, #-192]	@ movhi
  66:..\poly_mul.c ****             //--------------------------------------------------------
  67:..\poly_mul.c **** 
  68:..\poly_mul.c ****             acc5 = acc5 + acc7; //b02
 199              		.loc 1 68 0 discriminator 3
 200 0122 3A44     		add	r2, r2, r7
 201              	.LVL23:
 202 0124 92B2     		uxth	r2, r2
 203              	.LVL24:
  69:..\poly_mul.c ****             acc7 = acc1 + acc3; //a02
 204              		.loc 1 69 0 discriminator 3
 205 0126 029C     		ldr	r4, [sp, #8]
 206 0128 5C44     		add	r4, fp, r4
 207 012a A4B2     		uxth	r4, r4
 208              	.LVL25:
  70:..\poly_mul.c ****             result_d01[i + j + 0 * KARATSUBA_N / 4] =
  71:..\poly_mul.c ****                 result_d01[i + j + 0 * KARATSUBA_N / 4] +
 209              		.loc 1 71 0 discriminator 3
 210 012c 06AF     		add	r7, sp, #24
ARM GAS  C:\Users\bogurad\AppData\Local\Temp\cc8qfBQJ.s 			page 6


 211 012e 37F811C0 		ldrh	ip, [r7, r1, lsl #1]
  72:..\poly_mul.c ****                 OVERFLOWING_MUL(acc5, acc7);
 212              		.loc 1 72 0 discriminator 3
 213 0132 12FB04F7 		smulbb	r7, r2, r4
  70:..\poly_mul.c ****             result_d01[i + j + 0 * KARATSUBA_N / 4] =
 214              		.loc 1 70 0 discriminator 3
 215 0136 1CFA87F7 		uxtah	r7, ip, r7
 216 013a 0DF1180C 		add	ip, sp, #24
 217 013e 2CF81170 		strh	r7, [ip, r1, lsl #1]	@ movhi
  73:..\poly_mul.c **** 
  74:..\poly_mul.c ****             acc6 = acc6 + acc8; //b13
 218              		.loc 1 74 0 discriminator 3
 219 0142 3344     		add	r3, r3, r6
 220              	.LVL26:
 221 0144 9BB2     		uxth	r3, r3
 222              	.LVL27:
  75:..\poly_mul.c ****             acc8 = acc2 + acc4;
 223              		.loc 1 75 0 discriminator 3
 224 0146 0199     		ldr	r1, [sp, #4]
 225 0148 039E     		ldr	r6, [sp, #12]
 226 014a 3144     		add	r1, r1, r6
 227 014c 89B2     		uxth	r1, r1
 228              	.LVL28:
  76:..\poly_mul.c ****             result_d01[i + j + 2 * KARATSUBA_N / 4] =
  77:..\poly_mul.c ****                 result_d01[i + j + 2 * KARATSUBA_N / 4] +
 229              		.loc 1 77 0 discriminator 3
 230 014e 3CF81570 		ldrh	r7, [ip, r5, lsl #1]
  78:..\poly_mul.c ****                 OVERFLOWING_MUL(acc6, acc8);
 231              		.loc 1 78 0 discriminator 3
 232 0152 13FB01F6 		smulbb	r6, r3, r1
  76:..\poly_mul.c ****             result_d01[i + j + 2 * KARATSUBA_N / 4] =
 233              		.loc 1 76 0 discriminator 3
 234 0156 17FA86F6 		uxtah	r6, r7, r6
 235 015a 2CF81560 		strh	r6, [ip, r5, lsl #1]	@ movhi
  79:..\poly_mul.c **** 
  80:..\poly_mul.c ****             acc5 = acc5 + acc6;
 236              		.loc 1 80 0 discriminator 3
 237 015e 1A44     		add	r2, r2, r3
 238              	.LVL29:
  81:..\poly_mul.c ****             acc7 = acc7 + acc8;
 239              		.loc 1 81 0 discriminator 3
 240 0160 2144     		add	r1, r1, r4
 241              	.LVL30:
  82:..\poly_mul.c ****             d0123[i + j] = d0123[i + j] + OVERFLOWING_MUL(acc5, acc7);
 242              		.loc 1 82 0 discriminator 3
 243 0162 30F8803C 		ldrh	r3, [r0, #-128]
 244              	.LVL31:
 245 0166 12FB01F4 		smulbb	r4, r2, r1
 246 016a 13FA84F4 		uxtah	r4, r3, r4
 247 016e 20F8804C 		strh	r4, [r0, #-128]	@ movhi
  36:..\poly_mul.c **** 
 248              		.loc 1 36 0 discriminator 3
 249 0172 0EF1010E 		add	lr, lr, #1
 250              	.LVL32:
 251              	.L3:
  36:..\poly_mul.c **** 
 252              		.loc 1 36 0 is_stmt 0 discriminator 1
ARM GAS  C:\Users\bogurad\AppData\Local\Temp\cc8qfBQJ.s 			page 7


 253 0176 BEF10F0F 		cmp	lr, #15
 254 017a 7FF77BAF 		ble	.L4
  31:..\poly_mul.c ****         acc1 = a_1[i]; //a0
 255              		.loc 1 31 0 is_stmt 1 discriminator 2
 256 017e 049B     		ldr	r3, [sp, #16]
 257 0180 0133     		adds	r3, r3, #1
 258 0182 0493     		str	r3, [sp, #16]
 259              	.LVL33:
 260              	.L2:
  31:..\poly_mul.c ****         acc1 = a_1[i]; //a0
 261              		.loc 1 31 0 is_stmt 0 discriminator 1
 262 0184 049B     		ldr	r3, [sp, #16]
 263 0186 0F2B     		cmp	r3, #15
 264 0188 7FF75DAF 		ble	.L5
 265 018c 0020     		movs	r0, #0
 266 018e 29E0     		b	.L6
 267              	.LVL34:
 268              	.L7:
  83:..\poly_mul.c ****         }
  84:..\poly_mul.c ****     }
  85:..\poly_mul.c **** 
  86:..\poly_mul.c ****     // 2nd last stage
  87:..\poly_mul.c **** 
  88:..\poly_mul.c ****     for (i = 0; i < KARATSUBA_N / 2 - 1; i++) {
  89:..\poly_mul.c ****         d0123[i] = d0123[i] - result_d01[i + 0 * KARATSUBA_N / 4] - result_d01[i + 2 * KARATSUBA_N 
 269              		.loc 1 89 0 is_stmt 1 discriminator 3
 270 0190 56AB     		add	r3, sp, #344
 271 0192 03EB4003 		add	r3, r3, r0, lsl #1
 272 0196 33F8801C 		ldrh	r1, [r3, #-128]
 273 019a 06AA     		add	r2, sp, #24
 274 019c 32F81020 		ldrh	r2, [r2, r0, lsl #1]
 275 01a0 00F12004 		add	r4, r0, #32
 276 01a4 06AD     		add	r5, sp, #24
 277 01a6 35F81450 		ldrh	r5, [r5, r4, lsl #1]
 278 01aa 8A1A     		subs	r2, r1, r2
 279 01ac 521B     		subs	r2, r2, r5
 280 01ae 23F8802C 		strh	r2, [r3, #-128]	@ movhi
  90:..\poly_mul.c ****         d01[i] = d01[i] - result_final[i + 0 * KARATSUBA_N / 4] - result_final[i + 2 * KARATSUBA_N 
 281              		.loc 1 90 0 discriminator 3
 282 01b2 33F8401C 		ldrh	r1, [r3, #-64]
 283 01b6 38F81020 		ldrh	r2, [r8, r0, lsl #1]
 284 01ba 38F81440 		ldrh	r4, [r8, r4, lsl #1]
 285 01be 8A1A     		subs	r2, r1, r2
 286 01c0 121B     		subs	r2, r2, r4
 287 01c2 23F8402C 		strh	r2, [r3, #-64]	@ movhi
  91:..\poly_mul.c ****         d23[i] = d23[i] - result_final[i + 4 * KARATSUBA_N / 4] - result_final[i + 6 * KARATSUBA_N 
 288              		.loc 1 91 0 discriminator 3
 289 01c6 33F8C01C 		ldrh	r1, [r3, #-192]
 290 01ca 00F14002 		add	r2, r0, #64
 291 01ce 38F81220 		ldrh	r2, [r8, r2, lsl #1]
 292 01d2 00F16004 		add	r4, r0, #96
 293 01d6 38F81440 		ldrh	r4, [r8, r4, lsl #1]
 294 01da 8A1A     		subs	r2, r1, r2
 295 01dc 121B     		subs	r2, r2, r4
 296 01de 23F8C02C 		strh	r2, [r3, #-192]	@ movhi
  88:..\poly_mul.c ****         d0123[i] = d0123[i] - result_d01[i + 0 * KARATSUBA_N / 4] - result_d01[i + 2 * KARATSUBA_N 
 297              		.loc 1 88 0 discriminator 3
ARM GAS  C:\Users\bogurad\AppData\Local\Temp\cc8qfBQJ.s 			page 8


 298 01e2 0130     		adds	r0, r0, #1
 299              	.LVL35:
 300              	.L6:
  88:..\poly_mul.c ****         d0123[i] = d0123[i] - result_d01[i + 0 * KARATSUBA_N / 4] - result_d01[i + 2 * KARATSUBA_N 
 301              		.loc 1 88 0 is_stmt 0 discriminator 1
 302 01e4 1E28     		cmp	r0, #30
 303 01e6 D3DD     		ble	.L7
 304 01e8 0023     		movs	r3, #0
 305 01ea 1EE0     		b	.L8
 306              	.LVL36:
 307              	.L9:
  92:..\poly_mul.c ****     }
  93:..\poly_mul.c **** 
  94:..\poly_mul.c ****     for (i = 0; i < KARATSUBA_N / 2 - 1; i++) {
  95:..\poly_mul.c ****         result_d01[i + 1 * KARATSUBA_N / 4] = result_d01[i + 1 * KARATSUBA_N / 4] + d0123[i];
 308              		.loc 1 95 0 is_stmt 1 discriminator 3
 309 01ec 03F11002 		add	r2, r3, #16
 310 01f0 06A9     		add	r1, sp, #24
 311 01f2 31F81240 		ldrh	r4, [r1, r2, lsl #1]
 312 01f6 56A9     		add	r1, sp, #344
 313 01f8 01EB4301 		add	r1, r1, r3, lsl #1
 314 01fc 31F8800C 		ldrh	r0, [r1, #-128]
 315 0200 2044     		add	r0, r0, r4
 316 0202 06AC     		add	r4, sp, #24
 317 0204 24F81200 		strh	r0, [r4, r2, lsl #1]	@ movhi
  96:..\poly_mul.c ****         result_final[i + 1 * KARATSUBA_N / 4] = result_final[i + 1 * KARATSUBA_N / 4] + d01[i];
 318              		.loc 1 96 0 discriminator 3
 319 0208 38F81240 		ldrh	r4, [r8, r2, lsl #1]
 320 020c 31F8400C 		ldrh	r0, [r1, #-64]
 321 0210 2044     		add	r0, r0, r4
 322 0212 28F81200 		strh	r0, [r8, r2, lsl #1]	@ movhi
  97:..\poly_mul.c ****         result_final[i + 5 * KARATSUBA_N / 4] = result_final[i + 5 * KARATSUBA_N / 4] + d23[i];
 323              		.loc 1 97 0 discriminator 3
 324 0216 03F15000 		add	r0, r3, #80
 325 021a 38F81040 		ldrh	r4, [r8, r0, lsl #1]
 326 021e 31F8C02C 		ldrh	r2, [r1, #-192]
 327 0222 2244     		add	r2, r2, r4
 328 0224 28F81020 		strh	r2, [r8, r0, lsl #1]	@ movhi
  94:..\poly_mul.c ****         result_d01[i + 1 * KARATSUBA_N / 4] = result_d01[i + 1 * KARATSUBA_N / 4] + d0123[i];
 329              		.loc 1 94 0 discriminator 3
 330 0228 0133     		adds	r3, r3, #1
 331              	.LVL37:
 332              	.L8:
  94:..\poly_mul.c ****         result_d01[i + 1 * KARATSUBA_N / 4] = result_d01[i + 1 * KARATSUBA_N / 4] + d0123[i];
 333              		.loc 1 94 0 is_stmt 0 discriminator 1
 334 022a 1E2B     		cmp	r3, #30
 335 022c DEDD     		ble	.L9
 336 022e 0020     		movs	r0, #0
 337 0230 0EE0     		b	.L10
 338              	.LVL38:
 339              	.L11:
  98:..\poly_mul.c ****     }
  99:..\poly_mul.c **** 
 100:..\poly_mul.c ****     // Last stage
 101:..\poly_mul.c ****     for (i = 0; i < KARATSUBA_N - 1; i++) {
 102:..\poly_mul.c ****         result_d01[i] = result_d01[i] - result_final[i] - result_final[i + KARATSUBA_N];
 340              		.loc 1 102 0 is_stmt 1 discriminator 3
ARM GAS  C:\Users\bogurad\AppData\Local\Temp\cc8qfBQJ.s 			page 9


 341 0232 06AB     		add	r3, sp, #24
 342 0234 33F81020 		ldrh	r2, [r3, r0, lsl #1]
 343 0238 38F81030 		ldrh	r3, [r8, r0, lsl #1]
 344 023c 00F14001 		add	r1, r0, #64
 345 0240 38F81110 		ldrh	r1, [r8, r1, lsl #1]
 346 0244 D31A     		subs	r3, r2, r3
 347 0246 5B1A     		subs	r3, r3, r1
 348 0248 06AA     		add	r2, sp, #24
 349 024a 22F81030 		strh	r3, [r2, r0, lsl #1]	@ movhi
 101:..\poly_mul.c ****         result_d01[i] = result_d01[i] - result_final[i] - result_final[i + KARATSUBA_N];
 350              		.loc 1 101 0 discriminator 3
 351 024e 0130     		adds	r0, r0, #1
 352              	.LVL39:
 353              	.L10:
 101:..\poly_mul.c ****         result_d01[i] = result_d01[i] - result_final[i] - result_final[i + KARATSUBA_N];
 354              		.loc 1 101 0 is_stmt 0 discriminator 1
 355 0250 3E28     		cmp	r0, #62
 356 0252 EEDD     		ble	.L11
 357 0254 0021     		movs	r1, #0
 358 0256 0AE0     		b	.L12
 359              	.LVL40:
 360              	.L13:
 103:..\poly_mul.c ****     }
 104:..\poly_mul.c **** 
 105:..\poly_mul.c ****     for (i = 0; i < KARATSUBA_N - 1; i++) {
 106:..\poly_mul.c ****         result_final[i + 1 * KARATSUBA_N / 2] = result_final[i + 1 * KARATSUBA_N / 2] + result_d01[
 361              		.loc 1 106 0 is_stmt 1 discriminator 3
 362 0258 01F12002 		add	r2, r1, #32
 363 025c 38F81200 		ldrh	r0, [r8, r2, lsl #1]
 364 0260 06AB     		add	r3, sp, #24
 365 0262 33F81130 		ldrh	r3, [r3, r1, lsl #1]
 366 0266 0344     		add	r3, r3, r0
 367 0268 28F81230 		strh	r3, [r8, r2, lsl #1]	@ movhi
 105:..\poly_mul.c ****         result_final[i + 1 * KARATSUBA_N / 2] = result_final[i + 1 * KARATSUBA_N / 2] + result_d01[
 368              		.loc 1 105 0 discriminator 3
 369 026c 0131     		adds	r1, r1, #1
 370              	.LVL41:
 371              	.L12:
 105:..\poly_mul.c ****         result_final[i + 1 * KARATSUBA_N / 2] = result_final[i + 1 * KARATSUBA_N / 2] + result_d01[
 372              		.loc 1 105 0 is_stmt 0 discriminator 1
 373 026e 3E29     		cmp	r1, #62
 374 0270 F2DD     		ble	.L13
 107:..\poly_mul.c ****     }
 108:..\poly_mul.c **** 
 109:..\poly_mul.c **** }
 375              		.loc 1 109 0 is_stmt 1
 376 0272 57B0     		add	sp, sp, #348
 377              		.cfi_def_cfa_offset 36
 378              		@ sp needed
 379 0274 BDE8F08F 		pop	{r4, r5, r6, r7, r8, r9, r10, fp, pc}
 380              		.cfi_endproc
 381              	.LFE1:
 382              		.size	karatsuba_simple, .-karatsuba_simple
 383              		.section	.text.toom_cook_4way,"ax",%progbits
 384              		.align	2
 385              		.thumb
 386              		.thumb_func
ARM GAS  C:\Users\bogurad\AppData\Local\Temp\cc8qfBQJ.s 			page 10


 387              		.type	toom_cook_4way, %function
 388              	toom_cook_4way:
 389              	.LFB2:
 110:..\poly_mul.c **** 
 111:..\poly_mul.c **** 
 112:..\poly_mul.c **** 
 113:..\poly_mul.c **** static void toom_cook_4way (const uint16_t *a1, const uint16_t *b1, uint16_t *result) {
 390              		.loc 1 113 0
 391              		.cfi_startproc
 392              		@ args = 0, pretend = 0, frame = 3584
 393              		@ frame_needed = 0, uses_anonymous_args = 0
 394              	.LVL42:
 395 0000 2DE9F043 		push	{r4, r5, r6, r7, r8, r9, lr}
 396              		.cfi_def_cfa_offset 28
 397              		.cfi_offset 4, -28
 398              		.cfi_offset 5, -24
 399              		.cfi_offset 6, -20
 400              		.cfi_offset 7, -16
 401              		.cfi_offset 8, -12
 402              		.cfi_offset 9, -8
 403              		.cfi_offset 14, -4
 404 0004 ADF6046D 		subw	sp, sp, #3588
 405              		.cfi_def_cfa_offset 3616
 406 0008 0646     		mov	r6, r0
 407 000a 0D46     		mov	r5, r1
 408 000c 1446     		mov	r4, r2
 409              	.LVL43:
 114:..\poly_mul.c ****     uint16_t inv3 = 43691, inv9 = 36409, inv15 = 61167;
 115:..\poly_mul.c **** 
 116:..\poly_mul.c ****     uint16_t aw1[N_SB], aw2[N_SB], aw3[N_SB], aw4[N_SB], aw5[N_SB], aw6[N_SB], aw7[N_SB];
 117:..\poly_mul.c ****     uint16_t bw1[N_SB], bw2[N_SB], bw3[N_SB], bw4[N_SB], bw5[N_SB], bw6[N_SB], bw7[N_SB];
 118:..\poly_mul.c ****     uint16_t w1[N_SB_RES] = {0}, w2[N_SB_RES] = {0}, w3[N_SB_RES] = {0}, w4[N_SB_RES] = {0},
 410              		.loc 1 118 0
 411 000e FE27     		movs	r7, #254
 412 0010 3A46     		mov	r2, r7
 413              	.LVL44:
 414 0012 0021     		movs	r1, #0
 415              	.LVL45:
 416 0014 0DF5C060 		add	r0, sp, #1536
 417              	.LVL46:
 418 0018 FFF7FEFF 		bl	memset
 419              	.LVL47:
 420 001c 3A46     		mov	r2, r7
 421 001e 0021     		movs	r1, #0
 422 0020 0DF5A060 		add	r0, sp, #1280
 423 0024 FFF7FEFF 		bl	memset
 424              	.LVL48:
 425 0028 3A46     		mov	r2, r7
 426 002a 0021     		movs	r1, #0
 427 002c 0DF58060 		add	r0, sp, #1024
 428 0030 FFF7FEFF 		bl	memset
 429              	.LVL49:
 430 0034 3A46     		mov	r2, r7
 431 0036 0021     		movs	r1, #0
 432 0038 C0A8     		add	r0, sp, #768
 433 003a FFF7FEFF 		bl	memset
 434              	.LVL50:
ARM GAS  C:\Users\bogurad\AppData\Local\Temp\cc8qfBQJ.s 			page 11


 119:..\poly_mul.c ****                             w5[N_SB_RES] = {0}, w6[N_SB_RES] = {0}, w7[N_SB_RES] = {0};
 435              		.loc 1 119 0
 436 003e 3A46     		mov	r2, r7
 437 0040 0021     		movs	r1, #0
 438 0042 80A8     		add	r0, sp, #512
 439 0044 FFF7FEFF 		bl	memset
 440              	.LVL51:
 441 0048 3A46     		mov	r2, r7
 442 004a 0021     		movs	r1, #0
 443 004c 40A8     		add	r0, sp, #256
 444 004e FFF7FEFF 		bl	memset
 445              	.LVL52:
 446 0052 3A46     		mov	r2, r7
 447 0054 0021     		movs	r1, #0
 448 0056 6846     		mov	r0, sp
 449 0058 FFF7FEFF 		bl	memset
 450              	.LVL53:
 120:..\poly_mul.c ****     uint16_t r0, r1, r2, r3, r4, r5, r6, r7;
 121:..\poly_mul.c ****     uint16_t *A0, *A1, *A2, *A3, *B0, *B1, *B2, *B3;
 122:..\poly_mul.c ****     A0 = (uint16_t *)a1;
 123:..\poly_mul.c ****     A1 = (uint16_t *)&a1[N_SB];
 124:..\poly_mul.c ****     A2 = (uint16_t *)&a1[2 * N_SB];
 125:..\poly_mul.c ****     A3 = (uint16_t *)&a1[3 * N_SB];
 126:..\poly_mul.c ****     B0 = (uint16_t *)b1;
 127:..\poly_mul.c ****     B1 = (uint16_t *)&b1[N_SB];
 128:..\poly_mul.c ****     B2 = (uint16_t *)&b1[2 * N_SB];
 129:..\poly_mul.c ****     B3 = (uint16_t *)&b1[3 * N_SB];
 130:..\poly_mul.c **** 
 131:..\poly_mul.c ****     uint16_t *C;
 132:..\poly_mul.c ****     C = result;
 133:..\poly_mul.c **** 
 134:..\poly_mul.c ****     int i, j;
 135:..\poly_mul.c **** 
 136:..\poly_mul.c ****     // EVALUATION
 137:..\poly_mul.c ****     for (j = 0; j < N_SB; ++j) {
 451              		.loc 1 137 0
 452 005c 0022     		movs	r2, #0
 453 005e 47E0     		b	.L16
 454              	.LVL54:
 455              	.L17:
 138:..\poly_mul.c ****         r0 = A0[j];
 456              		.loc 1 138 0 discriminator 3
 457 0060 5000     		lsls	r0, r2, #1
 458 0062 36F812E0 		ldrh	lr, [r6, r2, lsl #1]
 459              	.LVL55:
 139:..\poly_mul.c ****         r1 = A1[j];
 460              		.loc 1 139 0 discriminator 3
 461 0066 00F18003 		add	r3, r0, #128
 462 006a 36F803C0 		ldrh	ip, [r6, r3]
 463              	.LVL56:
 140:..\poly_mul.c ****         r2 = A2[j];
 464              		.loc 1 140 0 discriminator 3
 465 006e 00F58073 		add	r3, r0, #256
 466 0072 F35A     		ldrh	r3, [r6, r3]
 467              	.LVL57:
 141:..\poly_mul.c ****         r3 = A3[j];
 468              		.loc 1 141 0 discriminator 3
ARM GAS  C:\Users\bogurad\AppData\Local\Temp\cc8qfBQJ.s 			page 12


 469 0074 00F5C071 		add	r1, r0, #384
 470 0078 775A     		ldrh	r7, [r6, r1]
 471              	.LVL58:
 142:..\poly_mul.c ****         r4 = r0 + r2;
 472              		.loc 1 142 0 discriminator 3
 473 007a 0EEB0301 		add	r1, lr, r3
 474 007e 89B2     		uxth	r1, r1
 475              	.LVL59:
 143:..\poly_mul.c ****         r5 = r1 + r3;
 476              		.loc 1 143 0 discriminator 3
 477 0080 0CEB0708 		add	r8, ip, r7
 478 0084 1FFA88F8 		uxth	r8, r8
 479              	.LVL60:
 144:..\poly_mul.c ****         r6 = r4 + r5;
 480              		.loc 1 144 0 discriminator 3
 481 0088 01EB0809 		add	r9, r1, r8
 482              	.LVL61:
 145:..\poly_mul.c ****         r7 = r4 - r5;
 483              		.loc 1 145 0 discriminator 3
 484 008c C8EB0101 		rsb	r1, r8, r1
 485              	.LVL62:
 146:..\poly_mul.c ****         aw3[j] = r6;
 486              		.loc 1 146 0 discriminator 3
 487 0090 0DF54868 		add	r8, sp, #3200
 488              	.LVL63:
 489 0094 28F81290 		strh	r9, [r8, r2, lsl #1]	@ movhi
 147:..\poly_mul.c ****         aw4[j] = r7;
 490              		.loc 1 147 0 discriminator 3
 491 0098 0DF54068 		add	r8, sp, #3072
 492 009c 28F81210 		strh	r1, [r8, r2, lsl #1]	@ movhi
 148:..\poly_mul.c ****         r4 = ((r0 << 2) + r2) << 1;
 493              		.loc 1 148 0 discriminator 3
 494 00a0 03EB8E01 		add	r1, r3, lr, lsl #2
 495              	.LVL64:
 496 00a4 4900     		lsls	r1, r1, #1
 497 00a6 89B2     		uxth	r1, r1
 498              	.LVL65:
 149:..\poly_mul.c ****         r5 = (r1 << 2) + r3;
 499              		.loc 1 149 0 discriminator 3
 500 00a8 07EB8C08 		add	r8, r7, ip, lsl #2
 501              	.LVL66:
 502 00ac 1FFA88F8 		uxth	r8, r8
 503              	.LVL67:
 150:..\poly_mul.c ****         r6 = r4 + r5;
 504              		.loc 1 150 0 discriminator 3
 505 00b0 01EB0809 		add	r9, r1, r8
 506              	.LVL68:
 151:..\poly_mul.c ****         r7 = r4 - r5;
 507              		.loc 1 151 0 discriminator 3
 508 00b4 C8EB0101 		rsb	r1, r8, r1
 509              	.LVL69:
 152:..\poly_mul.c ****         aw5[j] = r6;
 510              		.loc 1 152 0 discriminator 3
 511 00b8 0DF53868 		add	r8, sp, #2944
 512              	.LVL70:
 513 00bc 28F81290 		strh	r9, [r8, r2, lsl #1]	@ movhi
 153:..\poly_mul.c ****         aw6[j] = r7;
ARM GAS  C:\Users\bogurad\AppData\Local\Temp\cc8qfBQJ.s 			page 13


 514              		.loc 1 153 0 discriminator 3
 515 00c0 0DF53068 		add	r8, sp, #2816
 516 00c4 28F81210 		strh	r1, [r8, r2, lsl #1]	@ movhi
 154:..\poly_mul.c ****         r4 = (r3 << 3) + (r2 << 2) + (r1 << 1) + r0;
 517              		.loc 1 154 0 discriminator 3
 518 00c8 9B00     		lsls	r3, r3, #2
 519              	.LVL71:
 520 00ca 03EBC703 		add	r3, r3, r7, lsl #3
 521 00ce 03EB4C03 		add	r3, r3, ip, lsl #1
 522 00d2 7344     		add	r3, r3, lr
 523              	.LVL72:
 155:..\poly_mul.c ****         aw2[j] = r4;
 524              		.loc 1 155 0 discriminator 3
 525 00d4 0DF55061 		add	r1, sp, #3328
 526              	.LVL73:
 527 00d8 21F81230 		strh	r3, [r1, r2, lsl #1]	@ movhi
 156:..\poly_mul.c ****         aw7[j] = r0;
 528              		.loc 1 156 0 discriminator 3
 529 00dc 0DF52863 		add	r3, sp, #2688
 530              	.LVL74:
 531 00e0 23F812E0 		strh	lr, [r3, r2, lsl #1]	@ movhi
 157:..\poly_mul.c ****         aw1[j] = r3;
 532              		.loc 1 157 0 discriminator 3
 533 00e4 0DF56063 		add	r3, sp, #3584
 534 00e8 1844     		add	r0, r0, r3
 535 00ea 20F8807C 		strh	r7, [r0, #-128]	@ movhi
 137:..\poly_mul.c ****         r0 = A0[j];
 536              		.loc 1 137 0 discriminator 3
 537 00ee 0132     		adds	r2, r2, #1
 538              	.LVL75:
 539              	.L16:
 137:..\poly_mul.c ****         r0 = A0[j];
 540              		.loc 1 137 0 is_stmt 0 discriminator 1
 541 00f0 3F2A     		cmp	r2, #63
 542 00f2 B5DD     		ble	.L17
 543 00f4 0023     		movs	r3, #0
 544 00f6 44E0     		b	.L18
 545              	.LVL76:
 546              	.L19:
 158:..\poly_mul.c ****     }
 159:..\poly_mul.c ****     for (j = 0; j < N_SB; ++j) {
 160:..\poly_mul.c ****         r0 = B0[j];
 547              		.loc 1 160 0 is_stmt 1 discriminator 3
 548 00f8 5900     		lsls	r1, r3, #1
 549 00fa 35F81360 		ldrh	r6, [r5, r3, lsl #1]
 550              	.LVL77:
 161:..\poly_mul.c ****         r1 = B1[j];
 551              		.loc 1 161 0 discriminator 3
 552 00fe 01F18002 		add	r2, r1, #128
 553 0102 AF5A     		ldrh	r7, [r5, r2]
 554              	.LVL78:
 162:..\poly_mul.c ****         r2 = B2[j];
 555              		.loc 1 162 0 discriminator 3
 556 0104 01F58072 		add	r2, r1, #256
 557 0108 AA5A     		ldrh	r2, [r5, r2]
 558              	.LVL79:
 163:..\poly_mul.c ****         r3 = B3[j];
ARM GAS  C:\Users\bogurad\AppData\Local\Temp\cc8qfBQJ.s 			page 14


 559              		.loc 1 163 0 discriminator 3
 560 010a 01F5C071 		add	r1, r1, #384
 561 010e 685A     		ldrh	r0, [r5, r1]
 562              	.LVL80:
 164:..\poly_mul.c ****         r4 = r0 + r2;
 563              		.loc 1 164 0 discriminator 3
 564 0110 B118     		adds	r1, r6, r2
 565 0112 89B2     		uxth	r1, r1
 566              	.LVL81:
 165:..\poly_mul.c ****         r5 = r1 + r3;
 567              		.loc 1 165 0 discriminator 3
 568 0114 07EB000E 		add	lr, r7, r0
 569 0118 1FFA8EFE 		uxth	lr, lr
 570              	.LVL82:
 166:..\poly_mul.c ****         r6 = r4 + r5;
 571              		.loc 1 166 0 discriminator 3
 572 011c 01EB0E0C 		add	ip, r1, lr
 573              	.LVL83:
 167:..\poly_mul.c ****         r7 = r4 - r5;
 574              		.loc 1 167 0 discriminator 3
 575 0120 CEEB0101 		rsb	r1, lr, r1
 576              	.LVL84:
 168:..\poly_mul.c ****         bw3[j] = r6;
 577              		.loc 1 168 0 discriminator 3
 578 0124 0DF5106E 		add	lr, sp, #2304
 579              	.LVL85:
 580 0128 2EF813C0 		strh	ip, [lr, r3, lsl #1]	@ movhi
 169:..\poly_mul.c ****         bw4[j] = r7;
 581              		.loc 1 169 0 discriminator 3
 582 012c 0DF5086E 		add	lr, sp, #2176
 583 0130 2EF81310 		strh	r1, [lr, r3, lsl #1]	@ movhi
 170:..\poly_mul.c ****         r4 = ((r0 << 2) + r2) << 1;
 584              		.loc 1 170 0 discriminator 3
 585 0134 02EB8601 		add	r1, r2, r6, lsl #2
 586              	.LVL86:
 587 0138 4900     		lsls	r1, r1, #1
 588 013a 89B2     		uxth	r1, r1
 589              	.LVL87:
 171:..\poly_mul.c ****         r5 = (r1 << 2) + r3;
 590              		.loc 1 171 0 discriminator 3
 591 013c 00EB870E 		add	lr, r0, r7, lsl #2
 592              	.LVL88:
 593 0140 1FFA8EFE 		uxth	lr, lr
 594              	.LVL89:
 172:..\poly_mul.c ****         r6 = r4 + r5;
 595              		.loc 1 172 0 discriminator 3
 596 0144 01EB0E0C 		add	ip, r1, lr
 597              	.LVL90:
 173:..\poly_mul.c ****         r7 = r4 - r5;
 598              		.loc 1 173 0 discriminator 3
 599 0148 CEEB0101 		rsb	r1, lr, r1
 600              	.LVL91:
 174:..\poly_mul.c ****         bw5[j] = r6;
 601              		.loc 1 174 0 discriminator 3
 602 014c 0DF5006E 		add	lr, sp, #2048
 603              	.LVL92:
 604 0150 2EF813C0 		strh	ip, [lr, r3, lsl #1]	@ movhi
ARM GAS  C:\Users\bogurad\AppData\Local\Temp\cc8qfBQJ.s 			page 15


 175:..\poly_mul.c ****         bw6[j] = r7;
 605              		.loc 1 175 0 discriminator 3
 606 0154 0DF5F06E 		add	lr, sp, #1920
 607 0158 2EF81310 		strh	r1, [lr, r3, lsl #1]	@ movhi
 176:..\poly_mul.c ****         r4 = (r3 << 3) + (r2 << 2) + (r1 << 1) + r0;
 608              		.loc 1 176 0 discriminator 3
 609 015c 9200     		lsls	r2, r2, #2
 610              	.LVL93:
 611 015e 02EBC002 		add	r2, r2, r0, lsl #3
 612 0162 02EB4702 		add	r2, r2, r7, lsl #1
 613 0166 3244     		add	r2, r2, r6
 614              	.LVL94:
 177:..\poly_mul.c ****         bw2[j] = r4;
 615              		.loc 1 177 0 discriminator 3
 616 0168 0DF51861 		add	r1, sp, #2432
 617              	.LVL95:
 618 016c 21F81320 		strh	r2, [r1, r3, lsl #1]	@ movhi
 178:..\poly_mul.c ****         bw7[j] = r0;
 619              		.loc 1 178 0 discriminator 3
 620 0170 0DF5E062 		add	r2, sp, #1792
 621              	.LVL96:
 622 0174 22F81360 		strh	r6, [r2, r3, lsl #1]	@ movhi
 179:..\poly_mul.c ****         bw1[j] = r3;
 623              		.loc 1 179 0 discriminator 3
 624 0178 0DF52062 		add	r2, sp, #2560
 625 017c 22F81300 		strh	r0, [r2, r3, lsl #1]	@ movhi
 159:..\poly_mul.c ****         r0 = B0[j];
 626              		.loc 1 159 0 discriminator 3
 627 0180 0133     		adds	r3, r3, #1
 628              	.LVL97:
 629              	.L18:
 159:..\poly_mul.c ****         r0 = B0[j];
 630              		.loc 1 159 0 is_stmt 0 discriminator 1
 631 0182 3F2B     		cmp	r3, #63
 632 0184 B8DD     		ble	.L19
 180:..\poly_mul.c ****     }
 181:..\poly_mul.c **** 
 182:..\poly_mul.c ****     // MULTIPLICATION
 183:..\poly_mul.c **** 
 184:..\poly_mul.c ****     karatsuba_simple(aw1, bw1, w1);
 633              		.loc 1 184 0 is_stmt 1
 634 0186 0DF5C062 		add	r2, sp, #1536
 635 018a 0DF52061 		add	r1, sp, #2560
 636 018e 0DF55860 		add	r0, sp, #3456
 637 0192 FFF7FEFF 		bl	karatsuba_simple
 638              	.LVL98:
 185:..\poly_mul.c ****     karatsuba_simple(aw2, bw2, w2);
 639              		.loc 1 185 0
 640 0196 0DF5A062 		add	r2, sp, #1280
 641 019a 0DF51861 		add	r1, sp, #2432
 642 019e 0DF55060 		add	r0, sp, #3328
 643 01a2 FFF7FEFF 		bl	karatsuba_simple
 644              	.LVL99:
 186:..\poly_mul.c ****     karatsuba_simple(aw3, bw3, w3);
 645              		.loc 1 186 0
 646 01a6 0DF58062 		add	r2, sp, #1024
 647 01aa 0DF51061 		add	r1, sp, #2304
ARM GAS  C:\Users\bogurad\AppData\Local\Temp\cc8qfBQJ.s 			page 16


 648 01ae 0DF54860 		add	r0, sp, #3200
 649 01b2 FFF7FEFF 		bl	karatsuba_simple
 650              	.LVL100:
 187:..\poly_mul.c ****     karatsuba_simple(aw4, bw4, w4);
 651              		.loc 1 187 0
 652 01b6 C0AA     		add	r2, sp, #768
 653 01b8 0DF50861 		add	r1, sp, #2176
 654 01bc 0DF54060 		add	r0, sp, #3072
 655 01c0 FFF7FEFF 		bl	karatsuba_simple
 656              	.LVL101:
 188:..\poly_mul.c ****     karatsuba_simple(aw5, bw5, w5);
 657              		.loc 1 188 0
 658 01c4 80AA     		add	r2, sp, #512
 659 01c6 0DF50061 		add	r1, sp, #2048
 660 01ca 0DF53860 		add	r0, sp, #2944
 661 01ce FFF7FEFF 		bl	karatsuba_simple
 662              	.LVL102:
 189:..\poly_mul.c ****     karatsuba_simple(aw6, bw6, w6);
 663              		.loc 1 189 0
 664 01d2 40AA     		add	r2, sp, #256
 665 01d4 0DF5F061 		add	r1, sp, #1920
 666 01d8 0DF53060 		add	r0, sp, #2816
 667 01dc FFF7FEFF 		bl	karatsuba_simple
 668              	.LVL103:
 190:..\poly_mul.c ****     karatsuba_simple(aw7, bw7, w7);
 669              		.loc 1 190 0
 670 01e0 6A46     		mov	r2, sp
 671 01e2 0DF5E061 		add	r1, sp, #1792
 672 01e6 0DF52860 		add	r0, sp, #2688
 673 01ea FFF7FEFF 		bl	karatsuba_simple
 674              	.LVL104:
 191:..\poly_mul.c **** 
 192:..\poly_mul.c ****     // INTERPOLATION
 193:..\poly_mul.c ****     for (i = 0; i < N_SB_RES; ++i) {
 675              		.loc 1 193 0
 676 01ee 0021     		movs	r1, #0
 677 01f0 93E0     		b	.L20
 678              	.LVL105:
 679              	.L21:
 194:..\poly_mul.c ****         r0 = w1[i];
 680              		.loc 1 194 0 discriminator 3
 681 01f2 0DF5C063 		add	r3, sp, #1536
 682 01f6 33F81170 		ldrh	r7, [r3, r1, lsl #1]
 683              	.LVL106:
 195:..\poly_mul.c ****         r1 = w2[i];
 684              		.loc 1 195 0 discriminator 3
 685 01fa 0DF5A063 		add	r3, sp, #1280
 686 01fe 33F811C0 		ldrh	ip, [r3, r1, lsl #1]
 687              	.LVL107:
 196:..\poly_mul.c ****         r2 = w3[i];
 688              		.loc 1 196 0 discriminator 3
 689 0202 0DF58063 		add	r3, sp, #1024
 690 0206 33F81130 		ldrh	r3, [r3, r1, lsl #1]
 691              	.LVL108:
 197:..\poly_mul.c ****         r3 = w4[i];
 692              		.loc 1 197 0 discriminator 3
 693 020a C0AA     		add	r2, sp, #768
ARM GAS  C:\Users\bogurad\AppData\Local\Temp\cc8qfBQJ.s 			page 17


 694 020c 32F81160 		ldrh	r6, [r2, r1, lsl #1]
 695              	.LVL109:
 198:..\poly_mul.c ****         r4 = w5[i];
 696              		.loc 1 198 0 discriminator 3
 697 0210 80AA     		add	r2, sp, #512
 698 0212 32F81120 		ldrh	r2, [r2, r1, lsl #1]
 699              	.LVL110:
 199:..\poly_mul.c ****         r5 = w6[i];
 700              		.loc 1 199 0 discriminator 3
 701 0216 40A8     		add	r0, sp, #256
 702 0218 30F81100 		ldrh	r0, [r0, r1, lsl #1]
 703              	.LVL111:
 200:..\poly_mul.c ****         r6 = w7[i];
 704              		.loc 1 200 0 discriminator 3
 705 021c 3DF811E0 		ldrh	lr, [sp, r1, lsl #1]
 706              	.LVL112:
 201:..\poly_mul.c **** 
 202:..\poly_mul.c ****         r1 = r1 + r4;
 707              		.loc 1 202 0 discriminator 3
 708 0220 9444     		add	ip, ip, r2
 709              	.LVL113:
 710 0222 1FFA8CFC 		uxth	ip, ip
 711              	.LVL114:
 203:..\poly_mul.c ****         r5 = r5 - r4;
 712              		.loc 1 203 0 discriminator 3
 713 0226 801A     		subs	r0, r0, r2
 714              	.LVL115:
 715 0228 80B2     		uxth	r0, r0
 716              	.LVL116:
 204:..\poly_mul.c ****         r3 = ((r3 - r2) >> 1);
 717              		.loc 1 204 0 discriminator 3
 718 022a F61A     		subs	r6, r6, r3
 719              	.LVL117:
 720 022c 7610     		asrs	r6, r6, #1
 721 022e B5B2     		uxth	r5, r6
 722              	.LVL118:
 205:..\poly_mul.c ****         r4 = r4 - r0;
 723              		.loc 1 205 0 discriminator 3
 724 0230 D21B     		subs	r2, r2, r7
 725              	.LVL119:
 726 0232 92B2     		uxth	r2, r2
 727              	.LVL120:
 206:..\poly_mul.c ****         r4 = r4 - (r6 << 6);
 728              		.loc 1 206 0 discriminator 3
 729 0234 A2EB8E12 		sub	r2, r2, lr, lsl #6
 730              	.LVL121:
 731 0238 92B2     		uxth	r2, r2
 732              	.LVL122:
 207:..\poly_mul.c ****         r4 = (r4 << 1) + r5;
 733              		.loc 1 207 0 discriminator 3
 734 023a 5200     		lsls	r2, r2, #1
 735              	.LVL123:
 736 023c 92B2     		uxth	r2, r2
 737 023e 0244     		add	r2, r2, r0
 738 0240 92B2     		uxth	r2, r2
 739              	.LVL124:
 208:..\poly_mul.c ****         r2 = r2 + r3;
ARM GAS  C:\Users\bogurad\AppData\Local\Temp\cc8qfBQJ.s 			page 18


 740              		.loc 1 208 0 discriminator 3
 741 0242 2B44     		add	r3, r3, r5
 742              	.LVL125:
 743 0244 9BB2     		uxth	r3, r3
 744              	.LVL126:
 209:..\poly_mul.c ****         r1 = r1 - (r2 << 6) - r2;
 745              		.loc 1 209 0 discriminator 3
 746 0246 ACEB8318 		sub	r8, ip, r3, lsl #6
 747 024a 1FFA88F8 		uxth	r8, r8
 748 024e C3EB0808 		rsb	r8, r3, r8
 749              	.LVL127:
 210:..\poly_mul.c ****         r2 = r2 - r6;
 750              		.loc 1 210 0 discriminator 3
 751 0252 CEEB0303 		rsb	r3, lr, r3
 752              	.LVL128:
 753 0256 9BB2     		uxth	r3, r3
 754              	.LVL129:
 211:..\poly_mul.c ****         r2 = r2 - r0;
 755              		.loc 1 211 0 discriminator 3
 756 0258 DB1B     		subs	r3, r3, r7
 757              	.LVL130:
 758 025a 9BB2     		uxth	r3, r3
 759              	.LVL131:
 212:..\poly_mul.c ****         r1 = r1 + 45 * r2;
 760              		.loc 1 212 0 discriminator 3
 761 025c 03EB430C 		add	ip, r3, r3, lsl #1
 762 0260 CCEB0C1C 		rsb	ip, ip, ip, lsl #4
 763 0264 1CFA88FC 		uxtah	ip, ip, r8
 764 0268 1FFA8CFC 		uxth	ip, ip
 765              	.LVL132:
 213:..\poly_mul.c ****         r4 = (uint16_t)(((r4 - (r2 << 3)) * (uint32_t)inv3) >> 3);
 766              		.loc 1 213 0 discriminator 3
 767 026c A2EBC302 		sub	r2, r2, r3, lsl #3
 768              	.LVL133:
 769 0270 4AF6AB28 		movw	r8, #43691
 770 0274 08FB02F2 		mul	r2, r8, r2
 771 0278 C2F3CF02 		ubfx	r2, r2, #3, #16
 772              	.LVL134:
 214:..\poly_mul.c ****         r5 = r5 + r1;
 773              		.loc 1 214 0 discriminator 3
 774 027c 6044     		add	r0, r0, ip
 775              	.LVL135:
 776 027e 80B2     		uxth	r0, r0
 777              	.LVL136:
 215:..\poly_mul.c ****         r1 = (uint16_t)(((r1 + (r3 << 4)) * (uint32_t)inv9) >> 1);
 778              		.loc 1 215 0 discriminator 3
 779 0280 DFF8A480 		ldr	r8, .L23
 780 0284 08EA0616 		and	r6, r8, r6, lsl #4
 781 0288 B444     		add	ip, ip, r6
 782              	.LVL137:
 783 028a 48F63966 		movw	r6, #36409
 784 028e 06FB0CFC 		mul	ip, r6, ip
 785 0292 CCF34F06 		ubfx	r6, ip, #1, #16
 786              	.LVL138:
 216:..\poly_mul.c ****         r3 = -(r3 + r1);
 787              		.loc 1 216 0 discriminator 3
 788 0296 3544     		add	r5, r5, r6
ARM GAS  C:\Users\bogurad\AppData\Local\Temp\cc8qfBQJ.s 			page 19


 789              	.LVL139:
 790 0298 ADB2     		uxth	r5, r5
 791              	.LVL140:
 217:..\poly_mul.c ****         r5 = (uint16_t)(((30 * r1 - r5) * (uint32_t)inv15) >> 2);
 792              		.loc 1 217 0 discriminator 3
 793 029a C6EB0618 		rsb	r8, r6, r6, lsl #4
 794 029e 4FEA480C 		lsl	ip, r8, #1
 795 02a2 C0EB0C00 		rsb	r0, r0, ip
 796              	.LVL141:
 797 02a6 4EF6EF6C 		movw	ip, #61167
 798 02aa 0CFB00F0 		mul	r0, ip, r0
 799 02ae C0F38F00 		ubfx	r0, r0, #2, #16
 800              	.LVL142:
 218:..\poly_mul.c ****         r2 = r2 - r4;
 801              		.loc 1 218 0 discriminator 3
 802 02b2 9B1A     		subs	r3, r3, r2
 803              	.LVL143:
 219:..\poly_mul.c ****         r1 = r1 - r5;
 804              		.loc 1 219 0 discriminator 3
 805 02b4 361A     		subs	r6, r6, r0
 806              	.LVL144:
 220:..\poly_mul.c **** 
 221:..\poly_mul.c ****         C[i]     += r6;
 807              		.loc 1 221 0 discriminator 3
 808 02b6 34F811C0 		ldrh	ip, [r4, r1, lsl #1]
 809 02ba E644     		add	lr, lr, ip
 810              	.LVL145:
 811 02bc 24F811E0 		strh	lr, [r4, r1, lsl #1]	@ movhi
 812              	.LVL146:
 222:..\poly_mul.c ****         C[i + 64]  += r5;
 813              		.loc 1 222 0 discriminator 3
 814 02c0 01F1400C 		add	ip, r1, #64
 815 02c4 34F81CE0 		ldrh	lr, [r4, ip, lsl #1]
 816 02c8 7044     		add	r0, r0, lr
 817              	.LVL147:
 818 02ca 24F81C00 		strh	r0, [r4, ip, lsl #1]	@ movhi
 223:..\poly_mul.c ****         C[i + 128] += r4;
 819              		.loc 1 223 0 discriminator 3
 820 02ce 01F1800E 		add	lr, r1, #128
 821 02d2 34F81E00 		ldrh	r0, [r4, lr, lsl #1]
 822 02d6 0244     		add	r2, r2, r0
 823              	.LVL148:
 824 02d8 24F81E20 		strh	r2, [r4, lr, lsl #1]	@ movhi
 224:..\poly_mul.c ****         C[i + 192] += r3;
 825              		.loc 1 224 0 discriminator 3
 826 02dc 01F1C000 		add	r0, r1, #192
 827 02e0 34F81020 		ldrh	r2, [r4, r0, lsl #1]
 828 02e4 551B     		subs	r5, r2, r5
 829              	.LVL149:
 830 02e6 24F81050 		strh	r5, [r4, r0, lsl #1]	@ movhi
 225:..\poly_mul.c ****         C[i + 256] += r2;
 831              		.loc 1 225 0 discriminator 3
 832 02ea 01F58072 		add	r2, r1, #256
 833 02ee 34F81200 		ldrh	r0, [r4, r2, lsl #1]
 834 02f2 10FA83F3 		uxtah	r3, r0, r3
 835              	.LVL150:
 836 02f6 24F81230 		strh	r3, [r4, r2, lsl #1]	@ movhi
ARM GAS  C:\Users\bogurad\AppData\Local\Temp\cc8qfBQJ.s 			page 20


 226:..\poly_mul.c ****         C[i + 320] += r1;
 837              		.loc 1 226 0 discriminator 3
 838 02fa 01F5A073 		add	r3, r1, #320
 839 02fe 34F81320 		ldrh	r2, [r4, r3, lsl #1]
 840 0302 12FA86F6 		uxtah	r6, r2, r6
 841              	.LVL151:
 842 0306 24F81360 		strh	r6, [r4, r3, lsl #1]	@ movhi
 227:..\poly_mul.c ****         C[i + 384] += r0;
 843              		.loc 1 227 0 discriminator 3
 844 030a 01F5C072 		add	r2, r1, #384
 845 030e 34F81230 		ldrh	r3, [r4, r2, lsl #1]
 846 0312 1F44     		add	r7, r7, r3
 847              	.LVL152:
 848 0314 24F81270 		strh	r7, [r4, r2, lsl #1]	@ movhi
 193:..\poly_mul.c ****         r0 = w1[i];
 849              		.loc 1 193 0 discriminator 3
 850 0318 0131     		adds	r1, r1, #1
 851              	.LVL153:
 852              	.L20:
 193:..\poly_mul.c ****         r0 = w1[i];
 853              		.loc 1 193 0 is_stmt 0 discriminator 1
 854 031a 7E29     		cmp	r1, #126
 855 031c 7FF769AF 		ble	.L21
 228:..\poly_mul.c ****     }
 229:..\poly_mul.c **** }
 856              		.loc 1 229 0 is_stmt 1
 857 0320 0DF6046D 		addw	sp, sp, #3588
 858              		.cfi_def_cfa_offset 28
 859              		@ sp needed
 860 0324 BDE8F083 		pop	{r4, r5, r6, r7, r8, r9, pc}
 861              	.LVL154:
 862              	.L24:
 863              		.align	2
 864              	.L23:
 865 0328 F0FF0F00 		.word	1048560
 866              		.cfi_endproc
 867              	.LFE2:
 868              		.size	toom_cook_4way, .-toom_cook_4way
 869              		.section	.text.poly_mul_acc,"ax",%progbits
 870              		.align	2
 871              		.global	poly_mul_acc
 872              		.thumb
 873              		.thumb_func
 874              		.type	poly_mul_acc, %function
 875              	poly_mul_acc:
 876              	.LFB3:
 230:..\poly_mul.c **** 
 231:..\poly_mul.c **** /* res += a*b */
 232:..\poly_mul.c **** void poly_mul_acc(const uint16_t a[SABER_N], const uint16_t b[SABER_N], uint16_t res[SABER_N])
 233:..\poly_mul.c **** {
 877              		.loc 1 233 0
 878              		.cfi_startproc
 879              		@ args = 0, pretend = 0, frame = 1024
 880              		@ frame_needed = 0, uses_anonymous_args = 0
 881              	.LVL155:
 882 0000 70B5     		push	{r4, r5, r6, lr}
 883              		.cfi_def_cfa_offset 16
ARM GAS  C:\Users\bogurad\AppData\Local\Temp\cc8qfBQJ.s 			page 21


 884              		.cfi_offset 4, -16
 885              		.cfi_offset 5, -12
 886              		.cfi_offset 6, -8
 887              		.cfi_offset 14, -4
 888 0002 ADF5806D 		sub	sp, sp, #1024
 889              		.cfi_def_cfa_offset 1040
 890 0006 0546     		mov	r5, r0
 891 0008 0E46     		mov	r6, r1
 892 000a 1446     		mov	r4, r2
 234:..\poly_mul.c **** 	uint16_t c[2 * SABER_N] = {0};
 893              		.loc 1 234 0
 894 000c 4FF48062 		mov	r2, #1024
 895              	.LVL156:
 896 0010 0021     		movs	r1, #0
 897              	.LVL157:
 898 0012 6846     		mov	r0, sp
 899              	.LVL158:
 900 0014 FFF7FEFF 		bl	memset
 901              	.LVL159:
 235:..\poly_mul.c **** 	int i;
 236:..\poly_mul.c **** 
 237:..\poly_mul.c **** 	toom_cook_4way(a, b, c);
 902              		.loc 1 237 0
 903 0018 6A46     		mov	r2, sp
 904 001a 3146     		mov	r1, r6
 905 001c 2846     		mov	r0, r5
 906 001e FFF7FEFF 		bl	toom_cook_4way
 907              	.LVL160:
 238:..\poly_mul.c **** 
 239:..\poly_mul.c **** 	/* reduction */
 240:..\poly_mul.c **** 	for (i = SABER_N; i < 2 * SABER_N; i++)
 908              		.loc 1 240 0
 909 0022 4FF48073 		mov	r3, #256
 910 0026 10E0     		b	.L26
 911              	.LVL161:
 912              	.L27:
 241:..\poly_mul.c **** 	{
 242:..\poly_mul.c **** 		res[i - SABER_N] += (c[i - SABER_N] - c[i]);
 913              		.loc 1 242 0 discriminator 3
 914 0028 03F10042 		add	r2, r3, #-2147483648
 915 002c A2F58072 		sub	r2, r2, #256
 916 0030 A3F58071 		sub	r1, r3, #256
 917 0034 3DF81110 		ldrh	r1, [sp, r1, lsl #1]
 918 0038 3DF81300 		ldrh	r0, [sp, r3, lsl #1]
 919 003c 081A     		subs	r0, r1, r0
 920 003e 34F81210 		ldrh	r1, [r4, r2, lsl #1]
 921 0042 0144     		add	r1, r1, r0
 922 0044 24F81210 		strh	r1, [r4, r2, lsl #1]	@ movhi
 240:..\poly_mul.c **** 	{
 923              		.loc 1 240 0 discriminator 3
 924 0048 0133     		adds	r3, r3, #1
 925              	.LVL162:
 926              	.L26:
 240:..\poly_mul.c **** 	{
 927              		.loc 1 240 0 is_stmt 0 discriminator 1
 928 004a B3F5007F 		cmp	r3, #512
 929 004e EBDB     		blt	.L27
ARM GAS  C:\Users\bogurad\AppData\Local\Temp\cc8qfBQJ.s 			page 22


 243:..\poly_mul.c **** 	}
 244:..\poly_mul.c **** }
 930              		.loc 1 244 0 is_stmt 1
 931 0050 0DF5806D 		add	sp, sp, #1024
 932              		.cfi_def_cfa_offset 16
 933              		@ sp needed
 934 0054 70BD     		pop	{r4, r5, r6, pc}
 935              		.cfi_endproc
 936              	.LFE3:
 937              		.size	poly_mul_acc, .-poly_mul_acc
 938 0056 00BF     		.section	.text.indcpa_kem_keypair,"ax",%progbits
 939              		.align	2
 940              		.global	indcpa_kem_keypair
 941              		.thumb
 942              		.thumb_func
 943              		.type	indcpa_kem_keypair, %function
 944              	indcpa_kem_keypair:
 945              	.LFB4:
 946              		.file 2 "..\\SABER_indcpa.c"
   1:..\SABER_indcpa.c **** #include <string.h>
   2:..\SABER_indcpa.c **** #include <stdint.h>
   3:..\SABER_indcpa.c **** #include "SABER_indcpa.h"
   4:..\SABER_indcpa.c **** #include "poly.h"
   5:..\SABER_indcpa.c **** #include "pack_unpack.h"
   6:..\SABER_indcpa.c **** #include "poly_mul.c"
   7:..\SABER_indcpa.c **** #include "randombytes.h"
   8:..\SABER_indcpa.c **** #include "fips202.h"
   9:..\SABER_indcpa.c **** #include "SABER_params.h"
  10:..\SABER_indcpa.c **** 
  11:..\SABER_indcpa.c **** #define h1 (1 << (SABER_EQ - SABER_EP - 1))
  12:..\SABER_indcpa.c **** #define h2 ((1 << (SABER_EP - 2)) - (1 << (SABER_EP - SABER_ET - 1)) + (1 << (SABER_EQ - SABER_EP -
  13:..\SABER_indcpa.c **** 
  14:..\SABER_indcpa.c **** void indcpa_kem_keypair(uint8_t pk[SABER_INDCPA_PUBLICKEYBYTES], uint8_t sk[SABER_INDCPA_SECRETKEYB
  15:..\SABER_indcpa.c **** {
 947              		.loc 2 15 0
 948              		.cfi_startproc
 949              		@ args = 0, pretend = 0, frame = 12352
 950              		@ frame_needed = 0, uses_anonymous_args = 0
 951              	.LVL163:
 952 0000 70B5     		push	{r4, r5, r6, lr}
 953              		.cfi_def_cfa_offset 16
 954              		.cfi_offset 4, -16
 955              		.cfi_offset 5, -12
 956              		.cfi_offset 6, -8
 957              		.cfi_offset 14, -4
 958 0002 ADF5415D 		sub	sp, sp, #12352
 959              		.cfi_def_cfa_offset 12368
 960 0006 84B0     		sub	sp, sp, #16
 961              		.cfi_def_cfa_offset 12384
 962 0008 0446     		mov	r4, r0
 963 000a 0D46     		mov	r5, r1
  16:..\SABER_indcpa.c **** 	uint16_t A[SABER_L][SABER_L][SABER_N];
  17:..\SABER_indcpa.c **** 	uint16_t s[SABER_L][SABER_N];
  18:..\SABER_indcpa.c **** 	uint16_t b[SABER_L][SABER_N] = {0};
 964              		.loc 2 18 0
 965 000c 4FF40062 		mov	r2, #2048
 966 0010 0021     		movs	r1, #0
ARM GAS  C:\Users\bogurad\AppData\Local\Temp\cc8qfBQJ.s 			page 23


 967              	.LVL164:
 968 0012 14A8     		add	r0, sp, #80
 969              	.LVL165:
 970 0014 FFF7FEFF 		bl	memset
 971              	.LVL166:
  19:..\SABER_indcpa.c **** 
  20:..\SABER_indcpa.c **** 	uint8_t seed_A[SABER_SEEDBYTES];
  21:..\SABER_indcpa.c **** 	uint8_t seed_s[SABER_NOISE_SEEDBYTES];
  22:..\SABER_indcpa.c **** 	int i, j;
  23:..\SABER_indcpa.c **** 
  24:..\SABER_indcpa.c **** 	randombytes(seed_A, SABER_SEEDBYTES);
 972              		.loc 2 24 0
 973 0018 0CAE     		add	r6, sp, #48
 974 001a 2021     		movs	r1, #32
 975 001c 3046     		mov	r0, r6
 976 001e FFF7FEFF 		bl	randombytes
 977              	.LVL167:
  25:..\SABER_indcpa.c **** 	shake128(seed_A, SABER_SEEDBYTES, seed_A, SABER_SEEDBYTES); // for not revealing system RNG state
 978              		.loc 2 25 0
 979 0022 2022     		movs	r2, #32
 980 0024 0023     		movs	r3, #0
 981 0026 CDE90223 		strd	r2, [sp, #8]
 982 002a 0096     		str	r6, [sp]
 983 002c 3046     		mov	r0, r6
 984 002e FFF7FEFF 		bl	shake128
 985              	.LVL168:
  26:..\SABER_indcpa.c **** 	randombytes(seed_s, SABER_NOISE_SEEDBYTES);
 986              		.loc 2 26 0
 987 0032 2021     		movs	r1, #32
 988 0034 04A8     		add	r0, sp, #16
 989 0036 FFF7FEFF 		bl	randombytes
 990              	.LVL169:
  27:..\SABER_indcpa.c **** 
  28:..\SABER_indcpa.c **** 	GenMatrix(A, seed_A);
 991              		.loc 2 28 0
 992 003a 3146     		mov	r1, r6
 993 003c 0DF58250 		add	r0, sp, #4160
 994 0040 1030     		adds	r0, r0, #16
 995 0042 FFF7FEFF 		bl	GenMatrix
 996              	.LVL170:
  29:..\SABER_indcpa.c **** 	GenSecret(s, seed_s);
 997              		.loc 2 29 0
 998 0046 04A9     		add	r1, sp, #16
 999 0048 0DF50560 		add	r0, sp, #2128
 1000 004c FFF7FEFF 		bl	GenSecret
 1001              	.LVL171:
  30:..\SABER_indcpa.c **** 	MatrixVectorMul(A, s, b, 1);
 1002              		.loc 2 30 0
 1003 0050 0123     		movs	r3, #1
 1004 0052 14AA     		add	r2, sp, #80
 1005 0054 0DF50561 		add	r1, sp, #2128
 1006 0058 0DF58250 		add	r0, sp, #4160
 1007 005c 1030     		adds	r0, r0, #16
 1008 005e FFF7FEFF 		bl	MatrixVectorMul
 1009              	.LVL172:
  31:..\SABER_indcpa.c **** 
  32:..\SABER_indcpa.c **** 	for (i = 0; i < SABER_L; i++)
ARM GAS  C:\Users\bogurad\AppData\Local\Temp\cc8qfBQJ.s 			page 24


 1010              		.loc 2 32 0
 1011 0062 0026     		movs	r6, #0
 1012 0064 0EE0     		b	.L30
 1013              	.LVL173:
 1014              	.L31:
  33:..\SABER_indcpa.c **** 	{
  34:..\SABER_indcpa.c **** 		for (j = 0; j < SABER_N; j++)
  35:..\SABER_indcpa.c **** 		{
  36:..\SABER_indcpa.c **** 			b[i][j] = (b[i][j] + h1) >> (SABER_EQ - SABER_EP);
 1015              		.loc 2 36 0 discriminator 3
 1016 0066 14A9     		add	r1, sp, #80
 1017 0068 02EB0620 		add	r0, r2, r6, lsl #8
 1018 006c 31F81030 		ldrh	r3, [r1, r0, lsl #1]
 1019 0070 0433     		adds	r3, r3, #4
 1020 0072 DB10     		asrs	r3, r3, #3
 1021 0074 21F81030 		strh	r3, [r1, r0, lsl #1]	@ movhi
  34:..\SABER_indcpa.c **** 		{
 1022              		.loc 2 34 0 discriminator 3
 1023 0078 0132     		adds	r2, r2, #1
 1024              	.LVL174:
 1025 007a 00E0     		b	.L32
 1026              	.LVL175:
 1027              	.L33:
 1028 007c 0022     		movs	r2, #0
 1029              	.L32:
 1030              	.LVL176:
  34:..\SABER_indcpa.c **** 		{
 1031              		.loc 2 34 0 is_stmt 0 discriminator 1
 1032 007e FF2A     		cmp	r2, #255
 1033 0080 F1DD     		ble	.L31
  32:..\SABER_indcpa.c **** 	{
 1034              		.loc 2 32 0 is_stmt 1 discriminator 2
 1035 0082 0136     		adds	r6, r6, #1
 1036              	.LVL177:
 1037              	.L30:
  32:..\SABER_indcpa.c **** 	{
 1038              		.loc 2 32 0 is_stmt 0 discriminator 1
 1039 0084 032E     		cmp	r6, #3
 1040 0086 F9DD     		ble	.L33
  37:..\SABER_indcpa.c **** 		}
  38:..\SABER_indcpa.c **** 	}
  39:..\SABER_indcpa.c **** 
  40:..\SABER_indcpa.c **** 	POLVECq2BS(sk, s);
 1041              		.loc 2 40 0 is_stmt 1
 1042 0088 0DF50561 		add	r1, sp, #2128
 1043 008c 2846     		mov	r0, r5
 1044 008e FFF7FEFF 		bl	POLVECq2BS
 1045              	.LVL178:
  41:..\SABER_indcpa.c **** 	POLVECp2BS(pk, b);
 1046              		.loc 2 41 0
 1047 0092 14A9     		add	r1, sp, #80
 1048 0094 2046     		mov	r0, r4
 1049 0096 FFF7FEFF 		bl	POLVECp2BS
 1050              	.LVL179:
  42:..\SABER_indcpa.c **** 	memcpy(pk + SABER_POLYVECCOMPRESSEDBYTES, seed_A, sizeof(seed_A));
 1051              		.loc 2 42 0
 1052 009a 0CAD     		add	r5, sp, #48
ARM GAS  C:\Users\bogurad\AppData\Local\Temp\cc8qfBQJ.s 			page 25


 1053              	.LVL180:
 1054 009c 0FCD     		ldmia	r5!, {r0, r1, r2, r3}
 1055 009e C4F80005 		str	r0, [r4, #1280]	@ unaligned
 1056 00a2 C4F80415 		str	r1, [r4, #1284]	@ unaligned
 1057 00a6 C4F80825 		str	r2, [r4, #1288]	@ unaligned
 1058 00aa C4F80C35 		str	r3, [r4, #1292]	@ unaligned
 1059 00ae 0FCD     		ldmia	r5!, {r0, r1, r2, r3}
 1060 00b0 C4F81005 		str	r0, [r4, #1296]	@ unaligned
 1061 00b4 C4F81415 		str	r1, [r4, #1300]	@ unaligned
 1062 00b8 C4F81825 		str	r2, [r4, #1304]	@ unaligned
 1063 00bc C4F81C35 		str	r3, [r4, #1308]	@ unaligned
  43:..\SABER_indcpa.c **** }
 1064              		.loc 2 43 0
 1065 00c0 0DF5415D 		add	sp, sp, #12352
 1066 00c4 04B0     		add	sp, sp, #16
 1067              		.cfi_def_cfa_offset 16
 1068              		@ sp needed
 1069 00c6 70BD     		pop	{r4, r5, r6, pc}
 1070              		.cfi_endproc
 1071              	.LFE4:
 1072              		.size	indcpa_kem_keypair, .-indcpa_kem_keypair
 1073              		.section	.text.indcpa_kem_enc,"ax",%progbits
 1074              		.align	2
 1075              		.global	indcpa_kem_enc
 1076              		.thumb
 1077              		.thumb_func
 1078              		.type	indcpa_kem_enc, %function
 1079              	indcpa_kem_enc:
 1080              	.LFB5:
  44:..\SABER_indcpa.c **** 
  45:..\SABER_indcpa.c **** void indcpa_kem_enc(const uint8_t m[SABER_KEYBYTES], const uint8_t seed_sp[SABER_NOISE_SEEDBYTES], 
  46:..\SABER_indcpa.c **** {
 1081              		.loc 2 46 0
 1082              		.cfi_startproc
 1083              		@ args = 0, pretend = 0, frame = 15360
 1084              		@ frame_needed = 0, uses_anonymous_args = 0
 1085              	.LVL181:
 1086 0000 F0B5     		push	{r4, r5, r6, r7, lr}
 1087              		.cfi_def_cfa_offset 20
 1088              		.cfi_offset 4, -20
 1089              		.cfi_offset 5, -16
 1090              		.cfi_offset 6, -12
 1091              		.cfi_offset 7, -8
 1092              		.cfi_offset 14, -4
 1093 0002 ADF5705D 		sub	sp, sp, #15360
 1094              		.cfi_def_cfa_offset 15380
 1095 0006 81B0     		sub	sp, sp, #4
 1096              		.cfi_def_cfa_offset 15384
 1097 0008 0646     		mov	r6, r0
 1098 000a 0F46     		mov	r7, r1
 1099 000c 1546     		mov	r5, r2
 1100 000e 1C46     		mov	r4, r3
  47:..\SABER_indcpa.c **** 	uint16_t A[SABER_L][SABER_L][SABER_N];
  48:..\SABER_indcpa.c **** 	uint16_t sp[SABER_L][SABER_N];
  49:..\SABER_indcpa.c **** 	uint16_t bp[SABER_L][SABER_N] = {0};
 1101              		.loc 2 49 0
 1102 0010 4FF40062 		mov	r2, #2048
ARM GAS  C:\Users\bogurad\AppData\Local\Temp\cc8qfBQJ.s 			page 26


 1103              	.LVL182:
 1104 0014 0021     		movs	r1, #0
 1105              	.LVL183:
 1106 0016 0DF54060 		add	r0, sp, #3072
 1107              	.LVL184:
 1108 001a FFF7FEFF 		bl	memset
 1109              	.LVL185:
  50:..\SABER_indcpa.c **** 	uint16_t vp[SABER_N] = {0};
 1110              		.loc 2 50 0
 1111 001e 4FF40072 		mov	r2, #512
 1112 0022 0021     		movs	r1, #0
 1113 0024 0DF52060 		add	r0, sp, #2560
 1114 0028 FFF7FEFF 		bl	memset
 1115              	.LVL186:
  51:..\SABER_indcpa.c **** 	uint16_t mp[SABER_N];
  52:..\SABER_indcpa.c **** 	uint16_t b[SABER_L][SABER_N];
  53:..\SABER_indcpa.c **** 	int i, j;
  54:..\SABER_indcpa.c **** 	const uint8_t *seed_A = pk + SABER_POLYVECCOMPRESSEDBYTES;
  55:..\SABER_indcpa.c **** 
  56:..\SABER_indcpa.c **** 	GenMatrix(A, seed_A);
 1116              		.loc 2 56 0
 1117 002c 05F5A061 		add	r1, r5, #1280
 1118              	.LVL187:
 1119 0030 0DF5E050 		add	r0, sp, #7168
 1120 0034 FFF7FEFF 		bl	GenMatrix
 1121              	.LVL188:
  57:..\SABER_indcpa.c **** 	GenSecret(sp, seed_sp);
 1122              		.loc 2 57 0
 1123 0038 3946     		mov	r1, r7
 1124 003a 0DF5A050 		add	r0, sp, #5120
 1125 003e FFF7FEFF 		bl	GenSecret
 1126              	.LVL189:
  58:..\SABER_indcpa.c **** 	MatrixVectorMul(A, sp, bp, 0);
 1127              		.loc 2 58 0
 1128 0042 0023     		movs	r3, #0
 1129 0044 0DF54062 		add	r2, sp, #3072
 1130 0048 0DF5A051 		add	r1, sp, #5120
 1131 004c 0DF5E050 		add	r0, sp, #7168
 1132 0050 FFF7FEFF 		bl	MatrixVectorMul
 1133              	.LVL190:
  59:..\SABER_indcpa.c **** 
  60:..\SABER_indcpa.c **** 	for (i = 0; i < SABER_L; i++)
 1134              		.loc 2 60 0
 1135 0054 0027     		movs	r7, #0
 1136              	.LVL191:
 1137 0056 0FE0     		b	.L36
 1138              	.LVL192:
 1139              	.L37:
  61:..\SABER_indcpa.c **** 	{
  62:..\SABER_indcpa.c **** 		for (j = 0; j < SABER_N; j++)
  63:..\SABER_indcpa.c **** 		{
  64:..\SABER_indcpa.c **** 			bp[i][j] = (bp[i][j] + h1) >> (SABER_EQ - SABER_EP);
 1140              		.loc 2 64 0 discriminator 3
 1141 0058 0DF54061 		add	r1, sp, #3072
 1142 005c 02EB0720 		add	r0, r2, r7, lsl #8
 1143 0060 31F81030 		ldrh	r3, [r1, r0, lsl #1]
 1144 0064 0433     		adds	r3, r3, #4
ARM GAS  C:\Users\bogurad\AppData\Local\Temp\cc8qfBQJ.s 			page 27


 1145 0066 DB10     		asrs	r3, r3, #3
 1146 0068 21F81030 		strh	r3, [r1, r0, lsl #1]	@ movhi
  62:..\SABER_indcpa.c **** 		{
 1147              		.loc 2 62 0 discriminator 3
 1148 006c 0132     		adds	r2, r2, #1
 1149              	.LVL193:
 1150 006e 00E0     		b	.L38
 1151              	.LVL194:
 1152              	.L41:
 1153 0070 0022     		movs	r2, #0
 1154              	.L38:
 1155              	.LVL195:
  62:..\SABER_indcpa.c **** 		{
 1156              		.loc 2 62 0 is_stmt 0 discriminator 1
 1157 0072 FF2A     		cmp	r2, #255
 1158 0074 F0DD     		ble	.L37
  60:..\SABER_indcpa.c **** 	{
 1159              		.loc 2 60 0 is_stmt 1 discriminator 2
 1160 0076 0137     		adds	r7, r7, #1
 1161              	.LVL196:
 1162              	.L36:
  60:..\SABER_indcpa.c **** 	{
 1163              		.loc 2 60 0 is_stmt 0 discriminator 1
 1164 0078 032F     		cmp	r7, #3
 1165 007a F9DD     		ble	.L41
  65:..\SABER_indcpa.c **** 		}
  66:..\SABER_indcpa.c **** 	}
  67:..\SABER_indcpa.c **** 
  68:..\SABER_indcpa.c **** 	POLVECp2BS(ciphertext, bp);
 1166              		.loc 2 68 0 is_stmt 1
 1167 007c 0DF54061 		add	r1, sp, #3072
 1168 0080 2046     		mov	r0, r4
 1169 0082 FFF7FEFF 		bl	POLVECp2BS
 1170              	.LVL197:
  69:..\SABER_indcpa.c **** 	BS2POLVECp(pk, b);
 1171              		.loc 2 69 0
 1172 0086 6946     		mov	r1, sp
 1173 0088 2846     		mov	r0, r5
 1174 008a FFF7FEFF 		bl	BS2POLVECp
 1175              	.LVL198:
  70:..\SABER_indcpa.c **** 	InnerProd(b, sp, vp);
 1176              		.loc 2 70 0
 1177 008e 0DF52062 		add	r2, sp, #2560
 1178 0092 0DF5A051 		add	r1, sp, #5120
 1179 0096 6846     		mov	r0, sp
 1180 0098 FFF7FEFF 		bl	InnerProd
 1181              	.LVL199:
  71:..\SABER_indcpa.c **** 
  72:..\SABER_indcpa.c **** 	BS2POLmsg(m, mp);
 1182              		.loc 2 72 0
 1183 009c 0DF50061 		add	r1, sp, #2048
 1184 00a0 3046     		mov	r0, r6
 1185 00a2 FFF7FEFF 		bl	BS2POLmsg
 1186              	.LVL200:
  73:..\SABER_indcpa.c **** 
  74:..\SABER_indcpa.c **** 	for (j = 0; j < SABER_N; j++)
 1187              		.loc 2 74 0
ARM GAS  C:\Users\bogurad\AppData\Local\Temp\cc8qfBQJ.s 			page 28


 1188 00a6 0022     		movs	r2, #0
 1189 00a8 0EE0     		b	.L39
 1190              	.LVL201:
 1191              	.L40:
  75:..\SABER_indcpa.c **** 	{
  76:..\SABER_indcpa.c **** 		vp[j] = (vp[j] - (mp[j] << (SABER_EP - 1)) + h1) >> (SABER_EP - SABER_ET);
 1192              		.loc 2 76 0 discriminator 3
 1193 00aa 0DF52061 		add	r1, sp, #2560
 1194 00ae 31F81230 		ldrh	r3, [r1, r2, lsl #1]
 1195 00b2 0DF50060 		add	r0, sp, #2048
 1196 00b6 30F81200 		ldrh	r0, [r0, r2, lsl #1]
 1197 00ba A3EB4023 		sub	r3, r3, r0, lsl #9
 1198 00be 0433     		adds	r3, r3, #4
 1199 00c0 1B11     		asrs	r3, r3, #4
 1200 00c2 21F81230 		strh	r3, [r1, r2, lsl #1]	@ movhi
  74:..\SABER_indcpa.c **** 	{
 1201              		.loc 2 74 0 discriminator 3
 1202 00c6 0132     		adds	r2, r2, #1
 1203              	.LVL202:
 1204              	.L39:
  74:..\SABER_indcpa.c **** 	{
 1205              		.loc 2 74 0 is_stmt 0 discriminator 1
 1206 00c8 FF2A     		cmp	r2, #255
 1207 00ca EEDD     		ble	.L40
  77:..\SABER_indcpa.c **** 	}
  78:..\SABER_indcpa.c **** 
  79:..\SABER_indcpa.c **** 	POLT2BS(ciphertext + SABER_POLYVECCOMPRESSEDBYTES, vp);
 1208              		.loc 2 79 0 is_stmt 1
 1209 00cc 0DF52061 		add	r1, sp, #2560
 1210 00d0 04F5A060 		add	r0, r4, #1280
 1211 00d4 FFF7FEFF 		bl	POLT2BS
 1212              	.LVL203:
  80:..\SABER_indcpa.c **** }
 1213              		.loc 2 80 0
 1214 00d8 0DF5705D 		add	sp, sp, #15360
 1215 00dc 01B0     		add	sp, sp, #4
 1216              		.cfi_def_cfa_offset 20
 1217              		@ sp needed
 1218 00de F0BD     		pop	{r4, r5, r6, r7, pc}
 1219              		.cfi_endproc
 1220              	.LFE5:
 1221              		.size	indcpa_kem_enc, .-indcpa_kem_enc
 1222              		.section	.text.indcpa_kem_dec,"ax",%progbits
 1223              		.align	2
 1224              		.global	indcpa_kem_dec
 1225              		.thumb
 1226              		.thumb_func
 1227              		.type	indcpa_kem_dec, %function
 1228              	indcpa_kem_dec:
 1229              	.LFB6:
  81:..\SABER_indcpa.c **** 
  82:..\SABER_indcpa.c **** void indcpa_kem_dec(const uint8_t sk[SABER_INDCPA_SECRETKEYBYTES], const uint8_t ciphertext[SABER_B
  83:..\SABER_indcpa.c **** {
 1230              		.loc 2 83 0
 1231              		.cfi_startproc
 1232              		@ args = 0, pretend = 0, frame = 5120
 1233              		@ frame_needed = 0, uses_anonymous_args = 0
ARM GAS  C:\Users\bogurad\AppData\Local\Temp\cc8qfBQJ.s 			page 29


 1234              	.LVL204:
 1235 0000 70B5     		push	{r4, r5, r6, lr}
 1236              		.cfi_def_cfa_offset 16
 1237              		.cfi_offset 4, -16
 1238              		.cfi_offset 5, -12
 1239              		.cfi_offset 6, -8
 1240              		.cfi_offset 14, -4
 1241 0002 ADF5A05D 		sub	sp, sp, #5120
 1242              		.cfi_def_cfa_offset 5136
 1243 0006 0646     		mov	r6, r0
 1244 0008 0D46     		mov	r5, r1
 1245 000a 1446     		mov	r4, r2
  84:..\SABER_indcpa.c **** 
  85:..\SABER_indcpa.c **** 	uint16_t s[SABER_L][SABER_N];
  86:..\SABER_indcpa.c **** 	uint16_t b[SABER_L][SABER_N];
  87:..\SABER_indcpa.c **** 	uint16_t v[SABER_N] = {0};
 1246              		.loc 2 87 0
 1247 000c 4FF40072 		mov	r2, #512
 1248              	.LVL205:
 1249 0010 0021     		movs	r1, #0
 1250              	.LVL206:
 1251 0012 0DEB0200 		add	r0, sp, r2
 1252              	.LVL207:
 1253 0016 FFF7FEFF 		bl	memset
 1254              	.LVL208:
  88:..\SABER_indcpa.c **** 	uint16_t cm[SABER_N];
  89:..\SABER_indcpa.c **** 	int i;
  90:..\SABER_indcpa.c **** 
  91:..\SABER_indcpa.c **** 	BS2POLVECq(sk, s);
 1255              		.loc 2 91 0
 1256 001a 0DF54061 		add	r1, sp, #3072
 1257 001e 3046     		mov	r0, r6
 1258 0020 FFF7FEFF 		bl	BS2POLVECq
 1259              	.LVL209:
  92:..\SABER_indcpa.c **** 	BS2POLVECp(ciphertext, b);
 1260              		.loc 2 92 0
 1261 0024 0DF58061 		add	r1, sp, #1024
 1262 0028 2846     		mov	r0, r5
 1263 002a FFF7FEFF 		bl	BS2POLVECp
 1264              	.LVL210:
  93:..\SABER_indcpa.c **** 	InnerProd(b, s, v);
 1265              		.loc 2 93 0
 1266 002e 80AA     		add	r2, sp, #512
 1267 0030 0DF54061 		add	r1, sp, #3072
 1268 0034 0DF58060 		add	r0, sp, #1024
 1269 0038 FFF7FEFF 		bl	InnerProd
 1270              	.LVL211:
  94:..\SABER_indcpa.c **** 	BS2POLT(ciphertext + SABER_POLYVECCOMPRESSEDBYTES, cm);
 1271              		.loc 2 94 0
 1272 003c 6946     		mov	r1, sp
 1273 003e 05F5A060 		add	r0, r5, #1280
 1274 0042 FFF7FEFF 		bl	BS2POLT
 1275              	.LVL212:
  95:..\SABER_indcpa.c **** 
  96:..\SABER_indcpa.c **** 	for (i = 0; i < SABER_N; i++)
 1276              		.loc 2 96 0
 1277 0046 0022     		movs	r2, #0
ARM GAS  C:\Users\bogurad\AppData\Local\Temp\cc8qfBQJ.s 			page 30


 1278 0048 0BE0     		b	.L44
 1279              	.LVL213:
 1280              	.L45:
  97:..\SABER_indcpa.c **** 	{
  98:..\SABER_indcpa.c **** 		v[i] = (v[i] + h2 - (cm[i] << (SABER_EP - SABER_ET))) >> (SABER_EP - 1);
 1281              		.loc 2 98 0 discriminator 3
 1282 004a 80A9     		add	r1, sp, #512
 1283 004c 31F81230 		ldrh	r3, [r1, r2, lsl #1]
 1284 0050 FC33     		adds	r3, r3, #252
 1285 0052 3DF81200 		ldrh	r0, [sp, r2, lsl #1]
 1286 0056 A3EB0013 		sub	r3, r3, r0, lsl #4
 1287 005a 5B12     		asrs	r3, r3, #9
 1288 005c 21F81230 		strh	r3, [r1, r2, lsl #1]	@ movhi
  96:..\SABER_indcpa.c **** 	{
 1289              		.loc 2 96 0 discriminator 3
 1290 0060 0132     		adds	r2, r2, #1
 1291              	.LVL214:
 1292              	.L44:
  96:..\SABER_indcpa.c **** 	{
 1293              		.loc 2 96 0 is_stmt 0 discriminator 1
 1294 0062 FF2A     		cmp	r2, #255
 1295 0064 F1DD     		ble	.L45
  99:..\SABER_indcpa.c **** 	}
 100:..\SABER_indcpa.c **** 
 101:..\SABER_indcpa.c **** 	POLmsg2BS(m, v);
 1296              		.loc 2 101 0 is_stmt 1
 1297 0066 80A9     		add	r1, sp, #512
 1298 0068 2046     		mov	r0, r4
 1299 006a FFF7FEFF 		bl	POLmsg2BS
 1300              	.LVL215:
 102:..\SABER_indcpa.c **** }
 1301              		.loc 2 102 0
 1302 006e 0DF5A05D 		add	sp, sp, #5120
 1303              		.cfi_def_cfa_offset 16
 1304              		@ sp needed
 1305 0072 70BD     		pop	{r4, r5, r6, pc}
 1306              		.cfi_endproc
 1307              	.LFE6:
 1308              		.size	indcpa_kem_dec, .-indcpa_kem_dec
 1309              		.text
 1310              	.Letext0:
 1311              		.file 3 "c:\\program files (x86)\\cypress\\psoc creator\\4.4\\psoc creator\\import\\gnu\\arm\\5.4.
 1312              		.file 4 "c:\\program files (x86)\\cypress\\psoc creator\\4.4\\psoc creator\\import\\gnu\\arm\\5.4.
 1313              		.file 5 "..\\randombytes.h"
 1314              		.file 6 "..\\fips202.h"
 1315              		.file 7 "..\\poly.h"
 1316              		.file 8 "..\\pack_unpack.h"