ARM GAS  C:\Users\bogur\AppData\Local\Temp\ccy48QOd.s 			page 1


   1              		.syntax unified
   2              		.cpu cortex-m0plus
   3              		.fpu softvfp
   4              		.eabi_attribute 20, 1
   5              		.eabi_attribute 21, 1
   6              		.eabi_attribute 23, 3
   7              		.eabi_attribute 24, 1
   8              		.eabi_attribute 25, 1
   9              		.eabi_attribute 26, 1
  10              		.eabi_attribute 30, 1
  11              		.eabi_attribute 34, 0
  12              		.eabi_attribute 18, 4
  13              		.thumb
  14              		.syntax unified
  15              		.file	"stringFormater.c"
  16              		.text
  17              	.Ltext0:
  18              		.cfi_sections	.debug_frame
  19              		.section	.text.crc8,"ax",%progbits
  20              		.align	2
  21              		.global	crc8
  22              		.code	16
  23              		.thumb_func
  24              		.type	crc8, %function
  25              	crc8:
  26              	.LFB0:
  27              		.file 1 "..\\..\\..\\stringFormater.c"
   1:..\..\../stringFormater.c **** /* ========================================
   2:..\..\../stringFormater.c ****  *
   3:..\..\../stringFormater.c ****  * Copyright YOUR COMPANY, THE YEAR
   4:..\..\../stringFormater.c ****  * All Rights Reserved
   5:..\..\../stringFormater.c ****  * UNPUBLISHED, LICENSED SOFTWARE.
   6:..\..\../stringFormater.c ****  *
   7:..\..\../stringFormater.c ****  * CONFIDENTIAL AND PROPRIETARY INFORMATION
   8:..\..\../stringFormater.c ****  * WHICH IS THE PROPERTY OF your company.
   9:..\..\../stringFormater.c ****  *
  10:..\..\../stringFormater.c ****  * ========================================
  11:..\..\../stringFormater.c **** */
  12:..\..\../stringFormater.c **** #include "stringFormater.h"
  13:..\..\../stringFormater.c **** #include <string.h>
  14:..\..\../stringFormater.c **** 
  15:..\..\../stringFormater.c **** uint8_t crc8(const uint8_t *data, uint16_t len)
  16:..\..\../stringFormater.c **** {
  28              		.loc 1 16 0
  29              		.cfi_startproc
  30              		@ args = 0, pretend = 0, frame = 0
  31              		@ frame_needed = 0, uses_anonymous_args = 0
  32              	.LVL0:
  33 0000 30B5     		push	{r4, r5, lr}
  34              		.cfi_def_cfa_offset 12
  35              		.cfi_offset 4, -12
  36              		.cfi_offset 5, -8
  37              		.cfi_offset 14, -4
  38              	.LVL1:
  17:..\..\../stringFormater.c ****     uint8_t crc = 0x00;
  39              		.loc 1 17 0
  40 0002 0022     		movs	r2, #0
ARM GAS  C:\Users\bogur\AppData\Local\Temp\ccy48QOd.s 			page 2


  18:..\..\../stringFormater.c ****     while (len--) {
  41              		.loc 1 18 0
  42 0004 13E0     		b	.L2
  43              	.LVL2:
  44              	.L6:
  45              	.LBB2:
  19:..\..\../stringFormater.c ****         uint8_t extract = *data++;
  46              		.loc 1 19 0
  47 0006 451C     		adds	r5, r0, #1
  48              	.LVL3:
  49 0008 0178     		ldrb	r1, [r0]
  50              	.LVL4:
  51              	.LBB3:
  20:..\..\../stringFormater.c ****         for (uint8_t i = 8; i; i--) {
  52              		.loc 1 20 0
  53 000a 0823     		movs	r3, #8
  54 000c 0BE0     		b	.L3
  55              	.LVL5:
  56              	.L5:
  57              	.LBB4:
  21:..\..\../stringFormater.c ****             uint8_t sum = (crc ^ extract) & 0x01;
  58              		.loc 1 21 0
  59 000e 1000     		movs	r0, r2
  60 0010 4840     		eors	r0, r1
  61              	.LVL6:
  22:..\..\../stringFormater.c ****             crc >>= 1;
  62              		.loc 1 22 0
  63 0012 5208     		lsrs	r2, r2, #1
  64              	.LVL7:
  23:..\..\../stringFormater.c ****             if (sum)
  65              		.loc 1 23 0
  66 0014 C007     		lsls	r0, r0, #31
  67 0016 03D5     		bpl	.L4
  68              	.LVL8:
  24:..\..\../stringFormater.c ****                 crc ^= 0x8C;
  69              		.loc 1 24 0
  70 0018 7420     		movs	r0, #116
  71 001a 4042     		rsbs	r0, r0, #0
  72 001c 4240     		eors	r2, r0
  73              	.LVL9:
  74 001e D2B2     		uxtb	r2, r2
  75              	.LVL10:
  76              	.L4:
  25:..\..\../stringFormater.c ****             extract >>= 1;
  77              		.loc 1 25 0 discriminator 2
  78 0020 4908     		lsrs	r1, r1, #1
  79              	.LVL11:
  80              	.LBE4:
  20:..\..\../stringFormater.c ****             uint8_t sum = (crc ^ extract) & 0x01;
  81              		.loc 1 20 0 discriminator 2
  82 0022 013B     		subs	r3, r3, #1
  83              	.LVL12:
  84 0024 DBB2     		uxtb	r3, r3
  85              	.LVL13:
  86              	.L3:
  20:..\..\../stringFormater.c ****             uint8_t sum = (crc ^ extract) & 0x01;
  87              		.loc 1 20 0 is_stmt 0 discriminator 1
ARM GAS  C:\Users\bogur\AppData\Local\Temp\ccy48QOd.s 			page 3


  88 0026 002B     		cmp	r3, #0
  89 0028 F1D1     		bne	.L5
  90              	.LBE3:
  91              	.LBE2:
  18:..\..\../stringFormater.c ****         uint8_t extract = *data++;
  92              		.loc 1 18 0 is_stmt 1
  93 002a 2100     		movs	r1, r4
  94              	.LVL14:
  95              	.LBB5:
  19:..\..\../stringFormater.c ****         for (uint8_t i = 8; i; i--) {
  96              		.loc 1 19 0
  97 002c 2800     		movs	r0, r5
  98              	.LVL15:
  99              	.L2:
 100              	.LBE5:
  18:..\..\../stringFormater.c ****         uint8_t extract = *data++;
 101              		.loc 1 18 0
 102 002e 4B1E     		subs	r3, r1, #1
 103 0030 9CB2     		uxth	r4, r3
 104              	.LVL16:
 105 0032 0029     		cmp	r1, #0
 106 0034 E7D1     		bne	.L6
  26:..\..\../stringFormater.c ****         }
  27:..\..\../stringFormater.c ****     }
  28:..\..\../stringFormater.c ****     return crc;
  29:..\..\../stringFormater.c **** }
 107              		.loc 1 29 0
 108 0036 1000     		movs	r0, r2
 109              	.LVL17:
 110              		@ sp needed
 111              	.LVL18:
 112 0038 30BD     		pop	{r4, r5, pc}
 113              		.cfi_endproc
 114              	.LFE0:
 115              		.size	crc8, .-crc8
 116 003a C046     		.section	.text.build_message,"ax",%progbits
 117              		.align	2
 118              		.global	build_message
 119              		.code	16
 120              		.thumb_func
 121              		.type	build_message, %function
 122              	build_message:
 123              	.LFB1:
  30:..\..\../stringFormater.c **** 
  31:..\..\../stringFormater.c **** int build_message(const uint8_t *payload, uint16_t length, uint8_t *frame)
  32:..\..\../stringFormater.c **** {
 124              		.loc 1 32 0
 125              		.cfi_startproc
 126              		@ args = 0, pretend = 0, frame = 0
 127              		@ frame_needed = 0, uses_anonymous_args = 0
 128              	.LVL19:
 129 0000 70B5     		push	{r4, r5, r6, lr}
 130              		.cfi_def_cfa_offset 16
 131              		.cfi_offset 4, -16
 132              		.cfi_offset 5, -12
 133              		.cfi_offset 6, -8
 134              		.cfi_offset 14, -4
ARM GAS  C:\Users\bogur\AppData\Local\Temp\ccy48QOd.s 			page 4


 135 0002 0600     		movs	r6, r0
 136 0004 0C00     		movs	r4, r1
 137 0006 1500     		movs	r5, r2
  33:..\..\../stringFormater.c ****     if (payload == NULL || frame == NULL)
 138              		.loc 1 33 0
 139 0008 0028     		cmp	r0, #0
 140 000a 17D0     		beq	.L9
 141              		.loc 1 33 0 is_stmt 0 discriminator 1
 142 000c 002A     		cmp	r2, #0
 143 000e 18D0     		beq	.L10
  34:..\..\../stringFormater.c ****         return -1;
  35:..\..\../stringFormater.c **** 
  36:..\..\../stringFormater.c ****     if (length > MAXIMUM_LENGTH)
 144              		.loc 1 36 0 is_stmt 1
 145 0010 8023     		movs	r3, #128
 146 0012 9B01     		lsls	r3, r3, #6
 147 0014 9942     		cmp	r1, r3
 148 0016 17D8     		bhi	.L11
  37:..\..\../stringFormater.c ****         return -1; // too long
  38:..\..\../stringFormater.c **** 
  39:..\..\../stringFormater.c ****     frame[0] = START_BYTE;
 149              		.loc 1 39 0
 150 0018 0223     		movs	r3, #2
 151 001a 1370     		strb	r3, [r2]
  40:..\..\../stringFormater.c ****     frame[1] = (length >> 8) & 0xFF;
 152              		.loc 1 40 0
 153 001c 0B0A     		lsrs	r3, r1, #8
 154 001e 5370     		strb	r3, [r2, #1]
  41:..\..\../stringFormater.c ****     frame[2] = length & 0xFF;
 155              		.loc 1 41 0
 156 0020 A970     		strb	r1, [r5, #2]
  42:..\..\../stringFormater.c **** 
  43:..\..\../stringFormater.c ****     memcpy(&frame[3], payload, length);
 157              		.loc 1 43 0
 158 0022 D01C     		adds	r0, r2, #3
 159              	.LVL20:
 160 0024 0A00     		movs	r2, r1
 161              	.LVL21:
 162 0026 3100     		movs	r1, r6
 163              	.LVL22:
 164 0028 FFF7FEFF 		bl	memcpy
 165              	.LVL23:
  44:..\..\../stringFormater.c **** 
  45:..\..\../stringFormater.c ****     uint8_t crc = crc8(payload, length);
 166              		.loc 1 45 0
 167 002c 2100     		movs	r1, r4
 168 002e 3000     		movs	r0, r6
 169 0030 FFF7FEFF 		bl	crc8
 170              	.LVL24:
  46:..\..\../stringFormater.c ****     frame[3 + length] = crc;
 171              		.loc 1 46 0
 172 0034 E31C     		adds	r3, r4, #3
 173 0036 E854     		strb	r0, [r5, r3]
  47:..\..\../stringFormater.c **** 
  48:..\..\../stringFormater.c ****     return (int)(length + 4); // total frame length
 174              		.loc 1 48 0
 175 0038 201D     		adds	r0, r4, #4
ARM GAS  C:\Users\bogur\AppData\Local\Temp\ccy48QOd.s 			page 5


 176              	.LVL25:
 177 003a 07E0     		b	.L8
 178              	.LVL26:
 179              	.L9:
  34:..\..\../stringFormater.c **** 
 180              		.loc 1 34 0
 181 003c 0120     		movs	r0, #1
 182              	.LVL27:
 183 003e 4042     		rsbs	r0, r0, #0
 184 0040 04E0     		b	.L8
 185              	.LVL28:
 186              	.L10:
 187 0042 0120     		movs	r0, #1
 188              	.LVL29:
 189 0044 4042     		rsbs	r0, r0, #0
 190 0046 01E0     		b	.L8
 191              	.LVL30:
 192              	.L11:
  37:..\..\../stringFormater.c **** 
 193              		.loc 1 37 0
 194 0048 0120     		movs	r0, #1
 195              	.LVL31:
 196 004a 4042     		rsbs	r0, r0, #0
 197              	.LVL32:
 198              	.L8:
  49:..\..\../stringFormater.c **** }
 199              		.loc 1 49 0
 200              		@ sp needed
 201              	.LVL33:
 202              	.LVL34:
 203 004c 70BD     		pop	{r4, r5, r6, pc}
 204              		.cfi_endproc
 205              	.LFE1:
 206              		.size	build_message, .-build_message
 207 004e C046     		.section	.text.verify_message,"ax",%progbits
 208              		.align	2
 209              		.global	verify_message
 210              		.code	16
 211              		.thumb_func
 212              		.type	verify_message, %function
 213              	verify_message:
 214              	.LFB2:
  50:..\..\../stringFormater.c **** 
  51:..\..\../stringFormater.c **** int verify_message(const uint8_t *frame, uint16_t total_len)
  52:..\..\../stringFormater.c **** {
 215              		.loc 1 52 0
 216              		.cfi_startproc
 217              		@ args = 0, pretend = 0, frame = 0
 218              		@ frame_needed = 0, uses_anonymous_args = 0
 219              	.LVL35:
 220 0000 70B5     		push	{r4, r5, r6, lr}
 221              		.cfi_def_cfa_offset 16
 222              		.cfi_offset 4, -16
 223              		.cfi_offset 5, -12
 224              		.cfi_offset 6, -8
 225              		.cfi_offset 14, -4
 226 0002 041E     		subs	r4, r0, #0
ARM GAS  C:\Users\bogur\AppData\Local\Temp\ccy48QOd.s 			page 6


  53:..\..\../stringFormater.c ****     if (frame == NULL)
 227              		.loc 1 53 0
 228 0004 16D0     		beq	.L14
  54:..\..\../stringFormater.c ****         return 0;
  55:..\..\../stringFormater.c **** 
  56:..\..\../stringFormater.c ****     if (total_len < 4)
 229              		.loc 1 56 0
 230 0006 0329     		cmp	r1, #3
 231 0008 16D9     		bls	.L15
  57:..\..\../stringFormater.c ****         return 0;
  58:..\..\../stringFormater.c **** 
  59:..\..\../stringFormater.c ****     if (frame[0] != START_BYTE)
 232              		.loc 1 59 0
 233 000a 0378     		ldrb	r3, [r0]
 234 000c 022B     		cmp	r3, #2
 235 000e 15D1     		bne	.L16
  60:..\..\../stringFormater.c ****         return 0;
  61:..\..\../stringFormater.c **** 
  62:..\..\../stringFormater.c ****     uint16_t length = ((uint16_t)frame[1] << 8) | frame[2];
 236              		.loc 1 62 0
 237 0010 4578     		ldrb	r5, [r0, #1]
 238 0012 2D02     		lsls	r5, r5, #8
 239 0014 8378     		ldrb	r3, [r0, #2]
 240 0016 1D43     		orrs	r5, r3
 241              	.LVL36:
  63:..\..\../stringFormater.c ****     if ((length + 4) != total_len)
 242              		.loc 1 63 0
 243 0018 2B1D     		adds	r3, r5, #4
 244 001a 8B42     		cmp	r3, r1
 245 001c 10D1     		bne	.L17
  64:..\..\../stringFormater.c ****         return 0;
  65:..\..\../stringFormater.c **** 
  66:..\..\../stringFormater.c ****     uint8_t crc_calc = crc8(&frame[3], length);
 246              		.loc 1 66 0
 247 001e 0330     		adds	r0, r0, #3
 248              	.LVL37:
 249 0020 2900     		movs	r1, r5
 250              	.LVL38:
 251 0022 FFF7FEFF 		bl	crc8
 252              	.LVL39:
  67:..\..\../stringFormater.c ****     uint8_t crc_recv = frame[3 + length];
 253              		.loc 1 67 0
 254 0026 0335     		adds	r5, r5, #3
 255              	.LVL40:
 256 0028 635D     		ldrb	r3, [r4, r5]
 257              	.LVL41:
  68:..\..\../stringFormater.c **** 
  69:..\..\../stringFormater.c ****     return (crc_calc == crc_recv);
 258              		.loc 1 69 0
 259 002a C01A     		subs	r0, r0, r3
 260              	.LVL42:
 261 002c 4342     		rsbs	r3, r0, #0
 262 002e 5841     		adcs	r0, r0, r3
 263              	.LVL43:
 264 0030 C0B2     		uxtb	r0, r0
 265 0032 06E0     		b	.L13
 266              	.LVL44:
ARM GAS  C:\Users\bogur\AppData\Local\Temp\ccy48QOd.s 			page 7


 267              	.L14:
  54:..\..\../stringFormater.c **** 
 268              		.loc 1 54 0
 269 0034 0020     		movs	r0, #0
 270              	.LVL45:
 271 0036 04E0     		b	.L13
 272              	.LVL46:
 273              	.L15:
  57:..\..\../stringFormater.c **** 
 274              		.loc 1 57 0
 275 0038 0020     		movs	r0, #0
 276              	.LVL47:
 277 003a 02E0     		b	.L13
 278              	.LVL48:
 279              	.L16:
  60:..\..\../stringFormater.c **** 
 280              		.loc 1 60 0
 281 003c 0020     		movs	r0, #0
 282              	.LVL49:
 283 003e 00E0     		b	.L13
 284              	.LVL50:
 285              	.L17:
  64:..\..\../stringFormater.c **** 
 286              		.loc 1 64 0
 287 0040 0020     		movs	r0, #0
 288              	.LVL51:
 289              	.L13:
  70:..\..\../stringFormater.c **** }
 290              		.loc 1 70 0
 291              		@ sp needed
 292              	.LVL52:
 293 0042 70BD     		pop	{r4, r5, r6, pc}
 294              		.cfi_endproc
 295              	.LFE2:
 296              		.size	verify_message, .-verify_message
 297              		.text
 298              	.Letext0:
 299              		.file 2 "c:\\program files (x86)\\cypress\\psoc creator\\4.4\\psoc creator\\import\\gnu\\arm\\5.4.
 300              		.file 3 "c:\\program files (x86)\\cypress\\psoc creator\\4.4\\psoc creator\\import\\gnu\\arm\\5.4.